ARM GAS  /tmp/ccGKa4GA.s 			page 1


   1              		.cpu cortex-m0
   2              		.eabi_attribute 20, 1	@ Tag_ABI_FP_denormal
   3              		.eabi_attribute 21, 1	@ Tag_ABI_FP_exceptions
   4              		.eabi_attribute 23, 3	@ Tag_ABI_FP_number_model
   5              		.eabi_attribute 24, 1	@ Tag_ABI_align8_needed
   6              		.eabi_attribute 25, 1	@ Tag_ABI_align8_preserved
   7              		.eabi_attribute 26, 1	@ Tag_ABI_enum_size
   8              		.eabi_attribute 30, 2	@ Tag_ABI_optimization_goals
   9              		.eabi_attribute 34, 0	@ Tag_CPU_unaligned_access
  10              		.eabi_attribute 18, 4	@ Tag_ABI_PCS_wchar_t
  11              		.file	"ssp_11xx.c"
  12              	@ GNU C89 (GNU Tools for ARM Embedded Processors) version 6.2.1 20161205 (release) [ARM/embedded-6-
  13              	@	compiled by GNU C version 5.4.0 20160609, GMP version 6.1.0, MPFR version 3.1.4, MPC version 1.0.
  14              	@ GGC heuristics: --param ggc-min-expand=100 --param ggc-min-heapsize=131072
  15              	@ options passed:  -I . -I ../../lpc11cx4-library/lpc_chip_11cxx_lib/inc
  16              	@ -imultilib thumb/v6-m -iprefix /usr/bin/../lib/gcc/arm-none-eabi/6.2.1/
  17              	@ -isysroot /usr/bin/../arm-none-eabi -MD bin/ssp_11xx.d -MF bin/ssp_11xx.d
  18              	@ -MP -MQ bin/ssp_11xx.o -D__USES_INITFINI__ -D CORE_M0
  19              	@ ../../lpc11cx4-library/lpc_chip_11cxx_lib/src/ssp_11xx.c -mcpu=cortex-m0
  20              	@ -mthumb -auxbase-strip bin/ssp_11xx.o -g -ggdb3 -O2 -Wall
  21              	@ -Wstrict-prototypes -Wextra -std=gnu90 -ffunction-sections
  22              	@ -fdata-sections -fverbose-asm
  23              	@ options enabled:  -faggressive-loop-optimizations -falign-jumps
  24              	@ -falign-labels -falign-loops -fauto-inc-dec -fbranch-count-reg
  25              	@ -fcaller-saves -fchkp-check-incomplete-type -fchkp-check-read
  26              	@ -fchkp-check-write -fchkp-instrument-calls -fchkp-narrow-bounds
  27              	@ -fchkp-optimize -fchkp-store-bounds -fchkp-use-static-bounds
  28              	@ -fchkp-use-static-const-bounds -fchkp-use-wrappers
  29              	@ -fcombine-stack-adjustments -fcommon -fcompare-elim -fcprop-registers
  30              	@ -fcrossjumping -fcse-follow-jumps -fdata-sections -fdefer-pop
  31              	@ -fdelete-null-pointer-checks -fdevirtualize -fdevirtualize-speculatively
  32              	@ -fdwarf2-cfi-asm -fearly-inlining -feliminate-unused-debug-types
  33              	@ -fexpensive-optimizations -fforward-propagate -ffunction-cse
  34              	@ -ffunction-sections -fgcse -fgcse-lm -fgnu-runtime -fgnu-unique
  35              	@ -fguess-branch-probability -fhoist-adjacent-loads -fident -fif-conversion
  36              	@ -fif-conversion2 -findirect-inlining -finline -finline-atomics
  37              	@ -finline-functions-called-once -finline-small-functions -fipa-cp
  38              	@ -fipa-cp-alignment -fipa-icf -fipa-icf-functions -fipa-icf-variables
  39              	@ -fipa-profile -fipa-pure-const -fipa-reference -fipa-sra
  40              	@ -fira-hoist-pressure -fira-share-save-slots -fira-share-spill-slots
  41              	@ -fisolate-erroneous-paths-dereference -fivopts -fkeep-static-consts
  42              	@ -fleading-underscore -flifetime-dse -flra-remat -flto-odr-type-merging
  43              	@ -fmath-errno -fmerge-constants -fmerge-debug-strings
  44              	@ -fmove-loop-invariants -fomit-frame-pointer -foptimize-sibling-calls
  45              	@ -foptimize-strlen -fpartial-inlining -fpeephole -fpeephole2 -fplt
  46              	@ -fprefetch-loop-arrays -freg-struct-return -freorder-blocks
  47              	@ -freorder-functions -frerun-cse-after-loop
  48              	@ -fsched-critical-path-heuristic -fsched-dep-count-heuristic
  49              	@ -fsched-group-heuristic -fsched-interblock -fsched-last-insn-heuristic
  50              	@ -fsched-pressure -fsched-rank-heuristic -fsched-spec
  51              	@ -fsched-spec-insn-heuristic -fsched-stalled-insns-dep -fschedule-insns2
  52              	@ -fsection-anchors -fsemantic-interposition -fshow-column -fshrink-wrap
  53              	@ -fsigned-zeros -fsplit-ivs-in-unroller -fsplit-wide-types -fssa-backprop
  54              	@ -fssa-phiopt -fstdarg-opt -fstrict-aliasing -fstrict-overflow
  55              	@ -fstrict-volatile-bitfields -fsync-libcalls -fthread-jumps
  56              	@ -ftoplevel-reorder -ftrapping-math -ftree-bit-ccp -ftree-builtin-call-dce
  57              	@ -ftree-ccp -ftree-ch -ftree-coalesce-vars -ftree-copy-prop -ftree-cselim
ARM GAS  /tmp/ccGKa4GA.s 			page 2


  58              	@ -ftree-dce -ftree-dominator-opts -ftree-dse -ftree-forwprop -ftree-fre
  59              	@ -ftree-loop-if-convert -ftree-loop-im -ftree-loop-ivcanon
  60              	@ -ftree-loop-optimize -ftree-parallelize-loops= -ftree-phiprop -ftree-pre
  61              	@ -ftree-pta -ftree-reassoc -ftree-scev-cprop -ftree-sink -ftree-slsr
  62              	@ -ftree-sra -ftree-switch-conversion -ftree-tail-merge -ftree-ter
  63              	@ -ftree-vrp -funit-at-a-time -fvar-tracking -fvar-tracking-assignments
  64              	@ -fverbose-asm -fzero-initialized-in-bss -mlittle-endian
  65              	@ -mpic-data-is-text-relative -msched-prolog -mthumb
  66              	@ -mvectorize-with-neon-quad
  67              	
  68              		.text
  69              	.Ltext0:
  70              		.cfi_sections	.debug_frame
  71              		.section	.text.Chip_SSP_SetClockRate,"ax",%progbits
  72              		.align	1
  73              		.p2align 2,,3
  74              		.global	Chip_SSP_SetClockRate
  75              		.syntax unified
  76              		.code	16
  77              		.thumb_func
  78              		.fpu softvfp
  79              		.type	Chip_SSP_SetClockRate, %function
  80              	Chip_SSP_SetClockRate:
  81              	.LFB206:
  82              		.file 1 "../../lpc11cx4-library/lpc_chip_11cxx_lib/src/ssp_11xx.c"
   1:../../lpc11cx4-library/lpc_chip_11cxx_lib/src/ssp_11xx.c **** /*
   2:../../lpc11cx4-library/lpc_chip_11cxx_lib/src/ssp_11xx.c ****  * @brief LPC11xx SSP Registers and control functions
   3:../../lpc11cx4-library/lpc_chip_11cxx_lib/src/ssp_11xx.c ****  *
   4:../../lpc11cx4-library/lpc_chip_11cxx_lib/src/ssp_11xx.c ****  * @note
   5:../../lpc11cx4-library/lpc_chip_11cxx_lib/src/ssp_11xx.c ****  * Copyright(C) NXP Semiconductors, 2012
   6:../../lpc11cx4-library/lpc_chip_11cxx_lib/src/ssp_11xx.c ****  * All rights reserved.
   7:../../lpc11cx4-library/lpc_chip_11cxx_lib/src/ssp_11xx.c ****  *
   8:../../lpc11cx4-library/lpc_chip_11cxx_lib/src/ssp_11xx.c ****  * @par
   9:../../lpc11cx4-library/lpc_chip_11cxx_lib/src/ssp_11xx.c ****  * Software that is described herein is for illustrative purposes only
  10:../../lpc11cx4-library/lpc_chip_11cxx_lib/src/ssp_11xx.c ****  * which provides customers with programming information regarding the
  11:../../lpc11cx4-library/lpc_chip_11cxx_lib/src/ssp_11xx.c ****  * LPC products.  This software is supplied "AS IS" without any warranties of
  12:../../lpc11cx4-library/lpc_chip_11cxx_lib/src/ssp_11xx.c ****  * any kind, and NXP Semiconductors and its licensor disclaim any and
  13:../../lpc11cx4-library/lpc_chip_11cxx_lib/src/ssp_11xx.c ****  * all warranties, express or implied, including all implied warranties of
  14:../../lpc11cx4-library/lpc_chip_11cxx_lib/src/ssp_11xx.c ****  * merchantability, fitness for a particular purpose and non-infringement of
  15:../../lpc11cx4-library/lpc_chip_11cxx_lib/src/ssp_11xx.c ****  * intellectual property rights.  NXP Semiconductors assumes no responsibility
  16:../../lpc11cx4-library/lpc_chip_11cxx_lib/src/ssp_11xx.c ****  * or liability for the use of the software, conveys no license or rights under any
  17:../../lpc11cx4-library/lpc_chip_11cxx_lib/src/ssp_11xx.c ****  * patent, copyright, mask work right, or any other intellectual property rights in
  18:../../lpc11cx4-library/lpc_chip_11cxx_lib/src/ssp_11xx.c ****  * or to any products. NXP Semiconductors reserves the right to make changes
  19:../../lpc11cx4-library/lpc_chip_11cxx_lib/src/ssp_11xx.c ****  * in the software without notification. NXP Semiconductors also makes no
  20:../../lpc11cx4-library/lpc_chip_11cxx_lib/src/ssp_11xx.c ****  * representation or warranty that such application will be suitable for the
  21:../../lpc11cx4-library/lpc_chip_11cxx_lib/src/ssp_11xx.c ****  * specified use without further testing or modification.
  22:../../lpc11cx4-library/lpc_chip_11cxx_lib/src/ssp_11xx.c ****  *
  23:../../lpc11cx4-library/lpc_chip_11cxx_lib/src/ssp_11xx.c ****  * @par
  24:../../lpc11cx4-library/lpc_chip_11cxx_lib/src/ssp_11xx.c ****  * Permission to use, copy, modify, and distribute this software and its
  25:../../lpc11cx4-library/lpc_chip_11cxx_lib/src/ssp_11xx.c ****  * documentation is hereby granted, under NXP Semiconductors' and its
  26:../../lpc11cx4-library/lpc_chip_11cxx_lib/src/ssp_11xx.c ****  * licensor's relevant copyrights in the software, without fee, provided that it
  27:../../lpc11cx4-library/lpc_chip_11cxx_lib/src/ssp_11xx.c ****  * is used in conjunction with NXP Semiconductors microcontrollers.  This
  28:../../lpc11cx4-library/lpc_chip_11cxx_lib/src/ssp_11xx.c ****  * copyright, permission, and disclaimer notice must appear in all copies of
  29:../../lpc11cx4-library/lpc_chip_11cxx_lib/src/ssp_11xx.c ****  * this code.
  30:../../lpc11cx4-library/lpc_chip_11cxx_lib/src/ssp_11xx.c ****  */
  31:../../lpc11cx4-library/lpc_chip_11cxx_lib/src/ssp_11xx.c **** 
  32:../../lpc11cx4-library/lpc_chip_11cxx_lib/src/ssp_11xx.c **** #include "chip.h"
ARM GAS  /tmp/ccGKa4GA.s 			page 3


  33:../../lpc11cx4-library/lpc_chip_11cxx_lib/src/ssp_11xx.c **** 
  34:../../lpc11cx4-library/lpc_chip_11cxx_lib/src/ssp_11xx.c **** /*****************************************************************************
  35:../../lpc11cx4-library/lpc_chip_11cxx_lib/src/ssp_11xx.c ****  * Private types/enumerations/variables
  36:../../lpc11cx4-library/lpc_chip_11cxx_lib/src/ssp_11xx.c ****  ****************************************************************************/
  37:../../lpc11cx4-library/lpc_chip_11cxx_lib/src/ssp_11xx.c **** 
  38:../../lpc11cx4-library/lpc_chip_11cxx_lib/src/ssp_11xx.c **** /*****************************************************************************
  39:../../lpc11cx4-library/lpc_chip_11cxx_lib/src/ssp_11xx.c ****  * Public types/enumerations/variables
  40:../../lpc11cx4-library/lpc_chip_11cxx_lib/src/ssp_11xx.c ****  ****************************************************************************/
  41:../../lpc11cx4-library/lpc_chip_11cxx_lib/src/ssp_11xx.c **** 
  42:../../lpc11cx4-library/lpc_chip_11cxx_lib/src/ssp_11xx.c **** /*****************************************************************************
  43:../../lpc11cx4-library/lpc_chip_11cxx_lib/src/ssp_11xx.c ****  * Private functions
  44:../../lpc11cx4-library/lpc_chip_11cxx_lib/src/ssp_11xx.c ****  ****************************************************************************/
  45:../../lpc11cx4-library/lpc_chip_11cxx_lib/src/ssp_11xx.c **** 
  46:../../lpc11cx4-library/lpc_chip_11cxx_lib/src/ssp_11xx.c **** STATIC void SSP_Write2BFifo(LPC_SSP_T *pSSP, Chip_SSP_DATA_SETUP_T *xf_setup)
  47:../../lpc11cx4-library/lpc_chip_11cxx_lib/src/ssp_11xx.c **** {
  48:../../lpc11cx4-library/lpc_chip_11cxx_lib/src/ssp_11xx.c **** 	if (xf_setup->tx_data) {
  49:../../lpc11cx4-library/lpc_chip_11cxx_lib/src/ssp_11xx.c **** 		Chip_SSP_SendFrame(pSSP, (*(uint16_t *) ((uint32_t) xf_setup->tx_data +
  50:../../lpc11cx4-library/lpc_chip_11cxx_lib/src/ssp_11xx.c **** 												 xf_setup->tx_cnt)));
  51:../../lpc11cx4-library/lpc_chip_11cxx_lib/src/ssp_11xx.c **** 	}
  52:../../lpc11cx4-library/lpc_chip_11cxx_lib/src/ssp_11xx.c **** 	else {
  53:../../lpc11cx4-library/lpc_chip_11cxx_lib/src/ssp_11xx.c **** 		Chip_SSP_SendFrame(pSSP, 0xFFFF);
  54:../../lpc11cx4-library/lpc_chip_11cxx_lib/src/ssp_11xx.c **** 	}
  55:../../lpc11cx4-library/lpc_chip_11cxx_lib/src/ssp_11xx.c **** 
  56:../../lpc11cx4-library/lpc_chip_11cxx_lib/src/ssp_11xx.c **** 	xf_setup->tx_cnt += 2;
  57:../../lpc11cx4-library/lpc_chip_11cxx_lib/src/ssp_11xx.c **** }
  58:../../lpc11cx4-library/lpc_chip_11cxx_lib/src/ssp_11xx.c **** 
  59:../../lpc11cx4-library/lpc_chip_11cxx_lib/src/ssp_11xx.c **** /** SSP macro: write 1 bytes to FIFO buffer */
  60:../../lpc11cx4-library/lpc_chip_11cxx_lib/src/ssp_11xx.c **** STATIC void SSP_Write1BFifo(LPC_SSP_T *pSSP, Chip_SSP_DATA_SETUP_T *xf_setup)
  61:../../lpc11cx4-library/lpc_chip_11cxx_lib/src/ssp_11xx.c **** {
  62:../../lpc11cx4-library/lpc_chip_11cxx_lib/src/ssp_11xx.c **** 	if (xf_setup->tx_data) {
  63:../../lpc11cx4-library/lpc_chip_11cxx_lib/src/ssp_11xx.c **** 		Chip_SSP_SendFrame(pSSP, (*(uint8_t *) ((uint32_t) xf_setup->tx_data + xf_setup->tx_cnt)));
  64:../../lpc11cx4-library/lpc_chip_11cxx_lib/src/ssp_11xx.c **** 	}
  65:../../lpc11cx4-library/lpc_chip_11cxx_lib/src/ssp_11xx.c **** 	else {
  66:../../lpc11cx4-library/lpc_chip_11cxx_lib/src/ssp_11xx.c **** 		Chip_SSP_SendFrame(pSSP, 0xFF);
  67:../../lpc11cx4-library/lpc_chip_11cxx_lib/src/ssp_11xx.c **** 	}
  68:../../lpc11cx4-library/lpc_chip_11cxx_lib/src/ssp_11xx.c **** 
  69:../../lpc11cx4-library/lpc_chip_11cxx_lib/src/ssp_11xx.c **** 	xf_setup->tx_cnt++;
  70:../../lpc11cx4-library/lpc_chip_11cxx_lib/src/ssp_11xx.c **** }
  71:../../lpc11cx4-library/lpc_chip_11cxx_lib/src/ssp_11xx.c **** 
  72:../../lpc11cx4-library/lpc_chip_11cxx_lib/src/ssp_11xx.c **** /** SSP macro: read 1 bytes from FIFO buffer */
  73:../../lpc11cx4-library/lpc_chip_11cxx_lib/src/ssp_11xx.c **** STATIC void SSP_Read2BFifo(LPC_SSP_T *pSSP, Chip_SSP_DATA_SETUP_T *xf_setup)
  74:../../lpc11cx4-library/lpc_chip_11cxx_lib/src/ssp_11xx.c **** {
  75:../../lpc11cx4-library/lpc_chip_11cxx_lib/src/ssp_11xx.c **** 	uint16_t rDat;
  76:../../lpc11cx4-library/lpc_chip_11cxx_lib/src/ssp_11xx.c **** 
  77:../../lpc11cx4-library/lpc_chip_11cxx_lib/src/ssp_11xx.c **** 	while ((Chip_SSP_GetStatus(pSSP, SSP_STAT_RNE) == SET) &&
  78:../../lpc11cx4-library/lpc_chip_11cxx_lib/src/ssp_11xx.c **** 		   (xf_setup->rx_cnt < xf_setup->length)) {
  79:../../lpc11cx4-library/lpc_chip_11cxx_lib/src/ssp_11xx.c **** 		rDat = Chip_SSP_ReceiveFrame(pSSP);
  80:../../lpc11cx4-library/lpc_chip_11cxx_lib/src/ssp_11xx.c **** 		if (xf_setup->rx_data) {
  81:../../lpc11cx4-library/lpc_chip_11cxx_lib/src/ssp_11xx.c **** 			*(uint16_t *) ((uint32_t) xf_setup->rx_data + xf_setup->rx_cnt) = rDat;
  82:../../lpc11cx4-library/lpc_chip_11cxx_lib/src/ssp_11xx.c **** 		}
  83:../../lpc11cx4-library/lpc_chip_11cxx_lib/src/ssp_11xx.c **** 
  84:../../lpc11cx4-library/lpc_chip_11cxx_lib/src/ssp_11xx.c **** 		xf_setup->rx_cnt += 2;
  85:../../lpc11cx4-library/lpc_chip_11cxx_lib/src/ssp_11xx.c **** 	}
  86:../../lpc11cx4-library/lpc_chip_11cxx_lib/src/ssp_11xx.c **** }
  87:../../lpc11cx4-library/lpc_chip_11cxx_lib/src/ssp_11xx.c **** 
  88:../../lpc11cx4-library/lpc_chip_11cxx_lib/src/ssp_11xx.c **** /** SSP macro: read 2 bytes from FIFO buffer */
  89:../../lpc11cx4-library/lpc_chip_11cxx_lib/src/ssp_11xx.c **** STATIC void SSP_Read1BFifo(LPC_SSP_T *pSSP, Chip_SSP_DATA_SETUP_T *xf_setup)
ARM GAS  /tmp/ccGKa4GA.s 			page 4


  90:../../lpc11cx4-library/lpc_chip_11cxx_lib/src/ssp_11xx.c **** {
  91:../../lpc11cx4-library/lpc_chip_11cxx_lib/src/ssp_11xx.c **** 	uint16_t rDat;
  92:../../lpc11cx4-library/lpc_chip_11cxx_lib/src/ssp_11xx.c **** 
  93:../../lpc11cx4-library/lpc_chip_11cxx_lib/src/ssp_11xx.c **** 	while ((Chip_SSP_GetStatus(pSSP, SSP_STAT_RNE) == SET) &&
  94:../../lpc11cx4-library/lpc_chip_11cxx_lib/src/ssp_11xx.c **** 		   (xf_setup->rx_cnt < xf_setup->length)) {
  95:../../lpc11cx4-library/lpc_chip_11cxx_lib/src/ssp_11xx.c **** 		rDat = Chip_SSP_ReceiveFrame(pSSP);
  96:../../lpc11cx4-library/lpc_chip_11cxx_lib/src/ssp_11xx.c **** 		if (xf_setup->rx_data) {
  97:../../lpc11cx4-library/lpc_chip_11cxx_lib/src/ssp_11xx.c **** 			*(uint8_t *) ((uint32_t) xf_setup->rx_data + xf_setup->rx_cnt) = rDat;
  98:../../lpc11cx4-library/lpc_chip_11cxx_lib/src/ssp_11xx.c **** 		}
  99:../../lpc11cx4-library/lpc_chip_11cxx_lib/src/ssp_11xx.c **** 
 100:../../lpc11cx4-library/lpc_chip_11cxx_lib/src/ssp_11xx.c **** 		xf_setup->rx_cnt++;
 101:../../lpc11cx4-library/lpc_chip_11cxx_lib/src/ssp_11xx.c **** 	}
 102:../../lpc11cx4-library/lpc_chip_11cxx_lib/src/ssp_11xx.c **** }
 103:../../lpc11cx4-library/lpc_chip_11cxx_lib/src/ssp_11xx.c **** 
 104:../../lpc11cx4-library/lpc_chip_11cxx_lib/src/ssp_11xx.c **** /* Returns clock for the peripheral block */
 105:../../lpc11cx4-library/lpc_chip_11cxx_lib/src/ssp_11xx.c **** STATIC CHIP_SYSCTL_CLOCK_T Chip_SSP_GetClockIndex(LPC_SSP_T *pSSP)
 106:../../lpc11cx4-library/lpc_chip_11cxx_lib/src/ssp_11xx.c **** {
 107:../../lpc11cx4-library/lpc_chip_11cxx_lib/src/ssp_11xx.c **** 	CHIP_SYSCTL_CLOCK_T clkSSP;
 108:../../lpc11cx4-library/lpc_chip_11cxx_lib/src/ssp_11xx.c **** 
 109:../../lpc11cx4-library/lpc_chip_11cxx_lib/src/ssp_11xx.c **** 	if (pSSP == LPC_SSP0) {
 110:../../lpc11cx4-library/lpc_chip_11cxx_lib/src/ssp_11xx.c **** 		clkSSP = SYSCTL_CLOCK_SSP0;
 111:../../lpc11cx4-library/lpc_chip_11cxx_lib/src/ssp_11xx.c **** 	}
 112:../../lpc11cx4-library/lpc_chip_11cxx_lib/src/ssp_11xx.c **** #if defined(CHIP_LPC11CXX) || defined(CHIP_LPC11EXX) || defined(CHIP_LPC11AXX) || defined(CHIP_LPC1
 113:../../lpc11cx4-library/lpc_chip_11cxx_lib/src/ssp_11xx.c **** 	else {
 114:../../lpc11cx4-library/lpc_chip_11cxx_lib/src/ssp_11xx.c **** 		clkSSP = SYSCTL_CLOCK_SSP1;
 115:../../lpc11cx4-library/lpc_chip_11cxx_lib/src/ssp_11xx.c **** 	}
 116:../../lpc11cx4-library/lpc_chip_11cxx_lib/src/ssp_11xx.c **** #endif
 117:../../lpc11cx4-library/lpc_chip_11cxx_lib/src/ssp_11xx.c **** 		
 118:../../lpc11cx4-library/lpc_chip_11cxx_lib/src/ssp_11xx.c **** 	return clkSSP;
 119:../../lpc11cx4-library/lpc_chip_11cxx_lib/src/ssp_11xx.c **** }
 120:../../lpc11cx4-library/lpc_chip_11cxx_lib/src/ssp_11xx.c **** 
 121:../../lpc11cx4-library/lpc_chip_11cxx_lib/src/ssp_11xx.c **** /* Returns reset ID for the peripheral block */
 122:../../lpc11cx4-library/lpc_chip_11cxx_lib/src/ssp_11xx.c **** STATIC CHIP_SYSCTL_PERIPH_RESET_T Chip_SSP_GetResetIndex(LPC_SSP_T *pSSP)
 123:../../lpc11cx4-library/lpc_chip_11cxx_lib/src/ssp_11xx.c **** {
 124:../../lpc11cx4-library/lpc_chip_11cxx_lib/src/ssp_11xx.c **** 	CHIP_SYSCTL_PERIPH_RESET_T resetSSP;
 125:../../lpc11cx4-library/lpc_chip_11cxx_lib/src/ssp_11xx.c **** 
 126:../../lpc11cx4-library/lpc_chip_11cxx_lib/src/ssp_11xx.c **** 	if (pSSP == LPC_SSP0) {
 127:../../lpc11cx4-library/lpc_chip_11cxx_lib/src/ssp_11xx.c **** 		resetSSP = RESET_SSP0;
 128:../../lpc11cx4-library/lpc_chip_11cxx_lib/src/ssp_11xx.c **** 	}
 129:../../lpc11cx4-library/lpc_chip_11cxx_lib/src/ssp_11xx.c **** 	else {
 130:../../lpc11cx4-library/lpc_chip_11cxx_lib/src/ssp_11xx.c **** 		resetSSP = RESET_SSP1;
 131:../../lpc11cx4-library/lpc_chip_11cxx_lib/src/ssp_11xx.c **** 	}
 132:../../lpc11cx4-library/lpc_chip_11cxx_lib/src/ssp_11xx.c **** 
 133:../../lpc11cx4-library/lpc_chip_11cxx_lib/src/ssp_11xx.c **** 	return resetSSP;
 134:../../lpc11cx4-library/lpc_chip_11cxx_lib/src/ssp_11xx.c **** }
 135:../../lpc11cx4-library/lpc_chip_11cxx_lib/src/ssp_11xx.c **** 
 136:../../lpc11cx4-library/lpc_chip_11cxx_lib/src/ssp_11xx.c **** /* Returns reset ID for the peripheral block */
 137:../../lpc11cx4-library/lpc_chip_11cxx_lib/src/ssp_11xx.c **** STATIC void Chip_SSP_SetSSPClkDivider(LPC_SSP_T *pSSP, uint32_t div)
 138:../../lpc11cx4-library/lpc_chip_11cxx_lib/src/ssp_11xx.c **** {
 139:../../lpc11cx4-library/lpc_chip_11cxx_lib/src/ssp_11xx.c **** 	if (pSSP == LPC_SSP0) {
 140:../../lpc11cx4-library/lpc_chip_11cxx_lib/src/ssp_11xx.c **** 		Chip_Clock_SetSSP0ClockDiv(div);
 141:../../lpc11cx4-library/lpc_chip_11cxx_lib/src/ssp_11xx.c **** 	}
 142:../../lpc11cx4-library/lpc_chip_11cxx_lib/src/ssp_11xx.c **** #if defined(CHIP_LPC11CXX) || defined(CHIP_LPC11EXX) || defined(CHIP_LPC11AXX) || defined(CHIP_LPC1
 143:../../lpc11cx4-library/lpc_chip_11cxx_lib/src/ssp_11xx.c **** 	else {
 144:../../lpc11cx4-library/lpc_chip_11cxx_lib/src/ssp_11xx.c **** 		Chip_Clock_SetSSP1ClockDiv(div);
 145:../../lpc11cx4-library/lpc_chip_11cxx_lib/src/ssp_11xx.c **** 	}
 146:../../lpc11cx4-library/lpc_chip_11cxx_lib/src/ssp_11xx.c **** #endif
ARM GAS  /tmp/ccGKa4GA.s 			page 5


 147:../../lpc11cx4-library/lpc_chip_11cxx_lib/src/ssp_11xx.c **** }
 148:../../lpc11cx4-library/lpc_chip_11cxx_lib/src/ssp_11xx.c **** 
 149:../../lpc11cx4-library/lpc_chip_11cxx_lib/src/ssp_11xx.c **** /* Returns SSP peripheral clock for the peripheral block */
 150:../../lpc11cx4-library/lpc_chip_11cxx_lib/src/ssp_11xx.c **** STATIC uint32_t Chip_SSP_GetPCLKkRate(LPC_SSP_T *pSSP)
 151:../../lpc11cx4-library/lpc_chip_11cxx_lib/src/ssp_11xx.c **** {
 152:../../lpc11cx4-library/lpc_chip_11cxx_lib/src/ssp_11xx.c **** 	uint32_t sspCLK = Chip_Clock_GetMainClockRate();
 153:../../lpc11cx4-library/lpc_chip_11cxx_lib/src/ssp_11xx.c **** 
 154:../../lpc11cx4-library/lpc_chip_11cxx_lib/src/ssp_11xx.c **** 	if (pSSP == LPC_SSP0) {
 155:../../lpc11cx4-library/lpc_chip_11cxx_lib/src/ssp_11xx.c **** 		sspCLK /= Chip_Clock_GetSSP0ClockDiv();
 156:../../lpc11cx4-library/lpc_chip_11cxx_lib/src/ssp_11xx.c **** 	}
 157:../../lpc11cx4-library/lpc_chip_11cxx_lib/src/ssp_11xx.c **** #if defined(CHIP_LPC11CXX) || defined(CHIP_LPC11EXX) || defined(CHIP_LPC11AXX) || defined(CHIP_LPC1
 158:../../lpc11cx4-library/lpc_chip_11cxx_lib/src/ssp_11xx.c **** 	else {
 159:../../lpc11cx4-library/lpc_chip_11cxx_lib/src/ssp_11xx.c **** 		sspCLK /= Chip_Clock_GetSSP1ClockDiv();
 160:../../lpc11cx4-library/lpc_chip_11cxx_lib/src/ssp_11xx.c **** 	}
 161:../../lpc11cx4-library/lpc_chip_11cxx_lib/src/ssp_11xx.c **** #endif
 162:../../lpc11cx4-library/lpc_chip_11cxx_lib/src/ssp_11xx.c **** 	
 163:../../lpc11cx4-library/lpc_chip_11cxx_lib/src/ssp_11xx.c ****     return sspCLK;
 164:../../lpc11cx4-library/lpc_chip_11cxx_lib/src/ssp_11xx.c **** }
 165:../../lpc11cx4-library/lpc_chip_11cxx_lib/src/ssp_11xx.c **** 
 166:../../lpc11cx4-library/lpc_chip_11cxx_lib/src/ssp_11xx.c **** /*****************************************************************************
 167:../../lpc11cx4-library/lpc_chip_11cxx_lib/src/ssp_11xx.c ****  * Public functions
 168:../../lpc11cx4-library/lpc_chip_11cxx_lib/src/ssp_11xx.c ****  ****************************************************************************/
 169:../../lpc11cx4-library/lpc_chip_11cxx_lib/src/ssp_11xx.c **** 
 170:../../lpc11cx4-library/lpc_chip_11cxx_lib/src/ssp_11xx.c **** /*Set up output clocks per bit for SSP bus*/
 171:../../lpc11cx4-library/lpc_chip_11cxx_lib/src/ssp_11xx.c **** void Chip_SSP_SetClockRate(LPC_SSP_T *pSSP, uint32_t clk_rate, uint32_t prescale)
 172:../../lpc11cx4-library/lpc_chip_11cxx_lib/src/ssp_11xx.c **** {
  83              		.loc 1 172 0
  84              		.cfi_startproc
  85              		@ args = 0, pretend = 0, frame = 0
  86              		@ frame_needed = 0, uses_anonymous_args = 0
  87              	.LVL0:
  88 0000 10B5     		push	{r4, lr}	@
  89              		.cfi_def_cfa_offset 8
  90              		.cfi_offset 4, -8
  91              		.cfi_offset 14, -4
 173:../../lpc11cx4-library/lpc_chip_11cxx_lib/src/ssp_11xx.c **** 	uint32_t temp;
 174:../../lpc11cx4-library/lpc_chip_11cxx_lib/src/ssp_11xx.c **** 	temp = pSSP->CR0 & (~(SSP_CR0_SCR(0xFF)));
  92              		.loc 1 174 0
  93 0002 0368     		ldr	r3, [r0]	@ _3, pSSP_2(D)->CR0
  94              	.LVL1:
  95 0004 034C     		ldr	r4, .L2	@ tmp122,
 175:../../lpc11cx4-library/lpc_chip_11cxx_lib/src/ssp_11xx.c **** 	pSSP->CR0 = temp | (SSP_CR0_SCR(clk_rate));
  96              		.loc 1 175 0
  97 0006 0906     		lsls	r1, r1, #24	@ tmp120, clk_rate,
  98              	.LVL2:
 174:../../lpc11cx4-library/lpc_chip_11cxx_lib/src/ssp_11xx.c **** 	pSSP->CR0 = temp | (SSP_CR0_SCR(clk_rate));
  99              		.loc 1 174 0
 100 0008 2340     		ands	r3, r4	@ temp, tmp122
 101              	.LVL3:
 102              		.loc 1 175 0
 103 000a 090C     		lsrs	r1, r1, #16	@ tmp119, tmp120,
 104 000c 1943     		orrs	r1, r3	@ _8, temp
 105 000e 0160     		str	r1, [r0]	@ _8, pSSP_2(D)->CR0
 176:../../lpc11cx4-library/lpc_chip_11cxx_lib/src/ssp_11xx.c **** 	pSSP->CPSR = prescale;
 177:../../lpc11cx4-library/lpc_chip_11cxx_lib/src/ssp_11xx.c **** }
 106              		.loc 1 177 0
 107              		@ sp needed	@
ARM GAS  /tmp/ccGKa4GA.s 			page 6


 176:../../lpc11cx4-library/lpc_chip_11cxx_lib/src/ssp_11xx.c **** 	pSSP->CPSR = prescale;
 108              		.loc 1 176 0
 109 0010 0261     		str	r2, [r0, #16]	@ prescale, pSSP_2(D)->CPSR
 110              		.loc 1 177 0
 111 0012 10BD     		pop	{r4, pc}
 112              	.L3:
 113              		.align	2
 114              	.L2:
 115 0014 FF00FFFF 		.word	-65281
 116              		.cfi_endproc
 117              	.LFE206:
 118              		.size	Chip_SSP_SetClockRate, .-Chip_SSP_SetClockRate
 119              		.section	.text.Chip_SSP_RWFrames_Blocking,"ax",%progbits
 120              		.align	1
 121              		.p2align 2,,3
 122              		.global	Chip_SSP_RWFrames_Blocking
 123              		.syntax unified
 124              		.code	16
 125              		.thumb_func
 126              		.fpu softvfp
 127              		.type	Chip_SSP_RWFrames_Blocking, %function
 128              	Chip_SSP_RWFrames_Blocking:
 129              	.LFB207:
 178:../../lpc11cx4-library/lpc_chip_11cxx_lib/src/ssp_11xx.c **** 
 179:../../lpc11cx4-library/lpc_chip_11cxx_lib/src/ssp_11xx.c **** /* SSP Polling Read/Write in blocking mode */
 180:../../lpc11cx4-library/lpc_chip_11cxx_lib/src/ssp_11xx.c **** uint32_t Chip_SSP_RWFrames_Blocking(LPC_SSP_T *pSSP, Chip_SSP_DATA_SETUP_T *xf_setup)
 181:../../lpc11cx4-library/lpc_chip_11cxx_lib/src/ssp_11xx.c **** {
 130              		.loc 1 181 0
 131              		.cfi_startproc
 132              		@ args = 0, pretend = 0, frame = 0
 133              		@ frame_needed = 0, uses_anonymous_args = 0
 134              	.LVL4:
 135 0000 F0B5     		push	{r4, r5, r6, r7, lr}	@
 136              		.cfi_def_cfa_offset 20
 137              		.cfi_offset 4, -20
 138              		.cfi_offset 5, -16
 139              		.cfi_offset 6, -12
 140              		.cfi_offset 7, -8
 141              		.cfi_offset 14, -4
 142 0002 CE46     		mov	lr, r9	@,
 143 0004 4746     		mov	r7, r8	@,
 144              	.LBB242:
 145              	.LBB243:
 146              		.file 2 "../../lpc11cx4-library/lpc_chip_11cxx_lib/inc/ssp_11xx.h"
   1:../../lpc11cx4-library/lpc_chip_11cxx_lib/inc/ssp_11xx.h **** /*
   2:../../lpc11cx4-library/lpc_chip_11cxx_lib/inc/ssp_11xx.h ****  * @brief LPC11xx SSP Registers and control functions
   3:../../lpc11cx4-library/lpc_chip_11cxx_lib/inc/ssp_11xx.h ****  *
   4:../../lpc11cx4-library/lpc_chip_11cxx_lib/inc/ssp_11xx.h ****  * @note
   5:../../lpc11cx4-library/lpc_chip_11cxx_lib/inc/ssp_11xx.h ****  * Copyright(C) NXP Semiconductors, 2012
   6:../../lpc11cx4-library/lpc_chip_11cxx_lib/inc/ssp_11xx.h ****  * All rights reserved.
   7:../../lpc11cx4-library/lpc_chip_11cxx_lib/inc/ssp_11xx.h ****  *
   8:../../lpc11cx4-library/lpc_chip_11cxx_lib/inc/ssp_11xx.h ****  * @par
   9:../../lpc11cx4-library/lpc_chip_11cxx_lib/inc/ssp_11xx.h ****  * Software that is described herein is for illustrative purposes only
  10:../../lpc11cx4-library/lpc_chip_11cxx_lib/inc/ssp_11xx.h ****  * which provides customers with programming information regarding the
  11:../../lpc11cx4-library/lpc_chip_11cxx_lib/inc/ssp_11xx.h ****  * LPC products.  This software is supplied "AS IS" without any warranties of
  12:../../lpc11cx4-library/lpc_chip_11cxx_lib/inc/ssp_11xx.h ****  * any kind, and NXP Semiconductors and its licensor disclaim any and
  13:../../lpc11cx4-library/lpc_chip_11cxx_lib/inc/ssp_11xx.h ****  * all warranties, express or implied, including all implied warranties of
ARM GAS  /tmp/ccGKa4GA.s 			page 7


  14:../../lpc11cx4-library/lpc_chip_11cxx_lib/inc/ssp_11xx.h ****  * merchantability, fitness for a particular purpose and non-infringement of
  15:../../lpc11cx4-library/lpc_chip_11cxx_lib/inc/ssp_11xx.h ****  * intellectual property rights.  NXP Semiconductors assumes no responsibility
  16:../../lpc11cx4-library/lpc_chip_11cxx_lib/inc/ssp_11xx.h ****  * or liability for the use of the software, conveys no license or rights under any
  17:../../lpc11cx4-library/lpc_chip_11cxx_lib/inc/ssp_11xx.h ****  * patent, copyright, mask work right, or any other intellectual property rights in
  18:../../lpc11cx4-library/lpc_chip_11cxx_lib/inc/ssp_11xx.h ****  * or to any products. NXP Semiconductors reserves the right to make changes
  19:../../lpc11cx4-library/lpc_chip_11cxx_lib/inc/ssp_11xx.h ****  * in the software without notification. NXP Semiconductors also makes no
  20:../../lpc11cx4-library/lpc_chip_11cxx_lib/inc/ssp_11xx.h ****  * representation or warranty that such application will be suitable for the
  21:../../lpc11cx4-library/lpc_chip_11cxx_lib/inc/ssp_11xx.h ****  * specified use without further testing or modification.
  22:../../lpc11cx4-library/lpc_chip_11cxx_lib/inc/ssp_11xx.h ****  *
  23:../../lpc11cx4-library/lpc_chip_11cxx_lib/inc/ssp_11xx.h ****  * @par
  24:../../lpc11cx4-library/lpc_chip_11cxx_lib/inc/ssp_11xx.h ****  * Permission to use, copy, modify, and distribute this software and its
  25:../../lpc11cx4-library/lpc_chip_11cxx_lib/inc/ssp_11xx.h ****  * documentation is hereby granted, under NXP Semiconductors' and its
  26:../../lpc11cx4-library/lpc_chip_11cxx_lib/inc/ssp_11xx.h ****  * licensor's relevant copyrights in the software, without fee, provided that it
  27:../../lpc11cx4-library/lpc_chip_11cxx_lib/inc/ssp_11xx.h ****  * is used in conjunction with NXP Semiconductors microcontrollers.  This
  28:../../lpc11cx4-library/lpc_chip_11cxx_lib/inc/ssp_11xx.h ****  * copyright, permission, and disclaimer notice must appear in all copies of
  29:../../lpc11cx4-library/lpc_chip_11cxx_lib/inc/ssp_11xx.h ****  * this code.
  30:../../lpc11cx4-library/lpc_chip_11cxx_lib/inc/ssp_11xx.h ****  */
  31:../../lpc11cx4-library/lpc_chip_11cxx_lib/inc/ssp_11xx.h **** 
  32:../../lpc11cx4-library/lpc_chip_11cxx_lib/inc/ssp_11xx.h **** #ifndef __SSP_11XX_H_
  33:../../lpc11cx4-library/lpc_chip_11cxx_lib/inc/ssp_11xx.h **** #define __SSP_11XX_H_
  34:../../lpc11cx4-library/lpc_chip_11cxx_lib/inc/ssp_11xx.h **** 
  35:../../lpc11cx4-library/lpc_chip_11cxx_lib/inc/ssp_11xx.h **** #ifdef __cplusplus
  36:../../lpc11cx4-library/lpc_chip_11cxx_lib/inc/ssp_11xx.h **** extern "C" {
  37:../../lpc11cx4-library/lpc_chip_11cxx_lib/inc/ssp_11xx.h **** #endif
  38:../../lpc11cx4-library/lpc_chip_11cxx_lib/inc/ssp_11xx.h **** 
  39:../../lpc11cx4-library/lpc_chip_11cxx_lib/inc/ssp_11xx.h **** /** @defgroup SSP_11XX CHIP: LPC11xx SSP register block and driver
  40:../../lpc11cx4-library/lpc_chip_11cxx_lib/inc/ssp_11xx.h ****  * @ingroup CHIP_11XX_Drivers
  41:../../lpc11cx4-library/lpc_chip_11cxx_lib/inc/ssp_11xx.h ****  * @{
  42:../../lpc11cx4-library/lpc_chip_11cxx_lib/inc/ssp_11xx.h ****  */
  43:../../lpc11cx4-library/lpc_chip_11cxx_lib/inc/ssp_11xx.h **** 
  44:../../lpc11cx4-library/lpc_chip_11cxx_lib/inc/ssp_11xx.h **** /**
  45:../../lpc11cx4-library/lpc_chip_11cxx_lib/inc/ssp_11xx.h ****  * @brief SSP register block structure
  46:../../lpc11cx4-library/lpc_chip_11cxx_lib/inc/ssp_11xx.h ****  */
  47:../../lpc11cx4-library/lpc_chip_11cxx_lib/inc/ssp_11xx.h **** typedef struct {			/*!< SSPn Structure         */
  48:../../lpc11cx4-library/lpc_chip_11cxx_lib/inc/ssp_11xx.h **** 	__IO uint32_t CR0;		/*!< Control Register 0. Selects the serial clock rate, bus type, and data siz
  49:../../lpc11cx4-library/lpc_chip_11cxx_lib/inc/ssp_11xx.h **** 	__IO uint32_t CR1;		/*!< Control Register 1. Selects master/slave and other modes. */
  50:../../lpc11cx4-library/lpc_chip_11cxx_lib/inc/ssp_11xx.h **** 	__IO uint32_t DR;		/*!< Data Register. Writes fill the transmit FIFO, and reads empty the receive 
  51:../../lpc11cx4-library/lpc_chip_11cxx_lib/inc/ssp_11xx.h **** 	__I  uint32_t SR;		/*!< Status Register        */
  52:../../lpc11cx4-library/lpc_chip_11cxx_lib/inc/ssp_11xx.h **** 	__IO uint32_t CPSR;		/*!< Clock Prescale Register */
  53:../../lpc11cx4-library/lpc_chip_11cxx_lib/inc/ssp_11xx.h **** 	__IO uint32_t IMSC;		/*!< Interrupt Mask Set and Clear Register */
  54:../../lpc11cx4-library/lpc_chip_11cxx_lib/inc/ssp_11xx.h **** 	__I  uint32_t RIS;		/*!< Raw Interrupt Status Register */
  55:../../lpc11cx4-library/lpc_chip_11cxx_lib/inc/ssp_11xx.h **** 	__I  uint32_t MIS;		/*!< Masked Interrupt Status Register */
  56:../../lpc11cx4-library/lpc_chip_11cxx_lib/inc/ssp_11xx.h **** 	__O  uint32_t ICR;		/*!< SSPICR Interrupt Clear Register */
  57:../../lpc11cx4-library/lpc_chip_11cxx_lib/inc/ssp_11xx.h **** } LPC_SSP_T;
  58:../../lpc11cx4-library/lpc_chip_11cxx_lib/inc/ssp_11xx.h **** 
  59:../../lpc11cx4-library/lpc_chip_11cxx_lib/inc/ssp_11xx.h **** /**
  60:../../lpc11cx4-library/lpc_chip_11cxx_lib/inc/ssp_11xx.h ****  * Macro defines for CR0 register
  61:../../lpc11cx4-library/lpc_chip_11cxx_lib/inc/ssp_11xx.h ****  */
  62:../../lpc11cx4-library/lpc_chip_11cxx_lib/inc/ssp_11xx.h **** 
  63:../../lpc11cx4-library/lpc_chip_11cxx_lib/inc/ssp_11xx.h **** /** SSP data size select, must be 4 bits to 16 bits */
  64:../../lpc11cx4-library/lpc_chip_11cxx_lib/inc/ssp_11xx.h **** #define SSP_CR0_DSS(n)          ((uint32_t) ((n) & 0xF))
  65:../../lpc11cx4-library/lpc_chip_11cxx_lib/inc/ssp_11xx.h **** /** SSP control 0 Motorola SPI mode */
  66:../../lpc11cx4-library/lpc_chip_11cxx_lib/inc/ssp_11xx.h **** #define SSP_CR0_FRF_SPI         ((uint32_t) (0 << 4))
  67:../../lpc11cx4-library/lpc_chip_11cxx_lib/inc/ssp_11xx.h **** /** SSP control 0 TI synchronous serial mode */
  68:../../lpc11cx4-library/lpc_chip_11cxx_lib/inc/ssp_11xx.h **** #define SSP_CR0_FRF_TI          ((uint32_t) (1 << 4))
  69:../../lpc11cx4-library/lpc_chip_11cxx_lib/inc/ssp_11xx.h **** /** SSP control 0 National Micro-wire mode */
  70:../../lpc11cx4-library/lpc_chip_11cxx_lib/inc/ssp_11xx.h **** #define SSP_CR0_FRF_MICROWIRE   ((uint32_t) (2 << 4))
ARM GAS  /tmp/ccGKa4GA.s 			page 8


  71:../../lpc11cx4-library/lpc_chip_11cxx_lib/inc/ssp_11xx.h **** /** SPI clock polarity bit (used in SPI mode only), (1) = maintains the
  72:../../lpc11cx4-library/lpc_chip_11cxx_lib/inc/ssp_11xx.h ****    bus clock high between frames, (0) = low */
  73:../../lpc11cx4-library/lpc_chip_11cxx_lib/inc/ssp_11xx.h **** #define SSP_CR0_CPOL_LO     ((uint32_t) (0))
  74:../../lpc11cx4-library/lpc_chip_11cxx_lib/inc/ssp_11xx.h **** #define SSP_CR0_CPOL_HI     ((uint32_t) (1 << 6))
  75:../../lpc11cx4-library/lpc_chip_11cxx_lib/inc/ssp_11xx.h **** /** SPI clock out phase bit (used in SPI mode only), (1) = captures data
  76:../../lpc11cx4-library/lpc_chip_11cxx_lib/inc/ssp_11xx.h ****    on the second clock transition of the frame, (0) = first */
  77:../../lpc11cx4-library/lpc_chip_11cxx_lib/inc/ssp_11xx.h **** #define SSP_CR0_CPHA_FIRST  ((uint32_t) (0))
  78:../../lpc11cx4-library/lpc_chip_11cxx_lib/inc/ssp_11xx.h **** #define SSP_CR0_CPHA_SECOND ((uint32_t) (1 << 7))
  79:../../lpc11cx4-library/lpc_chip_11cxx_lib/inc/ssp_11xx.h **** /** SSP serial clock rate value load macro, divider rate is
  80:../../lpc11cx4-library/lpc_chip_11cxx_lib/inc/ssp_11xx.h ****    PERIPH_CLK / (cpsr * (SCR + 1)) */
  81:../../lpc11cx4-library/lpc_chip_11cxx_lib/inc/ssp_11xx.h **** #define SSP_CR0_SCR(n)      ((uint32_t) ((n & 0xFF) << 8))
  82:../../lpc11cx4-library/lpc_chip_11cxx_lib/inc/ssp_11xx.h **** /** SSP CR0 bit mask */
  83:../../lpc11cx4-library/lpc_chip_11cxx_lib/inc/ssp_11xx.h **** #define SSP_CR0_BITMASK     ((uint32_t) (0xFFFF))
  84:../../lpc11cx4-library/lpc_chip_11cxx_lib/inc/ssp_11xx.h **** /** SSP CR0 bit mask */
  85:../../lpc11cx4-library/lpc_chip_11cxx_lib/inc/ssp_11xx.h **** #define SSP_CR0_BITMASK     ((uint32_t) (0xFFFF))
  86:../../lpc11cx4-library/lpc_chip_11cxx_lib/inc/ssp_11xx.h **** /** SSP serial clock rate value load macro, divider rate is
  87:../../lpc11cx4-library/lpc_chip_11cxx_lib/inc/ssp_11xx.h ****    PERIPH_CLK / (cpsr * (SCR + 1)) */
  88:../../lpc11cx4-library/lpc_chip_11cxx_lib/inc/ssp_11xx.h **** #define SSP_CR0_SCR(n)      ((uint32_t) ((n & 0xFF) << 8))
  89:../../lpc11cx4-library/lpc_chip_11cxx_lib/inc/ssp_11xx.h **** 
  90:../../lpc11cx4-library/lpc_chip_11cxx_lib/inc/ssp_11xx.h **** /**
  91:../../lpc11cx4-library/lpc_chip_11cxx_lib/inc/ssp_11xx.h ****  * Macro defines for CR1 register
  92:../../lpc11cx4-library/lpc_chip_11cxx_lib/inc/ssp_11xx.h ****  */
  93:../../lpc11cx4-library/lpc_chip_11cxx_lib/inc/ssp_11xx.h **** 
  94:../../lpc11cx4-library/lpc_chip_11cxx_lib/inc/ssp_11xx.h **** /** SSP control 1 loopback mode enable bit */
  95:../../lpc11cx4-library/lpc_chip_11cxx_lib/inc/ssp_11xx.h **** #define SSP_CR1_LBM_EN      ((uint32_t) (1 << 0))
  96:../../lpc11cx4-library/lpc_chip_11cxx_lib/inc/ssp_11xx.h **** /** SSP control 1 enable bit */
  97:../../lpc11cx4-library/lpc_chip_11cxx_lib/inc/ssp_11xx.h **** #define SSP_CR1_SSP_EN      ((uint32_t) (1 << 1))
  98:../../lpc11cx4-library/lpc_chip_11cxx_lib/inc/ssp_11xx.h **** /** SSP control 1 slave enable */
  99:../../lpc11cx4-library/lpc_chip_11cxx_lib/inc/ssp_11xx.h **** #define SSP_CR1_SLAVE_EN    ((uint32_t) (1 << 2))
 100:../../lpc11cx4-library/lpc_chip_11cxx_lib/inc/ssp_11xx.h **** #define SSP_CR1_MASTER_EN   ((uint32_t) (0))
 101:../../lpc11cx4-library/lpc_chip_11cxx_lib/inc/ssp_11xx.h **** /** SSP control 1 slave out disable bit, disables transmit line in slave
 102:../../lpc11cx4-library/lpc_chip_11cxx_lib/inc/ssp_11xx.h ****    mode */
 103:../../lpc11cx4-library/lpc_chip_11cxx_lib/inc/ssp_11xx.h **** #define SSP_CR1_SO_DISABLE  ((uint32_t) (1 << 3))
 104:../../lpc11cx4-library/lpc_chip_11cxx_lib/inc/ssp_11xx.h **** /** SSP CR1 bit mask */
 105:../../lpc11cx4-library/lpc_chip_11cxx_lib/inc/ssp_11xx.h **** #define SSP_CR1_BITMASK     ((uint32_t) (0x0F))
 106:../../lpc11cx4-library/lpc_chip_11cxx_lib/inc/ssp_11xx.h **** 
 107:../../lpc11cx4-library/lpc_chip_11cxx_lib/inc/ssp_11xx.h **** /** SSP CPSR bit mask */
 108:../../lpc11cx4-library/lpc_chip_11cxx_lib/inc/ssp_11xx.h **** #define SSP_CPSR_BITMASK    ((uint32_t) (0xFF))
 109:../../lpc11cx4-library/lpc_chip_11cxx_lib/inc/ssp_11xx.h **** /**
 110:../../lpc11cx4-library/lpc_chip_11cxx_lib/inc/ssp_11xx.h ****  * Macro defines for DR register
 111:../../lpc11cx4-library/lpc_chip_11cxx_lib/inc/ssp_11xx.h ****  */
 112:../../lpc11cx4-library/lpc_chip_11cxx_lib/inc/ssp_11xx.h **** 
 113:../../lpc11cx4-library/lpc_chip_11cxx_lib/inc/ssp_11xx.h **** /** SSP data bit mask */
 114:../../lpc11cx4-library/lpc_chip_11cxx_lib/inc/ssp_11xx.h **** #define SSP_DR_BITMASK(n)   ((n) & 0xFFFF)
 115:../../lpc11cx4-library/lpc_chip_11cxx_lib/inc/ssp_11xx.h **** 
 116:../../lpc11cx4-library/lpc_chip_11cxx_lib/inc/ssp_11xx.h **** /**
 117:../../lpc11cx4-library/lpc_chip_11cxx_lib/inc/ssp_11xx.h ****  * Macro defines for SR register
 118:../../lpc11cx4-library/lpc_chip_11cxx_lib/inc/ssp_11xx.h ****  */
 119:../../lpc11cx4-library/lpc_chip_11cxx_lib/inc/ssp_11xx.h **** 
 120:../../lpc11cx4-library/lpc_chip_11cxx_lib/inc/ssp_11xx.h **** /** SSP SR bit mask */
 121:../../lpc11cx4-library/lpc_chip_11cxx_lib/inc/ssp_11xx.h **** #define SSP_SR_BITMASK  ((uint32_t) (0x1F))
 122:../../lpc11cx4-library/lpc_chip_11cxx_lib/inc/ssp_11xx.h **** 
 123:../../lpc11cx4-library/lpc_chip_11cxx_lib/inc/ssp_11xx.h **** /** ICR bit mask */
 124:../../lpc11cx4-library/lpc_chip_11cxx_lib/inc/ssp_11xx.h **** #define SSP_ICR_BITMASK ((uint32_t) (0x03))
 125:../../lpc11cx4-library/lpc_chip_11cxx_lib/inc/ssp_11xx.h **** 
 126:../../lpc11cx4-library/lpc_chip_11cxx_lib/inc/ssp_11xx.h **** /**
 127:../../lpc11cx4-library/lpc_chip_11cxx_lib/inc/ssp_11xx.h ****  * @brief SSP Type of Status
ARM GAS  /tmp/ccGKa4GA.s 			page 9


 128:../../lpc11cx4-library/lpc_chip_11cxx_lib/inc/ssp_11xx.h ****  */
 129:../../lpc11cx4-library/lpc_chip_11cxx_lib/inc/ssp_11xx.h **** typedef enum _SSP_STATUS {
 130:../../lpc11cx4-library/lpc_chip_11cxx_lib/inc/ssp_11xx.h **** 	SSP_STAT_TFE = ((uint32_t)(1 << 0)),/**< TX FIFO Empty */
 131:../../lpc11cx4-library/lpc_chip_11cxx_lib/inc/ssp_11xx.h **** 	SSP_STAT_TNF = ((uint32_t)(1 << 1)),/**< TX FIFO not full */
 132:../../lpc11cx4-library/lpc_chip_11cxx_lib/inc/ssp_11xx.h **** 	SSP_STAT_RNE = ((uint32_t)(1 << 2)),/**< RX FIFO not empty */
 133:../../lpc11cx4-library/lpc_chip_11cxx_lib/inc/ssp_11xx.h **** 	SSP_STAT_RFF = ((uint32_t)(1 << 3)),/**< RX FIFO full */
 134:../../lpc11cx4-library/lpc_chip_11cxx_lib/inc/ssp_11xx.h **** 	SSP_STAT_BSY = ((uint32_t)(1 << 4)),/**< SSP Busy */
 135:../../lpc11cx4-library/lpc_chip_11cxx_lib/inc/ssp_11xx.h **** } SSP_STATUS_T;
 136:../../lpc11cx4-library/lpc_chip_11cxx_lib/inc/ssp_11xx.h **** 
 137:../../lpc11cx4-library/lpc_chip_11cxx_lib/inc/ssp_11xx.h **** /**
 138:../../lpc11cx4-library/lpc_chip_11cxx_lib/inc/ssp_11xx.h ****  * @brief SSP Type of Interrupt Mask
 139:../../lpc11cx4-library/lpc_chip_11cxx_lib/inc/ssp_11xx.h ****  */
 140:../../lpc11cx4-library/lpc_chip_11cxx_lib/inc/ssp_11xx.h **** typedef enum _SSP_INTMASK {
 141:../../lpc11cx4-library/lpc_chip_11cxx_lib/inc/ssp_11xx.h **** 	SSP_RORIM = ((uint32_t)(1 << 0)),	/**< Overun */
 142:../../lpc11cx4-library/lpc_chip_11cxx_lib/inc/ssp_11xx.h **** 	SSP_RTIM = ((uint32_t)(1 << 1)),/**< TimeOut */
 143:../../lpc11cx4-library/lpc_chip_11cxx_lib/inc/ssp_11xx.h **** 	SSP_RXIM = ((uint32_t)(1 << 2)),/**< Rx FIFO is at least half full */
 144:../../lpc11cx4-library/lpc_chip_11cxx_lib/inc/ssp_11xx.h **** 	SSP_TXIM = ((uint32_t)(1 << 3)),/**< Tx FIFO is at least half empty */
 145:../../lpc11cx4-library/lpc_chip_11cxx_lib/inc/ssp_11xx.h **** 	SSP_INT_MASK_BITMASK = ((uint32_t)(0xF)),
 146:../../lpc11cx4-library/lpc_chip_11cxx_lib/inc/ssp_11xx.h **** } SSP_INTMASK_T;
 147:../../lpc11cx4-library/lpc_chip_11cxx_lib/inc/ssp_11xx.h **** 
 148:../../lpc11cx4-library/lpc_chip_11cxx_lib/inc/ssp_11xx.h **** /**
 149:../../lpc11cx4-library/lpc_chip_11cxx_lib/inc/ssp_11xx.h ****  * @brief SSP Type of Mask Interrupt Status
 150:../../lpc11cx4-library/lpc_chip_11cxx_lib/inc/ssp_11xx.h ****  */
 151:../../lpc11cx4-library/lpc_chip_11cxx_lib/inc/ssp_11xx.h **** typedef enum _SSP_MASKINTSTATUS {
 152:../../lpc11cx4-library/lpc_chip_11cxx_lib/inc/ssp_11xx.h **** 	SSP_RORMIS = ((uint32_t)(1 << 0)),	/**< Overun */
 153:../../lpc11cx4-library/lpc_chip_11cxx_lib/inc/ssp_11xx.h **** 	SSP_RTMIS = ((uint32_t)(1 << 1)),	/**< TimeOut */
 154:../../lpc11cx4-library/lpc_chip_11cxx_lib/inc/ssp_11xx.h **** 	SSP_RXMIS = ((uint32_t)(1 << 2)),	/**< Rx FIFO is at least half full */
 155:../../lpc11cx4-library/lpc_chip_11cxx_lib/inc/ssp_11xx.h **** 	SSP_TXMIS = ((uint32_t)(1 << 3)),	/**< Tx FIFO is at least half empty */
 156:../../lpc11cx4-library/lpc_chip_11cxx_lib/inc/ssp_11xx.h **** 	SSP_MASK_INT_STAT_BITMASK = ((uint32_t)(0xF)),
 157:../../lpc11cx4-library/lpc_chip_11cxx_lib/inc/ssp_11xx.h **** } SSP_MASKINTSTATUS_T;
 158:../../lpc11cx4-library/lpc_chip_11cxx_lib/inc/ssp_11xx.h **** 
 159:../../lpc11cx4-library/lpc_chip_11cxx_lib/inc/ssp_11xx.h **** /**
 160:../../lpc11cx4-library/lpc_chip_11cxx_lib/inc/ssp_11xx.h ****  * @brief SSP Type of Raw Interrupt Status
 161:../../lpc11cx4-library/lpc_chip_11cxx_lib/inc/ssp_11xx.h ****  */
 162:../../lpc11cx4-library/lpc_chip_11cxx_lib/inc/ssp_11xx.h **** typedef enum _SSP_RAWINTSTATUS {
 163:../../lpc11cx4-library/lpc_chip_11cxx_lib/inc/ssp_11xx.h **** 	SSP_RORRIS = ((uint32_t)(1 << 0)),	/**< Overun */
 164:../../lpc11cx4-library/lpc_chip_11cxx_lib/inc/ssp_11xx.h **** 	SSP_RTRIS = ((uint32_t)(1 << 1)),	/**< TimeOut */
 165:../../lpc11cx4-library/lpc_chip_11cxx_lib/inc/ssp_11xx.h **** 	SSP_RXRIS = ((uint32_t)(1 << 2)),	/**< Rx FIFO is at least half full */
 166:../../lpc11cx4-library/lpc_chip_11cxx_lib/inc/ssp_11xx.h **** 	SSP_TXRIS = ((uint32_t)(1 << 3)),	/**< Tx FIFO is at least half empty */
 167:../../lpc11cx4-library/lpc_chip_11cxx_lib/inc/ssp_11xx.h **** 	SSP_RAW_INT_STAT_BITMASK = ((uint32_t)(0xF)),
 168:../../lpc11cx4-library/lpc_chip_11cxx_lib/inc/ssp_11xx.h **** } SSP_RAWINTSTATUS_T;
 169:../../lpc11cx4-library/lpc_chip_11cxx_lib/inc/ssp_11xx.h **** 
 170:../../lpc11cx4-library/lpc_chip_11cxx_lib/inc/ssp_11xx.h **** typedef enum _SSP_INTCLEAR {
 171:../../lpc11cx4-library/lpc_chip_11cxx_lib/inc/ssp_11xx.h **** 	SSP_RORIC = 0x0,
 172:../../lpc11cx4-library/lpc_chip_11cxx_lib/inc/ssp_11xx.h **** 	SSP_RTIC = 0x1,
 173:../../lpc11cx4-library/lpc_chip_11cxx_lib/inc/ssp_11xx.h **** 	SSP_INT_CLEAR_BITMASK = 0x3,
 174:../../lpc11cx4-library/lpc_chip_11cxx_lib/inc/ssp_11xx.h **** } SSP_INTCLEAR_T;
 175:../../lpc11cx4-library/lpc_chip_11cxx_lib/inc/ssp_11xx.h **** 
 176:../../lpc11cx4-library/lpc_chip_11cxx_lib/inc/ssp_11xx.h **** /*
 177:../../lpc11cx4-library/lpc_chip_11cxx_lib/inc/ssp_11xx.h ****  * @brief SSP clock format
 178:../../lpc11cx4-library/lpc_chip_11cxx_lib/inc/ssp_11xx.h ****  */
 179:../../lpc11cx4-library/lpc_chip_11cxx_lib/inc/ssp_11xx.h **** typedef enum CHIP_SSP_CLOCK_FORMAT {
 180:../../lpc11cx4-library/lpc_chip_11cxx_lib/inc/ssp_11xx.h **** 	SSP_CLOCK_CPHA0_CPOL0 = (0 << 6),		/**< CPHA = 0, CPOL = 0 */
 181:../../lpc11cx4-library/lpc_chip_11cxx_lib/inc/ssp_11xx.h **** 	SSP_CLOCK_CPHA0_CPOL1 = (1u << 6),		/**< CPHA = 0, CPOL = 1 */
 182:../../lpc11cx4-library/lpc_chip_11cxx_lib/inc/ssp_11xx.h **** 	SSP_CLOCK_CPHA1_CPOL0 = (2u << 6),		/**< CPHA = 1, CPOL = 0 */
 183:../../lpc11cx4-library/lpc_chip_11cxx_lib/inc/ssp_11xx.h **** 	SSP_CLOCK_CPHA1_CPOL1 = (3u << 6),		/**< CPHA = 1, CPOL = 1 */
 184:../../lpc11cx4-library/lpc_chip_11cxx_lib/inc/ssp_11xx.h **** 	SSP_CLOCK_MODE0 = SSP_CLOCK_CPHA0_CPOL0,/**< alias */
ARM GAS  /tmp/ccGKa4GA.s 			page 10


 185:../../lpc11cx4-library/lpc_chip_11cxx_lib/inc/ssp_11xx.h **** 	SSP_CLOCK_MODE1 = SSP_CLOCK_CPHA1_CPOL0,/**< alias */
 186:../../lpc11cx4-library/lpc_chip_11cxx_lib/inc/ssp_11xx.h **** 	SSP_CLOCK_MODE2 = SSP_CLOCK_CPHA0_CPOL1,/**< alias */
 187:../../lpc11cx4-library/lpc_chip_11cxx_lib/inc/ssp_11xx.h **** 	SSP_CLOCK_MODE3 = SSP_CLOCK_CPHA1_CPOL1,/**< alias */
 188:../../lpc11cx4-library/lpc_chip_11cxx_lib/inc/ssp_11xx.h **** } CHIP_SSP_CLOCK_MODE_T;
 189:../../lpc11cx4-library/lpc_chip_11cxx_lib/inc/ssp_11xx.h **** 
 190:../../lpc11cx4-library/lpc_chip_11cxx_lib/inc/ssp_11xx.h **** /*
 191:../../lpc11cx4-library/lpc_chip_11cxx_lib/inc/ssp_11xx.h ****  * @brief SSP frame format
 192:../../lpc11cx4-library/lpc_chip_11cxx_lib/inc/ssp_11xx.h ****  */
 193:../../lpc11cx4-library/lpc_chip_11cxx_lib/inc/ssp_11xx.h **** typedef enum CHIP_SSP_FRAME_FORMAT {
 194:../../lpc11cx4-library/lpc_chip_11cxx_lib/inc/ssp_11xx.h **** 	SSP_FRAMEFORMAT_SPI = (0 << 4),			/**< Frame format: SPI */
 195:../../lpc11cx4-library/lpc_chip_11cxx_lib/inc/ssp_11xx.h **** 	CHIP_SSP_FRAME_FORMAT_TI = (1u << 4),			/**< Frame format: TI SSI */
 196:../../lpc11cx4-library/lpc_chip_11cxx_lib/inc/ssp_11xx.h **** 	SSP_FRAMEFORMAT_MICROWIRE = (2u << 4),	/**< Frame format: Microwire */
 197:../../lpc11cx4-library/lpc_chip_11cxx_lib/inc/ssp_11xx.h **** } CHIP_SSP_FRAME_FORMAT_T;
 198:../../lpc11cx4-library/lpc_chip_11cxx_lib/inc/ssp_11xx.h **** 
 199:../../lpc11cx4-library/lpc_chip_11cxx_lib/inc/ssp_11xx.h **** /*
 200:../../lpc11cx4-library/lpc_chip_11cxx_lib/inc/ssp_11xx.h ****  * @brief Number of bits per frame
 201:../../lpc11cx4-library/lpc_chip_11cxx_lib/inc/ssp_11xx.h ****  */
 202:../../lpc11cx4-library/lpc_chip_11cxx_lib/inc/ssp_11xx.h **** typedef enum CHIP_SSP_BITS {
 203:../../lpc11cx4-library/lpc_chip_11cxx_lib/inc/ssp_11xx.h **** 	SSP_BITS_4 = (3u << 0),		/*!< 4 bits/frame */
 204:../../lpc11cx4-library/lpc_chip_11cxx_lib/inc/ssp_11xx.h **** 	SSP_BITS_5 = (4u << 0),		/*!< 5 bits/frame */
 205:../../lpc11cx4-library/lpc_chip_11cxx_lib/inc/ssp_11xx.h **** 	SSP_BITS_6 = (5u << 0),		/*!< 6 bits/frame */
 206:../../lpc11cx4-library/lpc_chip_11cxx_lib/inc/ssp_11xx.h **** 	SSP_BITS_7 = (6u << 0),		/*!< 7 bits/frame */
 207:../../lpc11cx4-library/lpc_chip_11cxx_lib/inc/ssp_11xx.h **** 	SSP_BITS_8 = (7u << 0),		/*!< 8 bits/frame */
 208:../../lpc11cx4-library/lpc_chip_11cxx_lib/inc/ssp_11xx.h **** 	SSP_BITS_9 = (8u << 0),		/*!< 9 bits/frame */
 209:../../lpc11cx4-library/lpc_chip_11cxx_lib/inc/ssp_11xx.h **** 	SSP_BITS_10 = (9u << 0),	/*!< 10 bits/frame */
 210:../../lpc11cx4-library/lpc_chip_11cxx_lib/inc/ssp_11xx.h **** 	SSP_BITS_11 = (10u << 0),	/*!< 11 bits/frame */
 211:../../lpc11cx4-library/lpc_chip_11cxx_lib/inc/ssp_11xx.h **** 	SSP_BITS_12 = (11u << 0),	/*!< 12 bits/frame */
 212:../../lpc11cx4-library/lpc_chip_11cxx_lib/inc/ssp_11xx.h **** 	SSP_BITS_13 = (12u << 0),	/*!< 13 bits/frame */
 213:../../lpc11cx4-library/lpc_chip_11cxx_lib/inc/ssp_11xx.h **** 	SSP_BITS_14 = (13u << 0),	/*!< 14 bits/frame */
 214:../../lpc11cx4-library/lpc_chip_11cxx_lib/inc/ssp_11xx.h **** 	SSP_BITS_15 = (14u << 0),	/*!< 15 bits/frame */
 215:../../lpc11cx4-library/lpc_chip_11cxx_lib/inc/ssp_11xx.h **** 	SSP_BITS_16 = (15u << 0),	/*!< 16 bits/frame */
 216:../../lpc11cx4-library/lpc_chip_11cxx_lib/inc/ssp_11xx.h **** } CHIP_SSP_BITS_T;
 217:../../lpc11cx4-library/lpc_chip_11cxx_lib/inc/ssp_11xx.h **** 
 218:../../lpc11cx4-library/lpc_chip_11cxx_lib/inc/ssp_11xx.h **** /*
 219:../../lpc11cx4-library/lpc_chip_11cxx_lib/inc/ssp_11xx.h ****  * @brief SSP config format
 220:../../lpc11cx4-library/lpc_chip_11cxx_lib/inc/ssp_11xx.h ****  */
 221:../../lpc11cx4-library/lpc_chip_11cxx_lib/inc/ssp_11xx.h **** typedef struct SSP_ConfigFormat {
 222:../../lpc11cx4-library/lpc_chip_11cxx_lib/inc/ssp_11xx.h **** 	CHIP_SSP_BITS_T bits;					/*!< Format config: bits/frame */
 223:../../lpc11cx4-library/lpc_chip_11cxx_lib/inc/ssp_11xx.h **** 	CHIP_SSP_CLOCK_MODE_T clockMode;	/*!< Format config: clock phase/polarity */
 224:../../lpc11cx4-library/lpc_chip_11cxx_lib/inc/ssp_11xx.h **** 	CHIP_SSP_FRAME_FORMAT_T frameFormat;	/*!< Format config: SPI/TI/Microwire */
 225:../../lpc11cx4-library/lpc_chip_11cxx_lib/inc/ssp_11xx.h **** } SSP_ConfigFormat;
 226:../../lpc11cx4-library/lpc_chip_11cxx_lib/inc/ssp_11xx.h **** 
 227:../../lpc11cx4-library/lpc_chip_11cxx_lib/inc/ssp_11xx.h **** /**
 228:../../lpc11cx4-library/lpc_chip_11cxx_lib/inc/ssp_11xx.h ****  * @brief	Enable SSP operation
 229:../../lpc11cx4-library/lpc_chip_11cxx_lib/inc/ssp_11xx.h ****  * @param	pSSP		: The base of SSP peripheral on the chip
 230:../../lpc11cx4-library/lpc_chip_11cxx_lib/inc/ssp_11xx.h ****  * @return	 Nothing
 231:../../lpc11cx4-library/lpc_chip_11cxx_lib/inc/ssp_11xx.h ****  */
 232:../../lpc11cx4-library/lpc_chip_11cxx_lib/inc/ssp_11xx.h **** STATIC INLINE void Chip_SSP_Enable(LPC_SSP_T *pSSP)
 233:../../lpc11cx4-library/lpc_chip_11cxx_lib/inc/ssp_11xx.h **** {
 234:../../lpc11cx4-library/lpc_chip_11cxx_lib/inc/ssp_11xx.h **** 	pSSP->CR1 |= SSP_CR1_SSP_EN;
 235:../../lpc11cx4-library/lpc_chip_11cxx_lib/inc/ssp_11xx.h **** }
 236:../../lpc11cx4-library/lpc_chip_11cxx_lib/inc/ssp_11xx.h **** 
 237:../../lpc11cx4-library/lpc_chip_11cxx_lib/inc/ssp_11xx.h **** /**
 238:../../lpc11cx4-library/lpc_chip_11cxx_lib/inc/ssp_11xx.h ****  * @brief	Disable SSP operation
 239:../../lpc11cx4-library/lpc_chip_11cxx_lib/inc/ssp_11xx.h ****  * @param	pSSP		: The base of SSP peripheral on the chip
 240:../../lpc11cx4-library/lpc_chip_11cxx_lib/inc/ssp_11xx.h ****  * @return	 Nothing
 241:../../lpc11cx4-library/lpc_chip_11cxx_lib/inc/ssp_11xx.h ****  */
ARM GAS  /tmp/ccGKa4GA.s 			page 11


 242:../../lpc11cx4-library/lpc_chip_11cxx_lib/inc/ssp_11xx.h **** STATIC INLINE void Chip_SSP_Disable(LPC_SSP_T *pSSP)
 243:../../lpc11cx4-library/lpc_chip_11cxx_lib/inc/ssp_11xx.h **** {
 244:../../lpc11cx4-library/lpc_chip_11cxx_lib/inc/ssp_11xx.h **** 	pSSP->CR1 &= (~SSP_CR1_SSP_EN) & SSP_CR1_BITMASK;
 245:../../lpc11cx4-library/lpc_chip_11cxx_lib/inc/ssp_11xx.h **** }
 246:../../lpc11cx4-library/lpc_chip_11cxx_lib/inc/ssp_11xx.h **** 
 247:../../lpc11cx4-library/lpc_chip_11cxx_lib/inc/ssp_11xx.h **** /**
 248:../../lpc11cx4-library/lpc_chip_11cxx_lib/inc/ssp_11xx.h ****  * @brief	Enable loopback mode
 249:../../lpc11cx4-library/lpc_chip_11cxx_lib/inc/ssp_11xx.h ****  * @param	pSSP		: The base of SSP peripheral on the chip
 250:../../lpc11cx4-library/lpc_chip_11cxx_lib/inc/ssp_11xx.h ****  * @return	 Nothing
 251:../../lpc11cx4-library/lpc_chip_11cxx_lib/inc/ssp_11xx.h ****  * @note	Serial input is taken from the serial output (MOSI or MISO) rather
 252:../../lpc11cx4-library/lpc_chip_11cxx_lib/inc/ssp_11xx.h ****  * than the serial input pin
 253:../../lpc11cx4-library/lpc_chip_11cxx_lib/inc/ssp_11xx.h ****  */
 254:../../lpc11cx4-library/lpc_chip_11cxx_lib/inc/ssp_11xx.h **** STATIC INLINE void Chip_SSP_EnableLoopBack(LPC_SSP_T *pSSP)
 255:../../lpc11cx4-library/lpc_chip_11cxx_lib/inc/ssp_11xx.h **** {
 256:../../lpc11cx4-library/lpc_chip_11cxx_lib/inc/ssp_11xx.h **** 	pSSP->CR1 |= SSP_CR1_LBM_EN;
 257:../../lpc11cx4-library/lpc_chip_11cxx_lib/inc/ssp_11xx.h **** }
 258:../../lpc11cx4-library/lpc_chip_11cxx_lib/inc/ssp_11xx.h **** 
 259:../../lpc11cx4-library/lpc_chip_11cxx_lib/inc/ssp_11xx.h **** /**
 260:../../lpc11cx4-library/lpc_chip_11cxx_lib/inc/ssp_11xx.h ****  * @brief	Disable loopback mode
 261:../../lpc11cx4-library/lpc_chip_11cxx_lib/inc/ssp_11xx.h ****  * @param	pSSP		: The base of SSP peripheral on the chip
 262:../../lpc11cx4-library/lpc_chip_11cxx_lib/inc/ssp_11xx.h ****  * @return	 Nothing
 263:../../lpc11cx4-library/lpc_chip_11cxx_lib/inc/ssp_11xx.h ****  * @note	Serial input is taken from the serial output (MOSI or MISO) rather
 264:../../lpc11cx4-library/lpc_chip_11cxx_lib/inc/ssp_11xx.h ****  * than the serial input pin
 265:../../lpc11cx4-library/lpc_chip_11cxx_lib/inc/ssp_11xx.h ****  */
 266:../../lpc11cx4-library/lpc_chip_11cxx_lib/inc/ssp_11xx.h **** STATIC INLINE void Chip_SSP_DisableLoopBack(LPC_SSP_T *pSSP)
 267:../../lpc11cx4-library/lpc_chip_11cxx_lib/inc/ssp_11xx.h **** {
 268:../../lpc11cx4-library/lpc_chip_11cxx_lib/inc/ssp_11xx.h **** 	pSSP->CR1 &= (~SSP_CR1_LBM_EN) & SSP_CR1_BITMASK;
 269:../../lpc11cx4-library/lpc_chip_11cxx_lib/inc/ssp_11xx.h **** }
 270:../../lpc11cx4-library/lpc_chip_11cxx_lib/inc/ssp_11xx.h **** 
 271:../../lpc11cx4-library/lpc_chip_11cxx_lib/inc/ssp_11xx.h **** /**
 272:../../lpc11cx4-library/lpc_chip_11cxx_lib/inc/ssp_11xx.h ****  * @brief	Get the current status of SSP controller
 273:../../lpc11cx4-library/lpc_chip_11cxx_lib/inc/ssp_11xx.h ****  * @param	pSSP	: The base of SSP peripheral on the chip
 274:../../lpc11cx4-library/lpc_chip_11cxx_lib/inc/ssp_11xx.h ****  * @param	Stat	: Type of status, should be :
 275:../../lpc11cx4-library/lpc_chip_11cxx_lib/inc/ssp_11xx.h ****  *						- SSP_STAT_TFE
 276:../../lpc11cx4-library/lpc_chip_11cxx_lib/inc/ssp_11xx.h ****  *						- SSP_STAT_TNF
 277:../../lpc11cx4-library/lpc_chip_11cxx_lib/inc/ssp_11xx.h ****  *						- SSP_STAT_RNE
 278:../../lpc11cx4-library/lpc_chip_11cxx_lib/inc/ssp_11xx.h ****  *						- SSP_STAT_RFF
 279:../../lpc11cx4-library/lpc_chip_11cxx_lib/inc/ssp_11xx.h ****  *						- SSP_STAT_BSY
 280:../../lpc11cx4-library/lpc_chip_11cxx_lib/inc/ssp_11xx.h ****  * @return	 SSP controller status, SET or RESET
 281:../../lpc11cx4-library/lpc_chip_11cxx_lib/inc/ssp_11xx.h ****  */
 282:../../lpc11cx4-library/lpc_chip_11cxx_lib/inc/ssp_11xx.h **** STATIC INLINE FlagStatus Chip_SSP_GetStatus(LPC_SSP_T *pSSP, SSP_STATUS_T Stat)
 283:../../lpc11cx4-library/lpc_chip_11cxx_lib/inc/ssp_11xx.h **** {
 284:../../lpc11cx4-library/lpc_chip_11cxx_lib/inc/ssp_11xx.h **** 	return (pSSP->SR & Stat) ? SET : RESET;
 147              		.loc 2 284 0
 148 0006 C368     		ldr	r3, [r0, #12]	@ _121, pSSP_10(D)->SR
 149              	.LVL5:
 150              	.LBE243:
 151              	.LBE242:
 152              		.loc 1 181 0
 153 0008 80B5     		push	{r7, lr}	@
 154              		.cfi_def_cfa_offset 28
 155              		.cfi_offset 8, -28
 156              		.cfi_offset 9, -24
 182:../../lpc11cx4-library/lpc_chip_11cxx_lib/src/ssp_11xx.c **** 	/* Clear all remaining frames in RX FIFO */
 183:../../lpc11cx4-library/lpc_chip_11cxx_lib/src/ssp_11xx.c **** 	while (Chip_SSP_GetStatus(pSSP, SSP_STAT_RNE)) {
 157              		.loc 1 183 0
 158 000a 5B07     		lsls	r3, r3, #29	@ tmp256, _121,
ARM GAS  /tmp/ccGKa4GA.s 			page 12


 159 000c 04D5     		bpl	.L5	@,
 160              	.LBB246:
 161              	.LBB244:
 162              		.loc 2 284 0
 163 000e 0422     		movs	r2, #4	@ tmp201,
 164              	.L52:
 165              	.LVL6:
 166              	.LBE244:
 167              	.LBE246:
 168              	.LBB247:
 169              	.LBB248:
 285:../../lpc11cx4-library/lpc_chip_11cxx_lib/inc/ssp_11xx.h **** }
 286:../../lpc11cx4-library/lpc_chip_11cxx_lib/inc/ssp_11xx.h **** 
 287:../../lpc11cx4-library/lpc_chip_11cxx_lib/inc/ssp_11xx.h **** /**
 288:../../lpc11cx4-library/lpc_chip_11cxx_lib/inc/ssp_11xx.h ****  * @brief	Get the masked interrupt status
 289:../../lpc11cx4-library/lpc_chip_11cxx_lib/inc/ssp_11xx.h ****  * @param	pSSP	: The base of SSP peripheral on the chip
 290:../../lpc11cx4-library/lpc_chip_11cxx_lib/inc/ssp_11xx.h ****  * @return	 SSP Masked Interrupt Status Register value
 291:../../lpc11cx4-library/lpc_chip_11cxx_lib/inc/ssp_11xx.h ****  * @note	The return value contains a 1 for each interrupt condition that is asserted and enabled (m
 292:../../lpc11cx4-library/lpc_chip_11cxx_lib/inc/ssp_11xx.h ****  */
 293:../../lpc11cx4-library/lpc_chip_11cxx_lib/inc/ssp_11xx.h **** STATIC INLINE uint32_t Chip_SSP_GetIntStatus(LPC_SSP_T *pSSP)
 294:../../lpc11cx4-library/lpc_chip_11cxx_lib/inc/ssp_11xx.h **** {
 295:../../lpc11cx4-library/lpc_chip_11cxx_lib/inc/ssp_11xx.h **** 	return pSSP->MIS;
 296:../../lpc11cx4-library/lpc_chip_11cxx_lib/inc/ssp_11xx.h **** }
 297:../../lpc11cx4-library/lpc_chip_11cxx_lib/inc/ssp_11xx.h **** 
 298:../../lpc11cx4-library/lpc_chip_11cxx_lib/inc/ssp_11xx.h **** /**
 299:../../lpc11cx4-library/lpc_chip_11cxx_lib/inc/ssp_11xx.h ****  * @brief	Get the raw interrupt status
 300:../../lpc11cx4-library/lpc_chip_11cxx_lib/inc/ssp_11xx.h ****  * @param	pSSP	: The base of SSP peripheral on the chip
 301:../../lpc11cx4-library/lpc_chip_11cxx_lib/inc/ssp_11xx.h ****  * @param	RawInt	: Interrupt condition to be get status, shoud be :
 302:../../lpc11cx4-library/lpc_chip_11cxx_lib/inc/ssp_11xx.h ****  *						- SSP_RORRIS
 303:../../lpc11cx4-library/lpc_chip_11cxx_lib/inc/ssp_11xx.h ****  *						- SSP_RTRIS
 304:../../lpc11cx4-library/lpc_chip_11cxx_lib/inc/ssp_11xx.h ****  *						- SSP_RXRIS
 305:../../lpc11cx4-library/lpc_chip_11cxx_lib/inc/ssp_11xx.h ****  *						- SSP_TXRIS
 306:../../lpc11cx4-library/lpc_chip_11cxx_lib/inc/ssp_11xx.h ****  * @return	 Raw interrupt status corresponding to interrupt condition , SET or RESET
 307:../../lpc11cx4-library/lpc_chip_11cxx_lib/inc/ssp_11xx.h ****  * @note	Get the status of each interrupt condition ,regardless of whether or not the interrupt is 
 308:../../lpc11cx4-library/lpc_chip_11cxx_lib/inc/ssp_11xx.h ****  */
 309:../../lpc11cx4-library/lpc_chip_11cxx_lib/inc/ssp_11xx.h **** STATIC INLINE IntStatus Chip_SSP_GetRawIntStatus(LPC_SSP_T *pSSP, SSP_RAWINTSTATUS_T RawInt)
 310:../../lpc11cx4-library/lpc_chip_11cxx_lib/inc/ssp_11xx.h **** {
 311:../../lpc11cx4-library/lpc_chip_11cxx_lib/inc/ssp_11xx.h **** 	return (pSSP->RIS & RawInt) ? SET : RESET;
 312:../../lpc11cx4-library/lpc_chip_11cxx_lib/inc/ssp_11xx.h **** }
 313:../../lpc11cx4-library/lpc_chip_11cxx_lib/inc/ssp_11xx.h **** 
 314:../../lpc11cx4-library/lpc_chip_11cxx_lib/inc/ssp_11xx.h **** /**
 315:../../lpc11cx4-library/lpc_chip_11cxx_lib/inc/ssp_11xx.h ****  * @brief	Get the number of bits transferred in each frame
 316:../../lpc11cx4-library/lpc_chip_11cxx_lib/inc/ssp_11xx.h ****  * @param	pSSP	: The base of SSP peripheral on the chip
 317:../../lpc11cx4-library/lpc_chip_11cxx_lib/inc/ssp_11xx.h ****  * @return	 the number of bits transferred in each frame minus one
 318:../../lpc11cx4-library/lpc_chip_11cxx_lib/inc/ssp_11xx.h ****  * @note	The return value is 0x03 -> 0xF corresponding to 4bit -> 16bit transfer
 319:../../lpc11cx4-library/lpc_chip_11cxx_lib/inc/ssp_11xx.h ****  */
 320:../../lpc11cx4-library/lpc_chip_11cxx_lib/inc/ssp_11xx.h **** STATIC INLINE uint8_t Chip_SSP_GetDataSize(LPC_SSP_T *pSSP)
 321:../../lpc11cx4-library/lpc_chip_11cxx_lib/inc/ssp_11xx.h **** {
 322:../../lpc11cx4-library/lpc_chip_11cxx_lib/inc/ssp_11xx.h **** 	return SSP_CR0_DSS(pSSP->CR0);
 323:../../lpc11cx4-library/lpc_chip_11cxx_lib/inc/ssp_11xx.h **** }
 324:../../lpc11cx4-library/lpc_chip_11cxx_lib/inc/ssp_11xx.h **** 
 325:../../lpc11cx4-library/lpc_chip_11cxx_lib/inc/ssp_11xx.h **** /**
 326:../../lpc11cx4-library/lpc_chip_11cxx_lib/inc/ssp_11xx.h ****  * @brief	Clear the corresponding interrupt condition(s) in the SSP controller
 327:../../lpc11cx4-library/lpc_chip_11cxx_lib/inc/ssp_11xx.h ****  * @param	pSSP	: The base of SSP peripheral on the chip
 328:../../lpc11cx4-library/lpc_chip_11cxx_lib/inc/ssp_11xx.h ****  * @param	IntClear: Type of cleared interrupt, should be :
 329:../../lpc11cx4-library/lpc_chip_11cxx_lib/inc/ssp_11xx.h ****  *						- SSP_RORIC
 330:../../lpc11cx4-library/lpc_chip_11cxx_lib/inc/ssp_11xx.h ****  *						- SSP_RTIC
ARM GAS  /tmp/ccGKa4GA.s 			page 13


 331:../../lpc11cx4-library/lpc_chip_11cxx_lib/inc/ssp_11xx.h ****  * @return	 Nothing
 332:../../lpc11cx4-library/lpc_chip_11cxx_lib/inc/ssp_11xx.h ****  * @note	Software can clear one or more interrupt condition(s) in the SSP controller
 333:../../lpc11cx4-library/lpc_chip_11cxx_lib/inc/ssp_11xx.h ****  */
 334:../../lpc11cx4-library/lpc_chip_11cxx_lib/inc/ssp_11xx.h **** STATIC INLINE void Chip_SSP_ClearIntPending(LPC_SSP_T *pSSP, SSP_INTCLEAR_T IntClear)
 335:../../lpc11cx4-library/lpc_chip_11cxx_lib/inc/ssp_11xx.h **** {
 336:../../lpc11cx4-library/lpc_chip_11cxx_lib/inc/ssp_11xx.h **** 	pSSP->ICR = IntClear;
 337:../../lpc11cx4-library/lpc_chip_11cxx_lib/inc/ssp_11xx.h **** }
 338:../../lpc11cx4-library/lpc_chip_11cxx_lib/inc/ssp_11xx.h **** 
 339:../../lpc11cx4-library/lpc_chip_11cxx_lib/inc/ssp_11xx.h **** /**
 340:../../lpc11cx4-library/lpc_chip_11cxx_lib/inc/ssp_11xx.h ****  * @brief	Enable interrupt for the SSP
 341:../../lpc11cx4-library/lpc_chip_11cxx_lib/inc/ssp_11xx.h ****  * @param	pSSP		: The base of SSP peripheral on the chip
 342:../../lpc11cx4-library/lpc_chip_11cxx_lib/inc/ssp_11xx.h ****  * @return	 Nothing
 343:../../lpc11cx4-library/lpc_chip_11cxx_lib/inc/ssp_11xx.h ****  */
 344:../../lpc11cx4-library/lpc_chip_11cxx_lib/inc/ssp_11xx.h **** STATIC INLINE void Chip_SSP_Int_Enable(LPC_SSP_T *pSSP)
 345:../../lpc11cx4-library/lpc_chip_11cxx_lib/inc/ssp_11xx.h **** {
 346:../../lpc11cx4-library/lpc_chip_11cxx_lib/inc/ssp_11xx.h **** 	pSSP->IMSC |= SSP_TXIM;
 347:../../lpc11cx4-library/lpc_chip_11cxx_lib/inc/ssp_11xx.h **** }
 348:../../lpc11cx4-library/lpc_chip_11cxx_lib/inc/ssp_11xx.h **** 
 349:../../lpc11cx4-library/lpc_chip_11cxx_lib/inc/ssp_11xx.h **** /**
 350:../../lpc11cx4-library/lpc_chip_11cxx_lib/inc/ssp_11xx.h ****  * @brief	Disable interrupt for the SSP
 351:../../lpc11cx4-library/lpc_chip_11cxx_lib/inc/ssp_11xx.h ****  * @param	pSSP		: The base of SSP peripheral on the chip
 352:../../lpc11cx4-library/lpc_chip_11cxx_lib/inc/ssp_11xx.h ****  * @return	 Nothing
 353:../../lpc11cx4-library/lpc_chip_11cxx_lib/inc/ssp_11xx.h ****  */
 354:../../lpc11cx4-library/lpc_chip_11cxx_lib/inc/ssp_11xx.h **** STATIC INLINE void Chip_SSP_Int_Disable(LPC_SSP_T *pSSP)
 355:../../lpc11cx4-library/lpc_chip_11cxx_lib/inc/ssp_11xx.h **** {
 356:../../lpc11cx4-library/lpc_chip_11cxx_lib/inc/ssp_11xx.h **** 	pSSP->IMSC &= (~SSP_TXIM);
 357:../../lpc11cx4-library/lpc_chip_11cxx_lib/inc/ssp_11xx.h **** }
 358:../../lpc11cx4-library/lpc_chip_11cxx_lib/inc/ssp_11xx.h **** 
 359:../../lpc11cx4-library/lpc_chip_11cxx_lib/inc/ssp_11xx.h **** /**
 360:../../lpc11cx4-library/lpc_chip_11cxx_lib/inc/ssp_11xx.h ****  * @brief	Get received SSP data
 361:../../lpc11cx4-library/lpc_chip_11cxx_lib/inc/ssp_11xx.h ****  * @param	pSSP	: The base of SSP peripheral on the chip
 362:../../lpc11cx4-library/lpc_chip_11cxx_lib/inc/ssp_11xx.h ****  * @return	 SSP 16-bit data received
 363:../../lpc11cx4-library/lpc_chip_11cxx_lib/inc/ssp_11xx.h ****  */
 364:../../lpc11cx4-library/lpc_chip_11cxx_lib/inc/ssp_11xx.h **** STATIC INLINE uint16_t Chip_SSP_ReceiveFrame(LPC_SSP_T *pSSP)
 365:../../lpc11cx4-library/lpc_chip_11cxx_lib/inc/ssp_11xx.h **** {
 366:../../lpc11cx4-library/lpc_chip_11cxx_lib/inc/ssp_11xx.h **** 	return (uint16_t) (SSP_DR_BITMASK(pSSP->DR));
 170              		.loc 2 366 0
 171 0010 8368     		ldr	r3, [r0, #8]	@ _29, pSSP_10(D)->DR
 172              	.LVL7:
 173              	.LBE248:
 174              	.LBE247:
 175              	.LBB249:
 176              	.LBB245:
 284:../../lpc11cx4-library/lpc_chip_11cxx_lib/inc/ssp_11xx.h **** }
 177              		.loc 2 284 0
 178 0012 C368     		ldr	r3, [r0, #12]	@ _30, pSSP_10(D)->SR
 179              	.LVL8:
 180              	.LBE245:
 181              	.LBE249:
 182              		.loc 1 183 0
 183 0014 1A42     		tst	r2, r3	@ tmp201, _30
 184 0016 FBD1     		bne	.L52	@,
 185              	.LVL9:
 186              	.L5:
 187              	.LBB250:
 188              	.LBB251:
 336:../../lpc11cx4-library/lpc_chip_11cxx_lib/inc/ssp_11xx.h **** }
ARM GAS  /tmp/ccGKa4GA.s 			page 14


 189              		.loc 2 336 0
 190 0018 0323     		movs	r3, #3	@ tmp203,
 191 001a 0362     		str	r3, [r0, #32]	@ tmp203, pSSP_10(D)->ICR
 192              	.LVL10:
 193              	.LBE251:
 194              	.LBE250:
 195              	.LBB252:
 196              	.LBB253:
 322:../../lpc11cx4-library/lpc_chip_11cxx_lib/inc/ssp_11xx.h **** }
 197              		.loc 2 322 0
 198 001c 0268     		ldr	r2, [r0]	@ _32, pSSP_10(D)->CR0
 199              	.LVL11:
 200              	.LBE253:
 201              	.LBE252:
 184:../../lpc11cx4-library/lpc_chip_11cxx_lib/src/ssp_11xx.c **** 		Chip_SSP_ReceiveFrame(pSSP);
 185:../../lpc11cx4-library/lpc_chip_11cxx_lib/src/ssp_11xx.c **** 	}
 186:../../lpc11cx4-library/lpc_chip_11cxx_lib/src/ssp_11xx.c **** 
 187:../../lpc11cx4-library/lpc_chip_11cxx_lib/src/ssp_11xx.c **** 	/* Clear status */
 188:../../lpc11cx4-library/lpc_chip_11cxx_lib/src/ssp_11xx.c **** 	Chip_SSP_ClearIntPending(pSSP, SSP_INT_CLEAR_BITMASK);
 189:../../lpc11cx4-library/lpc_chip_11cxx_lib/src/ssp_11xx.c **** 
 190:../../lpc11cx4-library/lpc_chip_11cxx_lib/src/ssp_11xx.c **** 	if (Chip_SSP_GetDataSize(pSSP) > SSP_BITS_8) {
 202              		.loc 1 190 0
 203 001e 0C33     		adds	r3, r3, #12	@ tmp208,
 204 0020 1340     		ands	r3, r2	@ tmp209, _32
 205 0022 072B     		cmp	r3, #7	@ tmp209,
 206 0024 43D8     		bhi	.L7	@,
 207              	.LBB254:
 208              	.LBB255:
 284:../../lpc11cx4-library/lpc_chip_11cxx_lib/inc/ssp_11xx.h **** }
 209              		.loc 2 284 0
 210 0026 0222     		movs	r2, #2	@ tmp251,
 211 0028 9046     		mov	r8, r2	@ tmp251, tmp251
 212              	.LBE255:
 213              	.LBE254:
 214              	.LBB258:
 215              	.LBB259:
 216              	.LBB260:
 217              	.LBB261:
 367:../../lpc11cx4-library/lpc_chip_11cxx_lib/inc/ssp_11xx.h **** }
 368:../../lpc11cx4-library/lpc_chip_11cxx_lib/inc/ssp_11xx.h **** 
 369:../../lpc11cx4-library/lpc_chip_11cxx_lib/inc/ssp_11xx.h **** /**
 370:../../lpc11cx4-library/lpc_chip_11cxx_lib/inc/ssp_11xx.h ****  * @brief	Send SSP 16-bit data
 371:../../lpc11cx4-library/lpc_chip_11cxx_lib/inc/ssp_11xx.h ****  * @param	pSSP	: The base of SSP peripheral on the chip
 372:../../lpc11cx4-library/lpc_chip_11cxx_lib/inc/ssp_11xx.h ****  * @param	tx_data	: SSP 16-bit data to be transmited
 373:../../lpc11cx4-library/lpc_chip_11cxx_lib/inc/ssp_11xx.h ****  * @return	 Nothing
 374:../../lpc11cx4-library/lpc_chip_11cxx_lib/inc/ssp_11xx.h ****  */
 375:../../lpc11cx4-library/lpc_chip_11cxx_lib/inc/ssp_11xx.h **** STATIC INLINE void Chip_SSP_SendFrame(LPC_SSP_T *pSSP, uint16_t tx_data)
 376:../../lpc11cx4-library/lpc_chip_11cxx_lib/inc/ssp_11xx.h **** {
 377:../../lpc11cx4-library/lpc_chip_11cxx_lib/inc/ssp_11xx.h **** 	pSSP->DR = SSP_DR_BITMASK(tx_data);
 218              		.loc 2 377 0
 219 002a FD32     		adds	r2, r2, #253	@ tmp252,
 220 002c 9146     		mov	r9, r2	@ tmp252, tmp252
 221              	.LBE261:
 222              	.LBE260:
 223              	.LBE259:
 224              	.LBE258:
 225              	.LBB268:
ARM GAS  /tmp/ccGKa4GA.s 			page 15


 226              	.LBB269:
 311:../../lpc11cx4-library/lpc_chip_11cxx_lib/inc/ssp_11xx.h **** }
 227              		.loc 2 311 0
 228 002e FE3A     		subs	r2, r2, #254	@ tmp253,
 229 0030 9446     		mov	ip, r2	@ tmp253, tmp253
 230              	.LBE269:
 231              	.LBE268:
 232              	.LBB272:
 233              	.LBB273:
 234              	.LBB274:
 235              	.LBB275:
 284:../../lpc11cx4-library/lpc_chip_11cxx_lib/inc/ssp_11xx.h **** }
 236              		.loc 2 284 0
 237 0032 0426     		movs	r6, #4	@ tmp254,
 238 0034 CB68     		ldr	r3, [r1, #12]	@ xf_setup_13(D)->rx_cnt, xf_setup_13(D)->rx_cnt
 239 0036 0C69     		ldr	r4, [r1, #16]	@ prephitmp_81, xf_setup_13(D)->length
 240              	.L8:
 241              	.LBE275:
 242              	.LBE274:
 243              	.LBE273:
 244              	.LBE272:
 191:../../lpc11cx4-library/lpc_chip_11cxx_lib/src/ssp_11xx.c **** 		while (xf_setup->rx_cnt < xf_setup->length || xf_setup->tx_cnt < xf_setup->length) {
 192:../../lpc11cx4-library/lpc_chip_11cxx_lib/src/ssp_11xx.c **** 			/* write data to buffer */
 193:../../lpc11cx4-library/lpc_chip_11cxx_lib/src/ssp_11xx.c **** 			if (( Chip_SSP_GetStatus(pSSP, SSP_STAT_TNF) == SET) && ( xf_setup->tx_cnt < xf_setup->length) )
 194:../../lpc11cx4-library/lpc_chip_11cxx_lib/src/ssp_11xx.c **** 				SSP_Write2BFifo(pSSP, xf_setup);
 195:../../lpc11cx4-library/lpc_chip_11cxx_lib/src/ssp_11xx.c **** 			}
 196:../../lpc11cx4-library/lpc_chip_11cxx_lib/src/ssp_11xx.c **** 
 197:../../lpc11cx4-library/lpc_chip_11cxx_lib/src/ssp_11xx.c **** 			/* Check overrun error */
 198:../../lpc11cx4-library/lpc_chip_11cxx_lib/src/ssp_11xx.c **** 			if (Chip_SSP_GetRawIntStatus(pSSP, SSP_RORRIS) == SET) {
 199:../../lpc11cx4-library/lpc_chip_11cxx_lib/src/ssp_11xx.c **** 				return ERROR;
 200:../../lpc11cx4-library/lpc_chip_11cxx_lib/src/ssp_11xx.c **** 			}
 201:../../lpc11cx4-library/lpc_chip_11cxx_lib/src/ssp_11xx.c **** 
 202:../../lpc11cx4-library/lpc_chip_11cxx_lib/src/ssp_11xx.c **** 			/* Check for any data available in RX FIFO */
 203:../../lpc11cx4-library/lpc_chip_11cxx_lib/src/ssp_11xx.c **** 			SSP_Read2BFifo(pSSP, xf_setup);
 204:../../lpc11cx4-library/lpc_chip_11cxx_lib/src/ssp_11xx.c **** 		}
 205:../../lpc11cx4-library/lpc_chip_11cxx_lib/src/ssp_11xx.c **** 	}
 206:../../lpc11cx4-library/lpc_chip_11cxx_lib/src/ssp_11xx.c **** 	else {
 207:../../lpc11cx4-library/lpc_chip_11cxx_lib/src/ssp_11xx.c **** 		while (xf_setup->rx_cnt < xf_setup->length || xf_setup->tx_cnt < xf_setup->length) {
 245              		.loc 1 207 0
 246 0038 A342     		cmp	r3, r4	@ xf_setup_13(D)->rx_cnt, prephitmp_81
 247 003a 28D3     		bcc	.L31	@,
 248              	.L70:
 249              		.loc 1 207 0 is_stmt 0 discriminator 1
 250 003c 4A68     		ldr	r2, [r1, #4]	@ _21, xf_setup_13(D)->tx_cnt
 251 003e 1700     		movs	r7, r2	@ <retval>, _21
 252 0040 A242     		cmp	r2, r4	@ _21, prephitmp_81
 253 0042 00D3     		bcc	.LCB158	@
 254 0044 6FE0     		b	.L33	@long jump	@
 255              	.LCB158:
 256              	.LVL12:
 208:../../lpc11cx4-library/lpc_chip_11cxx_lib/src/ssp_11xx.c **** 			/* write data to buffer */
 209:../../lpc11cx4-library/lpc_chip_11cxx_lib/src/ssp_11xx.c **** 			if (( Chip_SSP_GetStatus(pSSP, SSP_STAT_TNF) == SET) && ( xf_setup->tx_cnt < xf_setup->length) )
 257              		.loc 1 209 0 is_stmt 1
 258 0046 4746     		mov	r7, r8	@ tmp251, tmp251
 259              	.LBB283:
 260              	.LBB256:
 284:../../lpc11cx4-library/lpc_chip_11cxx_lib/inc/ssp_11xx.h **** }
ARM GAS  /tmp/ccGKa4GA.s 			page 16


 261              		.loc 2 284 0
 262 0048 C568     		ldr	r5, [r0, #12]	@ _100, pSSP_10(D)->SR
 263              	.LVL13:
 264              	.LBE256:
 265              	.LBE283:
 266              		.loc 1 209 0
 267 004a 2F42     		tst	r7, r5	@ tmp251, _100
 268 004c 08D0     		beq	.L23	@,
 269              	.L35:
 270 004e 0D68     		ldr	r5, [r1]	@ _28, MEM[(void * *)xf_setup_13(D)]
 271              	.LVL14:
 272              	.LBB284:
 273              	.LBB266:
  62:../../lpc11cx4-library/lpc_chip_11cxx_lib/src/ssp_11xx.c **** 		Chip_SSP_SendFrame(pSSP, (*(uint8_t *) ((uint32_t) xf_setup->tx_data + xf_setup->tx_cnt)));
 274              		.loc 1 62 0
 275 0050 002D     		cmp	r5, #0	@ _28,
 276 0052 00D1     		bne	.LCB182	@
 277 0054 73E0     		b	.L24	@long jump	@
 278              	.LCB182:
 279              	.LVL15:
 280              	.LBB263:
 281              	.LBB264:
 282              		.loc 2 377 0
 283 0056 AA5C     		ldrb	r2, [r5, r2]	@ _62, *_60
 284              	.LVL16:
 285 0058 8260     		str	r2, [r0, #8]	@ _62,
 286              	.LVL17:
 287              	.L25:
 288              	.LBE264:
 289              	.LBE263:
  69:../../lpc11cx4-library/lpc_chip_11cxx_lib/src/ssp_11xx.c **** }
 290              		.loc 1 69 0
 291 005a 4A68     		ldr	r2, [r1, #4]	@ tmp270, MEM[(uint32_t *)xf_setup_13(D) + 4B]
 292 005c 0132     		adds	r2, r2, #1	@ tmp226,
 293 005e 4A60     		str	r2, [r1, #4]	@ tmp226, MEM[(uint32_t *)xf_setup_13(D) + 4B]
 294              	.LVL18:
 295              	.L23:
 296              	.LBE266:
 297              	.LBE284:
 210:../../lpc11cx4-library/lpc_chip_11cxx_lib/src/ssp_11xx.c **** 				SSP_Write1BFifo(pSSP, xf_setup);
 211:../../lpc11cx4-library/lpc_chip_11cxx_lib/src/ssp_11xx.c **** 			}
 212:../../lpc11cx4-library/lpc_chip_11cxx_lib/src/ssp_11xx.c **** 
 213:../../lpc11cx4-library/lpc_chip_11cxx_lib/src/ssp_11xx.c **** 			/* Check overrun error */
 214:../../lpc11cx4-library/lpc_chip_11cxx_lib/src/ssp_11xx.c **** 			if (Chip_SSP_GetRawIntStatus(pSSP, SSP_RORRIS) == SET) {
 298              		.loc 1 214 0
 299 0060 6546     		mov	r5, ip	@ tmp253, tmp253
 300              	.LBB285:
 301              	.LBB270:
 311:../../lpc11cx4-library/lpc_chip_11cxx_lib/inc/ssp_11xx.h **** }
 302              		.loc 2 311 0
 303 0062 8269     		ldr	r2, [r0, #24]	@ _65, pSSP_10(D)->RIS
 304              	.LVL19:
 305              	.LBE270:
 306              	.LBE285:
 307              		.loc 1 214 0
 308 0064 1542     		tst	r5, r2	@ tmp253, _65
 309 0066 1DD1     		bne	.L26	@,
ARM GAS  /tmp/ccGKa4GA.s 			page 17


 310              	.L71:
 311              	.LVL20:
 312              	.LBB286:
 313              	.LBB282:
 314              	.LBB278:
 315              	.LBB276:
 284:../../lpc11cx4-library/lpc_chip_11cxx_lib/inc/ssp_11xx.h **** }
 316              		.loc 2 284 0
 317 0068 C268     		ldr	r2, [r0, #12]	@ _126,
 318              	.LVL21:
 319              	.LBE276:
 320              	.LBE278:
  93:../../lpc11cx4-library/lpc_chip_11cxx_lib/src/ssp_11xx.c **** 		   (xf_setup->rx_cnt < xf_setup->length)) {
 321              		.loc 1 93 0
 322 006a 1642     		tst	r6, r2	@ tmp254, _126
 323 006c E4D0     		beq	.L8	@,
 324              	.L66:
 325 006e A342     		cmp	r3, r4	@ xf_setup_13(D)->rx_cnt, prephitmp_81
 326 0070 E2D2     		bcs	.L8	@,
 327              	.LVL22:
  96:../../lpc11cx4-library/lpc_chip_11cxx_lib/src/ssp_11xx.c **** 			*(uint8_t *) ((uint32_t) xf_setup->rx_data + xf_setup->rx_cnt) = rDat;
 328              		.loc 1 96 0
 329 0072 8A68     		ldr	r2, [r1, #8]	@ _68, xf_setup_13(D)->rx_data
 330              	.LBB279:
 331              	.LBB280:
 366:../../lpc11cx4-library/lpc_chip_11cxx_lib/inc/ssp_11xx.h **** }
 332              		.loc 2 366 0
 333 0074 8568     		ldr	r5, [r0, #8]	@ _67, pSSP_10(D)->DR
 334              	.LVL23:
 335              	.LBE280:
 336              	.LBE279:
  96:../../lpc11cx4-library/lpc_chip_11cxx_lib/src/ssp_11xx.c **** 			*(uint8_t *) ((uint32_t) xf_setup->rx_data + xf_setup->rx_cnt) = rDat;
 337              		.loc 1 96 0
 338 0076 002A     		cmp	r2, #0	@ _68,
 339 0078 02D0     		beq	.L28	@,
  97:../../lpc11cx4-library/lpc_chip_11cxx_lib/src/ssp_11xx.c **** 		}
 340              		.loc 1 97 0
 341 007a D554     		strb	r5, [r2, r3]	@ _67, *_72
 342 007c CB68     		ldr	r3, [r1, #12]	@ xf_setup_13(D)->rx_cnt, xf_setup_13(D)->rx_cnt
 343 007e 0C69     		ldr	r4, [r1, #16]	@ prephitmp_81, xf_setup_13(D)->length
 344              	.L28:
 100:../../lpc11cx4-library/lpc_chip_11cxx_lib/src/ssp_11xx.c **** 	}
 345              		.loc 1 100 0
 346 0080 0133     		adds	r3, r3, #1	@ xf_setup_13(D)->rx_cnt,
 347 0082 CB60     		str	r3, [r1, #12]	@ xf_setup_13(D)->rx_cnt, xf_setup_13(D)->rx_cnt
 348              	.LVL24:
 349              	.LBB281:
 350              	.LBB277:
 284:../../lpc11cx4-library/lpc_chip_11cxx_lib/inc/ssp_11xx.h **** }
 351              		.loc 2 284 0
 352 0084 C268     		ldr	r2, [r0, #12]	@ _76,
 353              	.LVL25:
 354              	.LBE277:
 355              	.LBE281:
  93:../../lpc11cx4-library/lpc_chip_11cxx_lib/src/ssp_11xx.c **** 		   (xf_setup->rx_cnt < xf_setup->length)) {
 356              		.loc 1 93 0
 357 0086 1642     		tst	r6, r2	@ tmp254, _76
ARM GAS  /tmp/ccGKa4GA.s 			page 18


 358 0088 F1D1     		bne	.L66	@,
 359              	.LBE282:
 360              	.LBE286:
 207:../../lpc11cx4-library/lpc_chip_11cxx_lib/src/ssp_11xx.c **** 			/* write data to buffer */
 361              		.loc 1 207 0
 362 008a A342     		cmp	r3, r4	@ xf_setup_13(D)->rx_cnt, prephitmp_81
 363 008c D6D2     		bcs	.L70	@,
 364              	.L31:
 365              	.LVL26:
 209:../../lpc11cx4-library/lpc_chip_11cxx_lib/src/ssp_11xx.c **** 				SSP_Write1BFifo(pSSP, xf_setup);
 366              		.loc 1 209 0
 367 008e 4546     		mov	r5, r8	@ tmp251, tmp251
 368              	.LBB287:
 369              	.LBB257:
 284:../../lpc11cx4-library/lpc_chip_11cxx_lib/inc/ssp_11xx.h **** }
 370              		.loc 2 284 0
 371 0090 C268     		ldr	r2, [r0, #12]	@ _56, pSSP_10(D)->SR
 372              	.LVL27:
 373              	.LBE257:
 374              	.LBE287:
 209:../../lpc11cx4-library/lpc_chip_11cxx_lib/src/ssp_11xx.c **** 				SSP_Write1BFifo(pSSP, xf_setup);
 375              		.loc 1 209 0
 376 0092 1542     		tst	r5, r2	@ tmp251, _56
 377 0094 E4D0     		beq	.L23	@,
 209:../../lpc11cx4-library/lpc_chip_11cxx_lib/src/ssp_11xx.c **** 				SSP_Write1BFifo(pSSP, xf_setup);
 378              		.loc 1 209 0 is_stmt 0 discriminator 1
 379 0096 4A68     		ldr	r2, [r1, #4]	@ _21, xf_setup_13(D)->tx_cnt
 380 0098 A242     		cmp	r2, r4	@ _21, prephitmp_81
 381 009a D8D3     		bcc	.L35	@,
 382              	.LVL28:
 383              		.loc 1 214 0 is_stmt 1
 384 009c 6546     		mov	r5, ip	@ tmp253, tmp253
 385              	.LBB288:
 386              	.LBB271:
 311:../../lpc11cx4-library/lpc_chip_11cxx_lib/inc/ssp_11xx.h **** }
 387              		.loc 2 311 0
 388 009e 8269     		ldr	r2, [r0, #24]	@ _65, pSSP_10(D)->RIS
 389              	.LVL29:
 390              	.LBE271:
 391              	.LBE288:
 392              		.loc 1 214 0
 393 00a0 1542     		tst	r5, r2	@ tmp253, _65
 394 00a2 E1D0     		beq	.L71	@,
 395              	.LVL30:
 396              	.L26:
 199:../../lpc11cx4-library/lpc_chip_11cxx_lib/src/ssp_11xx.c **** 			}
 397              		.loc 1 199 0
 398 00a4 0020     		movs	r0, #0	@ <retval>,
 399              	.L4:
 215:../../lpc11cx4-library/lpc_chip_11cxx_lib/src/ssp_11xx.c **** 				return ERROR;
 216:../../lpc11cx4-library/lpc_chip_11cxx_lib/src/ssp_11xx.c **** 			}
 217:../../lpc11cx4-library/lpc_chip_11cxx_lib/src/ssp_11xx.c **** 
 218:../../lpc11cx4-library/lpc_chip_11cxx_lib/src/ssp_11xx.c **** 			/* Check for any data available in RX FIFO */
 219:../../lpc11cx4-library/lpc_chip_11cxx_lib/src/ssp_11xx.c **** 			SSP_Read1BFifo(pSSP, xf_setup);
 220:../../lpc11cx4-library/lpc_chip_11cxx_lib/src/ssp_11xx.c **** 		}
 221:../../lpc11cx4-library/lpc_chip_11cxx_lib/src/ssp_11xx.c **** 	}
 222:../../lpc11cx4-library/lpc_chip_11cxx_lib/src/ssp_11xx.c **** 	if (xf_setup->tx_data) {
ARM GAS  /tmp/ccGKa4GA.s 			page 19


 223:../../lpc11cx4-library/lpc_chip_11cxx_lib/src/ssp_11xx.c **** 		return xf_setup->tx_cnt;
 224:../../lpc11cx4-library/lpc_chip_11cxx_lib/src/ssp_11xx.c **** 	}
 225:../../lpc11cx4-library/lpc_chip_11cxx_lib/src/ssp_11xx.c **** 	else if (xf_setup->rx_data) {
 226:../../lpc11cx4-library/lpc_chip_11cxx_lib/src/ssp_11xx.c **** 		return xf_setup->rx_cnt;
 227:../../lpc11cx4-library/lpc_chip_11cxx_lib/src/ssp_11xx.c **** 	}
 228:../../lpc11cx4-library/lpc_chip_11cxx_lib/src/ssp_11xx.c **** 
 229:../../lpc11cx4-library/lpc_chip_11cxx_lib/src/ssp_11xx.c **** 	return 0;
 230:../../lpc11cx4-library/lpc_chip_11cxx_lib/src/ssp_11xx.c **** }
 400              		.loc 1 230 0
 401              		@ sp needed	@
 402 00a6 0CBC     		pop	{r2, r3}
 403 00a8 9046     		mov	r8, r2
 404 00aa 9946     		mov	r9, r3
 405 00ac F0BD     		pop	{r4, r5, r6, r7, pc}
 406              	.LVL31:
 407              	.L7:
 408              	.LBB289:
 409              	.LBB290:
 284:../../lpc11cx4-library/lpc_chip_11cxx_lib/inc/ssp_11xx.h **** }
 410              		.loc 2 284 0
 411 00ae 0222     		movs	r2, #2	@ tmp247,
 412 00b0 9046     		mov	r8, r2	@ tmp247, tmp247
 413              	.LBE290:
 414              	.LBE289:
 415              	.LBB293:
 416              	.LBB294:
 417              	.LBB295:
 418              	.LBB296:
 419              		.loc 2 377 0
 420 00b2 244A     		ldr	r2, .L74	@ tmp248,
 421              	.LBE296:
 422              	.LBE295:
 423              	.LBE294:
 424              	.LBE293:
 425              	.LBB306:
 426              	.LBB307:
 427              	.LBB308:
 428              	.LBB309:
 284:../../lpc11cx4-library/lpc_chip_11cxx_lib/inc/ssp_11xx.h **** }
 429              		.loc 2 284 0
 430 00b4 0426     		movs	r6, #4	@ tmp250,
 431              	.LBE309:
 432              	.LBE308:
 433              	.LBE307:
 434              	.LBE306:
 435              	.LBB317:
 436              	.LBB303:
 437              	.LBB299:
 438              	.LBB297:
 439              		.loc 2 377 0
 440 00b6 9146     		mov	r9, r2	@ tmp248, tmp248
 441              	.LBE297:
 442              	.LBE299:
 443              	.LBE303:
 444              	.LBE317:
 445              	.LBB318:
 446              	.LBB319:
ARM GAS  /tmp/ccGKa4GA.s 			page 20


 311:../../lpc11cx4-library/lpc_chip_11cxx_lib/inc/ssp_11xx.h **** }
 447              		.loc 2 311 0
 448 00b8 0122     		movs	r2, #1	@ tmp249,
 449 00ba 9446     		mov	ip, r2	@ tmp249, tmp249
 450 00bc 0D69     		ldr	r5, [r1, #16]	@ pretmp_84, xf_setup_13(D)->length
 451 00be CB68     		ldr	r3, [r1, #12]	@ prephitmp_17, xf_setup_13(D)->rx_cnt
 452              	.L9:
 453              	.LBE319:
 454              	.LBE318:
 191:../../lpc11cx4-library/lpc_chip_11cxx_lib/src/ssp_11xx.c **** 			/* write data to buffer */
 455              		.loc 1 191 0
 456 00c0 9D42     		cmp	r5, r3	@ pretmp_84, prephitmp_17
 457 00c2 28D8     		bhi	.L19	@,
 458              	.L73:
 191:../../lpc11cx4-library/lpc_chip_11cxx_lib/src/ssp_11xx.c **** 			/* write data to buffer */
 459              		.loc 1 191 0 is_stmt 0 discriminator 1
 460 00c4 4A68     		ldr	r2, [r1, #4]	@ _16, xf_setup_13(D)->tx_cnt
 461 00c6 1700     		movs	r7, r2	@ <retval>, _16
 462 00c8 AA42     		cmp	r2, r5	@ _16, pretmp_84
 463 00ca 2CD2     		bcs	.L33	@,
 464              	.LVL32:
 193:../../lpc11cx4-library/lpc_chip_11cxx_lib/src/ssp_11xx.c **** 				SSP_Write2BFifo(pSSP, xf_setup);
 465              		.loc 1 193 0 is_stmt 1
 466 00cc 4746     		mov	r7, r8	@ tmp247, tmp247
 467              	.LBB321:
 468              	.LBB291:
 284:../../lpc11cx4-library/lpc_chip_11cxx_lib/inc/ssp_11xx.h **** }
 469              		.loc 2 284 0
 470 00ce C468     		ldr	r4, [r0, #12]	@ _124, pSSP_10(D)->SR
 471              	.LVL33:
 472              	.LBE291:
 473              	.LBE321:
 193:../../lpc11cx4-library/lpc_chip_11cxx_lib/src/ssp_11xx.c **** 				SSP_Write2BFifo(pSSP, xf_setup);
 474              		.loc 1 193 0
 475 00d0 2742     		tst	r7, r4	@ tmp247, _124
 476 00d2 07D0     		beq	.L10	@,
 477              	.L34:
 478 00d4 0C68     		ldr	r4, [r1]	@ _27, MEM[(void * *)xf_setup_13(D)]
 479              	.LVL34:
 480              	.LBB322:
 481              	.LBB304:
  48:../../lpc11cx4-library/lpc_chip_11cxx_lib/src/ssp_11xx.c **** 		Chip_SSP_SendFrame(pSSP, (*(uint16_t *) ((uint32_t) xf_setup->tx_data +
 482              		.loc 1 48 0
 483 00d6 002C     		cmp	r4, #0	@ _27,
 484 00d8 2ED0     		beq	.L11	@,
 485              	.LVL35:
 486              	.LBB300:
 487              	.LBB301:
 488              		.loc 2 377 0
 489 00da A25A     		ldrh	r2, [r4, r2]	@ _41, *_39
 490              	.LVL36:
 491 00dc 8260     		str	r2, [r0, #8]	@ _41,
 492              	.LVL37:
 493              	.L12:
 494              	.LBE301:
 495              	.LBE300:
  56:../../lpc11cx4-library/lpc_chip_11cxx_lib/src/ssp_11xx.c **** }
ARM GAS  /tmp/ccGKa4GA.s 			page 21


 496              		.loc 1 56 0
 497 00de 4A68     		ldr	r2, [r1, #4]	@ tmp265, MEM[(uint32_t *)xf_setup_13(D) + 4B]
 498 00e0 0232     		adds	r2, r2, #2	@ tmp213,
 499 00e2 4A60     		str	r2, [r1, #4]	@ tmp213, MEM[(uint32_t *)xf_setup_13(D) + 4B]
 500              	.LVL38:
 501              	.L10:
 502              	.LBE304:
 503              	.LBE322:
 198:../../lpc11cx4-library/lpc_chip_11cxx_lib/src/ssp_11xx.c **** 				return ERROR;
 504              		.loc 1 198 0
 505 00e4 6446     		mov	r4, ip	@ tmp249, tmp249
 506              	.LBB323:
 507              	.LBB320:
 311:../../lpc11cx4-library/lpc_chip_11cxx_lib/inc/ssp_11xx.h **** }
 508              		.loc 2 311 0
 509 00e6 8269     		ldr	r2, [r0, #24]	@ _44, pSSP_10(D)->RIS
 510              	.LVL39:
 511              	.LBE320:
 512              	.LBE323:
 198:../../lpc11cx4-library/lpc_chip_11cxx_lib/src/ssp_11xx.c **** 				return ERROR;
 513              		.loc 1 198 0
 514 00e8 1442     		tst	r4, r2	@ tmp249, _44
 515 00ea DBD1     		bne	.L26	@,
 516              	.LVL40:
 517              	.LBB324:
 518              	.LBB316:
 519              	.LBB312:
 520              	.LBB310:
 284:../../lpc11cx4-library/lpc_chip_11cxx_lib/inc/ssp_11xx.h **** }
 521              		.loc 2 284 0
 522 00ec C268     		ldr	r2, [r0, #12]	@ _118, pSSP_10(D)->SR
 523              	.LVL41:
 524              	.LBE310:
 525              	.LBE312:
  77:../../lpc11cx4-library/lpc_chip_11cxx_lib/src/ssp_11xx.c **** 		   (xf_setup->rx_cnt < xf_setup->length)) {
 526              		.loc 1 77 0
 527 00ee 1642     		tst	r6, r2	@ tmp250, _118
 528 00f0 E6D0     		beq	.L9	@,
 529 00f2 9D42     		cmp	r5, r3	@ pretmp_84, prephitmp_17
 530 00f4 E4D9     		bls	.L9	@,
 531 00f6 8C68     		ldr	r4, [r1, #8]	@ pretmp_107, xf_setup_13(D)->rx_data
 532 00f8 01E0     		b	.L18	@
 533              	.L72:
 534 00fa AB42     		cmp	r3, r5	@ prephitmp_17, pretmp_84
 535 00fc 08D2     		bcs	.L65	@,
 536              	.L18:
 537              	.LVL42:
 538              	.LBB313:
 539              	.LBB314:
 366:../../lpc11cx4-library/lpc_chip_11cxx_lib/inc/ssp_11xx.h **** }
 540              		.loc 2 366 0
 541 00fe 8268     		ldr	r2, [r0, #8]	@ _46, pSSP_10(D)->DR
 542 0100 92B2     		uxth	r2, r2	@ _47, _46
 543              	.LVL43:
 544              	.LBE314:
 545              	.LBE313:
  80:../../lpc11cx4-library/lpc_chip_11cxx_lib/src/ssp_11xx.c **** 			*(uint16_t *) ((uint32_t) xf_setup->rx_data + xf_setup->rx_cnt) = rDat;
ARM GAS  /tmp/ccGKa4GA.s 			page 22


 546              		.loc 1 80 0
 547 0102 002C     		cmp	r4, #0	@ pretmp_107,
 548 0104 00D0     		beq	.L16	@,
  81:../../lpc11cx4-library/lpc_chip_11cxx_lib/src/ssp_11xx.c **** 		}
 549              		.loc 1 81 0
 550 0106 E252     		strh	r2, [r4, r3]	@ _47, MEM[base: pretmp_107, index: _114, offset: 0B]
 551              	.L16:
 552              	.LBB315:
 553              	.LBB311:
 284:../../lpc11cx4-library/lpc_chip_11cxx_lib/inc/ssp_11xx.h **** }
 554              		.loc 2 284 0
 555 0108 C268     		ldr	r2, [r0, #12]	@ _54, pSSP_10(D)->SR
 556              	.LBE311:
 557              	.LBE315:
  84:../../lpc11cx4-library/lpc_chip_11cxx_lib/src/ssp_11xx.c **** 	}
 558              		.loc 1 84 0
 559 010a 0233     		adds	r3, r3, #2	@ prephitmp_17,
 560              	.LVL44:
  77:../../lpc11cx4-library/lpc_chip_11cxx_lib/src/ssp_11xx.c **** 		   (xf_setup->rx_cnt < xf_setup->length)) {
 561              		.loc 1 77 0
 562 010c 1642     		tst	r6, r2	@ tmp250, _54
 563 010e F4D1     		bne	.L72	@,
 564              	.L65:
 565 0110 CB60     		str	r3, [r1, #12]	@ prephitmp_17, xf_setup_13(D)->rx_cnt
 566              	.LBE316:
 567              	.LBE324:
 191:../../lpc11cx4-library/lpc_chip_11cxx_lib/src/ssp_11xx.c **** 			/* write data to buffer */
 568              		.loc 1 191 0
 569 0112 9D42     		cmp	r5, r3	@ pretmp_84, prephitmp_17
 570 0114 D6D9     		bls	.L73	@,
 571              	.L19:
 572              	.LVL45:
 193:../../lpc11cx4-library/lpc_chip_11cxx_lib/src/ssp_11xx.c **** 				SSP_Write2BFifo(pSSP, xf_setup);
 573              		.loc 1 193 0
 574 0116 4446     		mov	r4, r8	@ tmp247, tmp247
 575              	.LBB325:
 576              	.LBB292:
 284:../../lpc11cx4-library/lpc_chip_11cxx_lib/inc/ssp_11xx.h **** }
 577              		.loc 2 284 0
 578 0118 C268     		ldr	r2, [r0, #12]	@ _35, pSSP_10(D)->SR
 579              	.LVL46:
 580              	.LBE292:
 581              	.LBE325:
 193:../../lpc11cx4-library/lpc_chip_11cxx_lib/src/ssp_11xx.c **** 				SSP_Write2BFifo(pSSP, xf_setup);
 582              		.loc 1 193 0
 583 011a 1442     		tst	r4, r2	@ tmp247, _35
 584 011c E2D0     		beq	.L10	@,
 193:../../lpc11cx4-library/lpc_chip_11cxx_lib/src/ssp_11xx.c **** 				SSP_Write2BFifo(pSSP, xf_setup);
 585              		.loc 1 193 0 is_stmt 0 discriminator 1
 586 011e 4A68     		ldr	r2, [r1, #4]	@ _16, xf_setup_13(D)->tx_cnt
 587 0120 AA42     		cmp	r2, r5	@ _16, pretmp_84
 588 0122 DFD2     		bcs	.L10	@,
 589 0124 D6E7     		b	.L34	@
 590              	.L33:
 222:../../lpc11cx4-library/lpc_chip_11cxx_lib/src/ssp_11xx.c **** 		return xf_setup->tx_cnt;
 591              		.loc 1 222 0 is_stmt 1
 592 0126 0B68     		ldr	r3, [r1]	@ tmp267, xf_setup_13(D)->tx_data
ARM GAS  /tmp/ccGKa4GA.s 			page 23


 223:../../lpc11cx4-library/lpc_chip_11cxx_lib/src/ssp_11xx.c **** 	}
 593              		.loc 1 223 0
 594 0128 3800     		movs	r0, r7	@ <retval>, <retval>
 595              	.LVL47:
 222:../../lpc11cx4-library/lpc_chip_11cxx_lib/src/ssp_11xx.c **** 		return xf_setup->tx_cnt;
 596              		.loc 1 222 0
 597 012a 002B     		cmp	r3, #0	@ tmp267,
 598 012c BBD1     		bne	.L4	@,
 225:../../lpc11cx4-library/lpc_chip_11cxx_lib/src/ssp_11xx.c **** 		return xf_setup->rx_cnt;
 599              		.loc 1 225 0
 600 012e 8B68     		ldr	r3, [r1, #8]	@ tmp272, xf_setup_13(D)->rx_data
 601 0130 002B     		cmp	r3, #0	@ tmp272,
 602 0132 B7D0     		beq	.L26	@,
 226:../../lpc11cx4-library/lpc_chip_11cxx_lib/src/ssp_11xx.c **** 	}
 603              		.loc 1 226 0
 604 0134 C868     		ldr	r0, [r1, #12]	@ <retval>, xf_setup_13(D)->rx_cnt
 605 0136 B6E7     		b	.L4	@
 606              	.LVL48:
 607              	.L11:
 608              	.LBB326:
 609              	.LBB305:
 610              	.LBB302:
 611              	.LBB298:
 612              		.loc 2 377 0
 613 0138 4A46     		mov	r2, r9	@ tmp248, tmp248
 614 013a 8260     		str	r2, [r0, #8]	@ tmp248,
 615 013c CFE7     		b	.L12	@
 616              	.LVL49:
 617              	.L24:
 618              	.LBE298:
 619              	.LBE302:
 620              	.LBE305:
 621              	.LBE326:
 622              	.LBB327:
 623              	.LBB267:
 624              	.LBB265:
 625              	.LBB262:
 626 013e 4A46     		mov	r2, r9	@ tmp252, tmp252
 627 0140 8260     		str	r2, [r0, #8]	@ tmp252,
 628 0142 8AE7     		b	.L25	@
 629              	.L75:
 630              		.align	2
 631              	.L74:
 632 0144 FFFF0000 		.word	65535
 633              	.LBE262:
 634              	.LBE265:
 635              	.LBE267:
 636              	.LBE327:
 637              		.cfi_endproc
 638              	.LFE207:
 639              		.size	Chip_SSP_RWFrames_Blocking, .-Chip_SSP_RWFrames_Blocking
 640              		.section	.text.Chip_SSP_WriteFrames_Blocking,"ax",%progbits
 641              		.align	1
 642              		.p2align 2,,3
 643              		.global	Chip_SSP_WriteFrames_Blocking
 644              		.syntax unified
 645              		.code	16
ARM GAS  /tmp/ccGKa4GA.s 			page 24


 646              		.thumb_func
 647              		.fpu softvfp
 648              		.type	Chip_SSP_WriteFrames_Blocking, %function
 649              	Chip_SSP_WriteFrames_Blocking:
 650              	.LFB208:
 231:../../lpc11cx4-library/lpc_chip_11cxx_lib/src/ssp_11xx.c **** 
 232:../../lpc11cx4-library/lpc_chip_11cxx_lib/src/ssp_11xx.c **** /* SSP Polling Write in blocking mode */
 233:../../lpc11cx4-library/lpc_chip_11cxx_lib/src/ssp_11xx.c **** uint32_t Chip_SSP_WriteFrames_Blocking(LPC_SSP_T *pSSP, uint8_t *buffer, uint32_t buffer_len)
 234:../../lpc11cx4-library/lpc_chip_11cxx_lib/src/ssp_11xx.c **** {
 651              		.loc 1 234 0
 652              		.cfi_startproc
 653              		@ args = 0, pretend = 0, frame = 0
 654              		@ frame_needed = 0, uses_anonymous_args = 0
 655              	.LVL50:
 656 0000 F0B5     		push	{r4, r5, r6, r7, lr}	@
 657              		.cfi_def_cfa_offset 20
 658              		.cfi_offset 4, -20
 659              		.cfi_offset 5, -16
 660              		.cfi_offset 6, -12
 661              		.cfi_offset 7, -8
 662              		.cfi_offset 14, -4
 663 0002 4746     		mov	r7, r8	@,
 664 0004 CE46     		mov	lr, r9	@,
 665 0006 0300     		movs	r3, r0	@ pSSP, pSSP
 666              	.LBB328:
 667              	.LBB329:
 284:../../lpc11cx4-library/lpc_chip_11cxx_lib/inc/ssp_11xx.h **** }
 668              		.loc 2 284 0
 669 0008 C068     		ldr	r0, [r0, #12]	@ _97, pSSP_25(D)->SR
 670              	.LVL51:
 671              	.LBE329:
 672              	.LBE328:
 673              		.loc 1 234 0
 674 000a 80B5     		push	{r7, lr}	@
 675              		.cfi_def_cfa_offset 28
 676              		.cfi_offset 8, -28
 677              		.cfi_offset 9, -24
 678              		.loc 1 234 0
 679 000c 8846     		mov	r8, r1	@ buffer, buffer
 235:../../lpc11cx4-library/lpc_chip_11cxx_lib/src/ssp_11xx.c **** 	uint32_t tx_cnt = 0, rx_cnt = 0;
 236:../../lpc11cx4-library/lpc_chip_11cxx_lib/src/ssp_11xx.c **** 
 237:../../lpc11cx4-library/lpc_chip_11cxx_lib/src/ssp_11xx.c **** 	/* Clear all remaining frames in RX FIFO */
 238:../../lpc11cx4-library/lpc_chip_11cxx_lib/src/ssp_11xx.c **** 	while (Chip_SSP_GetStatus(pSSP, SSP_STAT_RNE)) {
 680              		.loc 1 238 0
 681 000e 4107     		lsls	r1, r0, #29	@ tmp183, _97,
 682 0010 04D5     		bpl	.L77	@,
 683              	.LVL52:
 684              	.LBB332:
 685              	.LBB330:
 284:../../lpc11cx4-library/lpc_chip_11cxx_lib/inc/ssp_11xx.h **** }
 686              		.loc 2 284 0
 687 0012 0424     		movs	r4, #4	@ tmp151,
 688              	.L105:
 689              	.LVL53:
 690              	.LBE330:
 691              	.LBE332:
 692              	.LBB333:
ARM GAS  /tmp/ccGKa4GA.s 			page 25


 693              	.LBB334:
 366:../../lpc11cx4-library/lpc_chip_11cxx_lib/inc/ssp_11xx.h **** }
 694              		.loc 2 366 0
 695 0014 9868     		ldr	r0, [r3, #8]	@ _38, pSSP_25(D)->DR
 696              	.LVL54:
 697              	.LBE334:
 698              	.LBE333:
 699              	.LBB335:
 700              	.LBB331:
 284:../../lpc11cx4-library/lpc_chip_11cxx_lib/inc/ssp_11xx.h **** }
 701              		.loc 2 284 0
 702 0016 D868     		ldr	r0, [r3, #12]	@ _39, pSSP_25(D)->SR
 703              	.LVL55:
 704              	.LBE331:
 705              	.LBE335:
 706              		.loc 1 238 0
 707 0018 0442     		tst	r4, r0	@ tmp151, _39
 708 001a FBD1     		bne	.L105	@,
 709              	.LVL56:
 710              	.L77:
 711              	.LBB336:
 712              	.LBB337:
 336:../../lpc11cx4-library/lpc_chip_11cxx_lib/inc/ssp_11xx.h **** }
 713              		.loc 2 336 0
 714 001c 0320     		movs	r0, #3	@ tmp153,
 715 001e 1862     		str	r0, [r3, #32]	@ tmp153, pSSP_25(D)->ICR
 716              	.LVL57:
 717              	.LBE337:
 718              	.LBE336:
 719              	.LBB338:
 720              	.LBB339:
 322:../../lpc11cx4-library/lpc_chip_11cxx_lib/inc/ssp_11xx.h **** }
 721              		.loc 2 322 0
 722 0020 1C68     		ldr	r4, [r3]	@ _41, pSSP_25(D)->CR0
 723              	.LVL58:
 724              	.LBE339:
 725              	.LBE338:
 239:../../lpc11cx4-library/lpc_chip_11cxx_lib/src/ssp_11xx.c **** 		Chip_SSP_ReceiveFrame(pSSP);
 240:../../lpc11cx4-library/lpc_chip_11cxx_lib/src/ssp_11xx.c **** 	}
 241:../../lpc11cx4-library/lpc_chip_11cxx_lib/src/ssp_11xx.c **** 
 242:../../lpc11cx4-library/lpc_chip_11cxx_lib/src/ssp_11xx.c **** 	/* Clear status */
 243:../../lpc11cx4-library/lpc_chip_11cxx_lib/src/ssp_11xx.c **** 	Chip_SSP_ClearIntPending(pSSP, SSP_INT_CLEAR_BITMASK);
 244:../../lpc11cx4-library/lpc_chip_11cxx_lib/src/ssp_11xx.c **** 
 245:../../lpc11cx4-library/lpc_chip_11cxx_lib/src/ssp_11xx.c **** 	if (Chip_SSP_GetDataSize(pSSP) > SSP_BITS_8) {
 726              		.loc 1 245 0
 727 0022 0C30     		adds	r0, r0, #12	@ tmp158,
 728 0024 2040     		ands	r0, r4	@ tmp159, _41
 729 0026 0024     		movs	r4, #0	@ rx_cnt,
 730 0028 0728     		cmp	r0, #7	@ tmp159,
 731 002a 2DD8     		bhi	.L79	@,
 732              	.LBB340:
 733              	.LBB341:
 734              	.LBB342:
 284:../../lpc11cx4-library/lpc_chip_11cxx_lib/inc/ssp_11xx.h **** }
 735              		.loc 2 284 0
 736 002c 0221     		movs	r1, #2	@ tmp180,
 737              	.LBE342:
ARM GAS  /tmp/ccGKa4GA.s 			page 26


 738              	.LBE341:
 739              	.LBE340:
 740 002e 0020     		movs	r0, #0	@ <retval>,
 741              	.LBB367:
 742              	.LBB346:
 743              	.LBB343:
 744 0030 8C46     		mov	ip, r1	@ tmp180, tmp180
 745              	.LBE343:
 746              	.LBE346:
 747              	.LBB347:
 748              	.LBB348:
 311:../../lpc11cx4-library/lpc_chip_11cxx_lib/inc/ssp_11xx.h **** }
 749              		.loc 2 311 0
 750 0032 0127     		movs	r7, #1	@ tmp181,
 751              	.LBE348:
 752              	.LBE347:
 753              	.LBB351:
 754              	.LBB352:
 284:../../lpc11cx4-library/lpc_chip_11cxx_lib/inc/ssp_11xx.h **** }
 755              		.loc 2 284 0
 756 0034 0426     		movs	r6, #4	@ tmp182,
 757              	.LVL59:
 758              	.L80:
 759              	.LBE352:
 760              	.LBE351:
 246:../../lpc11cx4-library/lpc_chip_11cxx_lib/src/ssp_11xx.c **** 		uint16_t *wdata16;
 247:../../lpc11cx4-library/lpc_chip_11cxx_lib/src/ssp_11xx.c **** 
 248:../../lpc11cx4-library/lpc_chip_11cxx_lib/src/ssp_11xx.c **** 		wdata16 = (uint16_t *) buffer;
 249:../../lpc11cx4-library/lpc_chip_11cxx_lib/src/ssp_11xx.c **** 
 250:../../lpc11cx4-library/lpc_chip_11cxx_lib/src/ssp_11xx.c **** 		while (tx_cnt < buffer_len || rx_cnt < buffer_len) {
 251:../../lpc11cx4-library/lpc_chip_11cxx_lib/src/ssp_11xx.c **** 			/* write data to buffer */
 252:../../lpc11cx4-library/lpc_chip_11cxx_lib/src/ssp_11xx.c **** 			if ((Chip_SSP_GetStatus(pSSP, SSP_STAT_TNF) == SET) && (tx_cnt < buffer_len)) {
 253:../../lpc11cx4-library/lpc_chip_11cxx_lib/src/ssp_11xx.c **** 				Chip_SSP_SendFrame(pSSP, *wdata16);
 254:../../lpc11cx4-library/lpc_chip_11cxx_lib/src/ssp_11xx.c **** 				wdata16++;
 255:../../lpc11cx4-library/lpc_chip_11cxx_lib/src/ssp_11xx.c **** 				tx_cnt += 2;
 256:../../lpc11cx4-library/lpc_chip_11cxx_lib/src/ssp_11xx.c **** 			}
 257:../../lpc11cx4-library/lpc_chip_11cxx_lib/src/ssp_11xx.c **** 
 258:../../lpc11cx4-library/lpc_chip_11cxx_lib/src/ssp_11xx.c **** 			/* Check overrun error */
 259:../../lpc11cx4-library/lpc_chip_11cxx_lib/src/ssp_11xx.c **** 			if (Chip_SSP_GetRawIntStatus(pSSP, SSP_RORRIS) == SET) {
 260:../../lpc11cx4-library/lpc_chip_11cxx_lib/src/ssp_11xx.c **** 				return ERROR;
 261:../../lpc11cx4-library/lpc_chip_11cxx_lib/src/ssp_11xx.c **** 			}
 262:../../lpc11cx4-library/lpc_chip_11cxx_lib/src/ssp_11xx.c **** 
 263:../../lpc11cx4-library/lpc_chip_11cxx_lib/src/ssp_11xx.c **** 			/* Check for any data available in RX FIFO */
 264:../../lpc11cx4-library/lpc_chip_11cxx_lib/src/ssp_11xx.c **** 			while (Chip_SSP_GetStatus(pSSP, SSP_STAT_RNE) == SET) {
 265:../../lpc11cx4-library/lpc_chip_11cxx_lib/src/ssp_11xx.c **** 				Chip_SSP_ReceiveFrame(pSSP);	/* read dummy data */
 266:../../lpc11cx4-library/lpc_chip_11cxx_lib/src/ssp_11xx.c **** 				rx_cnt += 2;
 267:../../lpc11cx4-library/lpc_chip_11cxx_lib/src/ssp_11xx.c **** 			}
 268:../../lpc11cx4-library/lpc_chip_11cxx_lib/src/ssp_11xx.c **** 		}
 269:../../lpc11cx4-library/lpc_chip_11cxx_lib/src/ssp_11xx.c **** 	}
 270:../../lpc11cx4-library/lpc_chip_11cxx_lib/src/ssp_11xx.c **** 	else {
 271:../../lpc11cx4-library/lpc_chip_11cxx_lib/src/ssp_11xx.c **** 		uint8_t *wdata8;
 272:../../lpc11cx4-library/lpc_chip_11cxx_lib/src/ssp_11xx.c **** 
 273:../../lpc11cx4-library/lpc_chip_11cxx_lib/src/ssp_11xx.c **** 		wdata8 = buffer;
 274:../../lpc11cx4-library/lpc_chip_11cxx_lib/src/ssp_11xx.c **** 
 275:../../lpc11cx4-library/lpc_chip_11cxx_lib/src/ssp_11xx.c **** 		while (tx_cnt < buffer_len || rx_cnt < buffer_len) {
 761              		.loc 1 275 0
 762 0036 9042     		cmp	r0, r2	@ <retval>, buffer_len
ARM GAS  /tmp/ccGKa4GA.s 			page 27


 763 0038 13D3     		bcc	.L91	@,
 764              	.L116:
 765              		.loc 1 275 0 is_stmt 0 discriminator 1
 766 003a 9442     		cmp	r4, r2	@ rx_cnt, buffer_len
 767 003c 20D2     		bcs	.L76	@,
 768              	.LVL60:
 769              	.LBB355:
 770              	.LBB344:
 284:../../lpc11cx4-library/lpc_chip_11cxx_lib/inc/ssp_11xx.h **** }
 771              		.loc 2 284 0 is_stmt 1
 772 003e DD68     		ldr	r5, [r3, #12]	@ _91, pSSP_25(D)->SR
 773              	.LVL61:
 774              	.L96:
 775              	.LBE344:
 776              	.LBE355:
 777              	.LBB356:
 778              	.LBB349:
 311:../../lpc11cx4-library/lpc_chip_11cxx_lib/inc/ssp_11xx.h **** }
 779              		.loc 2 311 0
 780 0040 9D69     		ldr	r5, [r3, #24]	@ _55, pSSP_25(D)->RIS
 781              	.LVL62:
 782              	.LBE349:
 783              	.LBE356:
 276:../../lpc11cx4-library/lpc_chip_11cxx_lib/src/ssp_11xx.c **** 			/* write data to buffer */
 277:../../lpc11cx4-library/lpc_chip_11cxx_lib/src/ssp_11xx.c **** 			if ((Chip_SSP_GetStatus(pSSP, SSP_STAT_TNF) == SET) && (tx_cnt < buffer_len)) {
 278:../../lpc11cx4-library/lpc_chip_11cxx_lib/src/ssp_11xx.c **** 				Chip_SSP_SendFrame(pSSP, *wdata8);
 279:../../lpc11cx4-library/lpc_chip_11cxx_lib/src/ssp_11xx.c **** 				wdata8++;
 280:../../lpc11cx4-library/lpc_chip_11cxx_lib/src/ssp_11xx.c **** 				tx_cnt++;
 281:../../lpc11cx4-library/lpc_chip_11cxx_lib/src/ssp_11xx.c **** 			}
 282:../../lpc11cx4-library/lpc_chip_11cxx_lib/src/ssp_11xx.c **** 
 283:../../lpc11cx4-library/lpc_chip_11cxx_lib/src/ssp_11xx.c **** 			/* Check overrun error */
 284:../../lpc11cx4-library/lpc_chip_11cxx_lib/src/ssp_11xx.c **** 			if (Chip_SSP_GetRawIntStatus(pSSP, SSP_RORRIS) == SET) {
 784              		.loc 1 284 0
 785 0042 2F42     		tst	r7, r5	@ tmp181, _55
 786 0044 1BD1     		bne	.L88	@,
 787              	.L117:
 788              	.LVL63:
 789              	.LBB357:
 790              	.LBB353:
 284:../../lpc11cx4-library/lpc_chip_11cxx_lib/inc/ssp_11xx.h **** }
 791              		.loc 2 284 0
 792 0046 DD68     		ldr	r5, [r3, #12]	@ _85, pSSP_25(D)->SR
 793              	.LVL64:
 794              	.LBE353:
 795              	.LBE357:
 285:../../lpc11cx4-library/lpc_chip_11cxx_lib/src/ssp_11xx.c **** 				return ERROR;
 286:../../lpc11cx4-library/lpc_chip_11cxx_lib/src/ssp_11xx.c **** 			}
 287:../../lpc11cx4-library/lpc_chip_11cxx_lib/src/ssp_11xx.c **** 
 288:../../lpc11cx4-library/lpc_chip_11cxx_lib/src/ssp_11xx.c **** 			/* Check for any data available in RX FIFO */
 289:../../lpc11cx4-library/lpc_chip_11cxx_lib/src/ssp_11xx.c **** 			while (Chip_SSP_GetStatus(pSSP, SSP_STAT_RNE) == SET && rx_cnt < buffer_len) {
 796              		.loc 1 289 0
 797 0048 2E42     		tst	r6, r5	@ tmp182, _85
 798 004a F4D0     		beq	.L80	@,
 799 004c 9442     		cmp	r4, r2	@ rx_cnt, buffer_len
 800 004e F2D2     		bcs	.L80	@,
 801              	.L90:
 802              	.LVL65:
ARM GAS  /tmp/ccGKa4GA.s 			page 28


 803              	.LBB358:
 804              	.LBB359:
 366:../../lpc11cx4-library/lpc_chip_11cxx_lib/inc/ssp_11xx.h **** }
 805              		.loc 2 366 0
 806 0050 9D68     		ldr	r5, [r3, #8]	@ _57, pSSP_25(D)->DR
 807              	.LVL66:
 808              	.LBE359:
 809              	.LBE358:
 810              	.LBB360:
 811              	.LBB354:
 284:../../lpc11cx4-library/lpc_chip_11cxx_lib/inc/ssp_11xx.h **** }
 812              		.loc 2 284 0
 813 0052 DD68     		ldr	r5, [r3, #12]	@ _58, pSSP_25(D)->SR
 814              	.LBE354:
 815              	.LBE360:
 290:../../lpc11cx4-library/lpc_chip_11cxx_lib/src/ssp_11xx.c **** 				Chip_SSP_ReceiveFrame(pSSP);	/* read dummy data */
 291:../../lpc11cx4-library/lpc_chip_11cxx_lib/src/ssp_11xx.c **** 				rx_cnt++;
 816              		.loc 1 291 0
 817 0054 0134     		adds	r4, r4, #1	@ rx_cnt,
 818              	.LVL67:
 289:../../lpc11cx4-library/lpc_chip_11cxx_lib/src/ssp_11xx.c **** 				Chip_SSP_ReceiveFrame(pSSP);	/* read dummy data */
 819              		.loc 1 289 0
 820 0056 2E42     		tst	r6, r5	@ tmp182, _58
 821 0058 EDD0     		beq	.L80	@,
 289:../../lpc11cx4-library/lpc_chip_11cxx_lib/src/ssp_11xx.c **** 				Chip_SSP_ReceiveFrame(pSSP);	/* read dummy data */
 822              		.loc 1 289 0 is_stmt 0 discriminator 1
 823 005a A242     		cmp	r2, r4	@ buffer_len, rx_cnt
 824 005c F8D1     		bne	.L90	@,
 275:../../lpc11cx4-library/lpc_chip_11cxx_lib/src/ssp_11xx.c **** 			/* write data to buffer */
 825              		.loc 1 275 0 is_stmt 1
 826 005e 9042     		cmp	r0, r2	@ <retval>, buffer_len
 827 0060 EBD2     		bcs	.L116	@,
 828              	.L91:
 829              	.LVL68:
 277:../../lpc11cx4-library/lpc_chip_11cxx_lib/src/ssp_11xx.c **** 				Chip_SSP_SendFrame(pSSP, *wdata8);
 830              		.loc 1 277 0
 831 0062 6146     		mov	r1, ip	@ tmp180, tmp180
 832              	.LBB361:
 833              	.LBB345:
 284:../../lpc11cx4-library/lpc_chip_11cxx_lib/inc/ssp_11xx.h **** }
 834              		.loc 2 284 0
 835 0064 DD68     		ldr	r5, [r3, #12]	@ _89, pSSP_25(D)->SR
 836              	.LVL69:
 837              	.LBE345:
 838              	.LBE361:
 277:../../lpc11cx4-library/lpc_chip_11cxx_lib/src/ssp_11xx.c **** 				Chip_SSP_SendFrame(pSSP, *wdata8);
 839              		.loc 1 277 0
 840 0066 2942     		tst	r1, r5	@ tmp180, _89
 841 0068 EAD0     		beq	.L96	@,
 842              	.LVL70:
 843              	.LBB362:
 844              	.LBB363:
 845              		.loc 2 377 0
 846 006a 4146     		mov	r1, r8	@ buffer, buffer
 847 006c 0D78     		ldrb	r5, [r1]	@ _54, *wdata8_13
 848              	.LBE363:
 849              	.LBE362:
ARM GAS  /tmp/ccGKa4GA.s 			page 29


 279:../../lpc11cx4-library/lpc_chip_11cxx_lib/src/ssp_11xx.c **** 				tx_cnt++;
 850              		.loc 1 279 0
 851 006e 0121     		movs	r1, #1	@ tmp188,
 852 0070 8946     		mov	r9, r1	@ tmp188, tmp188
 853              	.LBB365:
 854              	.LBB364:
 855              		.loc 2 377 0
 856 0072 9D60     		str	r5, [r3, #8]	@ _54, pSSP_25(D)->DR
 857              	.LVL71:
 858              	.LBE364:
 859              	.LBE365:
 860              	.LBB366:
 861              	.LBB350:
 311:../../lpc11cx4-library/lpc_chip_11cxx_lib/inc/ssp_11xx.h **** }
 862              		.loc 2 311 0
 863 0074 9D69     		ldr	r5, [r3, #24]	@ _55, pSSP_25(D)->RIS
 864              	.LBE350:
 865              	.LBE366:
 279:../../lpc11cx4-library/lpc_chip_11cxx_lib/src/ssp_11xx.c **** 				tx_cnt++;
 866              		.loc 1 279 0
 867 0076 C844     		add	r8, r8, r9	@ buffer, tmp188
 868              	.LVL72:
 280:../../lpc11cx4-library/lpc_chip_11cxx_lib/src/ssp_11xx.c **** 			}
 869              		.loc 1 280 0
 870 0078 0130     		adds	r0, r0, #1	@ <retval>,
 871              	.LVL73:
 284:../../lpc11cx4-library/lpc_chip_11cxx_lib/src/ssp_11xx.c **** 				return ERROR;
 872              		.loc 1 284 0
 873 007a 2F42     		tst	r7, r5	@ tmp181, _55
 874 007c E3D0     		beq	.L117	@,
 875              	.LVL74:
 876              	.L88:
 877              	.LBE367:
 878              	.LBB368:
 260:../../lpc11cx4-library/lpc_chip_11cxx_lib/src/ssp_11xx.c **** 			}
 879              		.loc 1 260 0
 880 007e 0020     		movs	r0, #0	@ <retval>,
 881              	.LVL75:
 882              	.L76:
 883              	.LBE368:
 292:../../lpc11cx4-library/lpc_chip_11cxx_lib/src/ssp_11xx.c **** 			}
 293:../../lpc11cx4-library/lpc_chip_11cxx_lib/src/ssp_11xx.c **** 		}
 294:../../lpc11cx4-library/lpc_chip_11cxx_lib/src/ssp_11xx.c **** 	}
 295:../../lpc11cx4-library/lpc_chip_11cxx_lib/src/ssp_11xx.c **** 
 296:../../lpc11cx4-library/lpc_chip_11cxx_lib/src/ssp_11xx.c **** 	return tx_cnt;
 297:../../lpc11cx4-library/lpc_chip_11cxx_lib/src/ssp_11xx.c **** 
 298:../../lpc11cx4-library/lpc_chip_11cxx_lib/src/ssp_11xx.c **** }
 884              		.loc 1 298 0
 885              		@ sp needed	@
 886              	.LVL76:
 887 0080 0CBC     		pop	{r2, r3}
 888 0082 9046     		mov	r8, r2
 889 0084 9946     		mov	r9, r3
 890 0086 F0BD     		pop	{r4, r5, r6, r7, pc}
 891              	.LVL77:
 892              	.L79:
 893              	.LBB391:
ARM GAS  /tmp/ccGKa4GA.s 			page 30


 894              	.LBB369:
 895              	.LBB370:
 284:../../lpc11cx4-library/lpc_chip_11cxx_lib/inc/ssp_11xx.h **** }
 896              		.loc 2 284 0
 897 0088 0221     		movs	r1, #2	@ tmp177,
 898              	.LBE370:
 899              	.LBE369:
 900              	.LBE391:
 901 008a 0020     		movs	r0, #0	@ <retval>,
 902              	.LBB392:
 903              	.LBB374:
 904              	.LBB371:
 905 008c 8C46     		mov	ip, r1	@ tmp177, tmp177
 906              	.LBE371:
 907              	.LBE374:
 908              	.LBB375:
 909              	.LBB376:
 311:../../lpc11cx4-library/lpc_chip_11cxx_lib/inc/ssp_11xx.h **** }
 910              		.loc 2 311 0
 911 008e 0127     		movs	r7, #1	@ tmp178,
 912              	.LBE376:
 913              	.LBE375:
 914              	.LBB378:
 915              	.LBB379:
 284:../../lpc11cx4-library/lpc_chip_11cxx_lib/inc/ssp_11xx.h **** }
 916              		.loc 2 284 0
 917 0090 0426     		movs	r6, #4	@ tmp179,
 918              	.LVL78:
 919              	.L81:
 920              	.LBE379:
 921              	.LBE378:
 250:../../lpc11cx4-library/lpc_chip_11cxx_lib/src/ssp_11xx.c **** 			/* write data to buffer */
 922              		.loc 1 250 0
 923 0092 9042     		cmp	r0, r2	@ <retval>, buffer_len
 924 0094 0BD3     		bcc	.L86	@,
 250:../../lpc11cx4-library/lpc_chip_11cxx_lib/src/ssp_11xx.c **** 			/* write data to buffer */
 925              		.loc 1 250 0 is_stmt 0 discriminator 1
 926 0096 9442     		cmp	r4, r2	@ rx_cnt, buffer_len
 927 0098 F2D2     		bcs	.L76	@,
 928              	.LVL79:
 929              	.LBB381:
 930              	.LBB372:
 284:../../lpc11cx4-library/lpc_chip_11cxx_lib/inc/ssp_11xx.h **** }
 931              		.loc 2 284 0 is_stmt 1
 932 009a DD68     		ldr	r5, [r3, #12]	@ _6, pSSP_25(D)->SR
 933              	.LVL80:
 934              	.L94:
 935              	.LBE372:
 936              	.LBE381:
 937              	.LBB382:
 938              	.LBB377:
 311:../../lpc11cx4-library/lpc_chip_11cxx_lib/inc/ssp_11xx.h **** }
 939              		.loc 2 311 0
 940 009c 9D69     		ldr	r5, [r3, #24]	@ _47, pSSP_25(D)->RIS
 941              	.LVL81:
 942              	.LBE377:
 943              	.LBE382:
ARM GAS  /tmp/ccGKa4GA.s 			page 31


 259:../../lpc11cx4-library/lpc_chip_11cxx_lib/src/ssp_11xx.c **** 				return ERROR;
 944              		.loc 1 259 0
 945 009e 2F42     		tst	r7, r5	@ tmp178, _47
 946 00a0 EDD1     		bne	.L88	@,
 947              	.LVL82:
 948              	.L113:
 949              	.LBB383:
 950              	.LBB380:
 284:../../lpc11cx4-library/lpc_chip_11cxx_lib/inc/ssp_11xx.h **** }
 951              		.loc 2 284 0
 952 00a2 DD68     		ldr	r5, [r3, #12]	@ _50,
 953              	.LVL83:
 954              	.LBE380:
 955              	.LBE383:
 264:../../lpc11cx4-library/lpc_chip_11cxx_lib/src/ssp_11xx.c **** 				Chip_SSP_ReceiveFrame(pSSP);	/* read dummy data */
 956              		.loc 1 264 0
 957 00a4 2E42     		tst	r6, r5	@ tmp179, _50
 958 00a6 F4D0     		beq	.L81	@,
 959              	.LVL84:
 960              	.LBB384:
 961              	.LBB385:
 366:../../lpc11cx4-library/lpc_chip_11cxx_lib/inc/ssp_11xx.h **** }
 962              		.loc 2 366 0
 963 00a8 9D68     		ldr	r5, [r3, #8]	@ _49, pSSP_25(D)->DR
 964              	.LVL85:
 965              	.LBE385:
 966              	.LBE384:
 266:../../lpc11cx4-library/lpc_chip_11cxx_lib/src/ssp_11xx.c **** 			}
 967              		.loc 1 266 0
 968 00aa 0234     		adds	r4, r4, #2	@ rx_cnt,
 969              	.LVL86:
 970 00ac F9E7     		b	.L113	@
 971              	.LVL87:
 972              	.L86:
 252:../../lpc11cx4-library/lpc_chip_11cxx_lib/src/ssp_11xx.c **** 				Chip_SSP_SendFrame(pSSP, *wdata16);
 973              		.loc 1 252 0
 974 00ae 6146     		mov	r1, ip	@ tmp177, tmp177
 975              	.LBB386:
 976              	.LBB373:
 284:../../lpc11cx4-library/lpc_chip_11cxx_lib/inc/ssp_11xx.h **** }
 977              		.loc 2 284 0
 978 00b0 DD68     		ldr	r5, [r3, #12]	@ _70, pSSP_25(D)->SR
 979              	.LVL88:
 980              	.LBE373:
 981              	.LBE386:
 252:../../lpc11cx4-library/lpc_chip_11cxx_lib/src/ssp_11xx.c **** 				Chip_SSP_SendFrame(pSSP, *wdata16);
 982              		.loc 1 252 0
 983 00b2 2942     		tst	r1, r5	@ tmp177, _70
 984 00b4 F2D0     		beq	.L94	@,
 985              	.LVL89:
 986              	.LBB387:
 987              	.LBB388:
 988              		.loc 2 377 0
 989 00b6 4146     		mov	r1, r8	@ wdata16, wdata16
 990 00b8 0D88     		ldrh	r5, [r1]	@ _46, *wdata16_11
 991              	.LBE388:
 992              	.LBE387:
ARM GAS  /tmp/ccGKa4GA.s 			page 32


 254:../../lpc11cx4-library/lpc_chip_11cxx_lib/src/ssp_11xx.c **** 				tx_cnt += 2;
 993              		.loc 1 254 0
 994 00ba 0221     		movs	r1, #2	@ tmp191,
 995 00bc 8946     		mov	r9, r1	@ tmp191, tmp191
 996              	.LBB390:
 997              	.LBB389:
 998              		.loc 2 377 0
 999 00be 9D60     		str	r5, [r3, #8]	@ _46, pSSP_25(D)->DR
 1000              	.LVL90:
 1001              	.LBE389:
 1002              	.LBE390:
 254:../../lpc11cx4-library/lpc_chip_11cxx_lib/src/ssp_11xx.c **** 				tx_cnt += 2;
 1003              		.loc 1 254 0
 1004 00c0 C844     		add	r8, r8, r9	@ wdata16, tmp191
 1005              	.LVL91:
 255:../../lpc11cx4-library/lpc_chip_11cxx_lib/src/ssp_11xx.c **** 			}
 1006              		.loc 1 255 0
 1007 00c2 0230     		adds	r0, r0, #2	@ <retval>,
 1008              	.LVL92:
 1009 00c4 EAE7     		b	.L94	@
 1010              	.LBE392:
 1011              		.cfi_endproc
 1012              	.LFE208:
 1013              		.size	Chip_SSP_WriteFrames_Blocking, .-Chip_SSP_WriteFrames_Blocking
 1014 00c6 C046     		.section	.text.Chip_SSP_ReadFrames_Blocking,"ax",%progbits
 1015              		.align	1
 1016              		.p2align 2,,3
 1017              		.global	Chip_SSP_ReadFrames_Blocking
 1018              		.syntax unified
 1019              		.code	16
 1020              		.thumb_func
 1021              		.fpu softvfp
 1022              		.type	Chip_SSP_ReadFrames_Blocking, %function
 1023              	Chip_SSP_ReadFrames_Blocking:
 1024              	.LFB209:
 299:../../lpc11cx4-library/lpc_chip_11cxx_lib/src/ssp_11xx.c **** 
 300:../../lpc11cx4-library/lpc_chip_11cxx_lib/src/ssp_11xx.c **** /* SSP Polling Read in blocking mode */
 301:../../lpc11cx4-library/lpc_chip_11cxx_lib/src/ssp_11xx.c **** uint32_t Chip_SSP_ReadFrames_Blocking(LPC_SSP_T *pSSP, uint8_t *buffer, uint32_t buffer_len)
 302:../../lpc11cx4-library/lpc_chip_11cxx_lib/src/ssp_11xx.c **** {
 1025              		.loc 1 302 0
 1026              		.cfi_startproc
 1027              		@ args = 0, pretend = 0, frame = 0
 1028              		@ frame_needed = 0, uses_anonymous_args = 0
 1029              	.LVL93:
 1030 0000 F0B5     		push	{r4, r5, r6, r7, lr}	@
 1031              		.cfi_def_cfa_offset 20
 1032              		.cfi_offset 4, -20
 1033              		.cfi_offset 5, -16
 1034              		.cfi_offset 6, -12
 1035              		.cfi_offset 7, -8
 1036              		.cfi_offset 14, -4
 1037 0002 CE46     		mov	lr, r9	@,
 1038 0004 4746     		mov	r7, r8	@,
 1039              	.LBB393:
 1040              	.LBB394:
 284:../../lpc11cx4-library/lpc_chip_11cxx_lib/inc/ssp_11xx.h **** }
 1041              		.loc 2 284 0
ARM GAS  /tmp/ccGKa4GA.s 			page 33


 1042 0006 C368     		ldr	r3, [r0, #12]	@ _109, pSSP_26(D)->SR
 1043              	.LVL94:
 1044              	.LBE394:
 1045              	.LBE393:
 1046              		.loc 1 302 0
 1047 0008 80B5     		push	{r7, lr}	@
 1048              		.cfi_def_cfa_offset 28
 1049              		.cfi_offset 8, -28
 1050              		.cfi_offset 9, -24
 303:../../lpc11cx4-library/lpc_chip_11cxx_lib/src/ssp_11xx.c **** 	uint32_t rx_cnt = 0, tx_cnt = 0;
 304:../../lpc11cx4-library/lpc_chip_11cxx_lib/src/ssp_11xx.c **** 
 305:../../lpc11cx4-library/lpc_chip_11cxx_lib/src/ssp_11xx.c **** 	/* Clear all remaining frames in RX FIFO */
 306:../../lpc11cx4-library/lpc_chip_11cxx_lib/src/ssp_11xx.c **** 	while (Chip_SSP_GetStatus(pSSP, SSP_STAT_RNE)) {
 1051              		.loc 1 306 0
 1052 000a 5B07     		lsls	r3, r3, #29	@ tmp211, _109,
 1053 000c 04D5     		bpl	.L119	@,
 1054              	.LBB397:
 1055              	.LBB395:
 284:../../lpc11cx4-library/lpc_chip_11cxx_lib/inc/ssp_11xx.h **** }
 1056              		.loc 2 284 0
 1057 000e 0424     		movs	r4, #4	@ tmp173,
 1058              	.L149:
 1059              	.LVL95:
 1060              	.LBE395:
 1061              	.LBE397:
 1062              	.LBB398:
 1063              	.LBB399:
 366:../../lpc11cx4-library/lpc_chip_11cxx_lib/inc/ssp_11xx.h **** }
 1064              		.loc 2 366 0
 1065 0010 8368     		ldr	r3, [r0, #8]	@ _43, pSSP_26(D)->DR
 1066              	.LVL96:
 1067              	.LBE399:
 1068              	.LBE398:
 1069              	.LBB400:
 1070              	.LBB396:
 284:../../lpc11cx4-library/lpc_chip_11cxx_lib/inc/ssp_11xx.h **** }
 1071              		.loc 2 284 0
 1072 0012 C368     		ldr	r3, [r0, #12]	@ _44, pSSP_26(D)->SR
 1073              	.LVL97:
 1074              	.LBE396:
 1075              	.LBE400:
 1076              		.loc 1 306 0
 1077 0014 1C42     		tst	r4, r3	@ tmp173, _44
 1078 0016 FBD1     		bne	.L149	@,
 1079              	.LVL98:
 1080              	.L119:
 1081              	.LBB401:
 1082              	.LBB402:
 336:../../lpc11cx4-library/lpc_chip_11cxx_lib/inc/ssp_11xx.h **** }
 1083              		.loc 2 336 0
 1084 0018 0323     		movs	r3, #3	@ tmp175,
 1085 001a 0362     		str	r3, [r0, #32]	@ tmp175, pSSP_26(D)->ICR
 1086              	.LVL99:
 1087              	.LBE402:
 1088              	.LBE401:
 1089              	.LBB403:
 1090              	.LBB404:
ARM GAS  /tmp/ccGKa4GA.s 			page 34


 322:../../lpc11cx4-library/lpc_chip_11cxx_lib/inc/ssp_11xx.h **** }
 1091              		.loc 2 322 0
 1092 001c 0468     		ldr	r4, [r0]	@ _47, pSSP_26(D)->CR0
 1093              	.LVL100:
 1094              	.LBE404:
 1095              	.LBE403:
 307:../../lpc11cx4-library/lpc_chip_11cxx_lib/src/ssp_11xx.c **** 		Chip_SSP_ReceiveFrame(pSSP);
 308:../../lpc11cx4-library/lpc_chip_11cxx_lib/src/ssp_11xx.c **** 	}
 309:../../lpc11cx4-library/lpc_chip_11cxx_lib/src/ssp_11xx.c **** 
 310:../../lpc11cx4-library/lpc_chip_11cxx_lib/src/ssp_11xx.c **** 	/* Clear status */
 311:../../lpc11cx4-library/lpc_chip_11cxx_lib/src/ssp_11xx.c **** 	Chip_SSP_ClearIntPending(pSSP, SSP_INT_CLEAR_BITMASK);
 312:../../lpc11cx4-library/lpc_chip_11cxx_lib/src/ssp_11xx.c **** 
 313:../../lpc11cx4-library/lpc_chip_11cxx_lib/src/ssp_11xx.c **** 	if (Chip_SSP_GetDataSize(pSSP) > SSP_BITS_8) {
 1096              		.loc 1 313 0
 1097 001e 0C33     		adds	r3, r3, #12	@ tmp180,
 1098 0020 2340     		ands	r3, r4	@ tmp181, _47
 1099 0022 0026     		movs	r6, #0	@ tx_cnt,
 1100 0024 072B     		cmp	r3, #7	@ tmp181,
 1101 0026 31D8     		bhi	.L121	@,
 1102              	.LBB405:
 1103              	.LBB406:
 1104              	.LBB407:
 284:../../lpc11cx4-library/lpc_chip_11cxx_lib/inc/ssp_11xx.h **** }
 1105              		.loc 2 284 0
 1106 0028 0224     		movs	r4, #2	@ tmp207,
 1107 002a A446     		mov	ip, r4	@ tmp207, tmp207
 1108              	.LBE407:
 1109              	.LBE406:
 1110              	.LBB410:
 1111              	.LBB411:
 1112              		.loc 2 377 0
 1113 002c FD34     		adds	r4, r4, #253	@ tmp208,
 1114 002e A046     		mov	r8, r4	@ tmp208, tmp208
 1115              	.LBE411:
 1116              	.LBE410:
 1117              	.LBB414:
 1118              	.LBB415:
 311:../../lpc11cx4-library/lpc_chip_11cxx_lib/inc/ssp_11xx.h **** }
 1119              		.loc 2 311 0
 1120 0030 FE3C     		subs	r4, r4, #254	@ tmp209,
 1121              	.LBE415:
 1122              	.LBE414:
 1123              	.LBE405:
 1124 0032 0023     		movs	r3, #0	@ <retval>,
 1125              	.LBB434:
 1126              	.LBB419:
 1127              	.LBB416:
 1128 0034 A146     		mov	r9, r4	@ tmp209, tmp209
 1129              	.LBE416:
 1130              	.LBE419:
 1131              	.LBB420:
 1132              	.LBB421:
 284:../../lpc11cx4-library/lpc_chip_11cxx_lib/inc/ssp_11xx.h **** }
 1133              		.loc 2 284 0
 1134 0036 0425     		movs	r5, #4	@ tmp210,
 1135              	.LVL101:
 1136              	.L122:
ARM GAS  /tmp/ccGKa4GA.s 			page 35


 1137              	.LBE421:
 1138              	.LBE420:
 314:../../lpc11cx4-library/lpc_chip_11cxx_lib/src/ssp_11xx.c **** 		uint16_t *rdata16;
 315:../../lpc11cx4-library/lpc_chip_11cxx_lib/src/ssp_11xx.c **** 
 316:../../lpc11cx4-library/lpc_chip_11cxx_lib/src/ssp_11xx.c **** 		rdata16 = (uint16_t *) buffer;
 317:../../lpc11cx4-library/lpc_chip_11cxx_lib/src/ssp_11xx.c **** 
 318:../../lpc11cx4-library/lpc_chip_11cxx_lib/src/ssp_11xx.c **** 		while (tx_cnt < buffer_len || rx_cnt < buffer_len) {
 319:../../lpc11cx4-library/lpc_chip_11cxx_lib/src/ssp_11xx.c **** 			/* write data to buffer */
 320:../../lpc11cx4-library/lpc_chip_11cxx_lib/src/ssp_11xx.c **** 			if ((Chip_SSP_GetStatus(pSSP, SSP_STAT_TNF) == SET) && (tx_cnt < buffer_len)) {
 321:../../lpc11cx4-library/lpc_chip_11cxx_lib/src/ssp_11xx.c **** 				Chip_SSP_SendFrame(pSSP, 0xFFFF);	/* just send dummy data */
 322:../../lpc11cx4-library/lpc_chip_11cxx_lib/src/ssp_11xx.c **** 				tx_cnt += 2;
 323:../../lpc11cx4-library/lpc_chip_11cxx_lib/src/ssp_11xx.c **** 			}
 324:../../lpc11cx4-library/lpc_chip_11cxx_lib/src/ssp_11xx.c **** 
 325:../../lpc11cx4-library/lpc_chip_11cxx_lib/src/ssp_11xx.c **** 			/* Check overrun error */
 326:../../lpc11cx4-library/lpc_chip_11cxx_lib/src/ssp_11xx.c **** 			if (Chip_SSP_GetRawIntStatus(pSSP, SSP_RORRIS) == SET) {
 327:../../lpc11cx4-library/lpc_chip_11cxx_lib/src/ssp_11xx.c **** 				return ERROR;
 328:../../lpc11cx4-library/lpc_chip_11cxx_lib/src/ssp_11xx.c **** 			}
 329:../../lpc11cx4-library/lpc_chip_11cxx_lib/src/ssp_11xx.c **** 
 330:../../lpc11cx4-library/lpc_chip_11cxx_lib/src/ssp_11xx.c **** 			/* Check for any data available in RX FIFO */
 331:../../lpc11cx4-library/lpc_chip_11cxx_lib/src/ssp_11xx.c **** 			while (Chip_SSP_GetStatus(pSSP, SSP_STAT_RNE) == SET && rx_cnt < buffer_len) {
 332:../../lpc11cx4-library/lpc_chip_11cxx_lib/src/ssp_11xx.c **** 				*rdata16 = Chip_SSP_ReceiveFrame(pSSP);
 333:../../lpc11cx4-library/lpc_chip_11cxx_lib/src/ssp_11xx.c **** 				rdata16++;
 334:../../lpc11cx4-library/lpc_chip_11cxx_lib/src/ssp_11xx.c **** 				rx_cnt += 2;
 335:../../lpc11cx4-library/lpc_chip_11cxx_lib/src/ssp_11xx.c **** 			}
 336:../../lpc11cx4-library/lpc_chip_11cxx_lib/src/ssp_11xx.c **** 		}
 337:../../lpc11cx4-library/lpc_chip_11cxx_lib/src/ssp_11xx.c **** 	}
 338:../../lpc11cx4-library/lpc_chip_11cxx_lib/src/ssp_11xx.c **** 	else {
 339:../../lpc11cx4-library/lpc_chip_11cxx_lib/src/ssp_11xx.c **** 		uint8_t *rdata8;
 340:../../lpc11cx4-library/lpc_chip_11cxx_lib/src/ssp_11xx.c **** 
 341:../../lpc11cx4-library/lpc_chip_11cxx_lib/src/ssp_11xx.c **** 		rdata8 = buffer;
 342:../../lpc11cx4-library/lpc_chip_11cxx_lib/src/ssp_11xx.c **** 
 343:../../lpc11cx4-library/lpc_chip_11cxx_lib/src/ssp_11xx.c **** 		while (tx_cnt < buffer_len || rx_cnt < buffer_len) {
 1139              		.loc 1 343 0
 1140 0038 9642     		cmp	r6, r2	@ tx_cnt, buffer_len
 1141 003a 16D3     		bcc	.L133	@,
 1142              	.L161:
 1143              		.loc 1 343 0 is_stmt 0 discriminator 1
 1144 003c 9342     		cmp	r3, r2	@ <retval>, buffer_len
 1145 003e 20D2     		bcs	.L118	@,
 1146              	.LVL102:
 1147              	.LBB424:
 1148              	.LBB408:
 284:../../lpc11cx4-library/lpc_chip_11cxx_lib/inc/ssp_11xx.h **** }
 1149              		.loc 2 284 0 is_stmt 1
 1150 0040 C468     		ldr	r4, [r0, #12]	@ _1, pSSP_26(D)->SR
 1151              	.LVL103:
 1152              	.L137:
 1153              	.LBE408:
 1154              	.LBE424:
 344:../../lpc11cx4-library/lpc_chip_11cxx_lib/src/ssp_11xx.c **** 			/* write data to buffer */
 345:../../lpc11cx4-library/lpc_chip_11cxx_lib/src/ssp_11xx.c **** 			if ((Chip_SSP_GetStatus(pSSP, SSP_STAT_TNF) == SET) && (tx_cnt < buffer_len)) {
 346:../../lpc11cx4-library/lpc_chip_11cxx_lib/src/ssp_11xx.c **** 				Chip_SSP_SendFrame(pSSP, 0xFF);	/* just send dummy data		 */
 347:../../lpc11cx4-library/lpc_chip_11cxx_lib/src/ssp_11xx.c **** 				tx_cnt++;
 348:../../lpc11cx4-library/lpc_chip_11cxx_lib/src/ssp_11xx.c **** 			}
 349:../../lpc11cx4-library/lpc_chip_11cxx_lib/src/ssp_11xx.c **** 
 350:../../lpc11cx4-library/lpc_chip_11cxx_lib/src/ssp_11xx.c **** 			/* Check overrun error */
 351:../../lpc11cx4-library/lpc_chip_11cxx_lib/src/ssp_11xx.c **** 			if (Chip_SSP_GetRawIntStatus(pSSP, SSP_RORRIS) == SET) {
ARM GAS  /tmp/ccGKa4GA.s 			page 36


 1155              		.loc 1 351 0
 1156 0042 4F46     		mov	r7, r9	@ tmp209, tmp209
 1157              	.LBB425:
 1158              	.LBB417:
 311:../../lpc11cx4-library/lpc_chip_11cxx_lib/inc/ssp_11xx.h **** }
 1159              		.loc 2 311 0
 1160 0044 8469     		ldr	r4, [r0, #24]	@ _60, pSSP_26(D)->RIS
 1161              	.LVL104:
 1162              	.LBE417:
 1163              	.LBE425:
 1164              		.loc 1 351 0
 1165 0046 2742     		tst	r7, r4	@ tmp209, _60
 1166 0048 1AD1     		bne	.L130	@,
 1167              	.L162:
 1168              	.LVL105:
 1169              	.LBB426:
 1170              	.LBB422:
 284:../../lpc11cx4-library/lpc_chip_11cxx_lib/inc/ssp_11xx.h **** }
 1171              		.loc 2 284 0
 1172 004a C468     		ldr	r4, [r0, #12]	@ _102, pSSP_26(D)->SR
 1173              	.LVL106:
 1174              	.LBE422:
 1175              	.LBE426:
 352:../../lpc11cx4-library/lpc_chip_11cxx_lib/src/ssp_11xx.c **** 				return ERROR;
 353:../../lpc11cx4-library/lpc_chip_11cxx_lib/src/ssp_11xx.c **** 			}
 354:../../lpc11cx4-library/lpc_chip_11cxx_lib/src/ssp_11xx.c **** 
 355:../../lpc11cx4-library/lpc_chip_11cxx_lib/src/ssp_11xx.c **** 			/* Check for any data available in RX FIFO */
 356:../../lpc11cx4-library/lpc_chip_11cxx_lib/src/ssp_11xx.c **** 			while (Chip_SSP_GetStatus(pSSP, SSP_STAT_RNE) == SET && rx_cnt < buffer_len) {
 1176              		.loc 1 356 0
 1177 004c 2542     		tst	r5, r4	@ tmp210, _102
 1178 004e F3D0     		beq	.L122	@,
 1179 0050 9342     		cmp	r3, r2	@ <retval>, buffer_len
 1180 0052 F1D2     		bcs	.L122	@,
 1181              	.L132:
 1182              	.LVL107:
 1183              	.LBB427:
 1184              	.LBB428:
 366:../../lpc11cx4-library/lpc_chip_11cxx_lib/inc/ssp_11xx.h **** }
 1185              		.loc 2 366 0
 1186 0054 8468     		ldr	r4, [r0, #8]	@ _62, pSSP_26(D)->DR
 1187              	.LVL108:
 1188              	.LBE428:
 1189              	.LBE427:
 357:../../lpc11cx4-library/lpc_chip_11cxx_lib/src/ssp_11xx.c **** 				*rdata8 = Chip_SSP_ReceiveFrame(pSSP);
 358:../../lpc11cx4-library/lpc_chip_11cxx_lib/src/ssp_11xx.c **** 				rdata8++;
 359:../../lpc11cx4-library/lpc_chip_11cxx_lib/src/ssp_11xx.c **** 				rx_cnt++;
 1190              		.loc 1 359 0
 1191 0056 0133     		adds	r3, r3, #1	@ <retval>,
 1192              	.LVL109:
 357:../../lpc11cx4-library/lpc_chip_11cxx_lib/src/ssp_11xx.c **** 				*rdata8 = Chip_SSP_ReceiveFrame(pSSP);
 1193              		.loc 1 357 0
 1194 0058 0C70     		strb	r4, [r1]	@ _62, MEM[base: rdata8_105, offset: 0B]
 1195              	.LBB429:
 1196              	.LBB423:
 284:../../lpc11cx4-library/lpc_chip_11cxx_lib/inc/ssp_11xx.h **** }
 1197              		.loc 2 284 0
 1198 005a C468     		ldr	r4, [r0, #12]	@ _63, pSSP_26(D)->SR
ARM GAS  /tmp/ccGKa4GA.s 			page 37


 1199              	.LBE423:
 1200              	.LBE429:
 358:../../lpc11cx4-library/lpc_chip_11cxx_lib/src/ssp_11xx.c **** 				rx_cnt++;
 1201              		.loc 1 358 0
 1202 005c 0131     		adds	r1, r1, #1	@ buffer,
 1203              	.LVL110:
 356:../../lpc11cx4-library/lpc_chip_11cxx_lib/src/ssp_11xx.c **** 				*rdata8 = Chip_SSP_ReceiveFrame(pSSP);
 1204              		.loc 1 356 0
 1205 005e 2542     		tst	r5, r4	@ tmp210, _63
 1206 0060 EAD0     		beq	.L122	@,
 356:../../lpc11cx4-library/lpc_chip_11cxx_lib/src/ssp_11xx.c **** 				*rdata8 = Chip_SSP_ReceiveFrame(pSSP);
 1207              		.loc 1 356 0 is_stmt 0 discriminator 1
 1208 0062 9A42     		cmp	r2, r3	@ buffer_len, <retval>
 1209 0064 F6D1     		bne	.L132	@,
 343:../../lpc11cx4-library/lpc_chip_11cxx_lib/src/ssp_11xx.c **** 			/* write data to buffer */
 1210              		.loc 1 343 0 is_stmt 1
 1211 0066 9642     		cmp	r6, r2	@ tx_cnt, buffer_len
 1212 0068 E8D2     		bcs	.L161	@,
 1213              	.L133:
 1214              	.LVL111:
 345:../../lpc11cx4-library/lpc_chip_11cxx_lib/src/ssp_11xx.c **** 				Chip_SSP_SendFrame(pSSP, 0xFF);	/* just send dummy data		 */
 1215              		.loc 1 345 0
 1216 006a 6746     		mov	r7, ip	@ tmp207, tmp207
 1217              	.LBB430:
 1218              	.LBB409:
 284:../../lpc11cx4-library/lpc_chip_11cxx_lib/inc/ssp_11xx.h **** }
 1219              		.loc 2 284 0
 1220 006c C468     		ldr	r4, [r0, #12]	@ _93, pSSP_26(D)->SR
 1221              	.LVL112:
 1222              	.LBE409:
 1223              	.LBE430:
 345:../../lpc11cx4-library/lpc_chip_11cxx_lib/src/ssp_11xx.c **** 				Chip_SSP_SendFrame(pSSP, 0xFF);	/* just send dummy data		 */
 1224              		.loc 1 345 0
 1225 006e 2742     		tst	r7, r4	@ tmp207, _93
 1226 0070 E7D0     		beq	.L137	@,
 1227              	.LVL113:
 1228              	.LBB431:
 1229              	.LBB412:
 1230              		.loc 2 377 0
 1231 0072 4446     		mov	r4, r8	@ tmp208, tmp208
 1232              	.LBE412:
 1233              	.LBE431:
 351:../../lpc11cx4-library/lpc_chip_11cxx_lib/src/ssp_11xx.c **** 				return ERROR;
 1234              		.loc 1 351 0
 1235 0074 4F46     		mov	r7, r9	@ tmp209, tmp209
 1236              	.LBB432:
 1237              	.LBB413:
 1238              		.loc 2 377 0
 1239 0076 8460     		str	r4, [r0, #8]	@ tmp208, pSSP_26(D)->DR
 1240              	.LVL114:
 1241              	.LBE413:
 1242              	.LBE432:
 1243              	.LBB433:
 1244              	.LBB418:
 311:../../lpc11cx4-library/lpc_chip_11cxx_lib/inc/ssp_11xx.h **** }
 1245              		.loc 2 311 0
 1246 0078 8469     		ldr	r4, [r0, #24]	@ _60, pSSP_26(D)->RIS
ARM GAS  /tmp/ccGKa4GA.s 			page 38


 1247              	.LBE418:
 1248              	.LBE433:
 347:../../lpc11cx4-library/lpc_chip_11cxx_lib/src/ssp_11xx.c **** 			}
 1249              		.loc 1 347 0
 1250 007a 0136     		adds	r6, r6, #1	@ tx_cnt,
 1251              	.LVL115:
 351:../../lpc11cx4-library/lpc_chip_11cxx_lib/src/ssp_11xx.c **** 				return ERROR;
 1252              		.loc 1 351 0
 1253 007c 2742     		tst	r7, r4	@ tmp209, _60
 1254 007e E4D0     		beq	.L162	@,
 1255              	.LVL116:
 1256              	.L130:
 1257              	.LBE434:
 1258              	.LBB435:
 327:../../lpc11cx4-library/lpc_chip_11cxx_lib/src/ssp_11xx.c **** 			}
 1259              		.loc 1 327 0
 1260 0080 0023     		movs	r3, #0	@ <retval>,
 1261              	.LVL117:
 1262              	.L118:
 1263              	.LBE435:
 360:../../lpc11cx4-library/lpc_chip_11cxx_lib/src/ssp_11xx.c **** 			}
 361:../../lpc11cx4-library/lpc_chip_11cxx_lib/src/ssp_11xx.c **** 		}
 362:../../lpc11cx4-library/lpc_chip_11cxx_lib/src/ssp_11xx.c **** 	}
 363:../../lpc11cx4-library/lpc_chip_11cxx_lib/src/ssp_11xx.c **** 
 364:../../lpc11cx4-library/lpc_chip_11cxx_lib/src/ssp_11xx.c **** 	return rx_cnt;
 365:../../lpc11cx4-library/lpc_chip_11cxx_lib/src/ssp_11xx.c **** 
 366:../../lpc11cx4-library/lpc_chip_11cxx_lib/src/ssp_11xx.c **** }
 1264              		.loc 1 366 0
 1265 0082 1800     		movs	r0, r3	@, <retval>
 1266              	.LVL118:
 1267              		@ sp needed	@
 1268              	.LVL119:
 1269 0084 0CBC     		pop	{r2, r3}
 1270 0086 9046     		mov	r8, r2
 1271 0088 9946     		mov	r9, r3
 1272 008a F0BD     		pop	{r4, r5, r6, r7, pc}
 1273              	.LVL120:
 1274              	.L121:
 1275              	.LBB466:
 1276              	.LBB436:
 1277              	.LBB437:
 284:../../lpc11cx4-library/lpc_chip_11cxx_lib/inc/ssp_11xx.h **** }
 1278              		.loc 2 284 0
 1279 008c 0224     		movs	r4, #2	@ tmp203,
 1280 008e A446     		mov	ip, r4	@ tmp203, tmp203
 1281              	.LBE437:
 1282              	.LBE436:
 1283              	.LBB440:
 1284              	.LBB441:
 1285              		.loc 2 377 0
 1286 0090 124C     		ldr	r4, .L164	@ tmp204,
 1287              	.LBE441:
 1288              	.LBE440:
 1289              	.LBE466:
 1290 0092 0023     		movs	r3, #0	@ <retval>,
 1291              	.LBB467:
 1292              	.LBB445:
ARM GAS  /tmp/ccGKa4GA.s 			page 39


 1293              	.LBB442:
 1294 0094 A046     		mov	r8, r4	@ tmp204, tmp204
 1295              	.LBE442:
 1296              	.LBE445:
 1297              	.LBB446:
 1298              	.LBB447:
 311:../../lpc11cx4-library/lpc_chip_11cxx_lib/inc/ssp_11xx.h **** }
 1299              		.loc 2 311 0
 1300 0096 0124     		movs	r4, #1	@ tmp205,
 1301              	.LBE447:
 1302              	.LBE446:
 1303              	.LBB450:
 1304              	.LBB451:
 284:../../lpc11cx4-library/lpc_chip_11cxx_lib/inc/ssp_11xx.h **** }
 1305              		.loc 2 284 0
 1306 0098 0425     		movs	r5, #4	@ tmp206,
 1307              	.LBE451:
 1308              	.LBE450:
 1309              	.LBB454:
 1310              	.LBB448:
 311:../../lpc11cx4-library/lpc_chip_11cxx_lib/inc/ssp_11xx.h **** }
 1311              		.loc 2 311 0
 1312 009a A146     		mov	r9, r4	@ tmp205, tmp205
 1313              	.LVL121:
 1314              	.L123:
 1315              	.LBE448:
 1316              	.LBE454:
 318:../../lpc11cx4-library/lpc_chip_11cxx_lib/src/ssp_11xx.c **** 			/* write data to buffer */
 1317              		.loc 1 318 0
 1318 009c 9642     		cmp	r6, r2	@ tx_cnt, buffer_len
 1319 009e 14D3     		bcc	.L128	@,
 1320              	.L163:
 318:../../lpc11cx4-library/lpc_chip_11cxx_lib/src/ssp_11xx.c **** 			/* write data to buffer */
 1321              		.loc 1 318 0 is_stmt 0 discriminator 1
 1322 00a0 9342     		cmp	r3, r2	@ <retval>, buffer_len
 1323 00a2 EED2     		bcs	.L118	@,
 1324              	.LVL122:
 1325              	.LBB455:
 1326              	.LBB438:
 284:../../lpc11cx4-library/lpc_chip_11cxx_lib/inc/ssp_11xx.h **** }
 1327              		.loc 2 284 0 is_stmt 1
 1328 00a4 C468     		ldr	r4, [r0, #12]	@ _17, pSSP_26(D)->SR
 1329              	.LVL123:
 1330              	.L136:
 1331              	.LBE438:
 1332              	.LBE455:
 326:../../lpc11cx4-library/lpc_chip_11cxx_lib/src/ssp_11xx.c **** 				return ERROR;
 1333              		.loc 1 326 0
 1334 00a6 4F46     		mov	r7, r9	@ tmp205, tmp205
 1335              	.LBB456:
 1336              	.LBB449:
 311:../../lpc11cx4-library/lpc_chip_11cxx_lib/inc/ssp_11xx.h **** }
 1337              		.loc 2 311 0
 1338 00a8 8469     		ldr	r4, [r0, #24]	@ _52, pSSP_26(D)->RIS
 1339              	.LVL124:
 1340              	.LBE449:
 1341              	.LBE456:
ARM GAS  /tmp/ccGKa4GA.s 			page 40


 326:../../lpc11cx4-library/lpc_chip_11cxx_lib/src/ssp_11xx.c **** 				return ERROR;
 1342              		.loc 1 326 0
 1343 00aa 2742     		tst	r7, r4	@ tmp205, _52
 1344 00ac E8D1     		bne	.L130	@,
 1345              	.LVL125:
 1346              	.LBB457:
 1347              	.LBB452:
 284:../../lpc11cx4-library/lpc_chip_11cxx_lib/inc/ssp_11xx.h **** }
 1348              		.loc 2 284 0
 1349 00ae C468     		ldr	r4, [r0, #12]	@ _112,
 1350              	.LVL126:
 1351              	.LBE452:
 1352              	.LBE457:
 331:../../lpc11cx4-library/lpc_chip_11cxx_lib/src/ssp_11xx.c **** 				*rdata16 = Chip_SSP_ReceiveFrame(pSSP);
 1353              		.loc 1 331 0
 1354 00b0 2542     		tst	r5, r4	@ tmp206, _112
 1355 00b2 F3D0     		beq	.L123	@,
 1356              	.L158:
 1357 00b4 9342     		cmp	r3, r2	@ <retval>, buffer_len
 1358 00b6 F1D2     		bcs	.L123	@,
 1359              	.LVL127:
 1360              	.LBB458:
 1361              	.LBB459:
 366:../../lpc11cx4-library/lpc_chip_11cxx_lib/inc/ssp_11xx.h **** }
 1362              		.loc 2 366 0
 1363 00b8 8468     		ldr	r4, [r0, #8]	@ _54, pSSP_26(D)->DR
 1364              	.LVL128:
 1365              	.LBE459:
 1366              	.LBE458:
 334:../../lpc11cx4-library/lpc_chip_11cxx_lib/src/ssp_11xx.c **** 			}
 1367              		.loc 1 334 0
 1368 00ba 0233     		adds	r3, r3, #2	@ <retval>,
 1369              	.LVL129:
 1370              	.LBB461:
 1371              	.LBB460:
 366:../../lpc11cx4-library/lpc_chip_11cxx_lib/inc/ssp_11xx.h **** }
 1372              		.loc 2 366 0
 1373 00bc 0C80     		strh	r4, [r1]	@ _54, MEM[base: rdata16_95, offset: 0B]
 1374              	.LBE460:
 1375              	.LBE461:
 1376              	.LBB462:
 1377              	.LBB453:
 284:../../lpc11cx4-library/lpc_chip_11cxx_lib/inc/ssp_11xx.h **** }
 1378              		.loc 2 284 0
 1379 00be C468     		ldr	r4, [r0, #12]	@ _56,
 1380              	.LBE453:
 1381              	.LBE462:
 333:../../lpc11cx4-library/lpc_chip_11cxx_lib/src/ssp_11xx.c **** 				rx_cnt += 2;
 1382              		.loc 1 333 0
 1383 00c0 0231     		adds	r1, r1, #2	@ rdata16,
 1384              	.LVL130:
 331:../../lpc11cx4-library/lpc_chip_11cxx_lib/src/ssp_11xx.c **** 				*rdata16 = Chip_SSP_ReceiveFrame(pSSP);
 1385              		.loc 1 331 0
 1386 00c2 2542     		tst	r5, r4	@ tmp206, _56
 1387 00c4 F6D1     		bne	.L158	@,
 318:../../lpc11cx4-library/lpc_chip_11cxx_lib/src/ssp_11xx.c **** 			/* write data to buffer */
 1388              		.loc 1 318 0
ARM GAS  /tmp/ccGKa4GA.s 			page 41


 1389 00c6 9642     		cmp	r6, r2	@ tx_cnt, buffer_len
 1390 00c8 EAD2     		bcs	.L163	@,
 1391              	.L128:
 1392              	.LVL131:
 320:../../lpc11cx4-library/lpc_chip_11cxx_lib/src/ssp_11xx.c **** 				Chip_SSP_SendFrame(pSSP, 0xFFFF);	/* just send dummy data */
 1393              		.loc 1 320 0
 1394 00ca 6746     		mov	r7, ip	@ tmp203, tmp203
 1395              	.LBB463:
 1396              	.LBB439:
 284:../../lpc11cx4-library/lpc_chip_11cxx_lib/inc/ssp_11xx.h **** }
 1397              		.loc 2 284 0
 1398 00cc C468     		ldr	r4, [r0, #12]	@ _110, pSSP_26(D)->SR
 1399              	.LVL132:
 1400              	.LBE439:
 1401              	.LBE463:
 320:../../lpc11cx4-library/lpc_chip_11cxx_lib/src/ssp_11xx.c **** 				Chip_SSP_SendFrame(pSSP, 0xFFFF);	/* just send dummy data */
 1402              		.loc 1 320 0
 1403 00ce 2742     		tst	r7, r4	@ tmp203, _110
 1404 00d0 E9D0     		beq	.L136	@,
 1405              	.LVL133:
 1406              	.LBB464:
 1407              	.LBB443:
 1408              		.loc 2 377 0
 1409 00d2 4446     		mov	r4, r8	@ tmp204, tmp204
 1410              	.LBE443:
 1411              	.LBE464:
 322:../../lpc11cx4-library/lpc_chip_11cxx_lib/src/ssp_11xx.c **** 			}
 1412              		.loc 1 322 0
 1413 00d4 0236     		adds	r6, r6, #2	@ tx_cnt,
 1414              	.LVL134:
 1415              	.LBB465:
 1416              	.LBB444:
 1417              		.loc 2 377 0
 1418 00d6 8460     		str	r4, [r0, #8]	@ tmp204, pSSP_26(D)->DR
 1419              	.LVL135:
 1420 00d8 E5E7     		b	.L136	@
 1421              	.L165:
 1422 00da C046     		.align	2
 1423              	.L164:
 1424 00dc FFFF0000 		.word	65535
 1425              	.LBE444:
 1426              	.LBE465:
 1427              	.LBE467:
 1428              		.cfi_endproc
 1429              	.LFE209:
 1430              		.size	Chip_SSP_ReadFrames_Blocking, .-Chip_SSP_ReadFrames_Blocking
 1431              		.section	.text.Chip_SSP_Int_FlushData,"ax",%progbits
 1432              		.align	1
 1433              		.p2align 2,,3
 1434              		.global	Chip_SSP_Int_FlushData
 1435              		.syntax unified
 1436              		.code	16
 1437              		.thumb_func
 1438              		.fpu softvfp
 1439              		.type	Chip_SSP_Int_FlushData, %function
 1440              	Chip_SSP_Int_FlushData:
 1441              	.LFB210:
ARM GAS  /tmp/ccGKa4GA.s 			page 42


 367:../../lpc11cx4-library/lpc_chip_11cxx_lib/src/ssp_11xx.c **** 
 368:../../lpc11cx4-library/lpc_chip_11cxx_lib/src/ssp_11xx.c **** /* Clean all data in RX FIFO of SSP */
 369:../../lpc11cx4-library/lpc_chip_11cxx_lib/src/ssp_11xx.c **** void Chip_SSP_Int_FlushData(LPC_SSP_T *pSSP)
 370:../../lpc11cx4-library/lpc_chip_11cxx_lib/src/ssp_11xx.c **** {
 1442              		.loc 1 370 0
 1443              		.cfi_startproc
 1444              		@ args = 0, pretend = 0, frame = 0
 1445              		@ frame_needed = 0, uses_anonymous_args = 0
 1446              		@ link register save eliminated.
 1447              	.LVL136:
 1448              	.LBB468:
 1449              	.LBB469:
 284:../../lpc11cx4-library/lpc_chip_11cxx_lib/inc/ssp_11xx.h **** }
 1450              		.loc 2 284 0
 1451 0000 C368     		ldr	r3, [r0, #12]	@ _6, pSSP_4(D)->SR
 1452              	.LVL137:
 1453              	.LBE469:
 1454              	.LBE468:
 371:../../lpc11cx4-library/lpc_chip_11cxx_lib/src/ssp_11xx.c **** 	if (Chip_SSP_GetStatus(pSSP, SSP_STAT_BSY)) {
 1455              		.loc 1 371 0
 1456 0002 DB06     		lsls	r3, r3, #27	@ tmp129, _6,
 1457 0004 03D5     		bpl	.L167	@,
 1458              	.LBB470:
 1459              	.LBB471:
 284:../../lpc11cx4-library/lpc_chip_11cxx_lib/inc/ssp_11xx.h **** }
 1460              		.loc 2 284 0 discriminator 1
 1461 0006 1022     		movs	r2, #16	@ tmp122,
 1462              	.L176:
 1463              	.LVL138:
 1464 0008 C368     		ldr	r3, [r0, #12]	@ _8, pSSP_4(D)->SR
 1465              	.LVL139:
 1466              	.LBE471:
 1467              	.LBE470:
 372:../../lpc11cx4-library/lpc_chip_11cxx_lib/src/ssp_11xx.c **** 		while (Chip_SSP_GetStatus(pSSP, SSP_STAT_BSY)) {}
 1468              		.loc 1 372 0 discriminator 1
 1469 000a 1A42     		tst	r2, r3	@ tmp122, _8
 1470 000c FCD1     		bne	.L176	@,
 1471              	.L167:
 1472              	.LVL140:
 1473              	.LBB472:
 1474              	.LBB473:
 284:../../lpc11cx4-library/lpc_chip_11cxx_lib/inc/ssp_11xx.h **** }
 1475              		.loc 2 284 0
 1476 000e C368     		ldr	r3, [r0, #12]	@ _15, pSSP_4(D)->SR
 1477              	.LVL141:
 1478              	.LBE473:
 1479              	.LBE472:
 373:../../lpc11cx4-library/lpc_chip_11cxx_lib/src/ssp_11xx.c **** 	}
 374:../../lpc11cx4-library/lpc_chip_11cxx_lib/src/ssp_11xx.c **** 
 375:../../lpc11cx4-library/lpc_chip_11cxx_lib/src/ssp_11xx.c **** 	/* Clear all remaining frames in RX FIFO */
 376:../../lpc11cx4-library/lpc_chip_11cxx_lib/src/ssp_11xx.c **** 	while (Chip_SSP_GetStatus(pSSP, SSP_STAT_RNE)) {
 1480              		.loc 1 376 0
 1481 0010 5B07     		lsls	r3, r3, #29	@ tmp130, _15,
 1482 0012 04D5     		bpl	.L169	@,
 1483              	.LBB476:
 1484              	.LBB474:
 284:../../lpc11cx4-library/lpc_chip_11cxx_lib/inc/ssp_11xx.h **** }
ARM GAS  /tmp/ccGKa4GA.s 			page 43


 1485              		.loc 2 284 0
 1486 0014 0422     		movs	r2, #4	@ tmp126,
 1487              	.L175:
 1488              	.LVL142:
 1489              	.LBE474:
 1490              	.LBE476:
 1491              	.LBB477:
 1492              	.LBB478:
 366:../../lpc11cx4-library/lpc_chip_11cxx_lib/inc/ssp_11xx.h **** }
 1493              		.loc 2 366 0
 1494 0016 8368     		ldr	r3, [r0, #8]	@ _10, pSSP_4(D)->DR
 1495              	.LVL143:
 1496              	.LBE478:
 1497              	.LBE477:
 1498              	.LBB479:
 1499              	.LBB475:
 284:../../lpc11cx4-library/lpc_chip_11cxx_lib/inc/ssp_11xx.h **** }
 1500              		.loc 2 284 0
 1501 0018 C368     		ldr	r3, [r0, #12]	@ _11, pSSP_4(D)->SR
 1502              	.LVL144:
 1503              	.LBE475:
 1504              	.LBE479:
 1505              		.loc 1 376 0
 1506 001a 1A42     		tst	r2, r3	@ tmp126, _11
 1507 001c FBD1     		bne	.L175	@,
 1508              	.LVL145:
 1509              	.L169:
 1510              	.LBB480:
 1511              	.LBB481:
 336:../../lpc11cx4-library/lpc_chip_11cxx_lib/inc/ssp_11xx.h **** }
 1512              		.loc 2 336 0
 1513 001e 0323     		movs	r3, #3	@ tmp128,
 1514              	.LBE481:
 1515              	.LBE480:
 377:../../lpc11cx4-library/lpc_chip_11cxx_lib/src/ssp_11xx.c **** 		Chip_SSP_ReceiveFrame(pSSP);
 378:../../lpc11cx4-library/lpc_chip_11cxx_lib/src/ssp_11xx.c **** 	}
 379:../../lpc11cx4-library/lpc_chip_11cxx_lib/src/ssp_11xx.c **** 
 380:../../lpc11cx4-library/lpc_chip_11cxx_lib/src/ssp_11xx.c **** 	/* Clear status */
 381:../../lpc11cx4-library/lpc_chip_11cxx_lib/src/ssp_11xx.c **** 	Chip_SSP_ClearIntPending(pSSP, SSP_INT_CLEAR_BITMASK);
 382:../../lpc11cx4-library/lpc_chip_11cxx_lib/src/ssp_11xx.c **** }
 1516              		.loc 1 382 0
 1517              		@ sp needed	@
 1518              	.LBB483:
 1519              	.LBB482:
 336:../../lpc11cx4-library/lpc_chip_11cxx_lib/inc/ssp_11xx.h **** }
 1520              		.loc 2 336 0
 1521 0020 0362     		str	r3, [r0, #32]	@ tmp128, pSSP_4(D)->ICR
 1522              	.LVL146:
 1523              	.LBE482:
 1524              	.LBE483:
 1525              		.loc 1 382 0
 1526 0022 7047     		bx	lr
 1527              		.cfi_endproc
 1528              	.LFE210:
 1529              		.size	Chip_SSP_Int_FlushData, .-Chip_SSP_Int_FlushData
 1530              		.section	.text.Chip_SSP_Int_RWFrames8Bits,"ax",%progbits
 1531              		.align	1
ARM GAS  /tmp/ccGKa4GA.s 			page 44


 1532              		.p2align 2,,3
 1533              		.global	Chip_SSP_Int_RWFrames8Bits
 1534              		.syntax unified
 1535              		.code	16
 1536              		.thumb_func
 1537              		.fpu softvfp
 1538              		.type	Chip_SSP_Int_RWFrames8Bits, %function
 1539              	Chip_SSP_Int_RWFrames8Bits:
 1540              	.LFB211:
 383:../../lpc11cx4-library/lpc_chip_11cxx_lib/src/ssp_11xx.c **** 
 384:../../lpc11cx4-library/lpc_chip_11cxx_lib/src/ssp_11xx.c **** /* SSP Interrupt Read/Write with 8-bit frame width */
 385:../../lpc11cx4-library/lpc_chip_11cxx_lib/src/ssp_11xx.c **** Status Chip_SSP_Int_RWFrames8Bits(LPC_SSP_T *pSSP, Chip_SSP_DATA_SETUP_T *xf_setup)
 386:../../lpc11cx4-library/lpc_chip_11cxx_lib/src/ssp_11xx.c **** {
 1541              		.loc 1 386 0
 1542              		.cfi_startproc
 1543              		@ args = 0, pretend = 0, frame = 0
 1544              		@ frame_needed = 0, uses_anonymous_args = 0
 1545              	.LVL147:
 1546              	.LBB484:
 1547              	.LBB485:
 311:../../lpc11cx4-library/lpc_chip_11cxx_lib/inc/ssp_11xx.h **** }
 1548              		.loc 2 311 0
 1549 0000 8369     		ldr	r3, [r0, #24]	@ _15, pSSP_5(D)->RIS
 1550              	.LVL148:
 1551              	.LBE485:
 1552              	.LBE484:
 1553              		.loc 1 386 0
 1554 0002 F0B5     		push	{r4, r5, r6, r7, lr}	@
 1555              		.cfi_def_cfa_offset 20
 1556              		.cfi_offset 4, -20
 1557              		.cfi_offset 5, -16
 1558              		.cfi_offset 6, -12
 1559              		.cfi_offset 7, -8
 1560              		.cfi_offset 14, -4
 387:../../lpc11cx4-library/lpc_chip_11cxx_lib/src/ssp_11xx.c **** 	/* Check overrun error in RIS register */
 388:../../lpc11cx4-library/lpc_chip_11cxx_lib/src/ssp_11xx.c **** 	if (Chip_SSP_GetRawIntStatus(pSSP, SSP_RORRIS) == SET) {
 1561              		.loc 1 388 0
 1562 0004 DB07     		lsls	r3, r3, #31	@ tmp188, _15,
 1563 0006 51D4     		bmi	.L190	@,
 389:../../lpc11cx4-library/lpc_chip_11cxx_lib/src/ssp_11xx.c **** 		return ERROR;
 390:../../lpc11cx4-library/lpc_chip_11cxx_lib/src/ssp_11xx.c **** 	}
 391:../../lpc11cx4-library/lpc_chip_11cxx_lib/src/ssp_11xx.c **** 
 392:../../lpc11cx4-library/lpc_chip_11cxx_lib/src/ssp_11xx.c **** 	if ((xf_setup->tx_cnt != xf_setup->length) || (xf_setup->rx_cnt != xf_setup->length)) {
 1564              		.loc 1 392 0
 1565 0008 0A69     		ldr	r2, [r1, #16]	@ _9, xf_setup_7(D)->length
 1566 000a 4B68     		ldr	r3, [r1, #4]	@ tmp190, xf_setup_7(D)->tx_cnt
 1567 000c 9342     		cmp	r3, r2	@ tmp190, _9
 1568 000e 4FD0     		beq	.L184	@,
 1569              	.L189:
 1570              	.LVL149:
 1571              	.LBB486:
 1572              	.LBB487:
 1573              	.LBB488:
 1574              	.LBB489:
 284:../../lpc11cx4-library/lpc_chip_11cxx_lib/inc/ssp_11xx.h **** }
 1575              		.loc 2 284 0
 1576 0010 C368     		ldr	r3, [r0, #12]	@ _73, pSSP_5(D)->SR
ARM GAS  /tmp/ccGKa4GA.s 			page 45


 1577              	.LVL150:
 1578              	.LBE489:
 1579              	.LBE488:
  93:../../lpc11cx4-library/lpc_chip_11cxx_lib/src/ssp_11xx.c **** 		   (xf_setup->rx_cnt < xf_setup->length)) {
 1580              		.loc 1 93 0
 1581 0012 5B07     		lsls	r3, r3, #29	@ tmp189, _73,
 1582 0014 12D5     		bpl	.L188	@,
  94:../../lpc11cx4-library/lpc_chip_11cxx_lib/src/ssp_11xx.c **** 		rDat = Chip_SSP_ReceiveFrame(pSSP);
 1583              		.loc 1 94 0
 1584 0016 CB68     		ldr	r3, [r1, #12]	@ xf_setup_7(D)->rx_cnt, xf_setup_7(D)->rx_cnt
 1585              	.LBB492:
 1586              	.LBB490:
 284:../../lpc11cx4-library/lpc_chip_11cxx_lib/inc/ssp_11xx.h **** }
 1587              		.loc 2 284 0
 1588 0018 0425     		movs	r5, #4	@ tmp166,
 1589              	.LBE490:
 1590              	.LBE492:
  93:../../lpc11cx4-library/lpc_chip_11cxx_lib/src/ssp_11xx.c **** 		   (xf_setup->rx_cnt < xf_setup->length)) {
 1591              		.loc 1 93 0
 1592 001a 9A42     		cmp	r2, r3	@ _9, xf_setup_7(D)->rx_cnt
 1593 001c 03D8     		bhi	.L209	@,
 1594 001e 0DE0     		b	.L188	@
 1595              	.L216:
 1596 0020 0A69     		ldr	r2, [r1, #16]	@ tmp195, xf_setup_7(D)->length
 1597 0022 9342     		cmp	r3, r2	@ xf_setup_7(D)->rx_cnt, tmp195
 1598 0024 0AD2     		bcs	.L188	@,
 1599              	.L209:
 1600              	.LVL151:
  96:../../lpc11cx4-library/lpc_chip_11cxx_lib/src/ssp_11xx.c **** 			*(uint8_t *) ((uint32_t) xf_setup->rx_data + xf_setup->rx_cnt) = rDat;
 1601              		.loc 1 96 0
 1602 0026 8A68     		ldr	r2, [r1, #8]	@ _18, xf_setup_7(D)->rx_data
 1603              	.LBB493:
 1604              	.LBB494:
 366:../../lpc11cx4-library/lpc_chip_11cxx_lib/inc/ssp_11xx.h **** }
 1605              		.loc 2 366 0
 1606 0028 8468     		ldr	r4, [r0, #8]	@ _17, pSSP_5(D)->DR
 1607              	.LVL152:
 1608              	.LBE494:
 1609              	.LBE493:
  96:../../lpc11cx4-library/lpc_chip_11cxx_lib/src/ssp_11xx.c **** 			*(uint8_t *) ((uint32_t) xf_setup->rx_data + xf_setup->rx_cnt) = rDat;
 1610              		.loc 1 96 0
 1611 002a 002A     		cmp	r2, #0	@ _18,
 1612 002c 01D0     		beq	.L191	@,
  97:../../lpc11cx4-library/lpc_chip_11cxx_lib/src/ssp_11xx.c **** 		}
 1613              		.loc 1 97 0
 1614 002e D454     		strb	r4, [r2, r3]	@ _17, *_22
 1615 0030 CB68     		ldr	r3, [r1, #12]	@ xf_setup_7(D)->rx_cnt, xf_setup_7(D)->rx_cnt
 1616              	.L191:
 1617              	.LBB495:
 1618              	.LBB491:
 284:../../lpc11cx4-library/lpc_chip_11cxx_lib/inc/ssp_11xx.h **** }
 1619              		.loc 2 284 0
 1620 0032 C268     		ldr	r2, [r0, #12]	@ _26, pSSP_5(D)->SR
 1621              	.LBE491:
 1622              	.LBE495:
 100:../../lpc11cx4-library/lpc_chip_11cxx_lib/src/ssp_11xx.c **** 	}
 1623              		.loc 1 100 0
ARM GAS  /tmp/ccGKa4GA.s 			page 46


 1624 0034 0133     		adds	r3, r3, #1	@ xf_setup_7(D)->rx_cnt,
 1625 0036 CB60     		str	r3, [r1, #12]	@ xf_setup_7(D)->rx_cnt, xf_setup_7(D)->rx_cnt
 1626              	.LVL153:
  93:../../lpc11cx4-library/lpc_chip_11cxx_lib/src/ssp_11xx.c **** 		   (xf_setup->rx_cnt < xf_setup->length)) {
 1627              		.loc 1 93 0
 1628 0038 1542     		tst	r5, r2	@ tmp166, _26
 1629 003a F1D1     		bne	.L216	@,
 1630              	.L188:
 1631              	.LBE487:
 1632              	.LBE486:
 1633              	.LBB496:
 1634              	.LBB497:
 1635              	.LBB498:
 1636              	.LBB499:
 1637              		.loc 2 377 0
 1638 003c FF23     		movs	r3, #255	@ tmp185,
 1639              	.LBE499:
 1640              	.LBE498:
 1641              	.LBE497:
 1642              	.LBE496:
 1643              	.LBB509:
 1644              	.LBB510:
 284:../../lpc11cx4-library/lpc_chip_11cxx_lib/inc/ssp_11xx.h **** }
 1645              		.loc 2 284 0
 1646 003e 0226     		movs	r6, #2	@ tmp181,
 1647              	.LBE510:
 1648              	.LBE509:
 1649              	.LBB513:
 1650              	.LBB506:
 1651              	.LBB502:
 1652              	.LBB500:
 1653              		.loc 2 377 0
 1654 0040 9C46     		mov	ip, r3	@ tmp185, tmp185
 1655              	.LBE500:
 1656              	.LBE502:
 1657              	.LBE506:
 1658              	.LBE513:
 1659              	.LBB514:
 1660              	.LBB515:
 311:../../lpc11cx4-library/lpc_chip_11cxx_lib/inc/ssp_11xx.h **** }
 1661              		.loc 2 311 0
 1662 0042 0127     		movs	r7, #1	@ tmp186,
 1663              	.LBE515:
 1664              	.LBE514:
 1665              	.LBB518:
 1666              	.LBB519:
 1667              	.LBB520:
 1668              	.LBB521:
 284:../../lpc11cx4-library/lpc_chip_11cxx_lib/inc/ssp_11xx.h **** }
 1669              		.loc 2 284 0
 1670 0044 0425     		movs	r5, #4	@ tmp187,
 1671              	.L186:
 1672              	.LVL154:
 1673              	.LBE521:
 1674              	.LBE520:
 1675              	.LBE519:
 1676              	.LBE518:
ARM GAS  /tmp/ccGKa4GA.s 			page 47


 1677              	.LBB529:
 1678              	.LBB511:
 1679 0046 C368     		ldr	r3, [r0, #12]	@ _50, pSSP_5(D)->SR
 1680              	.LVL155:
 1681              	.LBE511:
 1682              	.LBE529:
 393:../../lpc11cx4-library/lpc_chip_11cxx_lib/src/ssp_11xx.c **** 		/* check if RX FIFO contains data */
 394:../../lpc11cx4-library/lpc_chip_11cxx_lib/src/ssp_11xx.c **** 		SSP_Read1BFifo(pSSP, xf_setup);
 395:../../lpc11cx4-library/lpc_chip_11cxx_lib/src/ssp_11xx.c **** 
 396:../../lpc11cx4-library/lpc_chip_11cxx_lib/src/ssp_11xx.c **** 		while ((Chip_SSP_GetStatus(pSSP, SSP_STAT_TNF)) && (xf_setup->tx_cnt != xf_setup->length)) {
 1683              		.loc 1 396 0
 1684 0048 1E42     		tst	r6, r3	@ tmp181, _50
 1685 004a 25D0     		beq	.L200	@,
 1686              	.L217:
 1687              		.loc 1 396 0 is_stmt 0 discriminator 1
 1688 004c 4B68     		ldr	r3, [r1, #4]	@ _12, xf_setup_7(D)->tx_cnt
 1689 004e 0A69     		ldr	r2, [r1, #16]	@ _13, xf_setup_7(D)->length
 1690 0050 9342     		cmp	r3, r2	@ _12, _13
 1691 0052 21D0     		beq	.L200	@,
 1692 0054 0C68     		ldr	r4, [r1]	@ _14, MEM[(void * *)xf_setup_7(D)]
 1693              	.LVL156:
 1694              	.LBB530:
 1695              	.LBB507:
  62:../../lpc11cx4-library/lpc_chip_11cxx_lib/src/ssp_11xx.c **** 		Chip_SSP_SendFrame(pSSP, (*(uint8_t *) ((uint32_t) xf_setup->tx_data + xf_setup->tx_cnt)));
 1696              		.loc 1 62 0 is_stmt 1
 1697 0056 002C     		cmp	r4, #0	@ _14,
 1698 0058 20D0     		beq	.L193	@,
 1699              	.LVL157:
 1700              	.LBB503:
 1701              	.LBB504:
 1702              		.loc 2 377 0
 1703 005a E35C     		ldrb	r3, [r4, r3]	@ _35, *_33
 1704              	.LVL158:
 1705 005c 8360     		str	r3, [r0, #8]	@ _35,
 1706              	.LVL159:
 1707              	.LBE504:
 1708              	.LBE503:
  69:../../lpc11cx4-library/lpc_chip_11cxx_lib/src/ssp_11xx.c **** }
 1709              		.loc 1 69 0
 1710 005e 4B68     		ldr	r3, [r1, #4]	@ tmp198, MEM[(uint32_t *)xf_setup_7(D) + 4B]
 1711              	.LVL160:
 1712 0060 0133     		adds	r3, r3, #1	@ tmp170,
 1713 0062 4B60     		str	r3, [r1, #4]	@ tmp170, MEM[(uint32_t *)xf_setup_7(D) + 4B]
 1714              	.LVL161:
 1715              	.LBE507:
 1716              	.LBE530:
 1717              	.LBB531:
 1718              	.LBB516:
 311:../../lpc11cx4-library/lpc_chip_11cxx_lib/inc/ssp_11xx.h **** }
 1719              		.loc 2 311 0
 1720 0064 8369     		ldr	r3, [r0, #24]	@ _29, pSSP_5(D)->RIS
 1721              	.LVL162:
 1722              	.LBE516:
 1723              	.LBE531:
 397:../../lpc11cx4-library/lpc_chip_11cxx_lib/src/ssp_11xx.c **** 			/* Write data to buffer */
 398:../../lpc11cx4-library/lpc_chip_11cxx_lib/src/ssp_11xx.c **** 			SSP_Write1BFifo(pSSP, xf_setup);
 399:../../lpc11cx4-library/lpc_chip_11cxx_lib/src/ssp_11xx.c **** 
ARM GAS  /tmp/ccGKa4GA.s 			page 48


 400:../../lpc11cx4-library/lpc_chip_11cxx_lib/src/ssp_11xx.c **** 			/* Check overrun error in RIS register */
 401:../../lpc11cx4-library/lpc_chip_11cxx_lib/src/ssp_11xx.c **** 			if (Chip_SSP_GetRawIntStatus(pSSP, SSP_RORRIS) == SET) {
 1724              		.loc 1 401 0
 1725 0066 1F42     		tst	r7, r3	@ tmp186, _29
 1726 0068 20D1     		bne	.L190	@,
 1727              	.LVL163:
 1728              	.L218:
 1729              	.LBB532:
 1730              	.LBB528:
 1731              	.LBB524:
 1732              	.LBB522:
 284:../../lpc11cx4-library/lpc_chip_11cxx_lib/inc/ssp_11xx.h **** }
 1733              		.loc 2 284 0
 1734 006a C368     		ldr	r3, [r0, #12]	@ _77, pSSP_5(D)->SR
 1735              	.LVL164:
 1736              	.LBE522:
 1737              	.LBE524:
  93:../../lpc11cx4-library/lpc_chip_11cxx_lib/src/ssp_11xx.c **** 		   (xf_setup->rx_cnt < xf_setup->length)) {
 1738              		.loc 1 93 0
 1739 006c 1D42     		tst	r5, r3	@ tmp187, _77
 1740 006e EAD0     		beq	.L186	@,
  94:../../lpc11cx4-library/lpc_chip_11cxx_lib/src/ssp_11xx.c **** 		rDat = Chip_SSP_ReceiveFrame(pSSP);
 1741              		.loc 1 94 0
 1742 0070 CB68     		ldr	r3, [r1, #12]	@ xf_setup_7(D)->rx_cnt, xf_setup_7(D)->rx_cnt
  93:../../lpc11cx4-library/lpc_chip_11cxx_lib/src/ssp_11xx.c **** 		   (xf_setup->rx_cnt < xf_setup->length)) {
 1743              		.loc 1 93 0
 1744 0072 9A42     		cmp	r2, r3	@ _13, xf_setup_7(D)->rx_cnt
 1745 0074 E7D9     		bls	.L186	@,
 1746              	.L198:
 1747              	.LVL165:
  96:../../lpc11cx4-library/lpc_chip_11cxx_lib/src/ssp_11xx.c **** 			*(uint8_t *) ((uint32_t) xf_setup->rx_data + xf_setup->rx_cnt) = rDat;
 1748              		.loc 1 96 0
 1749 0076 8A68     		ldr	r2, [r1, #8]	@ _39, xf_setup_7(D)->rx_data
 1750              	.LBB525:
 1751              	.LBB526:
 366:../../lpc11cx4-library/lpc_chip_11cxx_lib/inc/ssp_11xx.h **** }
 1752              		.loc 2 366 0
 1753 0078 8468     		ldr	r4, [r0, #8]	@ _38, pSSP_5(D)->DR
 1754              	.LVL166:
 1755              	.LBE526:
 1756              	.LBE525:
  96:../../lpc11cx4-library/lpc_chip_11cxx_lib/src/ssp_11xx.c **** 			*(uint8_t *) ((uint32_t) xf_setup->rx_data + xf_setup->rx_cnt) = rDat;
 1757              		.loc 1 96 0
 1758 007a 002A     		cmp	r2, #0	@ _39,
 1759 007c 01D0     		beq	.L197	@,
  97:../../lpc11cx4-library/lpc_chip_11cxx_lib/src/ssp_11xx.c **** 		}
 1760              		.loc 1 97 0
 1761 007e D454     		strb	r4, [r2, r3]	@ _38, *_43
 1762 0080 CB68     		ldr	r3, [r1, #12]	@ xf_setup_7(D)->rx_cnt, xf_setup_7(D)->rx_cnt
 1763              	.L197:
 1764              	.LBB527:
 1765              	.LBB523:
 284:../../lpc11cx4-library/lpc_chip_11cxx_lib/inc/ssp_11xx.h **** }
 1766              		.loc 2 284 0
 1767 0082 C268     		ldr	r2, [r0, #12]	@ _47, pSSP_5(D)->SR
 1768              	.LBE523:
 1769              	.LBE527:
ARM GAS  /tmp/ccGKa4GA.s 			page 49


 100:../../lpc11cx4-library/lpc_chip_11cxx_lib/src/ssp_11xx.c **** 	}
 1770              		.loc 1 100 0
 1771 0084 0133     		adds	r3, r3, #1	@ xf_setup_7(D)->rx_cnt,
 1772 0086 CB60     		str	r3, [r1, #12]	@ xf_setup_7(D)->rx_cnt, xf_setup_7(D)->rx_cnt
 1773              	.LVL167:
  93:../../lpc11cx4-library/lpc_chip_11cxx_lib/src/ssp_11xx.c **** 		   (xf_setup->rx_cnt < xf_setup->length)) {
 1774              		.loc 1 93 0
 1775 0088 1542     		tst	r5, r2	@ tmp187, _47
 1776 008a DCD0     		beq	.L186	@,
 1777 008c 0A69     		ldr	r2, [r1, #16]	@ tmp199, xf_setup_7(D)->length
 1778 008e 9342     		cmp	r3, r2	@ xf_setup_7(D)->rx_cnt, tmp199
 1779 0090 F1D3     		bcc	.L198	@,
 1780              	.LVL168:
 1781              	.LBE528:
 1782              	.LBE532:
 1783              	.LBB533:
 1784              	.LBB512:
 284:../../lpc11cx4-library/lpc_chip_11cxx_lib/inc/ssp_11xx.h **** }
 1785              		.loc 2 284 0
 1786 0092 C368     		ldr	r3, [r0, #12]	@ _50, pSSP_5(D)->SR
 1787              	.LVL169:
 1788              	.LBE512:
 1789              	.LBE533:
 396:../../lpc11cx4-library/lpc_chip_11cxx_lib/src/ssp_11xx.c **** 			/* Write data to buffer */
 1790              		.loc 1 396 0
 1791 0094 1E42     		tst	r6, r3	@ tmp181, _50
 1792 0096 D9D1     		bne	.L217	@,
 1793              	.LVL170:
 1794              	.L200:
 402:../../lpc11cx4-library/lpc_chip_11cxx_lib/src/ssp_11xx.c **** 				return ERROR;
 403:../../lpc11cx4-library/lpc_chip_11cxx_lib/src/ssp_11xx.c **** 			}
 404:../../lpc11cx4-library/lpc_chip_11cxx_lib/src/ssp_11xx.c **** 
 405:../../lpc11cx4-library/lpc_chip_11cxx_lib/src/ssp_11xx.c **** 			/*  Check for any data available in RX FIFO */
 406:../../lpc11cx4-library/lpc_chip_11cxx_lib/src/ssp_11xx.c **** 			SSP_Read1BFifo(pSSP, xf_setup);
 407:../../lpc11cx4-library/lpc_chip_11cxx_lib/src/ssp_11xx.c **** 		}
 408:../../lpc11cx4-library/lpc_chip_11cxx_lib/src/ssp_11xx.c **** 
 409:../../lpc11cx4-library/lpc_chip_11cxx_lib/src/ssp_11xx.c **** 		return SUCCESS;
 1795              		.loc 1 409 0
 1796 0098 0120     		movs	r0, #1	@ <retval>,
 1797              	.LVL171:
 1798 009a 08E0     		b	.L183	@
 1799              	.LVL172:
 1800              	.L193:
 1801              	.LBB534:
 1802              	.LBB508:
 1803              	.LBB505:
 1804              	.LBB501:
 1805              		.loc 2 377 0
 1806 009c 6346     		mov	r3, ip	@ tmp185, tmp185
 1807 009e 8360     		str	r3, [r0, #8]	@ tmp185,
 1808              	.LBE501:
 1809              	.LBE505:
  69:../../lpc11cx4-library/lpc_chip_11cxx_lib/src/ssp_11xx.c **** }
 1810              		.loc 1 69 0
 1811 00a0 4B68     		ldr	r3, [r1, #4]	@ tmp198, MEM[(uint32_t *)xf_setup_7(D) + 4B]
 1812 00a2 0133     		adds	r3, r3, #1	@ tmp170,
 1813 00a4 4B60     		str	r3, [r1, #4]	@ tmp170, MEM[(uint32_t *)xf_setup_7(D) + 4B]
ARM GAS  /tmp/ccGKa4GA.s 			page 50


 1814              	.LVL173:
 1815              	.LBE508:
 1816              	.LBE534:
 1817              	.LBB535:
 1818              	.LBB517:
 311:../../lpc11cx4-library/lpc_chip_11cxx_lib/inc/ssp_11xx.h **** }
 1819              		.loc 2 311 0
 1820 00a6 8369     		ldr	r3, [r0, #24]	@ _29, pSSP_5(D)->RIS
 1821              	.LVL174:
 1822              	.LBE517:
 1823              	.LBE535:
 401:../../lpc11cx4-library/lpc_chip_11cxx_lib/src/ssp_11xx.c **** 				return ERROR;
 1824              		.loc 1 401 0
 1825 00a8 1F42     		tst	r7, r3	@ tmp186, _29
 1826 00aa DED0     		beq	.L218	@,
 1827              	.LVL175:
 1828              	.L190:
 389:../../lpc11cx4-library/lpc_chip_11cxx_lib/src/ssp_11xx.c **** 	}
 1829              		.loc 1 389 0
 1830 00ac 0020     		movs	r0, #0	@ <retval>,
 1831              	.LVL176:
 1832              	.L183:
 410:../../lpc11cx4-library/lpc_chip_11cxx_lib/src/ssp_11xx.c **** 	}
 411:../../lpc11cx4-library/lpc_chip_11cxx_lib/src/ssp_11xx.c **** 
 412:../../lpc11cx4-library/lpc_chip_11cxx_lib/src/ssp_11xx.c **** 	return ERROR;
 413:../../lpc11cx4-library/lpc_chip_11cxx_lib/src/ssp_11xx.c **** }
 1833              		.loc 1 413 0
 1834              		@ sp needed	@
 1835 00ae F0BD     		pop	{r4, r5, r6, r7, pc}
 1836              	.LVL177:
 1837              	.L184:
 392:../../lpc11cx4-library/lpc_chip_11cxx_lib/src/ssp_11xx.c **** 		/* check if RX FIFO contains data */
 1838              		.loc 1 392 0 discriminator 1
 1839 00b0 CB68     		ldr	r3, [r1, #12]	@ tmp193, xf_setup_7(D)->rx_cnt
 1840 00b2 9A42     		cmp	r2, r3	@ _9, tmp193
 1841 00b4 ACD1     		bne	.L189	@,
 1842 00b6 F9E7     		b	.L190	@
 1843              		.cfi_endproc
 1844              	.LFE211:
 1845              		.size	Chip_SSP_Int_RWFrames8Bits, .-Chip_SSP_Int_RWFrames8Bits
 1846              		.section	.text.Chip_SSP_Int_RWFrames16Bits,"ax",%progbits
 1847              		.align	1
 1848              		.p2align 2,,3
 1849              		.global	Chip_SSP_Int_RWFrames16Bits
 1850              		.syntax unified
 1851              		.code	16
 1852              		.thumb_func
 1853              		.fpu softvfp
 1854              		.type	Chip_SSP_Int_RWFrames16Bits, %function
 1855              	Chip_SSP_Int_RWFrames16Bits:
 1856              	.LFB212:
 414:../../lpc11cx4-library/lpc_chip_11cxx_lib/src/ssp_11xx.c **** 
 415:../../lpc11cx4-library/lpc_chip_11cxx_lib/src/ssp_11xx.c **** /* SSP Interrupt Read/Write with 16-bit frame width */
 416:../../lpc11cx4-library/lpc_chip_11cxx_lib/src/ssp_11xx.c **** Status Chip_SSP_Int_RWFrames16Bits(LPC_SSP_T *pSSP, Chip_SSP_DATA_SETUP_T *xf_setup)
 417:../../lpc11cx4-library/lpc_chip_11cxx_lib/src/ssp_11xx.c **** {
 1857              		.loc 1 417 0
 1858              		.cfi_startproc
ARM GAS  /tmp/ccGKa4GA.s 			page 51


 1859              		@ args = 0, pretend = 0, frame = 0
 1860              		@ frame_needed = 0, uses_anonymous_args = 0
 1861              	.LVL178:
 1862 0000 F0B5     		push	{r4, r5, r6, r7, lr}	@
 1863              		.cfi_def_cfa_offset 20
 1864              		.cfi_offset 4, -20
 1865              		.cfi_offset 5, -16
 1866              		.cfi_offset 6, -12
 1867              		.cfi_offset 7, -8
 1868              		.cfi_offset 14, -4
 1869 0002 C646     		mov	lr, r8	@,
 1870              	.LBB536:
 1871              	.LBB537:
 311:../../lpc11cx4-library/lpc_chip_11cxx_lib/inc/ssp_11xx.h **** }
 1872              		.loc 2 311 0
 1873 0004 8369     		ldr	r3, [r0, #24]	@ _14, pSSP_5(D)->RIS
 1874              	.LVL179:
 1875              	.LBE537:
 1876              	.LBE536:
 1877              		.loc 1 417 0
 1878 0006 00B5     		push	{lr}	@
 1879              		.cfi_def_cfa_offset 24
 1880              		.cfi_offset 8, -24
 418:../../lpc11cx4-library/lpc_chip_11cxx_lib/src/ssp_11xx.c **** 	/* Check overrun error in RIS register */
 419:../../lpc11cx4-library/lpc_chip_11cxx_lib/src/ssp_11xx.c **** 	if (Chip_SSP_GetRawIntStatus(pSSP, SSP_RORRIS) == SET) {
 1881              		.loc 1 419 0
 1882 0008 DB07     		lsls	r3, r3, #31	@ tmp176, _14,
 1883 000a 52D4     		bmi	.L228	@,
 420:../../lpc11cx4-library/lpc_chip_11cxx_lib/src/ssp_11xx.c **** 		return ERROR;
 421:../../lpc11cx4-library/lpc_chip_11cxx_lib/src/ssp_11xx.c **** 	}
 422:../../lpc11cx4-library/lpc_chip_11cxx_lib/src/ssp_11xx.c **** 
 423:../../lpc11cx4-library/lpc_chip_11cxx_lib/src/ssp_11xx.c **** 	if ((xf_setup->tx_cnt != xf_setup->length) || (xf_setup->rx_cnt != xf_setup->length)) {
 1884              		.loc 1 423 0
 1885 000c 0D69     		ldr	r5, [r1, #16]	@ _9, xf_setup_7(D)->length
 1886 000e 4B68     		ldr	r3, [r1, #4]	@ tmp178, xf_setup_7(D)->tx_cnt
 1887 0010 AB42     		cmp	r3, r5	@ tmp178, _9
 1888 0012 52D0     		beq	.L222	@,
 1889              	.L227:
 1890              	.LVL180:
 1891              	.LBB538:
 1892              	.LBB539:
 1893              	.LBB540:
 1894              	.LBB541:
 284:../../lpc11cx4-library/lpc_chip_11cxx_lib/inc/ssp_11xx.h **** }
 1895              		.loc 2 284 0
 1896 0014 C368     		ldr	r3, [r0, #12]	@ _73, pSSP_5(D)->SR
 1897              	.LVL181:
 1898              	.LBE541:
 1899              	.LBE540:
  77:../../lpc11cx4-library/lpc_chip_11cxx_lib/src/ssp_11xx.c **** 		   (xf_setup->rx_cnt < xf_setup->length)) {
 1900              		.loc 1 77 0
 1901 0016 5B07     		lsls	r3, r3, #29	@ tmp177, _73,
 1902 0018 11D5     		bpl	.L226	@,
  78:../../lpc11cx4-library/lpc_chip_11cxx_lib/src/ssp_11xx.c **** 		rDat = Chip_SSP_ReceiveFrame(pSSP);
 1903              		.loc 1 78 0
 1904 001a CB68     		ldr	r3, [r1, #12]	@ _23, xf_setup_7(D)->rx_cnt
  77:../../lpc11cx4-library/lpc_chip_11cxx_lib/src/ssp_11xx.c **** 		   (xf_setup->rx_cnt < xf_setup->length)) {
ARM GAS  /tmp/ccGKa4GA.s 			page 52


 1905              		.loc 1 77 0
 1906 001c 9D42     		cmp	r5, r3	@ _9, _23
 1907 001e 0ED9     		bls	.L226	@,
 1908 0020 8C68     		ldr	r4, [r1, #8]	@ pretmp_11, xf_setup_7(D)->rx_data
 1909              	.LBB544:
 1910              	.LBB542:
 284:../../lpc11cx4-library/lpc_chip_11cxx_lib/inc/ssp_11xx.h **** }
 1911              		.loc 2 284 0
 1912 0022 0426     		movs	r6, #4	@ tmp154,
 1913 0024 01E0     		b	.L231	@
 1914              	.L251:
 1915              	.LBE542:
 1916              	.LBE544:
  77:../../lpc11cx4-library/lpc_chip_11cxx_lib/src/ssp_11xx.c **** 		   (xf_setup->rx_cnt < xf_setup->length)) {
 1917              		.loc 1 77 0
 1918 0026 9D42     		cmp	r5, r3	@ _9, _23
 1919 0028 08D9     		bls	.L249	@,
 1920              	.L231:
 1921              	.LVL182:
 1922              	.LBB545:
 1923              	.LBB546:
 366:../../lpc11cx4-library/lpc_chip_11cxx_lib/inc/ssp_11xx.h **** }
 1924              		.loc 2 366 0
 1925 002a 8268     		ldr	r2, [r0, #8]	@ _16, pSSP_5(D)->DR
 1926 002c 92B2     		uxth	r2, r2	@ _17, _16
 1927              	.LVL183:
 1928              	.LBE546:
 1929              	.LBE545:
  80:../../lpc11cx4-library/lpc_chip_11cxx_lib/src/ssp_11xx.c **** 			*(uint16_t *) ((uint32_t) xf_setup->rx_data + xf_setup->rx_cnt) = rDat;
 1930              		.loc 1 80 0
 1931 002e 002C     		cmp	r4, #0	@ pretmp_11,
 1932 0030 00D0     		beq	.L229	@,
  81:../../lpc11cx4-library/lpc_chip_11cxx_lib/src/ssp_11xx.c **** 		}
 1933              		.loc 1 81 0
 1934 0032 E252     		strh	r2, [r4, r3]	@ _17, MEM[base: pretmp_11, index: _68, offset: 0B]
 1935              	.L229:
 1936              	.LBB547:
 1937              	.LBB543:
 284:../../lpc11cx4-library/lpc_chip_11cxx_lib/inc/ssp_11xx.h **** }
 1938              		.loc 2 284 0
 1939 0034 C268     		ldr	r2, [r0, #12]	@ _24, pSSP_5(D)->SR
 1940              	.LBE543:
 1941              	.LBE547:
  84:../../lpc11cx4-library/lpc_chip_11cxx_lib/src/ssp_11xx.c **** 	}
 1942              		.loc 1 84 0
 1943 0036 0233     		adds	r3, r3, #2	@ _23,
 1944              	.LVL184:
  77:../../lpc11cx4-library/lpc_chip_11cxx_lib/src/ssp_11xx.c **** 		   (xf_setup->rx_cnt < xf_setup->length)) {
 1945              		.loc 1 77 0
 1946 0038 1642     		tst	r6, r2	@ tmp154, _24
 1947 003a F4D1     		bne	.L251	@,
 1948              	.L249:
 1949 003c CB60     		str	r3, [r1, #12]	@ _23, xf_setup_7(D)->rx_cnt
 1950              	.L226:
 1951              	.LBE539:
 1952              	.LBE538:
 1953              	.LBB548:
ARM GAS  /tmp/ccGKa4GA.s 			page 53


 1954              	.LBB549:
 1955              	.LBB550:
 1956              	.LBB551:
 1957              		.loc 2 377 0
 1958 003e 214B     		ldr	r3, .L255	@ tmp171,
 1959              	.LBE551:
 1960              	.LBE550:
 1961              	.LBE549:
 1962              	.LBE548:
 1963              	.LBB567:
 1964              	.LBB568:
 284:../../lpc11cx4-library/lpc_chip_11cxx_lib/inc/ssp_11xx.h **** }
 1965              		.loc 2 284 0
 1966 0040 0227     		movs	r7, #2	@ tmp166,
 1967              	.LBE568:
 1968              	.LBE567:
 1969              	.LBB571:
 1970              	.LBB562:
 1971              	.LBB555:
 1972              	.LBB552:
 1973              		.loc 2 377 0
 1974 0042 9846     		mov	r8, r3	@ tmp171, tmp171
 1975              	.LBE552:
 1976              	.LBE555:
 1977              	.LBE562:
 1978              	.LBE571:
 1979              	.LBB572:
 1980              	.LBB573:
 311:../../lpc11cx4-library/lpc_chip_11cxx_lib/inc/ssp_11xx.h **** }
 1981              		.loc 2 311 0
 1982 0044 0123     		movs	r3, #1	@ tmp172,
 1983              	.LBE573:
 1984              	.LBE572:
 1985              	.LBB577:
 1986              	.LBB578:
 1987              	.LBB579:
 1988              	.LBB580:
 284:../../lpc11cx4-library/lpc_chip_11cxx_lib/inc/ssp_11xx.h **** }
 1989              		.loc 2 284 0
 1990 0046 0426     		movs	r6, #4	@ tmp173,
 1991              	.LBE580:
 1992              	.LBE579:
 1993              	.LBE578:
 1994              	.LBE577:
 1995              	.LBB588:
 1996              	.LBB574:
 311:../../lpc11cx4-library/lpc_chip_11cxx_lib/inc/ssp_11xx.h **** }
 1997              		.loc 2 311 0
 1998 0048 9C46     		mov	ip, r3	@ tmp172, tmp172
 1999              	.L224:
 2000              	.LVL185:
 2001              	.LBE574:
 2002              	.LBE588:
 2003              	.LBB589:
 2004              	.LBB569:
 284:../../lpc11cx4-library/lpc_chip_11cxx_lib/inc/ssp_11xx.h **** }
 2005              		.loc 2 284 0
ARM GAS  /tmp/ccGKa4GA.s 			page 54


 2006 004a C368     		ldr	r3, [r0, #12]	@ _46, pSSP_5(D)->SR
 2007              	.LVL186:
 2008              	.LBE569:
 2009              	.LBE589:
 424:../../lpc11cx4-library/lpc_chip_11cxx_lib/src/ssp_11xx.c **** 		/* check if RX FIFO contains data */
 425:../../lpc11cx4-library/lpc_chip_11cxx_lib/src/ssp_11xx.c **** 		SSP_Read2BFifo(pSSP, xf_setup);
 426:../../lpc11cx4-library/lpc_chip_11cxx_lib/src/ssp_11xx.c **** 
 427:../../lpc11cx4-library/lpc_chip_11cxx_lib/src/ssp_11xx.c **** 		while ((Chip_SSP_GetStatus(pSSP, SSP_STAT_TNF)) && (xf_setup->tx_cnt != xf_setup->length)) {
 2010              		.loc 1 427 0
 2011 004c 1F42     		tst	r7, r3	@ tmp166, _46
 2012 004e 25D0     		beq	.L240	@,
 2013              	.L253:
 2014              		.loc 1 427 0 is_stmt 0 discriminator 1
 2015 0050 4B68     		ldr	r3, [r1, #4]	@ _12, xf_setup_7(D)->tx_cnt
 2016 0052 9D42     		cmp	r5, r3	@ _9, _12
 2017 0054 22D0     		beq	.L240	@,
 2018 0056 0A68     		ldr	r2, [r1]	@ _13, MEM[(void * *)xf_setup_7(D)]
 2019              	.LVL187:
 2020              	.LBB590:
 2021              	.LBB563:
  48:../../lpc11cx4-library/lpc_chip_11cxx_lib/src/ssp_11xx.c **** 		Chip_SSP_SendFrame(pSSP, (*(uint16_t *) ((uint32_t) xf_setup->tx_data +
 2022              		.loc 1 48 0 is_stmt 1
 2023 0058 002A     		cmp	r2, #0	@ _13,
 2024 005a 21D0     		beq	.L232	@,
 2025              	.LVL188:
 2026              	.LBB556:
 2027              	.LBB557:
 2028              		.loc 2 377 0
 2029 005c D35A     		ldrh	r3, [r2, r3]	@ _33, *_31
 2030              	.LVL189:
 2031              	.LBE557:
 2032              	.LBE556:
 2033              	.LBE563:
 2034              	.LBE590:
 428:../../lpc11cx4-library/lpc_chip_11cxx_lib/src/ssp_11xx.c **** 			/* Write data to buffer */
 429:../../lpc11cx4-library/lpc_chip_11cxx_lib/src/ssp_11xx.c **** 			SSP_Write2BFifo(pSSP, xf_setup);
 430:../../lpc11cx4-library/lpc_chip_11cxx_lib/src/ssp_11xx.c **** 
 431:../../lpc11cx4-library/lpc_chip_11cxx_lib/src/ssp_11xx.c **** 			/* Check overrun error in RIS register */
 432:../../lpc11cx4-library/lpc_chip_11cxx_lib/src/ssp_11xx.c **** 			if (Chip_SSP_GetRawIntStatus(pSSP, SSP_RORRIS) == SET) {
 2035              		.loc 1 432 0
 2036 005e 6246     		mov	r2, ip	@ tmp172, tmp172
 2037              	.LVL190:
 2038              	.LBB591:
 2039              	.LBB564:
 2040              	.LBB559:
 2041              	.LBB558:
 2042              		.loc 2 377 0
 2043 0060 8360     		str	r3, [r0, #8]	@ _33,
 2044              	.LVL191:
 2045              	.LBE558:
 2046              	.LBE559:
  56:../../lpc11cx4-library/lpc_chip_11cxx_lib/src/ssp_11xx.c **** }
 2047              		.loc 1 56 0
 2048 0062 4B68     		ldr	r3, [r1, #4]	@ tmp185, MEM[(uint32_t *)xf_setup_7(D) + 4B]
 2049              	.LVL192:
 2050 0064 0233     		adds	r3, r3, #2	@ tmp157,
 2051 0066 4B60     		str	r3, [r1, #4]	@ tmp157, MEM[(uint32_t *)xf_setup_7(D) + 4B]
ARM GAS  /tmp/ccGKa4GA.s 			page 55


 2052              	.LVL193:
 2053              	.LBE564:
 2054              	.LBE591:
 2055              	.LBB592:
 2056              	.LBB575:
 311:../../lpc11cx4-library/lpc_chip_11cxx_lib/inc/ssp_11xx.h **** }
 2057              		.loc 2 311 0
 2058 0068 8369     		ldr	r3, [r0, #24]	@ _27, pSSP_5(D)->RIS
 2059              	.LVL194:
 2060              	.LBE575:
 2061              	.LBE592:
 2062              		.loc 1 432 0
 2063 006a 1A42     		tst	r2, r3	@ tmp172, _27
 2064 006c 21D1     		bne	.L228	@,
 2065              	.LVL195:
 2066              	.L254:
 2067              	.LBB593:
 2068              	.LBB587:
 2069              	.LBB583:
 2070              	.LBB581:
 284:../../lpc11cx4-library/lpc_chip_11cxx_lib/inc/ssp_11xx.h **** }
 2071              		.loc 2 284 0
 2072 006e C368     		ldr	r3, [r0, #12]	@ _76, pSSP_5(D)->SR
 2073              	.LVL196:
 2074              	.LBE581:
 2075              	.LBE583:
  77:../../lpc11cx4-library/lpc_chip_11cxx_lib/src/ssp_11xx.c **** 		   (xf_setup->rx_cnt < xf_setup->length)) {
 2076              		.loc 1 77 0
 2077 0070 1E42     		tst	r6, r3	@ tmp173, _76
 2078 0072 EAD0     		beq	.L224	@,
  78:../../lpc11cx4-library/lpc_chip_11cxx_lib/src/ssp_11xx.c **** 		rDat = Chip_SSP_ReceiveFrame(pSSP);
 2079              		.loc 1 78 0
 2080 0074 CB68     		ldr	r3, [r1, #12]	@ _43, xf_setup_7(D)->rx_cnt
  77:../../lpc11cx4-library/lpc_chip_11cxx_lib/src/ssp_11xx.c **** 		   (xf_setup->rx_cnt < xf_setup->length)) {
 2081              		.loc 1 77 0
 2082 0076 9D42     		cmp	r5, r3	@ _9, _43
 2083 0078 E7D9     		bls	.L224	@,
 2084 007a 8C68     		ldr	r4, [r1, #8]	@ pretmp_65, xf_setup_7(D)->rx_data
 2085 007c 01E0     		b	.L238	@
 2086              	.L252:
 2087 007e 9D42     		cmp	r5, r3	@ _9, _43
 2088 0080 08D9     		bls	.L250	@,
 2089              	.L238:
 2090              	.LVL197:
 2091              	.LBB584:
 2092              	.LBB585:
 366:../../lpc11cx4-library/lpc_chip_11cxx_lib/inc/ssp_11xx.h **** }
 2093              		.loc 2 366 0
 2094 0082 8268     		ldr	r2, [r0, #8]	@ _36, pSSP_5(D)->DR
 2095 0084 92B2     		uxth	r2, r2	@ _37, _36
 2096              	.LVL198:
 2097              	.LBE585:
 2098              	.LBE584:
  80:../../lpc11cx4-library/lpc_chip_11cxx_lib/src/ssp_11xx.c **** 			*(uint16_t *) ((uint32_t) xf_setup->rx_data + xf_setup->rx_cnt) = rDat;
 2099              		.loc 1 80 0
 2100 0086 002C     		cmp	r4, #0	@ pretmp_65,
 2101 0088 00D0     		beq	.L236	@,
ARM GAS  /tmp/ccGKa4GA.s 			page 56


  81:../../lpc11cx4-library/lpc_chip_11cxx_lib/src/ssp_11xx.c **** 		}
 2102              		.loc 1 81 0
 2103 008a E252     		strh	r2, [r4, r3]	@ _37, MEM[base: pretmp_65, index: _74, offset: 0B]
 2104              	.L236:
 2105              	.LBB586:
 2106              	.LBB582:
 284:../../lpc11cx4-library/lpc_chip_11cxx_lib/inc/ssp_11xx.h **** }
 2107              		.loc 2 284 0
 2108 008c C268     		ldr	r2, [r0, #12]	@ _44, pSSP_5(D)->SR
 2109              	.LBE582:
 2110              	.LBE586:
  84:../../lpc11cx4-library/lpc_chip_11cxx_lib/src/ssp_11xx.c **** 	}
 2111              		.loc 1 84 0
 2112 008e 0233     		adds	r3, r3, #2	@ _43,
 2113              	.LVL199:
  77:../../lpc11cx4-library/lpc_chip_11cxx_lib/src/ssp_11xx.c **** 		   (xf_setup->rx_cnt < xf_setup->length)) {
 2114              		.loc 1 77 0
 2115 0090 1642     		tst	r6, r2	@ tmp173, _44
 2116 0092 F4D1     		bne	.L252	@,
 2117              	.L250:
 2118 0094 CB60     		str	r3, [r1, #12]	@ _43, xf_setup_7(D)->rx_cnt
 2119              	.LVL200:
 2120              	.LBE587:
 2121              	.LBE593:
 2122              	.LBB594:
 2123              	.LBB570:
 284:../../lpc11cx4-library/lpc_chip_11cxx_lib/inc/ssp_11xx.h **** }
 2124              		.loc 2 284 0
 2125 0096 C368     		ldr	r3, [r0, #12]	@ _46, pSSP_5(D)->SR
 2126              	.LVL201:
 2127              	.LBE570:
 2128              	.LBE594:
 427:../../lpc11cx4-library/lpc_chip_11cxx_lib/src/ssp_11xx.c **** 			/* Write data to buffer */
 2129              		.loc 1 427 0
 2130 0098 1F42     		tst	r7, r3	@ tmp166, _46
 2131 009a D9D1     		bne	.L253	@,
 2132              	.LVL202:
 2133              	.L240:
 433:../../lpc11cx4-library/lpc_chip_11cxx_lib/src/ssp_11xx.c **** 				return ERROR;
 434:../../lpc11cx4-library/lpc_chip_11cxx_lib/src/ssp_11xx.c **** 			}
 435:../../lpc11cx4-library/lpc_chip_11cxx_lib/src/ssp_11xx.c **** 
 436:../../lpc11cx4-library/lpc_chip_11cxx_lib/src/ssp_11xx.c **** 			/*  Check for any data available in RX FIFO			 */
 437:../../lpc11cx4-library/lpc_chip_11cxx_lib/src/ssp_11xx.c **** 			SSP_Read2BFifo(pSSP, xf_setup);
 438:../../lpc11cx4-library/lpc_chip_11cxx_lib/src/ssp_11xx.c **** 		}
 439:../../lpc11cx4-library/lpc_chip_11cxx_lib/src/ssp_11xx.c **** 
 440:../../lpc11cx4-library/lpc_chip_11cxx_lib/src/ssp_11xx.c **** 		return SUCCESS;
 2134              		.loc 1 440 0
 2135 009c 0120     		movs	r0, #1	@ <retval>,
 2136              	.LVL203:
 2137 009e 09E0     		b	.L221	@
 2138              	.LVL204:
 2139              	.L232:
 2140              	.LBB595:
 2141              	.LBB565:
 2142              	.LBB560:
 2143              	.LBB553:
 2144              		.loc 2 377 0
ARM GAS  /tmp/ccGKa4GA.s 			page 57


 2145 00a0 4346     		mov	r3, r8	@ tmp171, tmp171
 2146              	.LBE553:
 2147              	.LBE560:
 2148              	.LBE565:
 2149              	.LBE595:
 432:../../lpc11cx4-library/lpc_chip_11cxx_lib/src/ssp_11xx.c **** 				return ERROR;
 2150              		.loc 1 432 0
 2151 00a2 6246     		mov	r2, ip	@ tmp172, tmp172
 2152              	.LBB596:
 2153              	.LBB566:
 2154              	.LBB561:
 2155              	.LBB554:
 2156              		.loc 2 377 0
 2157 00a4 8360     		str	r3, [r0, #8]	@ tmp171,
 2158              	.LBE554:
 2159              	.LBE561:
  56:../../lpc11cx4-library/lpc_chip_11cxx_lib/src/ssp_11xx.c **** }
 2160              		.loc 1 56 0
 2161 00a6 4B68     		ldr	r3, [r1, #4]	@ tmp185, MEM[(uint32_t *)xf_setup_7(D) + 4B]
 2162 00a8 0233     		adds	r3, r3, #2	@ tmp157,
 2163 00aa 4B60     		str	r3, [r1, #4]	@ tmp157, MEM[(uint32_t *)xf_setup_7(D) + 4B]
 2164              	.LVL205:
 2165              	.LBE566:
 2166              	.LBE596:
 2167              	.LBB597:
 2168              	.LBB576:
 311:../../lpc11cx4-library/lpc_chip_11cxx_lib/inc/ssp_11xx.h **** }
 2169              		.loc 2 311 0
 2170 00ac 8369     		ldr	r3, [r0, #24]	@ _27, pSSP_5(D)->RIS
 2171              	.LVL206:
 2172              	.LBE576:
 2173              	.LBE597:
 432:../../lpc11cx4-library/lpc_chip_11cxx_lib/src/ssp_11xx.c **** 				return ERROR;
 2174              		.loc 1 432 0
 2175 00ae 1A42     		tst	r2, r3	@ tmp172, _27
 2176 00b0 DDD0     		beq	.L254	@,
 2177              	.LVL207:
 2178              	.L228:
 420:../../lpc11cx4-library/lpc_chip_11cxx_lib/src/ssp_11xx.c **** 	}
 2179              		.loc 1 420 0
 2180 00b2 0020     		movs	r0, #0	@ <retval>,
 2181              	.LVL208:
 2182              	.L221:
 441:../../lpc11cx4-library/lpc_chip_11cxx_lib/src/ssp_11xx.c **** 	}
 442:../../lpc11cx4-library/lpc_chip_11cxx_lib/src/ssp_11xx.c **** 
 443:../../lpc11cx4-library/lpc_chip_11cxx_lib/src/ssp_11xx.c **** 	return ERROR;
 444:../../lpc11cx4-library/lpc_chip_11cxx_lib/src/ssp_11xx.c **** }
 2183              		.loc 1 444 0
 2184              		@ sp needed	@
 2185 00b4 04BC     		pop	{r2}
 2186 00b6 9046     		mov	r8, r2
 2187 00b8 F0BD     		pop	{r4, r5, r6, r7, pc}
 2188              	.LVL209:
 2189              	.L222:
 423:../../lpc11cx4-library/lpc_chip_11cxx_lib/src/ssp_11xx.c **** 		/* check if RX FIFO contains data */
 2190              		.loc 1 423 0 discriminator 1
 2191 00ba CB68     		ldr	r3, [r1, #12]	@ tmp182, xf_setup_7(D)->rx_cnt
ARM GAS  /tmp/ccGKa4GA.s 			page 58


 2192 00bc 9D42     		cmp	r5, r3	@ _9, tmp182
 2193 00be A9D1     		bne	.L227	@,
 2194 00c0 F7E7     		b	.L228	@
 2195              	.L256:
 2196 00c2 C046     		.align	2
 2197              	.L255:
 2198 00c4 FFFF0000 		.word	65535
 2199              		.cfi_endproc
 2200              	.LFE212:
 2201              		.size	Chip_SSP_Int_RWFrames16Bits, .-Chip_SSP_Int_RWFrames16Bits
 2202              		.section	.text.Chip_SSP_SetMaster,"ax",%progbits
 2203              		.align	1
 2204              		.p2align 2,,3
 2205              		.global	Chip_SSP_SetMaster
 2206              		.syntax unified
 2207              		.code	16
 2208              		.thumb_func
 2209              		.fpu softvfp
 2210              		.type	Chip_SSP_SetMaster, %function
 2211              	Chip_SSP_SetMaster:
 2212              	.LFB213:
 445:../../lpc11cx4-library/lpc_chip_11cxx_lib/src/ssp_11xx.c **** 
 446:../../lpc11cx4-library/lpc_chip_11cxx_lib/src/ssp_11xx.c **** /* Set the SSP operating modes, master or slave */
 447:../../lpc11cx4-library/lpc_chip_11cxx_lib/src/ssp_11xx.c **** void Chip_SSP_SetMaster(LPC_SSP_T *pSSP, bool master)
 448:../../lpc11cx4-library/lpc_chip_11cxx_lib/src/ssp_11xx.c **** {
 2213              		.loc 1 448 0
 2214              		.cfi_startproc
 2215              		@ args = 0, pretend = 0, frame = 0
 2216              		@ frame_needed = 0, uses_anonymous_args = 0
 2217              		@ link register save eliminated.
 2218              	.LVL210:
 2219              	.LBB598:
 2220              	.LBB599:
 378:../../lpc11cx4-library/lpc_chip_11cxx_lib/inc/ssp_11xx.h **** }
 379:../../lpc11cx4-library/lpc_chip_11cxx_lib/inc/ssp_11xx.h **** 
 380:../../lpc11cx4-library/lpc_chip_11cxx_lib/inc/ssp_11xx.h **** /**
 381:../../lpc11cx4-library/lpc_chip_11cxx_lib/inc/ssp_11xx.h ****  * @brief	Set up output clocks per bit for SSP bus
 382:../../lpc11cx4-library/lpc_chip_11cxx_lib/inc/ssp_11xx.h ****  * @param	pSSP		: The base of SSP peripheral on the chip
 383:../../lpc11cx4-library/lpc_chip_11cxx_lib/inc/ssp_11xx.h ****  * @param	clk_rate	fs: The number of prescaler-output clocks per bit on the bus, minus one
 384:../../lpc11cx4-library/lpc_chip_11cxx_lib/inc/ssp_11xx.h ****  * @param	prescale	: The factor by which the Prescaler divides the SSP peripheral clock PCLK
 385:../../lpc11cx4-library/lpc_chip_11cxx_lib/inc/ssp_11xx.h ****  * @return	 Nothing
 386:../../lpc11cx4-library/lpc_chip_11cxx_lib/inc/ssp_11xx.h ****  * @note	The bit frequency is PCLK / (prescale x[clk_rate+1])
 387:../../lpc11cx4-library/lpc_chip_11cxx_lib/inc/ssp_11xx.h ****  */
 388:../../lpc11cx4-library/lpc_chip_11cxx_lib/inc/ssp_11xx.h **** void Chip_SSP_SetClockRate(LPC_SSP_T *pSSP, uint32_t clk_rate, uint32_t prescale);
 389:../../lpc11cx4-library/lpc_chip_11cxx_lib/inc/ssp_11xx.h **** 
 390:../../lpc11cx4-library/lpc_chip_11cxx_lib/inc/ssp_11xx.h **** /**
 391:../../lpc11cx4-library/lpc_chip_11cxx_lib/inc/ssp_11xx.h ****  * @brief	Set up the SSP frame format
 392:../../lpc11cx4-library/lpc_chip_11cxx_lib/inc/ssp_11xx.h ****  * @param	pSSP		: The base of SSP peripheral on the chip
 393:../../lpc11cx4-library/lpc_chip_11cxx_lib/inc/ssp_11xx.h ****  * @param	bits		: The number of bits transferred in each frame, should be SSP_BITS_4 to SSP_BITS_16
 394:../../lpc11cx4-library/lpc_chip_11cxx_lib/inc/ssp_11xx.h ****  * @param	frameFormat	: Frame format, should be :
 395:../../lpc11cx4-library/lpc_chip_11cxx_lib/inc/ssp_11xx.h ****  *							- SSP_FRAMEFORMAT_SPI
 396:../../lpc11cx4-library/lpc_chip_11cxx_lib/inc/ssp_11xx.h ****  *							- SSP_FRAME_FORMAT_TI
 397:../../lpc11cx4-library/lpc_chip_11cxx_lib/inc/ssp_11xx.h ****  *							- SSP_FRAMEFORMAT_MICROWIRE
 398:../../lpc11cx4-library/lpc_chip_11cxx_lib/inc/ssp_11xx.h ****  * @param	clockMode	: Select Clock polarity and Clock phase, should be :
 399:../../lpc11cx4-library/lpc_chip_11cxx_lib/inc/ssp_11xx.h ****  *							- SSP_CLOCK_CPHA0_CPOL0
 400:../../lpc11cx4-library/lpc_chip_11cxx_lib/inc/ssp_11xx.h ****  *							- SSP_CLOCK_CPHA0_CPOL1
 401:../../lpc11cx4-library/lpc_chip_11cxx_lib/inc/ssp_11xx.h ****  *							- SSP_CLOCK_CPHA1_CPOL0
ARM GAS  /tmp/ccGKa4GA.s 			page 59


 402:../../lpc11cx4-library/lpc_chip_11cxx_lib/inc/ssp_11xx.h ****  *							- SSP_CLOCK_CPHA1_CPOL1
 403:../../lpc11cx4-library/lpc_chip_11cxx_lib/inc/ssp_11xx.h ****  * @return	 Nothing
 404:../../lpc11cx4-library/lpc_chip_11cxx_lib/inc/ssp_11xx.h ****  * @note	Note: The clockFormat is only used in SPI mode
 405:../../lpc11cx4-library/lpc_chip_11cxx_lib/inc/ssp_11xx.h ****  */
 406:../../lpc11cx4-library/lpc_chip_11cxx_lib/inc/ssp_11xx.h **** STATIC INLINE void Chip_SSP_SetFormat(LPC_SSP_T *pSSP, uint32_t bits, uint32_t frameFormat, uint32_
 407:../../lpc11cx4-library/lpc_chip_11cxx_lib/inc/ssp_11xx.h **** {
 408:../../lpc11cx4-library/lpc_chip_11cxx_lib/inc/ssp_11xx.h **** 	pSSP->CR0 = (pSSP->CR0 & ~0xFF) | bits | frameFormat | clockMode;
 409:../../lpc11cx4-library/lpc_chip_11cxx_lib/inc/ssp_11xx.h **** }
 410:../../lpc11cx4-library/lpc_chip_11cxx_lib/inc/ssp_11xx.h **** 
 411:../../lpc11cx4-library/lpc_chip_11cxx_lib/inc/ssp_11xx.h **** /**
 412:../../lpc11cx4-library/lpc_chip_11cxx_lib/inc/ssp_11xx.h ****  * @brief	Set the SSP working as master or slave mode
 413:../../lpc11cx4-library/lpc_chip_11cxx_lib/inc/ssp_11xx.h ****  * @param	pSSP	: The base of SSP peripheral on the chip
 414:../../lpc11cx4-library/lpc_chip_11cxx_lib/inc/ssp_11xx.h ****  * @param	mode	: Operating mode, should be
 415:../../lpc11cx4-library/lpc_chip_11cxx_lib/inc/ssp_11xx.h ****  *						- SSP_MODE_MASTER
 416:../../lpc11cx4-library/lpc_chip_11cxx_lib/inc/ssp_11xx.h ****  *						- SSP_MODE_SLAVE
 417:../../lpc11cx4-library/lpc_chip_11cxx_lib/inc/ssp_11xx.h ****  * @return	 Nothing
 418:../../lpc11cx4-library/lpc_chip_11cxx_lib/inc/ssp_11xx.h ****  */
 419:../../lpc11cx4-library/lpc_chip_11cxx_lib/inc/ssp_11xx.h **** STATIC INLINE void Chip_SSP_Set_Mode(LPC_SSP_T *pSSP, uint32_t mode)
 420:../../lpc11cx4-library/lpc_chip_11cxx_lib/inc/ssp_11xx.h **** {
 421:../../lpc11cx4-library/lpc_chip_11cxx_lib/inc/ssp_11xx.h **** 	pSSP->CR1 = (pSSP->CR1 & ~(1 << 2)) | mode;
 2221              		.loc 2 421 0
 2222 0000 4368     		ldr	r3, [r0, #4]	@ _5,
 2223 0002 0422     		movs	r2, #4	@ tmp117,
 2224              	.LBE599:
 2225              	.LBE598:
 449:../../lpc11cx4-library/lpc_chip_11cxx_lib/src/ssp_11xx.c **** 	if (master) {
 2226              		.loc 1 449 0
 2227 0004 0029     		cmp	r1, #0	@ master,
 2228 0006 02D1     		bne	.L260	@,
 2229              	.LVL211:
 2230              	.LBB601:
 2231              	.LBB602:
 2232              		.loc 2 421 0
 2233 0008 1343     		orrs	r3, r2	@ _9, tmp118
 2234 000a 4360     		str	r3, [r0, #4]	@ _9,
 2235              	.LVL212:
 2236              	.L257:
 2237              	.LBE602:
 2238              	.LBE601:
 450:../../lpc11cx4-library/lpc_chip_11cxx_lib/src/ssp_11xx.c **** 		Chip_SSP_Set_Mode(pSSP, SSP_MODE_MASTER);
 451:../../lpc11cx4-library/lpc_chip_11cxx_lib/src/ssp_11xx.c **** 	}
 452:../../lpc11cx4-library/lpc_chip_11cxx_lib/src/ssp_11xx.c **** 	else {
 453:../../lpc11cx4-library/lpc_chip_11cxx_lib/src/ssp_11xx.c **** 		Chip_SSP_Set_Mode(pSSP, SSP_MODE_SLAVE);
 454:../../lpc11cx4-library/lpc_chip_11cxx_lib/src/ssp_11xx.c **** 	}
 455:../../lpc11cx4-library/lpc_chip_11cxx_lib/src/ssp_11xx.c **** }
 2239              		.loc 1 455 0
 2240              		@ sp needed	@
 2241 000c 7047     		bx	lr
 2242              	.L260:
 2243              	.LVL213:
 2244              	.LBB603:
 2245              	.LBB600:
 2246              		.loc 2 421 0
 2247 000e 9343     		bics	r3, r2	@ _6, tmp117
 2248 0010 4360     		str	r3, [r0, #4]	@ _6,
 2249 0012 FBE7     		b	.L257	@
 2250              	.LBE600:
ARM GAS  /tmp/ccGKa4GA.s 			page 60


 2251              	.LBE603:
 2252              		.cfi_endproc
 2253              	.LFE213:
 2254              		.size	Chip_SSP_SetMaster, .-Chip_SSP_SetMaster
 2255              		.global	__aeabi_uidiv
 2256              		.section	.text.Chip_SSP_SetBitRate,"ax",%progbits
 2257              		.align	1
 2258              		.p2align 2,,3
 2259              		.global	Chip_SSP_SetBitRate
 2260              		.syntax unified
 2261              		.code	16
 2262              		.thumb_func
 2263              		.fpu softvfp
 2264              		.type	Chip_SSP_SetBitRate, %function
 2265              	Chip_SSP_SetBitRate:
 2266              	.LFB214:
 456:../../lpc11cx4-library/lpc_chip_11cxx_lib/src/ssp_11xx.c **** 
 457:../../lpc11cx4-library/lpc_chip_11cxx_lib/src/ssp_11xx.c **** /* Set the clock frequency for SSP interface */
 458:../../lpc11cx4-library/lpc_chip_11cxx_lib/src/ssp_11xx.c **** void Chip_SSP_SetBitRate(LPC_SSP_T *pSSP, uint32_t bitRate)
 459:../../lpc11cx4-library/lpc_chip_11cxx_lib/src/ssp_11xx.c **** {
 2267              		.loc 1 459 0
 2268              		.cfi_startproc
 2269              		@ args = 0, pretend = 0, frame = 0
 2270              		@ frame_needed = 0, uses_anonymous_args = 0
 2271              	.LVL214:
 2272 0000 F8B5     		push	{r3, r4, r5, r6, r7, lr}	@
 2273              		.cfi_def_cfa_offset 24
 2274              		.cfi_offset 3, -24
 2275              		.cfi_offset 4, -20
 2276              		.cfi_offset 5, -16
 2277              		.cfi_offset 6, -12
 2278              		.cfi_offset 7, -8
 2279              		.cfi_offset 14, -4
 2280 0002 4746     		mov	r7, r8	@,
 2281 0004 CE46     		mov	lr, r9	@,
 2282 0006 80B5     		push	{r7, lr}	@
 2283              		.cfi_def_cfa_offset 32
 2284              		.cfi_offset 8, -32
 2285              		.cfi_offset 9, -28
 2286              		.loc 1 459 0
 2287 0008 8846     		mov	r8, r1	@ bitRate, bitRate
 2288 000a 0700     		movs	r7, r0	@ pSSP, pSSP
 2289              	.LVL215:
 2290              	.LBB604:
 2291              	.LBB605:
 152:../../lpc11cx4-library/lpc_chip_11cxx_lib/src/ssp_11xx.c **** 
 2292              		.loc 1 152 0
 2293 000c FFF7FEFF 		bl	Chip_Clock_GetMainClockRate	@
 2294              	.LVL216:
 154:../../lpc11cx4-library/lpc_chip_11cxx_lib/src/ssp_11xx.c **** 		sspCLK /= Chip_Clock_GetSSP0ClockDiv();
 2295              		.loc 1 154 0
 2296 0010 184B     		ldr	r3, .L271	@ tmp126,
 2297 0012 9F42     		cmp	r7, r3	@ pSSP, tmp126
 2298 0014 24D0     		beq	.L270	@,
 2299              	.LBB606:
 2300              	.LBB607:
 2301              		.file 3 "../../lpc11cx4-library/lpc_chip_11cxx_lib/inc/clock_11xx.h"
ARM GAS  /tmp/ccGKa4GA.s 			page 61


   1:../../lpc11cx4-library/lpc_chip_11cxx_lib/inc/clock_11xx.h **** /*
   2:../../lpc11cx4-library/lpc_chip_11cxx_lib/inc/clock_11xx.h ****  * @brief LPC11XX Clock control functions
   3:../../lpc11cx4-library/lpc_chip_11cxx_lib/inc/clock_11xx.h ****  *
   4:../../lpc11cx4-library/lpc_chip_11cxx_lib/inc/clock_11xx.h ****  * @note
   5:../../lpc11cx4-library/lpc_chip_11cxx_lib/inc/clock_11xx.h ****  * Copyright(C) NXP Semiconductors, 2012
   6:../../lpc11cx4-library/lpc_chip_11cxx_lib/inc/clock_11xx.h ****  * All rights reserved.
   7:../../lpc11cx4-library/lpc_chip_11cxx_lib/inc/clock_11xx.h ****  *
   8:../../lpc11cx4-library/lpc_chip_11cxx_lib/inc/clock_11xx.h ****  * @par
   9:../../lpc11cx4-library/lpc_chip_11cxx_lib/inc/clock_11xx.h ****  * Software that is described herein is for illustrative purposes only
  10:../../lpc11cx4-library/lpc_chip_11cxx_lib/inc/clock_11xx.h ****  * which provides customers with programming information regarding the
  11:../../lpc11cx4-library/lpc_chip_11cxx_lib/inc/clock_11xx.h ****  * LPC products.  This software is supplied "AS IS" without any warranties of
  12:../../lpc11cx4-library/lpc_chip_11cxx_lib/inc/clock_11xx.h ****  * any kind, and NXP Semiconductors and its licensor disclaim any and
  13:../../lpc11cx4-library/lpc_chip_11cxx_lib/inc/clock_11xx.h ****  * all warranties, express or implied, including all implied warranties of
  14:../../lpc11cx4-library/lpc_chip_11cxx_lib/inc/clock_11xx.h ****  * merchantability, fitness for a particular purpose and non-infringement of
  15:../../lpc11cx4-library/lpc_chip_11cxx_lib/inc/clock_11xx.h ****  * intellectual property rights.  NXP Semiconductors assumes no responsibility
  16:../../lpc11cx4-library/lpc_chip_11cxx_lib/inc/clock_11xx.h ****  * or liability for the use of the software, conveys no license or rights under any
  17:../../lpc11cx4-library/lpc_chip_11cxx_lib/inc/clock_11xx.h ****  * patent, copyright, mask work right, or any other intellectual property rights in
  18:../../lpc11cx4-library/lpc_chip_11cxx_lib/inc/clock_11xx.h ****  * or to any products. NXP Semiconductors reserves the right to make changes
  19:../../lpc11cx4-library/lpc_chip_11cxx_lib/inc/clock_11xx.h ****  * in the software without notification. NXP Semiconductors also makes no
  20:../../lpc11cx4-library/lpc_chip_11cxx_lib/inc/clock_11xx.h ****  * representation or warranty that such application will be suitable for the
  21:../../lpc11cx4-library/lpc_chip_11cxx_lib/inc/clock_11xx.h ****  * specified use without further testing or modification.
  22:../../lpc11cx4-library/lpc_chip_11cxx_lib/inc/clock_11xx.h ****  *
  23:../../lpc11cx4-library/lpc_chip_11cxx_lib/inc/clock_11xx.h ****  * @par
  24:../../lpc11cx4-library/lpc_chip_11cxx_lib/inc/clock_11xx.h ****  * Permission to use, copy, modify, and distribute this software and its
  25:../../lpc11cx4-library/lpc_chip_11cxx_lib/inc/clock_11xx.h ****  * documentation is hereby granted, under NXP Semiconductors' and its
  26:../../lpc11cx4-library/lpc_chip_11cxx_lib/inc/clock_11xx.h ****  * licensor's relevant copyrights in the software, without fee, provided that it
  27:../../lpc11cx4-library/lpc_chip_11cxx_lib/inc/clock_11xx.h ****  * is used in conjunction with NXP Semiconductors microcontrollers.  This
  28:../../lpc11cx4-library/lpc_chip_11cxx_lib/inc/clock_11xx.h ****  * copyright, permission, and disclaimer notice must appear in all copies of
  29:../../lpc11cx4-library/lpc_chip_11cxx_lib/inc/clock_11xx.h ****  * this code.
  30:../../lpc11cx4-library/lpc_chip_11cxx_lib/inc/clock_11xx.h ****  */
  31:../../lpc11cx4-library/lpc_chip_11cxx_lib/inc/clock_11xx.h **** 
  32:../../lpc11cx4-library/lpc_chip_11cxx_lib/inc/clock_11xx.h **** #ifndef __CLOCK_11XX_H_
  33:../../lpc11cx4-library/lpc_chip_11cxx_lib/inc/clock_11xx.h **** #define __CLOCK_11XX_H_
  34:../../lpc11cx4-library/lpc_chip_11cxx_lib/inc/clock_11xx.h **** 
  35:../../lpc11cx4-library/lpc_chip_11cxx_lib/inc/clock_11xx.h **** #ifdef __cplusplus
  36:../../lpc11cx4-library/lpc_chip_11cxx_lib/inc/clock_11xx.h **** extern "C" {
  37:../../lpc11cx4-library/lpc_chip_11cxx_lib/inc/clock_11xx.h **** #endif
  38:../../lpc11cx4-library/lpc_chip_11cxx_lib/inc/clock_11xx.h **** 
  39:../../lpc11cx4-library/lpc_chip_11cxx_lib/inc/clock_11xx.h **** /** @defgroup CLOCK_11XX CHIP: LPC11xx Clock Control block driver
  40:../../lpc11cx4-library/lpc_chip_11cxx_lib/inc/clock_11xx.h ****  * @ingroup CHIP_11XX_Drivers
  41:../../lpc11cx4-library/lpc_chip_11cxx_lib/inc/clock_11xx.h ****  * @{
  42:../../lpc11cx4-library/lpc_chip_11cxx_lib/inc/clock_11xx.h ****  */
  43:../../lpc11cx4-library/lpc_chip_11cxx_lib/inc/clock_11xx.h **** 
  44:../../lpc11cx4-library/lpc_chip_11cxx_lib/inc/clock_11xx.h **** /** Internal oscillator frequency */
  45:../../lpc11cx4-library/lpc_chip_11cxx_lib/inc/clock_11xx.h **** #define SYSCTL_IRC_FREQ (12000000)
  46:../../lpc11cx4-library/lpc_chip_11cxx_lib/inc/clock_11xx.h **** 
  47:../../lpc11cx4-library/lpc_chip_11cxx_lib/inc/clock_11xx.h **** /**
  48:../../lpc11cx4-library/lpc_chip_11cxx_lib/inc/clock_11xx.h ****  * @brief	Set System PLL divider values
  49:../../lpc11cx4-library/lpc_chip_11cxx_lib/inc/clock_11xx.h ****  * @param	msel    : PLL feedback divider value. M = msel + 1.
  50:../../lpc11cx4-library/lpc_chip_11cxx_lib/inc/clock_11xx.h ****  * @param	psel    : PLL post divider value. P =  (1<<psel).
  51:../../lpc11cx4-library/lpc_chip_11cxx_lib/inc/clock_11xx.h ****  * @return	Nothing
  52:../../lpc11cx4-library/lpc_chip_11cxx_lib/inc/clock_11xx.h ****  * @note	See the user manual for how to setup the PLL.
  53:../../lpc11cx4-library/lpc_chip_11cxx_lib/inc/clock_11xx.h ****  */
  54:../../lpc11cx4-library/lpc_chip_11cxx_lib/inc/clock_11xx.h **** STATIC INLINE void Chip_Clock_SetupSystemPLL(uint8_t msel, uint8_t psel)
  55:../../lpc11cx4-library/lpc_chip_11cxx_lib/inc/clock_11xx.h **** {
  56:../../lpc11cx4-library/lpc_chip_11cxx_lib/inc/clock_11xx.h **** 	LPC_SYSCTL->SYSPLLCTRL = (msel & 0x1F) | ((psel & 0x3) << 5);
  57:../../lpc11cx4-library/lpc_chip_11cxx_lib/inc/clock_11xx.h **** }
ARM GAS  /tmp/ccGKa4GA.s 			page 62


  58:../../lpc11cx4-library/lpc_chip_11cxx_lib/inc/clock_11xx.h **** 
  59:../../lpc11cx4-library/lpc_chip_11cxx_lib/inc/clock_11xx.h **** /**
  60:../../lpc11cx4-library/lpc_chip_11cxx_lib/inc/clock_11xx.h ****  * @brief	Read System PLL lock status
  61:../../lpc11cx4-library/lpc_chip_11cxx_lib/inc/clock_11xx.h ****  * @return	true of the PLL is locked. false if not locked
  62:../../lpc11cx4-library/lpc_chip_11cxx_lib/inc/clock_11xx.h ****  */
  63:../../lpc11cx4-library/lpc_chip_11cxx_lib/inc/clock_11xx.h **** STATIC INLINE bool Chip_Clock_IsSystemPLLLocked(void)
  64:../../lpc11cx4-library/lpc_chip_11cxx_lib/inc/clock_11xx.h **** {
  65:../../lpc11cx4-library/lpc_chip_11cxx_lib/inc/clock_11xx.h **** 	return (bool) ((LPC_SYSCTL->SYSPLLSTAT & 1) != 0);
  66:../../lpc11cx4-library/lpc_chip_11cxx_lib/inc/clock_11xx.h **** }
  67:../../lpc11cx4-library/lpc_chip_11cxx_lib/inc/clock_11xx.h **** 
  68:../../lpc11cx4-library/lpc_chip_11cxx_lib/inc/clock_11xx.h **** /**
  69:../../lpc11cx4-library/lpc_chip_11cxx_lib/inc/clock_11xx.h ****  * Clock sources for system and USB PLLs
  70:../../lpc11cx4-library/lpc_chip_11cxx_lib/inc/clock_11xx.h ****  */
  71:../../lpc11cx4-library/lpc_chip_11cxx_lib/inc/clock_11xx.h **** typedef enum CHIP_SYSCTL_PLLCLKSRC {
  72:../../lpc11cx4-library/lpc_chip_11cxx_lib/inc/clock_11xx.h **** 	SYSCTL_PLLCLKSRC_IRC = 0,		/*!< Internal oscillator in */
  73:../../lpc11cx4-library/lpc_chip_11cxx_lib/inc/clock_11xx.h **** 	SYSCTL_PLLCLKSRC_MAINOSC,		/*!< Crystal (main) oscillator in */
  74:../../lpc11cx4-library/lpc_chip_11cxx_lib/inc/clock_11xx.h **** #if defined(CHIP_LPC11AXX)
  75:../../lpc11cx4-library/lpc_chip_11cxx_lib/inc/clock_11xx.h **** 	SYSCTL_PLLCLKSRC_EXT_CLKIN,	/*!< External clock in (11Axx only) */
  76:../../lpc11cx4-library/lpc_chip_11cxx_lib/inc/clock_11xx.h **** #else
  77:../../lpc11cx4-library/lpc_chip_11cxx_lib/inc/clock_11xx.h **** 	SYSCTL_PLLCLKSRC_RESERVED1,	/*!< Reserved */
  78:../../lpc11cx4-library/lpc_chip_11cxx_lib/inc/clock_11xx.h **** #endif
  79:../../lpc11cx4-library/lpc_chip_11cxx_lib/inc/clock_11xx.h **** 	SYSCTL_PLLCLKSRC_RESERVED2,	/*!< Reserved */
  80:../../lpc11cx4-library/lpc_chip_11cxx_lib/inc/clock_11xx.h **** } CHIP_SYSCTL_PLLCLKSRC_T;
  81:../../lpc11cx4-library/lpc_chip_11cxx_lib/inc/clock_11xx.h **** 
  82:../../lpc11cx4-library/lpc_chip_11cxx_lib/inc/clock_11xx.h **** /**
  83:../../lpc11cx4-library/lpc_chip_11cxx_lib/inc/clock_11xx.h ****  * @brief	Set System PLL clock source
  84:../../lpc11cx4-library/lpc_chip_11cxx_lib/inc/clock_11xx.h ****  * @param	src	: Clock source for system PLL
  85:../../lpc11cx4-library/lpc_chip_11cxx_lib/inc/clock_11xx.h ****  * @return	Nothing
  86:../../lpc11cx4-library/lpc_chip_11cxx_lib/inc/clock_11xx.h ****  * @note	This function will also toggle the clock source update register
  87:../../lpc11cx4-library/lpc_chip_11cxx_lib/inc/clock_11xx.h ****  * to update the clock source.
  88:../../lpc11cx4-library/lpc_chip_11cxx_lib/inc/clock_11xx.h ****  */
  89:../../lpc11cx4-library/lpc_chip_11cxx_lib/inc/clock_11xx.h **** void Chip_Clock_SetSystemPLLSource(CHIP_SYSCTL_PLLCLKSRC_T src);
  90:../../lpc11cx4-library/lpc_chip_11cxx_lib/inc/clock_11xx.h **** 
  91:../../lpc11cx4-library/lpc_chip_11cxx_lib/inc/clock_11xx.h **** #if defined(CHIP_LPC11UXX)
  92:../../lpc11cx4-library/lpc_chip_11cxx_lib/inc/clock_11xx.h **** /**
  93:../../lpc11cx4-library/lpc_chip_11cxx_lib/inc/clock_11xx.h ****  * @brief	Set USB PLL divider values
  94:../../lpc11cx4-library/lpc_chip_11cxx_lib/inc/clock_11xx.h ****  * @param	msel    : PLL feedback divider value. M = msel + 1.
  95:../../lpc11cx4-library/lpc_chip_11cxx_lib/inc/clock_11xx.h ****  * @param	psel    : PLL post divider value. P = (1<<psel).
  96:../../lpc11cx4-library/lpc_chip_11cxx_lib/inc/clock_11xx.h ****  * @return	Nothing
  97:../../lpc11cx4-library/lpc_chip_11cxx_lib/inc/clock_11xx.h ****  * @note	See the user manual for how to setup the PLL.
  98:../../lpc11cx4-library/lpc_chip_11cxx_lib/inc/clock_11xx.h ****  */
  99:../../lpc11cx4-library/lpc_chip_11cxx_lib/inc/clock_11xx.h **** STATIC INLINE void Chip_Clock_SetupUSBPLL(uint8_t msel, uint8_t psel)
 100:../../lpc11cx4-library/lpc_chip_11cxx_lib/inc/clock_11xx.h **** {
 101:../../lpc11cx4-library/lpc_chip_11cxx_lib/inc/clock_11xx.h **** 	LPC_SYSCTL->USBPLLCTRL = (msel & 0x1F) | ((psel & 0x3) << 5);
 102:../../lpc11cx4-library/lpc_chip_11cxx_lib/inc/clock_11xx.h **** }
 103:../../lpc11cx4-library/lpc_chip_11cxx_lib/inc/clock_11xx.h **** 
 104:../../lpc11cx4-library/lpc_chip_11cxx_lib/inc/clock_11xx.h **** /**
 105:../../lpc11cx4-library/lpc_chip_11cxx_lib/inc/clock_11xx.h ****  * @brief	Read USB PLL lock status
 106:../../lpc11cx4-library/lpc_chip_11cxx_lib/inc/clock_11xx.h ****  * @return	true of the PLL is locked. false if not locked
 107:../../lpc11cx4-library/lpc_chip_11cxx_lib/inc/clock_11xx.h ****  */
 108:../../lpc11cx4-library/lpc_chip_11cxx_lib/inc/clock_11xx.h **** STATIC INLINE bool Chip_Clock_IsUSBPLLLocked(void)
 109:../../lpc11cx4-library/lpc_chip_11cxx_lib/inc/clock_11xx.h **** {
 110:../../lpc11cx4-library/lpc_chip_11cxx_lib/inc/clock_11xx.h **** 	return (bool) ((LPC_SYSCTL->USBPLLSTAT & 1) != 0);
 111:../../lpc11cx4-library/lpc_chip_11cxx_lib/inc/clock_11xx.h **** }
 112:../../lpc11cx4-library/lpc_chip_11cxx_lib/inc/clock_11xx.h **** 
 113:../../lpc11cx4-library/lpc_chip_11cxx_lib/inc/clock_11xx.h **** /**
 114:../../lpc11cx4-library/lpc_chip_11cxx_lib/inc/clock_11xx.h ****  * @brief	Set USB PLL clock source
ARM GAS  /tmp/ccGKa4GA.s 			page 63


 115:../../lpc11cx4-library/lpc_chip_11cxx_lib/inc/clock_11xx.h ****  * @param	src	: Clock source for USB PLL
 116:../../lpc11cx4-library/lpc_chip_11cxx_lib/inc/clock_11xx.h ****  * @return	Nothing
 117:../../lpc11cx4-library/lpc_chip_11cxx_lib/inc/clock_11xx.h ****  * @note	This function will also toggle the clock source update register
 118:../../lpc11cx4-library/lpc_chip_11cxx_lib/inc/clock_11xx.h ****  * to update the clock source.
 119:../../lpc11cx4-library/lpc_chip_11cxx_lib/inc/clock_11xx.h ****  */
 120:../../lpc11cx4-library/lpc_chip_11cxx_lib/inc/clock_11xx.h **** void Chip_Clock_SetUSBPLLSource(CHIP_SYSCTL_PLLCLKSRC_T src);
 121:../../lpc11cx4-library/lpc_chip_11cxx_lib/inc/clock_11xx.h **** 
 122:../../lpc11cx4-library/lpc_chip_11cxx_lib/inc/clock_11xx.h **** #endif /*defined(CHIP_LPC11UXX)*/
 123:../../lpc11cx4-library/lpc_chip_11cxx_lib/inc/clock_11xx.h **** 
 124:../../lpc11cx4-library/lpc_chip_11cxx_lib/inc/clock_11xx.h **** /**
 125:../../lpc11cx4-library/lpc_chip_11cxx_lib/inc/clock_11xx.h ****  * @brief	Bypass System Oscillator and set oscillator frequency range
 126:../../lpc11cx4-library/lpc_chip_11cxx_lib/inc/clock_11xx.h ****  * @param	bypass	: Flag to bypass oscillator
 127:../../lpc11cx4-library/lpc_chip_11cxx_lib/inc/clock_11xx.h ****  * @param	highfr	: Flag to set oscillator range from 15-25 MHz
 128:../../lpc11cx4-library/lpc_chip_11cxx_lib/inc/clock_11xx.h ****  * @return	Nothing
 129:../../lpc11cx4-library/lpc_chip_11cxx_lib/inc/clock_11xx.h ****  * @note	Sets the PLL input to bypass the oscillator. This would be
 130:../../lpc11cx4-library/lpc_chip_11cxx_lib/inc/clock_11xx.h ****  * used if an external clock that is not an oscillator is attached
 131:../../lpc11cx4-library/lpc_chip_11cxx_lib/inc/clock_11xx.h ****  * to the XTALIN pin.
 132:../../lpc11cx4-library/lpc_chip_11cxx_lib/inc/clock_11xx.h ****  */
 133:../../lpc11cx4-library/lpc_chip_11cxx_lib/inc/clock_11xx.h **** void Chip_Clock_SetPLLBypass(bool bypass, bool highfr);
 134:../../lpc11cx4-library/lpc_chip_11cxx_lib/inc/clock_11xx.h **** 
 135:../../lpc11cx4-library/lpc_chip_11cxx_lib/inc/clock_11xx.h **** /**
 136:../../lpc11cx4-library/lpc_chip_11cxx_lib/inc/clock_11xx.h ****  * Watchdog and low frequency oscillator frequencies plus or minus 40%
 137:../../lpc11cx4-library/lpc_chip_11cxx_lib/inc/clock_11xx.h ****  */
 138:../../lpc11cx4-library/lpc_chip_11cxx_lib/inc/clock_11xx.h **** typedef enum CHIP_WDTLFO_OSC {
 139:../../lpc11cx4-library/lpc_chip_11cxx_lib/inc/clock_11xx.h **** 	WDTLFO_OSC_ILLEGAL,
 140:../../lpc11cx4-library/lpc_chip_11cxx_lib/inc/clock_11xx.h **** 	WDTLFO_OSC_0_60,	/*!< 0.6 MHz watchdog/LFO rate */
 141:../../lpc11cx4-library/lpc_chip_11cxx_lib/inc/clock_11xx.h **** 	WDTLFO_OSC_1_05,	/*!< 1.05 MHz watchdog/LFO rate */
 142:../../lpc11cx4-library/lpc_chip_11cxx_lib/inc/clock_11xx.h **** 	WDTLFO_OSC_1_40,	/*!< 1.4 MHz watchdog/LFO rate */
 143:../../lpc11cx4-library/lpc_chip_11cxx_lib/inc/clock_11xx.h **** 	WDTLFO_OSC_1_75,	/*!< 1.75 MHz watchdog/LFO rate */
 144:../../lpc11cx4-library/lpc_chip_11cxx_lib/inc/clock_11xx.h **** 	WDTLFO_OSC_2_10,	/*!< 2.1 MHz watchdog/LFO rate */
 145:../../lpc11cx4-library/lpc_chip_11cxx_lib/inc/clock_11xx.h **** 	WDTLFO_OSC_2_40,	/*!< 2.4 MHz watchdog/LFO rate */
 146:../../lpc11cx4-library/lpc_chip_11cxx_lib/inc/clock_11xx.h **** 	WDTLFO_OSC_2_70,	/*!< 2.7 MHz watchdog/LFO rate */
 147:../../lpc11cx4-library/lpc_chip_11cxx_lib/inc/clock_11xx.h **** 	WDTLFO_OSC_3_00,	/*!< 3.0 MHz watchdog/LFO rate */
 148:../../lpc11cx4-library/lpc_chip_11cxx_lib/inc/clock_11xx.h **** 	WDTLFO_OSC_3_25,	/*!< 3.25 MHz watchdog/LFO rate */
 149:../../lpc11cx4-library/lpc_chip_11cxx_lib/inc/clock_11xx.h **** 	WDTLFO_OSC_3_50,	/*!< 3.5 MHz watchdog/LFO rate */
 150:../../lpc11cx4-library/lpc_chip_11cxx_lib/inc/clock_11xx.h **** 	WDTLFO_OSC_3_75,	/*!< 3.75 MHz watchdog/LFO rate */
 151:../../lpc11cx4-library/lpc_chip_11cxx_lib/inc/clock_11xx.h **** 	WDTLFO_OSC_4_00,	/*!< 4.0 MHz watchdog/LFO rate */
 152:../../lpc11cx4-library/lpc_chip_11cxx_lib/inc/clock_11xx.h **** 	WDTLFO_OSC_4_20,	/*!< 4.2 MHz watchdog/LFO rate */
 153:../../lpc11cx4-library/lpc_chip_11cxx_lib/inc/clock_11xx.h **** 	WDTLFO_OSC_4_40,	/*!< 4.4 MHz watchdog/LFO rate */
 154:../../lpc11cx4-library/lpc_chip_11cxx_lib/inc/clock_11xx.h **** 	WDTLFO_OSC_4_60		/*!< 4.6 MHz watchdog/LFO rate */
 155:../../lpc11cx4-library/lpc_chip_11cxx_lib/inc/clock_11xx.h **** } CHIP_WDTLFO_OSC_T;
 156:../../lpc11cx4-library/lpc_chip_11cxx_lib/inc/clock_11xx.h **** 
 157:../../lpc11cx4-library/lpc_chip_11cxx_lib/inc/clock_11xx.h **** /**
 158:../../lpc11cx4-library/lpc_chip_11cxx_lib/inc/clock_11xx.h ****  * @brief	Setup Watchdog oscillator rate and divider
 159:../../lpc11cx4-library/lpc_chip_11cxx_lib/inc/clock_11xx.h ****  * @param	wdtclk	: Selected watchdog clock rate
 160:../../lpc11cx4-library/lpc_chip_11cxx_lib/inc/clock_11xx.h ****  * @param	div		: Watchdog divider value, even value between 2 and 64
 161:../../lpc11cx4-library/lpc_chip_11cxx_lib/inc/clock_11xx.h ****  * @return	Nothing
 162:../../lpc11cx4-library/lpc_chip_11cxx_lib/inc/clock_11xx.h ****  * @note	Watchdog rate = selected rate divided by divider rate
 163:../../lpc11cx4-library/lpc_chip_11cxx_lib/inc/clock_11xx.h ****  */
 164:../../lpc11cx4-library/lpc_chip_11cxx_lib/inc/clock_11xx.h **** STATIC INLINE void Chip_Clock_SetWDTOSC(CHIP_WDTLFO_OSC_T wdtclk, uint8_t div)
 165:../../lpc11cx4-library/lpc_chip_11cxx_lib/inc/clock_11xx.h **** {
 166:../../lpc11cx4-library/lpc_chip_11cxx_lib/inc/clock_11xx.h **** 	LPC_SYSCTL->WDTOSCCTRL  = (((uint32_t) wdtclk) << 5) | ((div >> 1) - 1);
 167:../../lpc11cx4-library/lpc_chip_11cxx_lib/inc/clock_11xx.h **** }
 168:../../lpc11cx4-library/lpc_chip_11cxx_lib/inc/clock_11xx.h **** 
 169:../../lpc11cx4-library/lpc_chip_11cxx_lib/inc/clock_11xx.h **** #if defined(CHIP_LPC11AXX)
 170:../../lpc11cx4-library/lpc_chip_11cxx_lib/inc/clock_11xx.h **** /**
 171:../../lpc11cx4-library/lpc_chip_11cxx_lib/inc/clock_11xx.h ****  * @brief	Setup low frequency oscillator rate and divider
ARM GAS  /tmp/ccGKa4GA.s 			page 64


 172:../../lpc11cx4-library/lpc_chip_11cxx_lib/inc/clock_11xx.h ****  * @param	lfoclk	: Selected low frequency clock rate
 173:../../lpc11cx4-library/lpc_chip_11cxx_lib/inc/clock_11xx.h ****  * @param	div		: Low frequency divider value, even value between 2 and 64
 174:../../lpc11cx4-library/lpc_chip_11cxx_lib/inc/clock_11xx.h ****  * @return	Nothing
 175:../../lpc11cx4-library/lpc_chip_11cxx_lib/inc/clock_11xx.h ****  * @note	Low frequency oscillator rate = selected rate divided by divider rate
 176:../../lpc11cx4-library/lpc_chip_11cxx_lib/inc/clock_11xx.h ****  */
 177:../../lpc11cx4-library/lpc_chip_11cxx_lib/inc/clock_11xx.h **** STATIC INLINE void Chip_Clock_SetLFOSC(CHIP_WDTLFO_OSC_T lfoclk, uint8_t div)
 178:../../lpc11cx4-library/lpc_chip_11cxx_lib/inc/clock_11xx.h **** {
 179:../../lpc11cx4-library/lpc_chip_11cxx_lib/inc/clock_11xx.h **** 	LPC_SYSCTL->LFOSCCTRL  = (((uint32_t) lfoclk) << 5) | ((div >> 1) - 1);
 180:../../lpc11cx4-library/lpc_chip_11cxx_lib/inc/clock_11xx.h **** }
 181:../../lpc11cx4-library/lpc_chip_11cxx_lib/inc/clock_11xx.h **** 
 182:../../lpc11cx4-library/lpc_chip_11cxx_lib/inc/clock_11xx.h **** #endif /*CHIP_LPC11AXX*/
 183:../../lpc11cx4-library/lpc_chip_11cxx_lib/inc/clock_11xx.h **** 
 184:../../lpc11cx4-library/lpc_chip_11cxx_lib/inc/clock_11xx.h **** /**
 185:../../lpc11cx4-library/lpc_chip_11cxx_lib/inc/clock_11xx.h ****  * Clock sources for main system clock
 186:../../lpc11cx4-library/lpc_chip_11cxx_lib/inc/clock_11xx.h ****  */
 187:../../lpc11cx4-library/lpc_chip_11cxx_lib/inc/clock_11xx.h **** typedef enum CHIP_SYSCTL_MAINCLKSRC {
 188:../../lpc11cx4-library/lpc_chip_11cxx_lib/inc/clock_11xx.h **** 	SYSCTL_MAINCLKSRC_IRC = 0,		/*!< Internal oscillator */
 189:../../lpc11cx4-library/lpc_chip_11cxx_lib/inc/clock_11xx.h **** 	SYSCTL_MAINCLKSRC_PLLIN,		/*!< System PLL input */
 190:../../lpc11cx4-library/lpc_chip_11cxx_lib/inc/clock_11xx.h **** 	SYSCTL_MAINCLKSRC_LFOSC,		/*!< LF oscillator rate (11Axx only) */
 191:../../lpc11cx4-library/lpc_chip_11cxx_lib/inc/clock_11xx.h **** 	SYSCTL_MAINCLKSRC_WDTOSC = SYSCTL_MAINCLKSRC_LFOSC,	/*!< Watchdog oscillator rate */
 192:../../lpc11cx4-library/lpc_chip_11cxx_lib/inc/clock_11xx.h **** 	SYSCTL_MAINCLKSRC_PLLOUT,		/*!< System PLL output */
 193:../../lpc11cx4-library/lpc_chip_11cxx_lib/inc/clock_11xx.h **** } CHIP_SYSCTL_MAINCLKSRC_T;
 194:../../lpc11cx4-library/lpc_chip_11cxx_lib/inc/clock_11xx.h **** 
 195:../../lpc11cx4-library/lpc_chip_11cxx_lib/inc/clock_11xx.h **** /**
 196:../../lpc11cx4-library/lpc_chip_11cxx_lib/inc/clock_11xx.h ****  * @brief	Set main system clock source
 197:../../lpc11cx4-library/lpc_chip_11cxx_lib/inc/clock_11xx.h ****  * @param	src	: Clock source for main system
 198:../../lpc11cx4-library/lpc_chip_11cxx_lib/inc/clock_11xx.h ****  * @return	Nothing
 199:../../lpc11cx4-library/lpc_chip_11cxx_lib/inc/clock_11xx.h ****  * @note	This function will also toggle the clock source update register
 200:../../lpc11cx4-library/lpc_chip_11cxx_lib/inc/clock_11xx.h ****  * to update the clock source.
 201:../../lpc11cx4-library/lpc_chip_11cxx_lib/inc/clock_11xx.h ****  */
 202:../../lpc11cx4-library/lpc_chip_11cxx_lib/inc/clock_11xx.h **** void Chip_Clock_SetMainClockSource(CHIP_SYSCTL_MAINCLKSRC_T src);
 203:../../lpc11cx4-library/lpc_chip_11cxx_lib/inc/clock_11xx.h **** 
 204:../../lpc11cx4-library/lpc_chip_11cxx_lib/inc/clock_11xx.h **** /**
 205:../../lpc11cx4-library/lpc_chip_11cxx_lib/inc/clock_11xx.h ****  * @brief   Returns the main clock source
 206:../../lpc11cx4-library/lpc_chip_11cxx_lib/inc/clock_11xx.h ****  * @return	Which clock is used for the core clock source?
 207:../../lpc11cx4-library/lpc_chip_11cxx_lib/inc/clock_11xx.h ****  */
 208:../../lpc11cx4-library/lpc_chip_11cxx_lib/inc/clock_11xx.h **** STATIC INLINE CHIP_SYSCTL_MAINCLKSRC_T Chip_Clock_GetMainClockSource(void)
 209:../../lpc11cx4-library/lpc_chip_11cxx_lib/inc/clock_11xx.h **** {
 210:../../lpc11cx4-library/lpc_chip_11cxx_lib/inc/clock_11xx.h **** 	return (CHIP_SYSCTL_MAINCLKSRC_T) (LPC_SYSCTL->MAINCLKSEL);
 211:../../lpc11cx4-library/lpc_chip_11cxx_lib/inc/clock_11xx.h **** }
 212:../../lpc11cx4-library/lpc_chip_11cxx_lib/inc/clock_11xx.h **** 
 213:../../lpc11cx4-library/lpc_chip_11cxx_lib/inc/clock_11xx.h **** /**
 214:../../lpc11cx4-library/lpc_chip_11cxx_lib/inc/clock_11xx.h ****  * @brief	Set system clock divider
 215:../../lpc11cx4-library/lpc_chip_11cxx_lib/inc/clock_11xx.h ****  * @param	div	: divider for system clock
 216:../../lpc11cx4-library/lpc_chip_11cxx_lib/inc/clock_11xx.h ****  * @return	Nothing
 217:../../lpc11cx4-library/lpc_chip_11cxx_lib/inc/clock_11xx.h ****  * @note	Use 0 to disable, or a divider value of 1 to 255. The system clock
 218:../../lpc11cx4-library/lpc_chip_11cxx_lib/inc/clock_11xx.h ****  * rate is the main system clock divided by this value.
 219:../../lpc11cx4-library/lpc_chip_11cxx_lib/inc/clock_11xx.h ****  */
 220:../../lpc11cx4-library/lpc_chip_11cxx_lib/inc/clock_11xx.h **** STATIC INLINE void Chip_Clock_SetSysClockDiv(uint32_t div)
 221:../../lpc11cx4-library/lpc_chip_11cxx_lib/inc/clock_11xx.h **** {
 222:../../lpc11cx4-library/lpc_chip_11cxx_lib/inc/clock_11xx.h **** 	LPC_SYSCTL->SYSAHBCLKDIV  = div;
 223:../../lpc11cx4-library/lpc_chip_11cxx_lib/inc/clock_11xx.h **** }
 224:../../lpc11cx4-library/lpc_chip_11cxx_lib/inc/clock_11xx.h **** 
 225:../../lpc11cx4-library/lpc_chip_11cxx_lib/inc/clock_11xx.h **** /**
 226:../../lpc11cx4-library/lpc_chip_11cxx_lib/inc/clock_11xx.h ****  * System and peripheral clocks
 227:../../lpc11cx4-library/lpc_chip_11cxx_lib/inc/clock_11xx.h ****  */
 228:../../lpc11cx4-library/lpc_chip_11cxx_lib/inc/clock_11xx.h **** typedef enum CHIP_SYSCTL_CLOCK {
ARM GAS  /tmp/ccGKa4GA.s 			page 65


 229:../../lpc11cx4-library/lpc_chip_11cxx_lib/inc/clock_11xx.h **** 	SYSCTL_CLOCK_SYS = 0,				/*!< 0: System clock */
 230:../../lpc11cx4-library/lpc_chip_11cxx_lib/inc/clock_11xx.h **** 	SYSCTL_CLOCK_ROM,					/*!<1:  ROM clock */
 231:../../lpc11cx4-library/lpc_chip_11cxx_lib/inc/clock_11xx.h **** 	SYSCTL_CLOCK_RAM,					/*!< 2: RAM clock */
 232:../../lpc11cx4-library/lpc_chip_11cxx_lib/inc/clock_11xx.h **** 	SYSCTL_CLOCK_FLASHREG,				/*!< 3: FLASH register interface clock */
 233:../../lpc11cx4-library/lpc_chip_11cxx_lib/inc/clock_11xx.h **** 	SYSCTL_CLOCK_FLASHARRAY,			/*!< 4: FLASH array access clock */
 234:../../lpc11cx4-library/lpc_chip_11cxx_lib/inc/clock_11xx.h **** #if defined(CHIP_LPC110X)
 235:../../lpc11cx4-library/lpc_chip_11cxx_lib/inc/clock_11xx.h **** 	SYSCTL_CLOCK_RESERVED5,				/*!< 5: Reserved */
 236:../../lpc11cx4-library/lpc_chip_11cxx_lib/inc/clock_11xx.h **** #else
 237:../../lpc11cx4-library/lpc_chip_11cxx_lib/inc/clock_11xx.h **** 	SYSCTL_CLOCK_I2C,					/*!< 5: I2C clock, not on LPC110x */
 238:../../lpc11cx4-library/lpc_chip_11cxx_lib/inc/clock_11xx.h **** #endif
 239:../../lpc11cx4-library/lpc_chip_11cxx_lib/inc/clock_11xx.h **** 	SYSCTL_CLOCK_GPIO,					/*!< 6: GPIO clock */
 240:../../lpc11cx4-library/lpc_chip_11cxx_lib/inc/clock_11xx.h **** 	SYSCTL_CLOCK_CT16B0,				/*!< 7: 16-bit Counter/timer 0 clock */
 241:../../lpc11cx4-library/lpc_chip_11cxx_lib/inc/clock_11xx.h **** 	SYSCTL_CLOCK_CT16B1,				/*!< 8: 16-bit Counter/timer 1 clock */
 242:../../lpc11cx4-library/lpc_chip_11cxx_lib/inc/clock_11xx.h **** 	SYSCTL_CLOCK_CT32B0,				/*!< 9: 32-bit Counter/timer 0 clock */
 243:../../lpc11cx4-library/lpc_chip_11cxx_lib/inc/clock_11xx.h **** 	SYSCTL_CLOCK_CT32B1,				/*!< 10: 32-bit Counter/timer 1 clock */
 244:../../lpc11cx4-library/lpc_chip_11cxx_lib/inc/clock_11xx.h **** 	SYSCTL_CLOCK_SSP0,					/*!< 11: SSP0 clock */
 245:../../lpc11cx4-library/lpc_chip_11cxx_lib/inc/clock_11xx.h **** 	SYSCTL_CLOCK_UART0,					/*!< 12: UART0 clock */
 246:../../lpc11cx4-library/lpc_chip_11cxx_lib/inc/clock_11xx.h **** 	SYSCTL_CLOCK_ADC,					/*!< 13: ADC clock */
 247:../../lpc11cx4-library/lpc_chip_11cxx_lib/inc/clock_11xx.h **** #if defined(CHIP_LPC11UXX)
 248:../../lpc11cx4-library/lpc_chip_11cxx_lib/inc/clock_11xx.h **** 	SYSCTL_CLOCK_USB,					/*!< 14: USB clock, LPC11Uxx only */
 249:../../lpc11cx4-library/lpc_chip_11cxx_lib/inc/clock_11xx.h **** #else
 250:../../lpc11cx4-library/lpc_chip_11cxx_lib/inc/clock_11xx.h **** 	SYSCTL_CLOCK_RESERVED14,			/*!< 14: Reserved */
 251:../../lpc11cx4-library/lpc_chip_11cxx_lib/inc/clock_11xx.h **** #endif
 252:../../lpc11cx4-library/lpc_chip_11cxx_lib/inc/clock_11xx.h **** 	SYSCTL_CLOCK_WDT,					/*!< 15: Watchdog timer clock */
 253:../../lpc11cx4-library/lpc_chip_11cxx_lib/inc/clock_11xx.h **** 	SYSCTL_CLOCK_IOCON,					/*!< 16: IOCON block clock */
 254:../../lpc11cx4-library/lpc_chip_11cxx_lib/inc/clock_11xx.h **** #if defined(CHIP_LPC11CXX)
 255:../../lpc11cx4-library/lpc_chip_11cxx_lib/inc/clock_11xx.h **** 	SYSCTL_CLOCK_CAN,					/*!< 17: CAN clock, LPC11Cxx only */
 256:../../lpc11cx4-library/lpc_chip_11cxx_lib/inc/clock_11xx.h **** #else
 257:../../lpc11cx4-library/lpc_chip_11cxx_lib/inc/clock_11xx.h **** 	SYSCTL_CLOCK_RESERVED17,			/*!< 17: Reserved */
 258:../../lpc11cx4-library/lpc_chip_11cxx_lib/inc/clock_11xx.h **** #endif
 259:../../lpc11cx4-library/lpc_chip_11cxx_lib/inc/clock_11xx.h **** #if !(defined(CHIP_LPC110X) || defined(CHIP_LPC11XXLV))  
 260:../../lpc11cx4-library/lpc_chip_11cxx_lib/inc/clock_11xx.h **** 	SYSCTL_CLOCK_SSP1,					/*!< 18: SSP1 clock, LPC11A/C/E/Uxx//1125 only */
 261:../../lpc11cx4-library/lpc_chip_11cxx_lib/inc/clock_11xx.h **** #if !defined(CHIP_LPC11CXX)
 262:../../lpc11cx4-library/lpc_chip_11cxx_lib/inc/clock_11xx.h **** 	SYSCTL_CLOCK_PINT,					/*!< 19: GPIO Pin int register interface clock, LPC11A/E/Uxx only */
 263:../../lpc11cx4-library/lpc_chip_11cxx_lib/inc/clock_11xx.h **** #if defined(CHIP_LPC11AXX)
 264:../../lpc11cx4-library/lpc_chip_11cxx_lib/inc/clock_11xx.h **** 	SYSCTL_CLOCK_ACOMP,					/*!< 20: Analog comparator clock, LPC11Axx only */
 265:../../lpc11cx4-library/lpc_chip_11cxx_lib/inc/clock_11xx.h **** 	SYSCTL_CLOCK_DAC,					/*!< 21: DAC clock, LPC11Axx only */
 266:../../lpc11cx4-library/lpc_chip_11cxx_lib/inc/clock_11xx.h **** #else
 267:../../lpc11cx4-library/lpc_chip_11cxx_lib/inc/clock_11xx.h **** 	SYSCTL_CLOCK_RESERVED20,			/*!< 20: Reserved */
 268:../../lpc11cx4-library/lpc_chip_11cxx_lib/inc/clock_11xx.h **** 	SYSCTL_CLOCK_RESERVED21,			/*!< 21: Reserved */
 269:../../lpc11cx4-library/lpc_chip_11cxx_lib/inc/clock_11xx.h **** #endif
 270:../../lpc11cx4-library/lpc_chip_11cxx_lib/inc/clock_11xx.h **** 	SYSCTL_CLOCK_RESERVED22,			/*!< 22: Reserved */
 271:../../lpc11cx4-library/lpc_chip_11cxx_lib/inc/clock_11xx.h **** 	SYSCTL_CLOCK_P0INT,					/*!< 23: GPIO GROUP1 interrupt register clock, LPC11Axx only */
 272:../../lpc11cx4-library/lpc_chip_11cxx_lib/inc/clock_11xx.h **** 	SYSCTL_CLOCK_GROUP0INT = SYSCTL_CLOCK_P0INT,/*!< 23: GPIO GROUP0 interrupt register interface cloc
 273:../../lpc11cx4-library/lpc_chip_11cxx_lib/inc/clock_11xx.h **** 	SYSCTL_CLOCK_P1INT,					/*!< 24: GPIO GROUP1 interrupt register clock, LPC11Axx only */
 274:../../lpc11cx4-library/lpc_chip_11cxx_lib/inc/clock_11xx.h **** 	SYSCTL_CLOCK_GROUP1INT = SYSCTL_CLOCK_P1INT,/*!< 24: GPIO GROUP1 interrupt register interface cloc
 275:../../lpc11cx4-library/lpc_chip_11cxx_lib/inc/clock_11xx.h **** 	SYSCTL_CLOCK_RESERVED25,			/*!< 25: Reserved */
 276:../../lpc11cx4-library/lpc_chip_11cxx_lib/inc/clock_11xx.h **** #if defined(CHIP_LPC11EXX)  || defined(CHIP_LPC11UXX)
 277:../../lpc11cx4-library/lpc_chip_11cxx_lib/inc/clock_11xx.h **** 	SYSCTL_CLOCK_RAM1,					/*!< 26: SRAM block (0x20000000) clock, LPC11E/Uxx only */
 278:../../lpc11cx4-library/lpc_chip_11cxx_lib/inc/clock_11xx.h **** #else
 279:../../lpc11cx4-library/lpc_chip_11cxx_lib/inc/clock_11xx.h **** 	SYSCTL_CLOCK_RESERVED26,			/*!< 26: Reserved */
 280:../../lpc11cx4-library/lpc_chip_11cxx_lib/inc/clock_11xx.h **** #endif
 281:../../lpc11cx4-library/lpc_chip_11cxx_lib/inc/clock_11xx.h **** #if defined(CHIP_LPC11UXX)
 282:../../lpc11cx4-library/lpc_chip_11cxx_lib/inc/clock_11xx.h **** 	SYSCTL_CLOCK_USBRAM,				/*!< 27: USB SRAM block clock, LPC11Uxx only */
 283:../../lpc11cx4-library/lpc_chip_11cxx_lib/inc/clock_11xx.h **** #else
 284:../../lpc11cx4-library/lpc_chip_11cxx_lib/inc/clock_11xx.h **** 	SYSCTL_CLOCK_RESERVED27,			/*!< 27: Reserved */
 285:../../lpc11cx4-library/lpc_chip_11cxx_lib/inc/clock_11xx.h **** #endif
ARM GAS  /tmp/ccGKa4GA.s 			page 66


 286:../../lpc11cx4-library/lpc_chip_11cxx_lib/inc/clock_11xx.h **** #endif /* !defined(CHIP_LPC11CXX) */
 287:../../lpc11cx4-library/lpc_chip_11cxx_lib/inc/clock_11xx.h **** #endif /* !(defined(CHIP_LPC110X) || defined(CHIP_LPC11XXLV)) */
 288:../../lpc11cx4-library/lpc_chip_11cxx_lib/inc/clock_11xx.h **** } CHIP_SYSCTL_CLOCK_T;
 289:../../lpc11cx4-library/lpc_chip_11cxx_lib/inc/clock_11xx.h **** 
 290:../../lpc11cx4-library/lpc_chip_11cxx_lib/inc/clock_11xx.h **** /**
 291:../../lpc11cx4-library/lpc_chip_11cxx_lib/inc/clock_11xx.h ****  * @brief	Enable a system or peripheral clock
 292:../../lpc11cx4-library/lpc_chip_11cxx_lib/inc/clock_11xx.h ****  * @param	clk	: Clock to enable
 293:../../lpc11cx4-library/lpc_chip_11cxx_lib/inc/clock_11xx.h ****  * @return	Nothing
 294:../../lpc11cx4-library/lpc_chip_11cxx_lib/inc/clock_11xx.h ****  */
 295:../../lpc11cx4-library/lpc_chip_11cxx_lib/inc/clock_11xx.h **** STATIC INLINE void Chip_Clock_EnablePeriphClock(CHIP_SYSCTL_CLOCK_T clk)
 296:../../lpc11cx4-library/lpc_chip_11cxx_lib/inc/clock_11xx.h **** {
 297:../../lpc11cx4-library/lpc_chip_11cxx_lib/inc/clock_11xx.h **** 	LPC_SYSCTL->SYSAHBCLKCTRL |= (1 << clk);
 298:../../lpc11cx4-library/lpc_chip_11cxx_lib/inc/clock_11xx.h **** }
 299:../../lpc11cx4-library/lpc_chip_11cxx_lib/inc/clock_11xx.h **** 
 300:../../lpc11cx4-library/lpc_chip_11cxx_lib/inc/clock_11xx.h **** /**
 301:../../lpc11cx4-library/lpc_chip_11cxx_lib/inc/clock_11xx.h ****  * @brief	Disable a system or peripheral clock
 302:../../lpc11cx4-library/lpc_chip_11cxx_lib/inc/clock_11xx.h ****  * @param	clk	: Clock to disable
 303:../../lpc11cx4-library/lpc_chip_11cxx_lib/inc/clock_11xx.h ****  * @return	Nothing
 304:../../lpc11cx4-library/lpc_chip_11cxx_lib/inc/clock_11xx.h ****  */
 305:../../lpc11cx4-library/lpc_chip_11cxx_lib/inc/clock_11xx.h **** STATIC INLINE void Chip_Clock_DisablePeriphClock(CHIP_SYSCTL_CLOCK_T clk)
 306:../../lpc11cx4-library/lpc_chip_11cxx_lib/inc/clock_11xx.h **** {
 307:../../lpc11cx4-library/lpc_chip_11cxx_lib/inc/clock_11xx.h **** 	LPC_SYSCTL->SYSAHBCLKCTRL &= ~(1 << clk);
 308:../../lpc11cx4-library/lpc_chip_11cxx_lib/inc/clock_11xx.h **** }
 309:../../lpc11cx4-library/lpc_chip_11cxx_lib/inc/clock_11xx.h **** 
 310:../../lpc11cx4-library/lpc_chip_11cxx_lib/inc/clock_11xx.h **** /**
 311:../../lpc11cx4-library/lpc_chip_11cxx_lib/inc/clock_11xx.h ****  * @brief	Set SSP0 divider
 312:../../lpc11cx4-library/lpc_chip_11cxx_lib/inc/clock_11xx.h ****  * @param	div	: divider for SSP0 clock
 313:../../lpc11cx4-library/lpc_chip_11cxx_lib/inc/clock_11xx.h ****  * @return	Nothing
 314:../../lpc11cx4-library/lpc_chip_11cxx_lib/inc/clock_11xx.h ****  * @note	Use 0 to disable, or a divider value of 1 to 255. The SSP0 clock
 315:../../lpc11cx4-library/lpc_chip_11cxx_lib/inc/clock_11xx.h ****  * rate is the main system clock divided by this value.
 316:../../lpc11cx4-library/lpc_chip_11cxx_lib/inc/clock_11xx.h ****  */
 317:../../lpc11cx4-library/lpc_chip_11cxx_lib/inc/clock_11xx.h **** STATIC INLINE void Chip_Clock_SetSSP0ClockDiv(uint32_t div)
 318:../../lpc11cx4-library/lpc_chip_11cxx_lib/inc/clock_11xx.h **** {
 319:../../lpc11cx4-library/lpc_chip_11cxx_lib/inc/clock_11xx.h **** 	LPC_SYSCTL->SSP0CLKDIV  = div;
 320:../../lpc11cx4-library/lpc_chip_11cxx_lib/inc/clock_11xx.h **** }
 321:../../lpc11cx4-library/lpc_chip_11cxx_lib/inc/clock_11xx.h **** 
 322:../../lpc11cx4-library/lpc_chip_11cxx_lib/inc/clock_11xx.h **** /**
 323:../../lpc11cx4-library/lpc_chip_11cxx_lib/inc/clock_11xx.h ****  * @brief	Return SSP0 divider
 324:../../lpc11cx4-library/lpc_chip_11cxx_lib/inc/clock_11xx.h ****  * @return	divider for SSP0 clock
 325:../../lpc11cx4-library/lpc_chip_11cxx_lib/inc/clock_11xx.h ****  * @note	A value of 0 means the clock is disabled.
 326:../../lpc11cx4-library/lpc_chip_11cxx_lib/inc/clock_11xx.h ****  */
 327:../../lpc11cx4-library/lpc_chip_11cxx_lib/inc/clock_11xx.h **** STATIC INLINE uint32_t Chip_Clock_GetSSP0ClockDiv(void)
 328:../../lpc11cx4-library/lpc_chip_11cxx_lib/inc/clock_11xx.h **** {
 329:../../lpc11cx4-library/lpc_chip_11cxx_lib/inc/clock_11xx.h **** 	return LPC_SYSCTL->SSP0CLKDIV;
 330:../../lpc11cx4-library/lpc_chip_11cxx_lib/inc/clock_11xx.h **** }
 331:../../lpc11cx4-library/lpc_chip_11cxx_lib/inc/clock_11xx.h **** 
 332:../../lpc11cx4-library/lpc_chip_11cxx_lib/inc/clock_11xx.h **** /**
 333:../../lpc11cx4-library/lpc_chip_11cxx_lib/inc/clock_11xx.h ****  * @brief	Set UART divider clock
 334:../../lpc11cx4-library/lpc_chip_11cxx_lib/inc/clock_11xx.h ****  * @param	div	: divider for UART clock
 335:../../lpc11cx4-library/lpc_chip_11cxx_lib/inc/clock_11xx.h ****  * @return	Nothing
 336:../../lpc11cx4-library/lpc_chip_11cxx_lib/inc/clock_11xx.h ****  * @note	Use 0 to disable, or a divider value of 1 to 255. The UART clock
 337:../../lpc11cx4-library/lpc_chip_11cxx_lib/inc/clock_11xx.h ****  * rate is the main system clock divided by this value.
 338:../../lpc11cx4-library/lpc_chip_11cxx_lib/inc/clock_11xx.h ****  */
 339:../../lpc11cx4-library/lpc_chip_11cxx_lib/inc/clock_11xx.h **** STATIC INLINE void Chip_Clock_SetUARTClockDiv(uint32_t div)
 340:../../lpc11cx4-library/lpc_chip_11cxx_lib/inc/clock_11xx.h **** {
 341:../../lpc11cx4-library/lpc_chip_11cxx_lib/inc/clock_11xx.h **** 	LPC_SYSCTL->USARTCLKDIV  = div;
 342:../../lpc11cx4-library/lpc_chip_11cxx_lib/inc/clock_11xx.h **** }
ARM GAS  /tmp/ccGKa4GA.s 			page 67


 343:../../lpc11cx4-library/lpc_chip_11cxx_lib/inc/clock_11xx.h **** 
 344:../../lpc11cx4-library/lpc_chip_11cxx_lib/inc/clock_11xx.h **** /**
 345:../../lpc11cx4-library/lpc_chip_11cxx_lib/inc/clock_11xx.h ****  * @brief	Return UART divider
 346:../../lpc11cx4-library/lpc_chip_11cxx_lib/inc/clock_11xx.h ****  * @return	divider for UART clock
 347:../../lpc11cx4-library/lpc_chip_11cxx_lib/inc/clock_11xx.h ****  * @note	A value of 0 means the clock is disabled.
 348:../../lpc11cx4-library/lpc_chip_11cxx_lib/inc/clock_11xx.h ****  */
 349:../../lpc11cx4-library/lpc_chip_11cxx_lib/inc/clock_11xx.h **** STATIC INLINE uint32_t Chip_Clock_GetUARTClockDiv(void)
 350:../../lpc11cx4-library/lpc_chip_11cxx_lib/inc/clock_11xx.h **** {
 351:../../lpc11cx4-library/lpc_chip_11cxx_lib/inc/clock_11xx.h **** 	return LPC_SYSCTL->USARTCLKDIV;
 352:../../lpc11cx4-library/lpc_chip_11cxx_lib/inc/clock_11xx.h **** }
 353:../../lpc11cx4-library/lpc_chip_11cxx_lib/inc/clock_11xx.h **** 
 354:../../lpc11cx4-library/lpc_chip_11cxx_lib/inc/clock_11xx.h **** #if defined(CHIP_LPC11CXX) || defined(CHIP_LPC11EXX) || defined(CHIP_LPC11AXX) || defined(CHIP_LPC1
 355:../../lpc11cx4-library/lpc_chip_11cxx_lib/inc/clock_11xx.h **** /**
 356:../../lpc11cx4-library/lpc_chip_11cxx_lib/inc/clock_11xx.h ****  * @brief	Set SSP1 divider clock
 357:../../lpc11cx4-library/lpc_chip_11cxx_lib/inc/clock_11xx.h ****  * @param	div	: divider for SSP1 clock
 358:../../lpc11cx4-library/lpc_chip_11cxx_lib/inc/clock_11xx.h ****  * @return	Nothing
 359:../../lpc11cx4-library/lpc_chip_11cxx_lib/inc/clock_11xx.h ****  * @note	Use 0 to disable, or a divider value of 1 to 255. The SSP1 clock
 360:../../lpc11cx4-library/lpc_chip_11cxx_lib/inc/clock_11xx.h ****  * rate is the main system clock divided by this value.
 361:../../lpc11cx4-library/lpc_chip_11cxx_lib/inc/clock_11xx.h ****  */
 362:../../lpc11cx4-library/lpc_chip_11cxx_lib/inc/clock_11xx.h **** STATIC INLINE void Chip_Clock_SetSSP1ClockDiv(uint32_t div)
 363:../../lpc11cx4-library/lpc_chip_11cxx_lib/inc/clock_11xx.h **** {
 364:../../lpc11cx4-library/lpc_chip_11cxx_lib/inc/clock_11xx.h **** 	LPC_SYSCTL->SSP1CLKDIV  = div;
 365:../../lpc11cx4-library/lpc_chip_11cxx_lib/inc/clock_11xx.h **** }
 366:../../lpc11cx4-library/lpc_chip_11cxx_lib/inc/clock_11xx.h **** 
 367:../../lpc11cx4-library/lpc_chip_11cxx_lib/inc/clock_11xx.h **** /**
 368:../../lpc11cx4-library/lpc_chip_11cxx_lib/inc/clock_11xx.h ****  * @brief	Return SSP1 divider
 369:../../lpc11cx4-library/lpc_chip_11cxx_lib/inc/clock_11xx.h ****  * @return	divider for SSP1 clock
 370:../../lpc11cx4-library/lpc_chip_11cxx_lib/inc/clock_11xx.h ****  * @note	A value of 0 means the clock is disabled.
 371:../../lpc11cx4-library/lpc_chip_11cxx_lib/inc/clock_11xx.h ****  */
 372:../../lpc11cx4-library/lpc_chip_11cxx_lib/inc/clock_11xx.h **** STATIC INLINE uint32_t Chip_Clock_GetSSP1ClockDiv(void)
 373:../../lpc11cx4-library/lpc_chip_11cxx_lib/inc/clock_11xx.h **** {
 374:../../lpc11cx4-library/lpc_chip_11cxx_lib/inc/clock_11xx.h **** 	return LPC_SYSCTL->SSP1CLKDIV;
 2302              		.loc 3 374 0
 2303 0016 9C23     		movs	r3, #156	@ tmp133,
 2304 0018 174A     		ldr	r2, .L271+4	@ tmp132,
 2305 001a D158     		ldr	r1, [r2, r3]	@ _16,
 2306              	.LBE607:
 2307              	.LBE606:
 159:../../lpc11cx4-library/lpc_chip_11cxx_lib/src/ssp_11xx.c **** 	}
 2308              		.loc 1 159 0
 2309 001c FFF7FEFF 		bl	__aeabi_uidiv	@
 2310              	.LVL217:
 2311 0020 8146     		mov	r9, r0	@ sspCLK,
 2312              	.LVL218:
 2313              	.L263:
 2314              	.LBE605:
 2315              	.LBE604:
 460:../../lpc11cx4-library/lpc_chip_11cxx_lib/src/ssp_11xx.c **** 	uint32_t ssp_clk, cr0_div, cmp_clk, prescale;
 461:../../lpc11cx4-library/lpc_chip_11cxx_lib/src/ssp_11xx.c **** 
 462:../../lpc11cx4-library/lpc_chip_11cxx_lib/src/ssp_11xx.c **** 	ssp_clk = Chip_SSP_GetPCLKkRate(pSSP);
 463:../../lpc11cx4-library/lpc_chip_11cxx_lib/src/ssp_11xx.c **** 
 464:../../lpc11cx4-library/lpc_chip_11cxx_lib/src/ssp_11xx.c **** 	cr0_div = 0;
 465:../../lpc11cx4-library/lpc_chip_11cxx_lib/src/ssp_11xx.c **** 	cmp_clk = 0xFFFFFFFF;
 466:../../lpc11cx4-library/lpc_chip_11cxx_lib/src/ssp_11xx.c **** 	prescale = 2;
 467:../../lpc11cx4-library/lpc_chip_11cxx_lib/src/ssp_11xx.c **** 
 468:../../lpc11cx4-library/lpc_chip_11cxx_lib/src/ssp_11xx.c **** 	while (cmp_clk > bitRate) {
 2316              		.loc 1 468 0
ARM GAS  /tmp/ccGKa4GA.s 			page 68


 2317 0022 4346     		mov	r3, r8	@ bitRate, bitRate
 2318 0024 0133     		adds	r3, r3, #1	@ tmp147, bitRate,
 2319 0026 22D0     		beq	.L268	@,
 2320 0028 0226     		movs	r6, #2	@ prescale,
 2321 002a 0024     		movs	r4, #0	@ cr0_div,
 2322              	.LVL219:
 2323              	.L267:
 469:../../lpc11cx4-library/lpc_chip_11cxx_lib/src/ssp_11xx.c **** 		cmp_clk = ssp_clk / ((cr0_div + 1) * prescale);
 2324              		.loc 1 469 0
 2325 002c 3100     		movs	r1, r6	@ tmp137, prescale
 2326 002e 651C     		adds	r5, r4, #1	@ _8, cr0_div,
 2327              	.LVL220:
 2328 0030 6943     		muls	r1, r5	@ tmp137, _8
 2329 0032 4846     		mov	r0, r9	@, sspCLK
 2330 0034 FFF7FEFF 		bl	__aeabi_uidiv	@
 2331              	.LVL221:
 470:../../lpc11cx4-library/lpc_chip_11cxx_lib/src/ssp_11xx.c **** 		if (cmp_clk > bitRate) {
 2332              		.loc 1 470 0
 2333 0038 8045     		cmp	r8, r0	@ bitRate, cmp_clk
 2334 003a 0BD3     		bcc	.L265	@,
 2335 003c 2406     		lsls	r4, r4, #24	@ tmp143, cr0_div,
 2336              	.LVL222:
 2337 003e 240C     		lsrs	r4, r4, #16	@ _42, tmp143,
 2338              	.LVL223:
 2339              	.L264:
 2340              	.LBB611:
 2341              	.LBB612:
 174:../../lpc11cx4-library/lpc_chip_11cxx_lib/src/ssp_11xx.c **** 	pSSP->CR0 = temp | (SSP_CR0_SCR(clk_rate));
 2342              		.loc 1 174 0
 2343 0040 3B68     		ldr	r3, [r7]	@ _19, pSSP_5(D)->CR0
 2344              	.LVL224:
 2345 0042 0E4A     		ldr	r2, .L271+8	@ tmp145,
 2346              	.LBE612:
 2347              	.LBE611:
 471:../../lpc11cx4-library/lpc_chip_11cxx_lib/src/ssp_11xx.c **** 			cr0_div++;
 472:../../lpc11cx4-library/lpc_chip_11cxx_lib/src/ssp_11xx.c **** 			if (cr0_div > 0xFF) {
 473:../../lpc11cx4-library/lpc_chip_11cxx_lib/src/ssp_11xx.c **** 				cr0_div = 0;
 474:../../lpc11cx4-library/lpc_chip_11cxx_lib/src/ssp_11xx.c **** 				prescale += 2;
 475:../../lpc11cx4-library/lpc_chip_11cxx_lib/src/ssp_11xx.c **** 			}
 476:../../lpc11cx4-library/lpc_chip_11cxx_lib/src/ssp_11xx.c **** 		}
 477:../../lpc11cx4-library/lpc_chip_11cxx_lib/src/ssp_11xx.c **** 	}
 478:../../lpc11cx4-library/lpc_chip_11cxx_lib/src/ssp_11xx.c **** 
 479:../../lpc11cx4-library/lpc_chip_11cxx_lib/src/ssp_11xx.c **** 	Chip_SSP_SetClockRate(pSSP, cr0_div, prescale);
 480:../../lpc11cx4-library/lpc_chip_11cxx_lib/src/ssp_11xx.c **** }
 2348              		.loc 1 480 0
 2349              		@ sp needed	@
 2350              	.LBB614:
 2351              	.LBB613:
 174:../../lpc11cx4-library/lpc_chip_11cxx_lib/src/ssp_11xx.c **** 	pSSP->CR0 = temp | (SSP_CR0_SCR(clk_rate));
 2352              		.loc 1 174 0
 2353 0044 1340     		ands	r3, r2	@ temp, tmp145
 2354              	.LVL225:
 175:../../lpc11cx4-library/lpc_chip_11cxx_lib/src/ssp_11xx.c **** 	pSSP->CPSR = prescale;
 2355              		.loc 1 175 0
 2356 0046 1C43     		orrs	r4, r3	@ _23, temp
 2357 0048 3C60     		str	r4, [r7]	@ _23, pSSP_5(D)->CR0
 176:../../lpc11cx4-library/lpc_chip_11cxx_lib/src/ssp_11xx.c **** }
ARM GAS  /tmp/ccGKa4GA.s 			page 69


 2358              		.loc 1 176 0
 2359 004a 3E61     		str	r6, [r7, #16]	@ prescale, pSSP_5(D)->CPSR
 2360              	.LVL226:
 2361              	.LVL227:
 2362              	.LVL228:
 2363              	.LBE613:
 2364              	.LBE614:
 2365              		.loc 1 480 0
 2366 004c 0CBC     		pop	{r2, r3}
 2367 004e 9046     		mov	r8, r2
 2368 0050 9946     		mov	r9, r3
 2369 0052 F8BD     		pop	{r3, r4, r5, r6, r7, pc}
 2370              	.LVL229:
 2371              	.L265:
 2372 0054 2C00     		movs	r4, r5	@ cr0_div, _8
 472:../../lpc11cx4-library/lpc_chip_11cxx_lib/src/ssp_11xx.c **** 				cr0_div = 0;
 2373              		.loc 1 472 0
 2374 0056 FF2D     		cmp	r5, #255	@ cr0_div,
 2375 0058 E8D9     		bls	.L267	@,
 2376              	.LVL230:
 474:../../lpc11cx4-library/lpc_chip_11cxx_lib/src/ssp_11xx.c **** 			}
 2377              		.loc 1 474 0
 2378 005a 0236     		adds	r6, r6, #2	@ prescale,
 2379              	.LVL231:
 473:../../lpc11cx4-library/lpc_chip_11cxx_lib/src/ssp_11xx.c **** 				prescale += 2;
 2380              		.loc 1 473 0
 2381 005c 0024     		movs	r4, #0	@ cr0_div,
 2382              	.LVL232:
 2383 005e E5E7     		b	.L267	@
 2384              	.LVL233:
 2385              	.L270:
 2386              	.LBB615:
 2387              	.LBB610:
 2388              	.LBB608:
 2389              	.LBB609:
 329:../../lpc11cx4-library/lpc_chip_11cxx_lib/inc/clock_11xx.h **** }
 2390              		.loc 3 329 0
 2391 0060 9423     		movs	r3, #148	@ tmp128,
 2392 0062 054A     		ldr	r2, .L271+4	@ tmp127,
 2393 0064 D158     		ldr	r1, [r2, r3]	@ _14,
 2394              	.LBE609:
 2395              	.LBE608:
 155:../../lpc11cx4-library/lpc_chip_11cxx_lib/src/ssp_11xx.c **** 	}
 2396              		.loc 1 155 0
 2397 0066 FFF7FEFF 		bl	__aeabi_uidiv	@
 2398              	.LVL234:
 2399 006a 8146     		mov	r9, r0	@ sspCLK,
 2400              	.LVL235:
 2401 006c D9E7     		b	.L263	@
 2402              	.LVL236:
 2403              	.L268:
 2404              	.LBE610:
 2405              	.LBE615:
 468:../../lpc11cx4-library/lpc_chip_11cxx_lib/src/ssp_11xx.c **** 		cmp_clk = ssp_clk / ((cr0_div + 1) * prescale);
 2406              		.loc 1 468 0
 2407 006e 0024     		movs	r4, #0	@ _42,
 466:../../lpc11cx4-library/lpc_chip_11cxx_lib/src/ssp_11xx.c **** 
ARM GAS  /tmp/ccGKa4GA.s 			page 70


 2408              		.loc 1 466 0
 2409 0070 0226     		movs	r6, #2	@ prescale,
 2410 0072 E5E7     		b	.L264	@
 2411              	.L272:
 2412              		.align	2
 2413              	.L271:
 2414 0074 00000440 		.word	1074003968
 2415 0078 00800440 		.word	1074036736
 2416 007c FF00FFFF 		.word	-65281
 2417              		.cfi_endproc
 2418              	.LFE214:
 2419              		.size	Chip_SSP_SetBitRate, .-Chip_SSP_SetBitRate
 2420              		.section	.text.Chip_SSP_Init,"ax",%progbits
 2421              		.align	1
 2422              		.p2align 2,,3
 2423              		.global	Chip_SSP_Init
 2424              		.syntax unified
 2425              		.code	16
 2426              		.thumb_func
 2427              		.fpu softvfp
 2428              		.type	Chip_SSP_Init, %function
 2429              	Chip_SSP_Init:
 2430              	.LFB215:
 481:../../lpc11cx4-library/lpc_chip_11cxx_lib/src/ssp_11xx.c **** 
 482:../../lpc11cx4-library/lpc_chip_11cxx_lib/src/ssp_11xx.c **** /* Initialize the SSP */
 483:../../lpc11cx4-library/lpc_chip_11cxx_lib/src/ssp_11xx.c **** void Chip_SSP_Init(LPC_SSP_T *pSSP)
 484:../../lpc11cx4-library/lpc_chip_11cxx_lib/src/ssp_11xx.c **** {
 2431              		.loc 1 484 0
 2432              		.cfi_startproc
 2433              		@ args = 0, pretend = 0, frame = 0
 2434              		@ frame_needed = 0, uses_anonymous_args = 0
 2435              	.LVL237:
 2436              	.LBB616:
 2437              	.LBB617:
 109:../../lpc11cx4-library/lpc_chip_11cxx_lib/src/ssp_11xx.c **** 		clkSSP = SYSCTL_CLOCK_SSP0;
 2438              		.loc 1 109 0
 2439 0000 184B     		ldr	r3, .L281	@ tmp126,
 2440              	.LBE617:
 2441              	.LBE616:
 2442              		.loc 1 484 0
 2443 0002 10B5     		push	{r4, lr}	@
 2444              		.cfi_def_cfa_offset 8
 2445              		.cfi_offset 4, -8
 2446              		.cfi_offset 14, -4
 2447              	.LBB619:
 2448              	.LBB618:
 109:../../lpc11cx4-library/lpc_chip_11cxx_lib/src/ssp_11xx.c **** 		clkSSP = SYSCTL_CLOCK_SSP0;
 2449              		.loc 1 109 0
 2450 0004 9842     		cmp	r0, r3	@ pSSP, tmp126
 2451 0006 20D0     		beq	.L280	@,
 2452              	.LVL238:
 2453              	.LBE618:
 2454              	.LBE619:
 2455              	.LBB620:
 2456              	.LBB621:
 297:../../lpc11cx4-library/lpc_chip_11cxx_lib/inc/clock_11xx.h **** }
 2457              		.loc 3 297 0
ARM GAS  /tmp/ccGKa4GA.s 			page 71


 2458 0008 8021     		movs	r1, #128	@ tmp145,
 2459 000a 8022     		movs	r2, #128	@ tmp146,
 2460 000c 164B     		ldr	r3, .L281+4	@ tmp144,
 2461 000e D202     		lsls	r2, r2, #11	@ tmp146, tmp146,
 2462 0010 5C58     		ldr	r4, [r3, r1]	@ _48, MEM[(struct LPC_SYSCTL_T *)1074036736B].SYSAHBCLKCTRL
 2463 0012 2243     		orrs	r2, r4	@ _52, _48
 2464 0014 5A50     		str	r2, [r3, r1]	@ _52, MEM[(struct LPC_SYSCTL_T *)1074036736B].SYSAHBCLKCTRL
 2465              	.LVL239:
 2466              	.LBE621:
 2467              	.LBE620:
 2468              	.LBB623:
 2469              	.LBB624:
 2470              	.LBB625:
 364:../../lpc11cx4-library/lpc_chip_11cxx_lib/inc/clock_11xx.h **** }
 2471              		.loc 3 364 0
 2472 0016 9C22     		movs	r2, #156	@ tmp150,
 2473 0018 7F39     		subs	r1, r1, #127	@ tmp151,
 2474 001a 9950     		str	r1, [r3, r2]	@ tmp151, MEM[(struct LPC_SYSCTL_T *)1074036736B].SSP1CLKDIV
 2475              	.LVL240:
 2476 001c 0331     		adds	r1, r1, #3	@ prephitmp_50,
 2477 001e A13A     		subs	r2, r2, #161	@ prephitmp_49,
 2478              	.LVL241:
 2479              	.L276:
 2480              	.LBE625:
 2481              	.LBE624:
 2482              	.LBE623:
 2483              	.LBB628:
 2484              	.LBB629:
 2485              	.LBB630:
 2486              		.file 4 "../../lpc11cx4-library/lpc_chip_11cxx_lib/inc/sysctl_11xx.h"
   1:../../lpc11cx4-library/lpc_chip_11cxx_lib/inc/sysctl_11xx.h **** /*
   2:../../lpc11cx4-library/lpc_chip_11cxx_lib/inc/sysctl_11xx.h ****  * @brief LPC11XX System Control registers and control functions
   3:../../lpc11cx4-library/lpc_chip_11cxx_lib/inc/sysctl_11xx.h ****  *
   4:../../lpc11cx4-library/lpc_chip_11cxx_lib/inc/sysctl_11xx.h ****  * @note
   5:../../lpc11cx4-library/lpc_chip_11cxx_lib/inc/sysctl_11xx.h ****  * Copyright(C) NXP Semiconductors, 2012
   6:../../lpc11cx4-library/lpc_chip_11cxx_lib/inc/sysctl_11xx.h ****  * All rights reserved.
   7:../../lpc11cx4-library/lpc_chip_11cxx_lib/inc/sysctl_11xx.h ****  *
   8:../../lpc11cx4-library/lpc_chip_11cxx_lib/inc/sysctl_11xx.h ****  * @par
   9:../../lpc11cx4-library/lpc_chip_11cxx_lib/inc/sysctl_11xx.h ****  * Software that is described herein is for illustrative purposes only
  10:../../lpc11cx4-library/lpc_chip_11cxx_lib/inc/sysctl_11xx.h ****  * which provides customers with programming information regarding the
  11:../../lpc11cx4-library/lpc_chip_11cxx_lib/inc/sysctl_11xx.h ****  * LPC products.  This software is supplied "AS IS" without any warranties of
  12:../../lpc11cx4-library/lpc_chip_11cxx_lib/inc/sysctl_11xx.h ****  * any kind, and NXP Semiconductors and its licensor disclaim any and
  13:../../lpc11cx4-library/lpc_chip_11cxx_lib/inc/sysctl_11xx.h ****  * all warranties, express or implied, including all implied warranties of
  14:../../lpc11cx4-library/lpc_chip_11cxx_lib/inc/sysctl_11xx.h ****  * merchantability, fitness for a particular purpose and non-infringement of
  15:../../lpc11cx4-library/lpc_chip_11cxx_lib/inc/sysctl_11xx.h ****  * intellectual property rights.  NXP Semiconductors assumes no responsibility
  16:../../lpc11cx4-library/lpc_chip_11cxx_lib/inc/sysctl_11xx.h ****  * or liability for the use of the software, conveys no license or rights under any
  17:../../lpc11cx4-library/lpc_chip_11cxx_lib/inc/sysctl_11xx.h ****  * patent, copyright, mask work right, or any other intellectual property rights in
  18:../../lpc11cx4-library/lpc_chip_11cxx_lib/inc/sysctl_11xx.h ****  * or to any products. NXP Semiconductors reserves the right to make changes
  19:../../lpc11cx4-library/lpc_chip_11cxx_lib/inc/sysctl_11xx.h ****  * in the software without notification. NXP Semiconductors also makes no
  20:../../lpc11cx4-library/lpc_chip_11cxx_lib/inc/sysctl_11xx.h ****  * representation or warranty that such application will be suitable for the
  21:../../lpc11cx4-library/lpc_chip_11cxx_lib/inc/sysctl_11xx.h ****  * specified use without further testing or modification.
  22:../../lpc11cx4-library/lpc_chip_11cxx_lib/inc/sysctl_11xx.h ****  *
  23:../../lpc11cx4-library/lpc_chip_11cxx_lib/inc/sysctl_11xx.h ****  * @par
  24:../../lpc11cx4-library/lpc_chip_11cxx_lib/inc/sysctl_11xx.h ****  * Permission to use, copy, modify, and distribute this software and its
  25:../../lpc11cx4-library/lpc_chip_11cxx_lib/inc/sysctl_11xx.h ****  * documentation is hereby granted, under NXP Semiconductors' and its
  26:../../lpc11cx4-library/lpc_chip_11cxx_lib/inc/sysctl_11xx.h ****  * licensor's relevant copyrights in the software, without fee, provided that it
  27:../../lpc11cx4-library/lpc_chip_11cxx_lib/inc/sysctl_11xx.h ****  * is used in conjunction with NXP Semiconductors microcontrollers.  This
ARM GAS  /tmp/ccGKa4GA.s 			page 72


  28:../../lpc11cx4-library/lpc_chip_11cxx_lib/inc/sysctl_11xx.h ****  * copyright, permission, and disclaimer notice must appear in all copies of
  29:../../lpc11cx4-library/lpc_chip_11cxx_lib/inc/sysctl_11xx.h ****  * this code.
  30:../../lpc11cx4-library/lpc_chip_11cxx_lib/inc/sysctl_11xx.h ****  */
  31:../../lpc11cx4-library/lpc_chip_11cxx_lib/inc/sysctl_11xx.h **** 
  32:../../lpc11cx4-library/lpc_chip_11cxx_lib/inc/sysctl_11xx.h **** #ifndef __SYSCTL_11XX_H_
  33:../../lpc11cx4-library/lpc_chip_11cxx_lib/inc/sysctl_11xx.h **** #define __SYSCTL_11XX_H_
  34:../../lpc11cx4-library/lpc_chip_11cxx_lib/inc/sysctl_11xx.h **** 
  35:../../lpc11cx4-library/lpc_chip_11cxx_lib/inc/sysctl_11xx.h **** #ifdef __cplusplus
  36:../../lpc11cx4-library/lpc_chip_11cxx_lib/inc/sysctl_11xx.h **** extern "C" {
  37:../../lpc11cx4-library/lpc_chip_11cxx_lib/inc/sysctl_11xx.h **** #endif
  38:../../lpc11cx4-library/lpc_chip_11cxx_lib/inc/sysctl_11xx.h **** 
  39:../../lpc11cx4-library/lpc_chip_11cxx_lib/inc/sysctl_11xx.h **** /** @defgroup SYSCTL_11XX CHIP: LPC11xx System Control block driver
  40:../../lpc11cx4-library/lpc_chip_11cxx_lib/inc/sysctl_11xx.h ****  * @ingroup CHIP_11XX_Drivers
  41:../../lpc11cx4-library/lpc_chip_11cxx_lib/inc/sysctl_11xx.h ****  * @{
  42:../../lpc11cx4-library/lpc_chip_11cxx_lib/inc/sysctl_11xx.h ****  */
  43:../../lpc11cx4-library/lpc_chip_11cxx_lib/inc/sysctl_11xx.h **** 
  44:../../lpc11cx4-library/lpc_chip_11cxx_lib/inc/sysctl_11xx.h **** /**
  45:../../lpc11cx4-library/lpc_chip_11cxx_lib/inc/sysctl_11xx.h ****  * @brief LPC11XX System Control block structure
  46:../../lpc11cx4-library/lpc_chip_11cxx_lib/inc/sysctl_11xx.h ****  */
  47:../../lpc11cx4-library/lpc_chip_11cxx_lib/inc/sysctl_11xx.h **** typedef struct {			/*!< SYSCTL Structure */
  48:../../lpc11cx4-library/lpc_chip_11cxx_lib/inc/sysctl_11xx.h **** 	__IO uint32_t  SYSMEMREMAP;		/*!< System Memory remap register */
  49:../../lpc11cx4-library/lpc_chip_11cxx_lib/inc/sysctl_11xx.h **** 	__IO uint32_t  PRESETCTRL;		/*!< Peripheral reset Control register */
  50:../../lpc11cx4-library/lpc_chip_11cxx_lib/inc/sysctl_11xx.h **** 	__IO uint32_t  SYSPLLCTRL;		/*!< System PLL control register */
  51:../../lpc11cx4-library/lpc_chip_11cxx_lib/inc/sysctl_11xx.h **** 	__I  uint32_t  SYSPLLSTAT;		/*!< System PLL status register */
  52:../../lpc11cx4-library/lpc_chip_11cxx_lib/inc/sysctl_11xx.h **** 	__IO uint32_t  USBPLLCTRL;		/*!< USB PLL control register, LPC11UXX only*/
  53:../../lpc11cx4-library/lpc_chip_11cxx_lib/inc/sysctl_11xx.h **** 	__I  uint32_t  USBPLLSTAT;		/*!< USB PLL status register, LPC11UXX only */
  54:../../lpc11cx4-library/lpc_chip_11cxx_lib/inc/sysctl_11xx.h **** 	__I  uint32_t  RESERVED1[2];
  55:../../lpc11cx4-library/lpc_chip_11cxx_lib/inc/sysctl_11xx.h **** 	__IO uint32_t  SYSOSCCTRL;		/*!< System Oscillator control register */
  56:../../lpc11cx4-library/lpc_chip_11cxx_lib/inc/sysctl_11xx.h **** 	__IO uint32_t  WDTOSCCTRL;		/*!< Watchdog Oscillator control register */
  57:../../lpc11cx4-library/lpc_chip_11cxx_lib/inc/sysctl_11xx.h **** 	__IO uint32_t  IRCCTRL;			/*!< IRC control register, not on LPC11UXX and LPC11EXX */
  58:../../lpc11cx4-library/lpc_chip_11cxx_lib/inc/sysctl_11xx.h **** 	__IO uint32_t  LFOSCCTRL;		/*!< LF oscillator control, LPC11AXX only */
  59:../../lpc11cx4-library/lpc_chip_11cxx_lib/inc/sysctl_11xx.h **** 	__IO uint32_t  SYSRSTSTAT;		/*!< System Reset Status register           */
  60:../../lpc11cx4-library/lpc_chip_11cxx_lib/inc/sysctl_11xx.h **** 	__I  uint32_t  RESERVED2[3];
  61:../../lpc11cx4-library/lpc_chip_11cxx_lib/inc/sysctl_11xx.h **** 	__IO uint32_t  SYSPLLCLKSEL;	/*!< System PLL clock source select register */
  62:../../lpc11cx4-library/lpc_chip_11cxx_lib/inc/sysctl_11xx.h **** 	__IO uint32_t  SYSPLLCLKUEN;	/*!< System PLL clock source update enable register*/
  63:../../lpc11cx4-library/lpc_chip_11cxx_lib/inc/sysctl_11xx.h **** 	__IO uint32_t  USBPLLCLKSEL;	/*!< USB PLL clock source select register, LPC11UXX only */
  64:../../lpc11cx4-library/lpc_chip_11cxx_lib/inc/sysctl_11xx.h **** 	__IO uint32_t  USBPLLCLKUEN;	/*!< USB PLL clock source update enable register, LPC11UXX only */
  65:../../lpc11cx4-library/lpc_chip_11cxx_lib/inc/sysctl_11xx.h **** 	__I  uint32_t  RESERVED3[8];
  66:../../lpc11cx4-library/lpc_chip_11cxx_lib/inc/sysctl_11xx.h **** 	__IO uint32_t  MAINCLKSEL;	/*!< Main clock source select register		*/
  67:../../lpc11cx4-library/lpc_chip_11cxx_lib/inc/sysctl_11xx.h **** 	__IO uint32_t  MAINCLKUEN;	/*!< Main clock source update enable register	*/
  68:../../lpc11cx4-library/lpc_chip_11cxx_lib/inc/sysctl_11xx.h **** 	__IO uint32_t  SYSAHBCLKDIV;	/*!< System Clock divider register */
  69:../../lpc11cx4-library/lpc_chip_11cxx_lib/inc/sysctl_11xx.h **** 	__I  uint32_t  RESERVED4;
  70:../../lpc11cx4-library/lpc_chip_11cxx_lib/inc/sysctl_11xx.h **** 	__IO uint32_t  SYSAHBCLKCTRL;	/*!< System clock control register */
  71:../../lpc11cx4-library/lpc_chip_11cxx_lib/inc/sysctl_11xx.h **** 	__I  uint32_t  RESERVED5[4];
  72:../../lpc11cx4-library/lpc_chip_11cxx_lib/inc/sysctl_11xx.h **** 	__IO uint32_t  SSP0CLKDIV;	/*!< SSP0 clock divider register   */
  73:../../lpc11cx4-library/lpc_chip_11cxx_lib/inc/sysctl_11xx.h **** 	__IO uint32_t  USARTCLKDIV;	/*!< UART clock divider register   */
  74:../../lpc11cx4-library/lpc_chip_11cxx_lib/inc/sysctl_11xx.h **** 	__IO uint32_t  SSP1CLKDIV;	/*!< SSP1 clock divider register, not on CHIP_LPC110X, CHIP_LPC11XXLV *
  75:../../lpc11cx4-library/lpc_chip_11cxx_lib/inc/sysctl_11xx.h **** 	__I  uint32_t  RESERVED6[8];
  76:../../lpc11cx4-library/lpc_chip_11cxx_lib/inc/sysctl_11xx.h **** 	__IO uint32_t  USBCLKSEL;	/*!< USB clock source select register, LPC11UXX only */
  77:../../lpc11cx4-library/lpc_chip_11cxx_lib/inc/sysctl_11xx.h **** 	__IO uint32_t  USBCLKUEN;	/*!< USB clock source update enable register, LPC11UXX only */
  78:../../lpc11cx4-library/lpc_chip_11cxx_lib/inc/sysctl_11xx.h **** 	__IO uint32_t  USBCLKDIV;	/*!< USB clock source divider register, LPC11UXX only */
  79:../../lpc11cx4-library/lpc_chip_11cxx_lib/inc/sysctl_11xx.h **** 	__I  uint32_t  RESERVED7;
  80:../../lpc11cx4-library/lpc_chip_11cxx_lib/inc/sysctl_11xx.h **** 	__IO uint32_t  WDTCLKSEL;	/*!< WDT clock source select register, some parts only */
  81:../../lpc11cx4-library/lpc_chip_11cxx_lib/inc/sysctl_11xx.h **** 	__IO uint32_t  WDTCLKUEN;	/*!< WDT clock source update enable register, some parts only */
  82:../../lpc11cx4-library/lpc_chip_11cxx_lib/inc/sysctl_11xx.h **** 	__IO uint32_t  WDTCLKDIV;	/*!< WDT clock divider register, some parts only */
  83:../../lpc11cx4-library/lpc_chip_11cxx_lib/inc/sysctl_11xx.h **** 	__I  uint32_t  RESERVED8;
  84:../../lpc11cx4-library/lpc_chip_11cxx_lib/inc/sysctl_11xx.h **** 	__IO uint32_t  CLKOUTSEL;	/*!< Clock out source select register, not on LPC1102/04 */
ARM GAS  /tmp/ccGKa4GA.s 			page 73


  85:../../lpc11cx4-library/lpc_chip_11cxx_lib/inc/sysctl_11xx.h **** 	__IO uint32_t  CLKOUTUEN;	/*!< Clock out source update enable register, not on LPC1102/04 */
  86:../../lpc11cx4-library/lpc_chip_11cxx_lib/inc/sysctl_11xx.h **** 	__IO uint32_t  CLKOUTDIV;	/*!< Clock out divider register, not on LPC1102/04 */
  87:../../lpc11cx4-library/lpc_chip_11cxx_lib/inc/sysctl_11xx.h **** 	__I  uint32_t  RESERVED9[5];
  88:../../lpc11cx4-library/lpc_chip_11cxx_lib/inc/sysctl_11xx.h **** 	__I  uint32_t  PIOPORCAP[2];/*!< POR captured PIO status registers, index 1 on LPC1102/04 */
  89:../../lpc11cx4-library/lpc_chip_11cxx_lib/inc/sysctl_11xx.h **** 	__I  uint32_t  RESERVED10[18];
  90:../../lpc11cx4-library/lpc_chip_11cxx_lib/inc/sysctl_11xx.h **** 	__IO uint32_t  BODCTRL;		/*!< Brown Out Detect register */
  91:../../lpc11cx4-library/lpc_chip_11cxx_lib/inc/sysctl_11xx.h **** 	__IO uint32_t  SYSTCKCAL;	/*!< System tick counter calibration register */
  92:../../lpc11cx4-library/lpc_chip_11cxx_lib/inc/sysctl_11xx.h **** 	__I  uint32_t  RESERVED11[6];
  93:../../lpc11cx4-library/lpc_chip_11cxx_lib/inc/sysctl_11xx.h **** 	__IO uint32_t  IRQLATENCY;	/*!< IRQ delay register, on LPC11UXX and LPC11EXX only */
  94:../../lpc11cx4-library/lpc_chip_11cxx_lib/inc/sysctl_11xx.h **** 	__IO uint32_t  NMISRC;		/*!< NMI source control register,some parts only */
  95:../../lpc11cx4-library/lpc_chip_11cxx_lib/inc/sysctl_11xx.h **** 	__IO uint32_t  PINTSEL[8];	/*!< GPIO pin interrupt select register 0-7, not on CHIP_LPC110X, CHIP_
  96:../../lpc11cx4-library/lpc_chip_11cxx_lib/inc/sysctl_11xx.h **** 	__IO uint32_t  USBCLKCTRL;	/*!< USB clock control register, LPC11UXX only */
  97:../../lpc11cx4-library/lpc_chip_11cxx_lib/inc/sysctl_11xx.h **** 	__I  uint32_t  USBCLKST;	/*!< USB clock status register, LPC11UXX only */
  98:../../lpc11cx4-library/lpc_chip_11cxx_lib/inc/sysctl_11xx.h **** 	__I  uint32_t  RESERVED12[24];
  99:../../lpc11cx4-library/lpc_chip_11cxx_lib/inc/sysctl_11xx.h **** 	__IO uint32_t  STARTAPRP0;	/*!< Start loigc 0 interrupt wake up enable register 0, on CHIP_LPC110X
 100:../../lpc11cx4-library/lpc_chip_11cxx_lib/inc/sysctl_11xx.h **** 	__IO uint32_t  STARTERP0;	/*!< Start loigc signal enable register 0, not on LPC11AXX */
 101:../../lpc11cx4-library/lpc_chip_11cxx_lib/inc/sysctl_11xx.h **** 	__IO uint32_t  STARTRSRP0CLR;	/*!< Start loigc reset register 0, on CHIP_LPC110X, CHIP_LPC11XXLV, 
 102:../../lpc11cx4-library/lpc_chip_11cxx_lib/inc/sysctl_11xx.h **** 	__IO uint32_t  STARTSRP0;		/*!< Start loigc status register 0, on CHIP_LPC110X, CHIP_LPC11XXLV, CH
 103:../../lpc11cx4-library/lpc_chip_11cxx_lib/inc/sysctl_11xx.h **** 	__I  uint32_t  RESERVED13;
 104:../../lpc11cx4-library/lpc_chip_11cxx_lib/inc/sysctl_11xx.h **** 	__IO uint32_t  STARTERP1;	/*!< Start logic 1 interrupt wake up enable register 1, on LPC11UXX and 
 105:../../lpc11cx4-library/lpc_chip_11cxx_lib/inc/sysctl_11xx.h **** 	__I  uint32_t  RESERVED14[6];
 106:../../lpc11cx4-library/lpc_chip_11cxx_lib/inc/sysctl_11xx.h **** 	__IO uint32_t  PDSLEEPCFG;	/*!< Power down states in deep sleep mode register, not on LPC11AXX */
 107:../../lpc11cx4-library/lpc_chip_11cxx_lib/inc/sysctl_11xx.h **** 	__IO uint32_t  PDWAKECFG;	/*!< Power down states in wake up from deep sleep register, not on LPC11
 108:../../lpc11cx4-library/lpc_chip_11cxx_lib/inc/sysctl_11xx.h **** 	__IO uint32_t  PDRUNCFG;	/*!< Power configuration register*/
 109:../../lpc11cx4-library/lpc_chip_11cxx_lib/inc/sysctl_11xx.h **** 	__I  uint32_t  RESERVED15[110];
 110:../../lpc11cx4-library/lpc_chip_11cxx_lib/inc/sysctl_11xx.h **** 	__I  uint32_t  DEVICEID;	/*!< Device ID register */
 111:../../lpc11cx4-library/lpc_chip_11cxx_lib/inc/sysctl_11xx.h **** } LPC_SYSCTL_T;
 112:../../lpc11cx4-library/lpc_chip_11cxx_lib/inc/sysctl_11xx.h **** 
 113:../../lpc11cx4-library/lpc_chip_11cxx_lib/inc/sysctl_11xx.h **** /**
 114:../../lpc11cx4-library/lpc_chip_11cxx_lib/inc/sysctl_11xx.h ****  * System memory remap modes used to remap interrupt vectors
 115:../../lpc11cx4-library/lpc_chip_11cxx_lib/inc/sysctl_11xx.h ****  */
 116:../../lpc11cx4-library/lpc_chip_11cxx_lib/inc/sysctl_11xx.h **** typedef enum CHIP_SYSCTL_BOOT_MODE_REMAP {
 117:../../lpc11cx4-library/lpc_chip_11cxx_lib/inc/sysctl_11xx.h **** 	REMAP_BOOT_LOADER_MODE,	/*!< Interrupt vectors are re-mapped to Boot ROM */
 118:../../lpc11cx4-library/lpc_chip_11cxx_lib/inc/sysctl_11xx.h **** 	REMAP_USER_RAM_MODE,	/*!< Interrupt vectors are re-mapped to Static RAM */
 119:../../lpc11cx4-library/lpc_chip_11cxx_lib/inc/sysctl_11xx.h **** 	REMAP_USER_FLASH_MODE	/*!< Interrupt vectors are not re-mapped and reside in Flash */
 120:../../lpc11cx4-library/lpc_chip_11cxx_lib/inc/sysctl_11xx.h **** } CHIP_SYSCTL_BOOT_MODE_REMAP_T;
 121:../../lpc11cx4-library/lpc_chip_11cxx_lib/inc/sysctl_11xx.h **** 
 122:../../lpc11cx4-library/lpc_chip_11cxx_lib/inc/sysctl_11xx.h **** /**
 123:../../lpc11cx4-library/lpc_chip_11cxx_lib/inc/sysctl_11xx.h ****  * @brief	Re-map interrupt vectors
 124:../../lpc11cx4-library/lpc_chip_11cxx_lib/inc/sysctl_11xx.h ****  * @param	remap	: system memory map value
 125:../../lpc11cx4-library/lpc_chip_11cxx_lib/inc/sysctl_11xx.h ****  * @return	Nothing
 126:../../lpc11cx4-library/lpc_chip_11cxx_lib/inc/sysctl_11xx.h ****  */
 127:../../lpc11cx4-library/lpc_chip_11cxx_lib/inc/sysctl_11xx.h **** STATIC INLINE void Chip_SYSCTL_Map(CHIP_SYSCTL_BOOT_MODE_REMAP_T remap)
 128:../../lpc11cx4-library/lpc_chip_11cxx_lib/inc/sysctl_11xx.h **** {
 129:../../lpc11cx4-library/lpc_chip_11cxx_lib/inc/sysctl_11xx.h **** 	LPC_SYSCTL->SYSMEMREMAP = (uint32_t) remap;
 130:../../lpc11cx4-library/lpc_chip_11cxx_lib/inc/sysctl_11xx.h **** }
 131:../../lpc11cx4-library/lpc_chip_11cxx_lib/inc/sysctl_11xx.h **** 
 132:../../lpc11cx4-library/lpc_chip_11cxx_lib/inc/sysctl_11xx.h **** /**
 133:../../lpc11cx4-library/lpc_chip_11cxx_lib/inc/sysctl_11xx.h ****  * Peripheral reset identifiers, not available on all devices
 134:../../lpc11cx4-library/lpc_chip_11cxx_lib/inc/sysctl_11xx.h ****  */
 135:../../lpc11cx4-library/lpc_chip_11cxx_lib/inc/sysctl_11xx.h **** typedef enum {
 136:../../lpc11cx4-library/lpc_chip_11cxx_lib/inc/sysctl_11xx.h **** 	RESET_SSP0,			/*!< SSP0 reset control */
 137:../../lpc11cx4-library/lpc_chip_11cxx_lib/inc/sysctl_11xx.h **** 	RESET_I2C0,			/*!< I2C0 reset control */
 138:../../lpc11cx4-library/lpc_chip_11cxx_lib/inc/sysctl_11xx.h **** 	RESET_SSP1,			/*!< SSP1 reset control */
 139:../../lpc11cx4-library/lpc_chip_11cxx_lib/inc/sysctl_11xx.h **** #if !defined(CHIP_LPC1125)
 140:../../lpc11cx4-library/lpc_chip_11cxx_lib/inc/sysctl_11xx.h **** 	RESET_CAN0,			/*!< CAN0 reset control */
 141:../../lpc11cx4-library/lpc_chip_11cxx_lib/inc/sysctl_11xx.h **** 	RESET_UART0,		/*!< UART0 reset control */
ARM GAS  /tmp/ccGKa4GA.s 			page 74


 142:../../lpc11cx4-library/lpc_chip_11cxx_lib/inc/sysctl_11xx.h **** 	RESET_TIMER0_16,	/*!< 16-bit Timer 0 reset control */
 143:../../lpc11cx4-library/lpc_chip_11cxx_lib/inc/sysctl_11xx.h **** 	RESET_TIMER1_16,	/*!< 16-bit Timer 1 reset control */
 144:../../lpc11cx4-library/lpc_chip_11cxx_lib/inc/sysctl_11xx.h **** 	RESET_TIMER0_32,	/*!< 32-bit Timer 0 reset control */
 145:../../lpc11cx4-library/lpc_chip_11cxx_lib/inc/sysctl_11xx.h **** 	RESET_TIMER1_32,	/*!< 32-bit Timer 1 reset control */
 146:../../lpc11cx4-library/lpc_chip_11cxx_lib/inc/sysctl_11xx.h **** 	RESET_ACMP,			/*!< Analog comparator reset control */
 147:../../lpc11cx4-library/lpc_chip_11cxx_lib/inc/sysctl_11xx.h **** 	RESET_DAC0,			/*!< DAC reset control */
 148:../../lpc11cx4-library/lpc_chip_11cxx_lib/inc/sysctl_11xx.h **** 	RESET_ADC0			/*!< ADC reset control */
 149:../../lpc11cx4-library/lpc_chip_11cxx_lib/inc/sysctl_11xx.h **** #endif
 150:../../lpc11cx4-library/lpc_chip_11cxx_lib/inc/sysctl_11xx.h **** } CHIP_SYSCTL_PERIPH_RESET_T;
 151:../../lpc11cx4-library/lpc_chip_11cxx_lib/inc/sysctl_11xx.h **** 
 152:../../lpc11cx4-library/lpc_chip_11cxx_lib/inc/sysctl_11xx.h **** /**
 153:../../lpc11cx4-library/lpc_chip_11cxx_lib/inc/sysctl_11xx.h ****  * @brief	Assert reset for a peripheral
 154:../../lpc11cx4-library/lpc_chip_11cxx_lib/inc/sysctl_11xx.h ****  * @param	periph	: Peripheral to assert reset for
 155:../../lpc11cx4-library/lpc_chip_11cxx_lib/inc/sysctl_11xx.h ****  * @return	Nothing
 156:../../lpc11cx4-library/lpc_chip_11cxx_lib/inc/sysctl_11xx.h ****  * @note	The peripheral will stay in reset until reset is de-asserted. Call
 157:../../lpc11cx4-library/lpc_chip_11cxx_lib/inc/sysctl_11xx.h ****  * Chip_SYSCTL_DeassertPeriphReset() to de-assert the reset.
 158:../../lpc11cx4-library/lpc_chip_11cxx_lib/inc/sysctl_11xx.h ****  */
 159:../../lpc11cx4-library/lpc_chip_11cxx_lib/inc/sysctl_11xx.h **** STATIC INLINE void Chip_SYSCTL_AssertPeriphReset(CHIP_SYSCTL_PERIPH_RESET_T periph)
 160:../../lpc11cx4-library/lpc_chip_11cxx_lib/inc/sysctl_11xx.h **** {
 161:../../lpc11cx4-library/lpc_chip_11cxx_lib/inc/sysctl_11xx.h **** 	LPC_SYSCTL->PRESETCTRL &= ~(1 << (uint32_t) periph);
 2487              		.loc 4 161 0
 2488 0020 114B     		ldr	r3, .L281+4	@ tmp127,
 2489              	.LBE630:
 2490              	.LBE629:
 2491              	.LBE628:
 485:../../lpc11cx4-library/lpc_chip_11cxx_lib/src/ssp_11xx.c **** 	Chip_Clock_EnablePeriphClock(Chip_SSP_GetClockIndex(pSSP));
 486:../../lpc11cx4-library/lpc_chip_11cxx_lib/src/ssp_11xx.c **** 	Chip_SSP_SetSSPClkDivider(pSSP, 1);
 487:../../lpc11cx4-library/lpc_chip_11cxx_lib/src/ssp_11xx.c **** 	Chip_SYSCTL_PeriphReset(Chip_SSP_GetResetIndex(pSSP));
 488:../../lpc11cx4-library/lpc_chip_11cxx_lib/src/ssp_11xx.c **** 
 489:../../lpc11cx4-library/lpc_chip_11cxx_lib/src/ssp_11xx.c **** 	Chip_SSP_Set_Mode(pSSP, SSP_MODE_MASTER);
 490:../../lpc11cx4-library/lpc_chip_11cxx_lib/src/ssp_11xx.c **** 	Chip_SSP_SetFormat(pSSP, SSP_BITS_8, SSP_FRAMEFORMAT_SPI, SSP_CLOCK_CPHA0_CPOL0);
 491:../../lpc11cx4-library/lpc_chip_11cxx_lib/src/ssp_11xx.c **** 	Chip_SSP_SetBitRate(pSSP, 100000);
 492:../../lpc11cx4-library/lpc_chip_11cxx_lib/src/ssp_11xx.c **** }
 2492              		.loc 1 492 0
 2493              		@ sp needed	@
 2494              	.LBB635:
 2495              	.LBB632:
 2496              	.LBB631:
 2497              		.loc 4 161 0
 2498 0022 5C68     		ldr	r4, [r3, #4]	@ _9, MEM[(struct LPC_SYSCTL_T *)1074036736B].PRESETCTRL
 2499 0024 2240     		ands	r2, r4	@ _14, _9
 2500 0026 5A60     		str	r2, [r3, #4]	@ _14, MEM[(struct LPC_SYSCTL_T *)1074036736B].PRESETCTRL
 2501              	.LBE631:
 2502              	.LBE632:
 2503              	.LBB633:
 2504              	.LBB634:
 162:../../lpc11cx4-library/lpc_chip_11cxx_lib/inc/sysctl_11xx.h **** }
 163:../../lpc11cx4-library/lpc_chip_11cxx_lib/inc/sysctl_11xx.h **** 
 164:../../lpc11cx4-library/lpc_chip_11cxx_lib/inc/sysctl_11xx.h **** /**
 165:../../lpc11cx4-library/lpc_chip_11cxx_lib/inc/sysctl_11xx.h ****  * @brief	De-assert reset for a peripheral
 166:../../lpc11cx4-library/lpc_chip_11cxx_lib/inc/sysctl_11xx.h ****  * @param	periph	: Peripheral to de-assert reset for
 167:../../lpc11cx4-library/lpc_chip_11cxx_lib/inc/sysctl_11xx.h ****  * @return	Nothing
 168:../../lpc11cx4-library/lpc_chip_11cxx_lib/inc/sysctl_11xx.h ****  */
 169:../../lpc11cx4-library/lpc_chip_11cxx_lib/inc/sysctl_11xx.h **** STATIC INLINE void Chip_SYSCTL_DeassertPeriphReset(CHIP_SYSCTL_PERIPH_RESET_T periph)
 170:../../lpc11cx4-library/lpc_chip_11cxx_lib/inc/sysctl_11xx.h **** {
 171:../../lpc11cx4-library/lpc_chip_11cxx_lib/inc/sysctl_11xx.h **** 	LPC_SYSCTL->PRESETCTRL |= (1 << (uint32_t) periph);
 2505              		.loc 4 171 0
ARM GAS  /tmp/ccGKa4GA.s 			page 75


 2506 0028 5A68     		ldr	r2, [r3, #4]	@ _15, MEM[(struct LPC_SYSCTL_T *)1074036736B].PRESETCTRL
 2507 002a 0A43     		orrs	r2, r1	@ _17, prephitmp_50
 2508 002c 5A60     		str	r2, [r3, #4]	@ _17, MEM[(struct LPC_SYSCTL_T *)1074036736B].PRESETCTRL
 2509              	.LVL242:
 2510              	.LBE634:
 2511              	.LBE633:
 2512              	.LBE635:
 2513              	.LBB636:
 2514              	.LBB637:
 2515              		.loc 2 421 0
 2516 002e 0422     		movs	r2, #4	@ tmp131,
 2517 0030 4368     		ldr	r3, [r0, #4]	@ _7, pSSP_2(D)->CR1
 2518              	.LBE637:
 2519              	.LBE636:
 491:../../lpc11cx4-library/lpc_chip_11cxx_lib/src/ssp_11xx.c **** }
 2520              		.loc 1 491 0
 2521 0032 0E49     		ldr	r1, .L281+8	@,
 2522              	.LBB639:
 2523              	.LBB638:
 2524              		.loc 2 421 0
 2525 0034 9343     		bics	r3, r2	@ _8, tmp131
 2526 0036 4360     		str	r3, [r0, #4]	@ _8, pSSP_2(D)->CR1
 2527              	.LVL243:
 2528              	.LBE638:
 2529              	.LBE639:
 2530              	.LBB640:
 2531              	.LBB641:
 408:../../lpc11cx4-library/lpc_chip_11cxx_lib/inc/ssp_11xx.h **** }
 2532              		.loc 2 408 0
 2533 0038 0368     		ldr	r3, [r0]	@ _4, pSSP_2(D)->CR0
 2534 003a FB32     		adds	r2, r2, #251	@ tmp133,
 2535 003c 9343     		bics	r3, r2	@ tmp132, tmp133
 2536 003e F83A     		subs	r2, r2, #248	@ tmp134,
 2537 0040 1343     		orrs	r3, r2	@ _6, tmp134
 2538 0042 0360     		str	r3, [r0]	@ _6, pSSP_2(D)->CR0
 2539              	.LVL244:
 2540              	.LBE641:
 2541              	.LBE640:
 491:../../lpc11cx4-library/lpc_chip_11cxx_lib/src/ssp_11xx.c **** }
 2542              		.loc 1 491 0
 2543 0044 FFF7FEFF 		bl	Chip_SSP_SetBitRate	@
 2544              	.LVL245:
 2545              		.loc 1 492 0
 2546 0048 10BD     		pop	{r4, pc}
 2547              	.LVL246:
 2548              	.L280:
 2549              	.LBB642:
 2550              	.LBB622:
 297:../../lpc11cx4-library/lpc_chip_11cxx_lib/inc/clock_11xx.h **** }
 2551              		.loc 3 297 0
 2552 004a 8021     		movs	r1, #128	@ tmp137,
 2553 004c 8022     		movs	r2, #128	@ tmp138,
 2554 004e 064B     		ldr	r3, .L281+4	@ tmp136,
 2555 0050 1201     		lsls	r2, r2, #4	@ tmp138, tmp138,
 2556 0052 5C58     		ldr	r4, [r3, r1]	@ _41, MEM[(struct LPC_SYSCTL_T *)1074036736B].SYSAHBCLKCTRL
 2557 0054 2243     		orrs	r2, r4	@ _45, _41
 2558 0056 5A50     		str	r2, [r3, r1]	@ _45, MEM[(struct LPC_SYSCTL_T *)1074036736B].SYSAHBCLKCTRL
ARM GAS  /tmp/ccGKa4GA.s 			page 76


 2559              	.LVL247:
 2560              	.LBE622:
 2561              	.LBE642:
 2562              	.LBB643:
 2563              	.LBB626:
 2564              	.LBB627:
 319:../../lpc11cx4-library/lpc_chip_11cxx_lib/inc/clock_11xx.h **** }
 2565              		.loc 3 319 0
 2566 0058 9422     		movs	r2, #148	@ tmp142,
 2567 005a 7F39     		subs	r1, r1, #127	@ tmp143,
 2568 005c 9950     		str	r1, [r3, r2]	@ tmp143, MEM[(struct LPC_SYSCTL_T *)1074036736B].SSP0CLKDIV
 2569              	.LVL248:
 2570 005e 963A     		subs	r2, r2, #150	@ prephitmp_49,
 2571 0060 DEE7     		b	.L276	@
 2572              	.L282:
 2573 0062 C046     		.align	2
 2574              	.L281:
 2575 0064 00000440 		.word	1074003968
 2576 0068 00800440 		.word	1074036736
 2577 006c A0860100 		.word	100000
 2578              	.LBE627:
 2579              	.LBE626:
 2580              	.LBE643:
 2581              		.cfi_endproc
 2582              	.LFE215:
 2583              		.size	Chip_SSP_Init, .-Chip_SSP_Init
 2584              		.section	.text.Chip_SSP_DeInit,"ax",%progbits
 2585              		.align	1
 2586              		.p2align 2,,3
 2587              		.global	Chip_SSP_DeInit
 2588              		.syntax unified
 2589              		.code	16
 2590              		.thumb_func
 2591              		.fpu softvfp
 2592              		.type	Chip_SSP_DeInit, %function
 2593              	Chip_SSP_DeInit:
 2594              	.LFB216:
 493:../../lpc11cx4-library/lpc_chip_11cxx_lib/src/ssp_11xx.c **** 
 494:../../lpc11cx4-library/lpc_chip_11cxx_lib/src/ssp_11xx.c **** /* De-initializes the SSP peripheral */
 495:../../lpc11cx4-library/lpc_chip_11cxx_lib/src/ssp_11xx.c **** void Chip_SSP_DeInit(LPC_SSP_T *pSSP)
 496:../../lpc11cx4-library/lpc_chip_11cxx_lib/src/ssp_11xx.c **** {
 2595              		.loc 1 496 0
 2596              		.cfi_startproc
 2597              		@ args = 0, pretend = 0, frame = 0
 2598              		@ frame_needed = 0, uses_anonymous_args = 0
 2599              		@ link register save eliminated.
 2600              	.LVL249:
 2601              	.LBB644:
 2602              	.LBB645:
 244:../../lpc11cx4-library/lpc_chip_11cxx_lib/inc/ssp_11xx.h **** }
 2603              		.loc 2 244 0
 2604 0000 0D23     		movs	r3, #13	@ tmp117,
 2605 0002 4268     		ldr	r2, [r0, #4]	@ _10, pSSP_2(D)->CR1
 2606 0004 1340     		ands	r3, r2	@ _11, _10
 2607 0006 4360     		str	r3, [r0, #4]	@ _11, pSSP_2(D)->CR1
 2608              	.LVL250:
 2609              	.LBE645:
ARM GAS  /tmp/ccGKa4GA.s 			page 77


 2610              	.LBE644:
 2611              	.LBB646:
 2612              	.LBB647:
 109:../../lpc11cx4-library/lpc_chip_11cxx_lib/src/ssp_11xx.c **** 		clkSSP = SYSCTL_CLOCK_SSP0;
 2613              		.loc 1 109 0
 2614 0008 0B4B     		ldr	r3, .L289	@ tmp118,
 2615 000a 9842     		cmp	r0, r3	@ pSSP, tmp118
 2616 000c 09D0     		beq	.L288	@,
 2617              	.LVL251:
 2618              	.LBE647:
 2619              	.LBE646:
 2620              	.LBB648:
 2621              	.LBB649:
 307:../../lpc11cx4-library/lpc_chip_11cxx_lib/inc/clock_11xx.h **** }
 2622              		.loc 3 307 0
 2623 000e 8021     		movs	r1, #128	@ tmp128,
 2624 0010 0A4B     		ldr	r3, .L289+4	@ tmp127,
 2625 0012 0B48     		ldr	r0, .L289+8	@ tmp129,
 2626              	.LVL252:
 2627 0014 5A58     		ldr	r2, [r3, r1]	@ _29,
 2628 0016 0240     		ands	r2, r0	@ _34, tmp129
 2629 0018 5A50     		str	r2, [r3, r1]	@ _34, MEM[(struct LPC_SYSCTL_T *)1074036736B].SYSAHBCLKCTRL
 2630              	.LVL253:
 2631              	.LBE649:
 2632              	.LBE648:
 2633              	.LBB651:
 2634              	.LBB652:
 2635              	.LBB653:
 364:../../lpc11cx4-library/lpc_chip_11cxx_lib/inc/clock_11xx.h **** }
 2636              		.loc 3 364 0
 2637 001a 0021     		movs	r1, #0	@ tmp134,
 2638 001c 9C22     		movs	r2, #156	@ tmp133,
 2639 001e 9950     		str	r1, [r3, r2]	@ tmp134,
 2640              	.LVL254:
 2641              	.L283:
 2642              	.LBE653:
 2643              	.LBE652:
 2644              	.LBE651:
 497:../../lpc11cx4-library/lpc_chip_11cxx_lib/src/ssp_11xx.c **** 	Chip_SSP_Disable(pSSP);
 498:../../lpc11cx4-library/lpc_chip_11cxx_lib/src/ssp_11xx.c **** 
 499:../../lpc11cx4-library/lpc_chip_11cxx_lib/src/ssp_11xx.c **** 	Chip_Clock_DisablePeriphClock(Chip_SSP_GetClockIndex(pSSP));
 500:../../lpc11cx4-library/lpc_chip_11cxx_lib/src/ssp_11xx.c **** 	Chip_SSP_SetSSPClkDivider(pSSP, 0);
 501:../../lpc11cx4-library/lpc_chip_11cxx_lib/src/ssp_11xx.c **** }
 2645              		.loc 1 501 0
 2646              		@ sp needed	@
 2647 0020 7047     		bx	lr
 2648              	.LVL255:
 2649              	.L288:
 2650              	.LBB656:
 2651              	.LBB650:
 307:../../lpc11cx4-library/lpc_chip_11cxx_lib/inc/clock_11xx.h **** }
 2652              		.loc 3 307 0
 2653 0022 8021     		movs	r1, #128	@ tmp120,
 2654 0024 054B     		ldr	r3, .L289+4	@ tmp119,
 2655 0026 0748     		ldr	r0, .L289+12	@ tmp121,
 2656              	.LVL256:
 2657 0028 5A58     		ldr	r2, [r3, r1]	@ _21,
ARM GAS  /tmp/ccGKa4GA.s 			page 78


 2658 002a 0240     		ands	r2, r0	@ _26, tmp121
 2659 002c 5A50     		str	r2, [r3, r1]	@ _26, MEM[(struct LPC_SYSCTL_T *)1074036736B].SYSAHBCLKCTRL
 2660              	.LVL257:
 2661              	.LBE650:
 2662              	.LBE656:
 2663              	.LBB657:
 2664              	.LBB654:
 2665              	.LBB655:
 319:../../lpc11cx4-library/lpc_chip_11cxx_lib/inc/clock_11xx.h **** }
 2666              		.loc 3 319 0
 2667 002e 0021     		movs	r1, #0	@ tmp126,
 2668 0030 9422     		movs	r2, #148	@ tmp125,
 2669 0032 9950     		str	r1, [r3, r2]	@ tmp126,
 2670 0034 F4E7     		b	.L283	@
 2671              	.L290:
 2672 0036 C046     		.align	2
 2673              	.L289:
 2674 0038 00000440 		.word	1074003968
 2675 003c 00800440 		.word	1074036736
 2676 0040 FFFFFBFF 		.word	-262145
 2677 0044 FFF7FFFF 		.word	-2049
 2678              	.LBE655:
 2679              	.LBE654:
 2680              	.LBE657:
 2681              		.cfi_endproc
 2682              	.LFE216:
 2683              		.size	Chip_SSP_DeInit, .-Chip_SSP_DeInit
 2684              		.text
 2685              	.Letext0:
 2686              		.file 5 "/usr/arm-none-eabi/include/machine/_default_types.h"
 2687              		.file 6 "/usr/arm-none-eabi/include/sys/_stdint.h"
 2688              		.file 7 "../../lpc11cx4-library/lpc_chip_11cxx_lib/inc/lpc_types.h"
 2689              		.file 8 "../../lpc11cx4-library/lpc_chip_11cxx_lib/inc/chip.h"
 2690              		.section	.debug_info,"",%progbits
 2691              	.Ldebug_info0:
 2692 0000 661D0000 		.4byte	0x1d66
 2693 0004 0400     		.2byte	0x4
 2694 0006 00000000 		.4byte	.Ldebug_abbrev0
 2695 000a 04       		.byte	0x4
 2696 000b 01       		.uleb128 0x1
 2697 000c D4300000 		.4byte	.LASF1318
 2698 0010 01       		.byte	0x1
 2699 0011 DD540000 		.4byte	.LASF1319
 2700 0015 9C260000 		.4byte	.LASF1320
 2701 0019 88070000 		.4byte	.Ldebug_ranges0+0x788
 2702 001d 00000000 		.4byte	0
 2703 0021 00000000 		.4byte	.Ldebug_line0
 2704 0025 00000000 		.4byte	.Ldebug_macro0
 2705 0029 02       		.uleb128 0x2
 2706 002a 04       		.byte	0x4
 2707 002b 07       		.byte	0x7
 2708 002c 3D4B0000 		.4byte	.LASF1072
 2709 0030 02       		.uleb128 0x2
 2710 0031 01       		.byte	0x1
 2711 0032 06       		.byte	0x6
 2712 0033 A81B0000 		.4byte	.LASF1073
 2713 0037 03       		.uleb128 0x3
ARM GAS  /tmp/ccGKa4GA.s 			page 79


 2714 0038 F50F0000 		.4byte	.LASF1076
 2715 003c 05       		.byte	0x5
 2716 003d 2B       		.byte	0x2b
 2717 003e 42000000 		.4byte	0x42
 2718 0042 02       		.uleb128 0x2
 2719 0043 01       		.byte	0x1
 2720 0044 08       		.byte	0x8
 2721 0045 9E1E0000 		.4byte	.LASF1074
 2722 0049 02       		.uleb128 0x2
 2723 004a 02       		.byte	0x2
 2724 004b 05       		.byte	0x5
 2725 004c 306C0000 		.4byte	.LASF1075
 2726 0050 03       		.uleb128 0x3
 2727 0051 76260000 		.4byte	.LASF1077
 2728 0055 05       		.byte	0x5
 2729 0056 39       		.byte	0x39
 2730 0057 5B000000 		.4byte	0x5b
 2731 005b 02       		.uleb128 0x2
 2732 005c 02       		.byte	0x2
 2733 005d 07       		.byte	0x7
 2734 005e 467A0000 		.4byte	.LASF1078
 2735 0062 02       		.uleb128 0x2
 2736 0063 04       		.byte	0x4
 2737 0064 05       		.byte	0x5
 2738 0065 27140000 		.4byte	.LASF1079
 2739 0069 03       		.uleb128 0x3
 2740 006a 97420000 		.4byte	.LASF1080
 2741 006e 05       		.byte	0x5
 2742 006f 4F       		.byte	0x4f
 2743 0070 74000000 		.4byte	0x74
 2744 0074 02       		.uleb128 0x2
 2745 0075 04       		.byte	0x4
 2746 0076 07       		.byte	0x7
 2747 0077 96380000 		.4byte	.LASF1081
 2748 007b 02       		.uleb128 0x2
 2749 007c 08       		.byte	0x8
 2750 007d 05       		.byte	0x5
 2751 007e F9420000 		.4byte	.LASF1082
 2752 0082 02       		.uleb128 0x2
 2753 0083 08       		.byte	0x8
 2754 0084 07       		.byte	0x7
 2755 0085 A75C0000 		.4byte	.LASF1083
 2756 0089 04       		.uleb128 0x4
 2757 008a 04       		.byte	0x4
 2758 008b 05       		.byte	0x5
 2759 008c 696E7400 		.ascii	"int\000"
 2760 0090 03       		.uleb128 0x3
 2761 0091 E11B0000 		.4byte	.LASF1084
 2762 0095 06       		.byte	0x6
 2763 0096 18       		.byte	0x18
 2764 0097 37000000 		.4byte	0x37
 2765 009b 03       		.uleb128 0x3
 2766 009c C15D0000 		.4byte	.LASF1085
 2767 00a0 06       		.byte	0x6
 2768 00a1 24       		.byte	0x24
 2769 00a2 50000000 		.4byte	0x50
 2770 00a6 03       		.uleb128 0x3
ARM GAS  /tmp/ccGKa4GA.s 			page 80


 2771 00a7 1E770000 		.4byte	.LASF1086
 2772 00ab 06       		.byte	0x6
 2773 00ac 30       		.byte	0x30
 2774 00ad 69000000 		.4byte	0x69
 2775 00b1 05       		.uleb128 0x5
 2776 00b2 A6000000 		.4byte	0xa6
 2777 00b6 06       		.uleb128 0x6
 2778 00b7 B1000000 		.4byte	0xb1
 2779 00bb 06       		.uleb128 0x6
 2780 00bc A6000000 		.4byte	0xa6
 2781 00c0 07       		.uleb128 0x7
 2782 00c1 01       		.byte	0x1
 2783 00c2 42000000 		.4byte	0x42
 2784 00c6 07       		.byte	0x7
 2785 00c7 3E       		.byte	0x3e
 2786 00c8 D9000000 		.4byte	0xd9
 2787 00cc 08       		.uleb128 0x8
 2788 00cd 14640000 		.4byte	.LASF1087
 2789 00d1 00       		.byte	0
 2790 00d2 09       		.uleb128 0x9
 2791 00d3 53455400 		.ascii	"SET\000"
 2792 00d7 01       		.byte	0x1
 2793 00d8 00       		.byte	0
 2794 00d9 03       		.uleb128 0x3
 2795 00da 6A660000 		.4byte	.LASF1088
 2796 00de 07       		.byte	0x7
 2797 00df 3E       		.byte	0x3e
 2798 00e0 C0000000 		.4byte	0xc0
 2799 00e4 03       		.uleb128 0x3
 2800 00e5 1E740000 		.4byte	.LASF1089
 2801 00e9 07       		.byte	0x7
 2802 00ea 3E       		.byte	0x3e
 2803 00eb C0000000 		.4byte	0xc0
 2804 00ef 07       		.uleb128 0x7
 2805 00f0 01       		.byte	0x1
 2806 00f1 42000000 		.4byte	0x42
 2807 00f5 07       		.byte	0x7
 2808 00f6 4A       		.byte	0x4a
 2809 00f7 08010000 		.4byte	0x108
 2810 00fb 08       		.uleb128 0x8
 2811 00fc 1B3E0000 		.4byte	.LASF1090
 2812 0100 00       		.byte	0
 2813 0101 08       		.uleb128 0x8
 2814 0102 A9610000 		.4byte	.LASF1091
 2815 0106 01       		.byte	0x1
 2816 0107 00       		.byte	0
 2817 0108 03       		.uleb128 0x3
 2818 0109 C4410000 		.4byte	.LASF1092
 2819 010d 07       		.byte	0x7
 2820 010e 4A       		.byte	0x4a
 2821 010f EF000000 		.4byte	0xef
 2822 0113 02       		.uleb128 0x2
 2823 0114 01       		.byte	0x1
 2824 0115 08       		.byte	0x8
 2825 0116 98230000 		.4byte	.LASF407
 2826 011a 02       		.uleb128 0x2
 2827 011b 01       		.byte	0x1
ARM GAS  /tmp/ccGKa4GA.s 			page 81


 2828 011c 02       		.byte	0x2
 2829 011d 24220000 		.4byte	.LASF1093
 2830 0121 02       		.uleb128 0x2
 2831 0122 04       		.byte	0x4
 2832 0123 07       		.byte	0x7
 2833 0124 CB010000 		.4byte	.LASF1094
 2834 0128 0A       		.uleb128 0xa
 2835 0129 B1000000 		.4byte	0xb1
 2836 012d 38010000 		.4byte	0x138
 2837 0131 0B       		.uleb128 0xb
 2838 0132 21010000 		.4byte	0x121
 2839 0136 07       		.byte	0x7
 2840 0137 00       		.byte	0
 2841 0138 05       		.uleb128 0x5
 2842 0139 28010000 		.4byte	0x128
 2843 013d 0C       		.uleb128 0xc
 2844 013e 045A0000 		.4byte	.LASF1095
 2845 0142 08       		.byte	0x8
 2846 0143 D4       		.byte	0xd4
 2847 0144 BB000000 		.4byte	0xbb
 2848 0148 0C       		.uleb128 0xc
 2849 0149 D4110000 		.4byte	.LASF1096
 2850 014d 08       		.byte	0x8
 2851 014e E3       		.byte	0xe3
 2852 014f BB000000 		.4byte	0xbb
 2853 0153 0A       		.uleb128 0xa
 2854 0154 B6000000 		.4byte	0xb6
 2855 0158 63010000 		.4byte	0x163
 2856 015c 0B       		.uleb128 0xb
 2857 015d 21010000 		.4byte	0x121
 2858 0161 03       		.byte	0x3
 2859 0162 00       		.byte	0
 2860 0163 06       		.uleb128 0x6
 2861 0164 53010000 		.4byte	0x153
 2862 0168 05       		.uleb128 0x5
 2863 0169 63010000 		.4byte	0x163
 2864 016d 0A       		.uleb128 0xa
 2865 016e B6000000 		.4byte	0xb6
 2866 0172 7D010000 		.4byte	0x17d
 2867 0176 0B       		.uleb128 0xb
 2868 0177 21010000 		.4byte	0x121
 2869 017b 02       		.byte	0x2
 2870 017c 00       		.byte	0
 2871 017d 06       		.uleb128 0x6
 2872 017e 6D010000 		.4byte	0x16d
 2873 0182 05       		.uleb128 0x5
 2874 0183 7D010000 		.4byte	0x17d
 2875 0187 0D       		.uleb128 0xd
 2876 0188 F803     		.2byte	0x3f8
 2877 018a 04       		.byte	0x4
 2878 018b 2F       		.byte	0x2f
 2879 018c 9C040000 		.4byte	0x49c
 2880 0190 0E       		.uleb128 0xe
 2881 0191 8D2F0000 		.4byte	.LASF1097
 2882 0195 04       		.byte	0x4
 2883 0196 30       		.byte	0x30
 2884 0197 B1000000 		.4byte	0xb1
ARM GAS  /tmp/ccGKa4GA.s 			page 82


 2885 019b 00       		.byte	0
 2886 019c 0E       		.uleb128 0xe
 2887 019d 24620000 		.4byte	.LASF1098
 2888 01a1 04       		.byte	0x4
 2889 01a2 31       		.byte	0x31
 2890 01a3 B1000000 		.4byte	0xb1
 2891 01a7 04       		.byte	0x4
 2892 01a8 0E       		.uleb128 0xe
 2893 01a9 082F0000 		.4byte	.LASF1099
 2894 01ad 04       		.byte	0x4
 2895 01ae 32       		.byte	0x32
 2896 01af B1000000 		.4byte	0xb1
 2897 01b3 08       		.byte	0x8
 2898 01b4 0E       		.uleb128 0xe
 2899 01b5 B4730000 		.4byte	.LASF1100
 2900 01b9 04       		.byte	0x4
 2901 01ba 33       		.byte	0x33
 2902 01bb B6000000 		.4byte	0xb6
 2903 01bf 0C       		.byte	0xc
 2904 01c0 0E       		.uleb128 0xe
 2905 01c1 9B730000 		.4byte	.LASF1101
 2906 01c5 04       		.byte	0x4
 2907 01c6 34       		.byte	0x34
 2908 01c7 B1000000 		.4byte	0xb1
 2909 01cb 10       		.byte	0x10
 2910 01cc 0E       		.uleb128 0xe
 2911 01cd 27360000 		.4byte	.LASF1102
 2912 01d1 04       		.byte	0x4
 2913 01d2 35       		.byte	0x35
 2914 01d3 B6000000 		.4byte	0xb6
 2915 01d7 14       		.byte	0x14
 2916 01d8 0E       		.uleb128 0xe
 2917 01d9 941E0000 		.4byte	.LASF1103
 2918 01dd 04       		.byte	0x4
 2919 01de 36       		.byte	0x36
 2920 01df B1040000 		.4byte	0x4b1
 2921 01e3 18       		.byte	0x18
 2922 01e4 0E       		.uleb128 0xe
 2923 01e5 6A570000 		.4byte	.LASF1104
 2924 01e9 04       		.byte	0x4
 2925 01ea 37       		.byte	0x37
 2926 01eb B1000000 		.4byte	0xb1
 2927 01ef 20       		.byte	0x20
 2928 01f0 0E       		.uleb128 0xe
 2929 01f1 24790000 		.4byte	.LASF1105
 2930 01f5 04       		.byte	0x4
 2931 01f6 38       		.byte	0x38
 2932 01f7 B1000000 		.4byte	0xb1
 2933 01fb 24       		.byte	0x24
 2934 01fc 0E       		.uleb128 0xe
 2935 01fd 1A610000 		.4byte	.LASF1106
 2936 0201 04       		.byte	0x4
 2937 0202 39       		.byte	0x39
 2938 0203 B1000000 		.4byte	0xb1
 2939 0207 28       		.byte	0x28
 2940 0208 0E       		.uleb128 0xe
 2941 0209 2B6A0000 		.4byte	.LASF1107
ARM GAS  /tmp/ccGKa4GA.s 			page 83


 2942 020d 04       		.byte	0x4
 2943 020e 3A       		.byte	0x3a
 2944 020f B1000000 		.4byte	0xb1
 2945 0213 2C       		.byte	0x2c
 2946 0214 0E       		.uleb128 0xe
 2947 0215 67450000 		.4byte	.LASF1108
 2948 0219 04       		.byte	0x4
 2949 021a 3B       		.byte	0x3b
 2950 021b B1000000 		.4byte	0xb1
 2951 021f 30       		.byte	0x30
 2952 0220 0E       		.uleb128 0xe
 2953 0221 F0220000 		.4byte	.LASF1109
 2954 0225 04       		.byte	0x4
 2955 0226 3C       		.byte	0x3c
 2956 0227 82010000 		.4byte	0x182
 2957 022b 34       		.byte	0x34
 2958 022c 0E       		.uleb128 0xe
 2959 022d 8C150000 		.4byte	.LASF1110
 2960 0231 04       		.byte	0x4
 2961 0232 3D       		.byte	0x3d
 2962 0233 B1000000 		.4byte	0xb1
 2963 0237 40       		.byte	0x40
 2964 0238 0E       		.uleb128 0xe
 2965 0239 964B0000 		.4byte	.LASF1111
 2966 023d 04       		.byte	0x4
 2967 023e 3E       		.byte	0x3e
 2968 023f B1000000 		.4byte	0xb1
 2969 0243 44       		.byte	0x44
 2970 0244 0E       		.uleb128 0xe
 2971 0245 0C1C0000 		.4byte	.LASF1112
 2972 0249 04       		.byte	0x4
 2973 024a 3F       		.byte	0x3f
 2974 024b B1000000 		.4byte	0xb1
 2975 024f 48       		.byte	0x48
 2976 0250 0E       		.uleb128 0xe
 2977 0251 0B520000 		.4byte	.LASF1113
 2978 0255 04       		.byte	0x4
 2979 0256 40       		.byte	0x40
 2980 0257 B1000000 		.4byte	0xb1
 2981 025b 4C       		.byte	0x4c
 2982 025c 0E       		.uleb128 0xe
 2983 025d AC1E0000 		.4byte	.LASF1114
 2984 0261 04       		.byte	0x4
 2985 0262 41       		.byte	0x41
 2986 0263 D0040000 		.4byte	0x4d0
 2987 0267 50       		.byte	0x50
 2988 0268 0E       		.uleb128 0xe
 2989 0269 1A1F0000 		.4byte	.LASF1115
 2990 026d 04       		.byte	0x4
 2991 026e 42       		.byte	0x42
 2992 026f B1000000 		.4byte	0xb1
 2993 0273 70       		.byte	0x70
 2994 0274 0E       		.uleb128 0xe
 2995 0275 02560000 		.4byte	.LASF1116
 2996 0279 04       		.byte	0x4
 2997 027a 43       		.byte	0x43
 2998 027b B1000000 		.4byte	0xb1
ARM GAS  /tmp/ccGKa4GA.s 			page 84


 2999 027f 74       		.byte	0x74
 3000 0280 0E       		.uleb128 0xe
 3001 0281 E94E0000 		.4byte	.LASF1117
 3002 0285 04       		.byte	0x4
 3003 0286 44       		.byte	0x44
 3004 0287 B1000000 		.4byte	0xb1
 3005 028b 78       		.byte	0x78
 3006 028c 0E       		.uleb128 0xe
 3007 028d B61E0000 		.4byte	.LASF1118
 3008 0291 04       		.byte	0x4
 3009 0292 45       		.byte	0x45
 3010 0293 B6000000 		.4byte	0xb6
 3011 0297 7C       		.byte	0x7c
 3012 0298 0E       		.uleb128 0xe
 3013 0299 D4600000 		.4byte	.LASF1119
 3014 029d 04       		.byte	0x4
 3015 029e 46       		.byte	0x46
 3016 029f B1000000 		.4byte	0xb1
 3017 02a3 80       		.byte	0x80
 3018 02a4 0E       		.uleb128 0xe
 3019 02a5 C01E0000 		.4byte	.LASF1120
 3020 02a9 04       		.byte	0x4
 3021 02aa 47       		.byte	0x47
 3022 02ab 68010000 		.4byte	0x168
 3023 02af 84       		.byte	0x84
 3024 02b0 0E       		.uleb128 0xe
 3025 02b1 5E740000 		.4byte	.LASF1121
 3026 02b5 04       		.byte	0x4
 3027 02b6 48       		.byte	0x48
 3028 02b7 B1000000 		.4byte	0xb1
 3029 02bb 94       		.byte	0x94
 3030 02bc 0E       		.uleb128 0xe
 3031 02bd FB230000 		.4byte	.LASF1122
 3032 02c1 04       		.byte	0x4
 3033 02c2 49       		.byte	0x49
 3034 02c3 B1000000 		.4byte	0xb1
 3035 02c7 98       		.byte	0x98
 3036 02c8 0E       		.uleb128 0xe
 3037 02c9 ED790000 		.4byte	.LASF1123
 3038 02cd 04       		.byte	0x4
 3039 02ce 4A       		.byte	0x4a
 3040 02cf B1000000 		.4byte	0xb1
 3041 02d3 9C       		.byte	0x9c
 3042 02d4 0E       		.uleb128 0xe
 3043 02d5 CA1E0000 		.4byte	.LASF1124
 3044 02d9 04       		.byte	0x4
 3045 02da 4B       		.byte	0x4b
 3046 02db D5040000 		.4byte	0x4d5
 3047 02df A0       		.byte	0xa0
 3048 02e0 0E       		.uleb128 0xe
 3049 02e1 EB7D0000 		.4byte	.LASF1125
 3050 02e5 04       		.byte	0x4
 3051 02e6 4C       		.byte	0x4c
 3052 02e7 B1000000 		.4byte	0xb1
 3053 02eb C0       		.byte	0xc0
 3054 02ec 0E       		.uleb128 0xe
 3055 02ed E2310000 		.4byte	.LASF1126
ARM GAS  /tmp/ccGKa4GA.s 			page 85


 3056 02f1 04       		.byte	0x4
 3057 02f2 4D       		.byte	0x4d
 3058 02f3 B1000000 		.4byte	0xb1
 3059 02f7 C4       		.byte	0xc4
 3060 02f8 0E       		.uleb128 0xe
 3061 02f9 5E0A0000 		.4byte	.LASF1127
 3062 02fd 04       		.byte	0x4
 3063 02fe 4E       		.byte	0x4e
 3064 02ff B1000000 		.4byte	0xb1
 3065 0303 C8       		.byte	0xc8
 3066 0304 0E       		.uleb128 0xe
 3067 0305 D41E0000 		.4byte	.LASF1128
 3068 0309 04       		.byte	0x4
 3069 030a 4F       		.byte	0x4f
 3070 030b B6000000 		.4byte	0xb6
 3071 030f CC       		.byte	0xcc
 3072 0310 0E       		.uleb128 0xe
 3073 0311 8D640000 		.4byte	.LASF1129
 3074 0315 04       		.byte	0x4
 3075 0316 50       		.byte	0x50
 3076 0317 B1000000 		.4byte	0xb1
 3077 031b D0       		.byte	0xd0
 3078 031c 0E       		.uleb128 0xe
 3079 031d A9150000 		.4byte	.LASF1130
 3080 0321 04       		.byte	0x4
 3081 0322 51       		.byte	0x51
 3082 0323 B1000000 		.4byte	0xb1
 3083 0327 D4       		.byte	0xd4
 3084 0328 0E       		.uleb128 0xe
 3085 0329 FF720000 		.4byte	.LASF1131
 3086 032d 04       		.byte	0x4
 3087 032e 52       		.byte	0x52
 3088 032f B1000000 		.4byte	0xb1
 3089 0333 D8       		.byte	0xd8
 3090 0334 0E       		.uleb128 0xe
 3091 0335 DE1E0000 		.4byte	.LASF1132
 3092 0339 04       		.byte	0x4
 3093 033a 53       		.byte	0x53
 3094 033b B6000000 		.4byte	0xb6
 3095 033f DC       		.byte	0xdc
 3096 0340 0E       		.uleb128 0xe
 3097 0341 B16B0000 		.4byte	.LASF1133
 3098 0345 04       		.byte	0x4
 3099 0346 54       		.byte	0x54
 3100 0347 B1000000 		.4byte	0xb1
 3101 034b E0       		.byte	0xe0
 3102 034c 0E       		.uleb128 0xe
 3103 034d AB1C0000 		.4byte	.LASF1134
 3104 0351 04       		.byte	0x4
 3105 0352 55       		.byte	0x55
 3106 0353 B1000000 		.4byte	0xb1
 3107 0357 E4       		.byte	0xe4
 3108 0358 0E       		.uleb128 0xe
 3109 0359 64790000 		.4byte	.LASF1135
 3110 035d 04       		.byte	0x4
 3111 035e 56       		.byte	0x56
 3112 035f B1000000 		.4byte	0xb1
ARM GAS  /tmp/ccGKa4GA.s 			page 86


 3113 0363 E8       		.byte	0xe8
 3114 0364 0E       		.uleb128 0xe
 3115 0365 E81E0000 		.4byte	.LASF1136
 3116 0369 04       		.byte	0x4
 3117 036a 57       		.byte	0x57
 3118 036b EF040000 		.4byte	0x4ef
 3119 036f EC       		.byte	0xec
 3120 0370 0F       		.uleb128 0xf
 3121 0371 E3140000 		.4byte	.LASF1137
 3122 0375 04       		.byte	0x4
 3123 0376 58       		.byte	0x58
 3124 0377 B6040000 		.4byte	0x4b6
 3125 037b 0001     		.2byte	0x100
 3126 037d 0F       		.uleb128 0xf
 3127 037e 565F0000 		.4byte	.LASF1138
 3128 0382 04       		.byte	0x4
 3129 0383 59       		.byte	0x59
 3130 0384 09050000 		.4byte	0x509
 3131 0388 0801     		.2byte	0x108
 3132 038a 0F       		.uleb128 0xf
 3133 038b 89060000 		.4byte	.LASF1139
 3134 038f 04       		.byte	0x4
 3135 0390 5A       		.byte	0x5a
 3136 0391 B1000000 		.4byte	0xb1
 3137 0395 5001     		.2byte	0x150
 3138 0397 0F       		.uleb128 0xf
 3139 0398 5B7D0000 		.4byte	.LASF1140
 3140 039c 04       		.byte	0x4
 3141 039d 5B       		.byte	0x5b
 3142 039e B1000000 		.4byte	0xb1
 3143 03a2 5401     		.2byte	0x154
 3144 03a4 0F       		.uleb128 0xf
 3145 03a5 615F0000 		.4byte	.LASF1141
 3146 03a9 04       		.byte	0x4
 3147 03aa 5C       		.byte	0x5c
 3148 03ab 23050000 		.4byte	0x523
 3149 03af 5801     		.2byte	0x158
 3150 03b1 0F       		.uleb128 0xf
 3151 03b2 79350000 		.4byte	.LASF1142
 3152 03b6 04       		.byte	0x4
 3153 03b7 5D       		.byte	0x5d
 3154 03b8 B1000000 		.4byte	0xb1
 3155 03bc 7001     		.2byte	0x170
 3156 03be 0F       		.uleb128 0xf
 3157 03bf 07710000 		.4byte	.LASF1143
 3158 03c3 04       		.byte	0x4
 3159 03c4 5E       		.byte	0x5e
 3160 03c5 B1000000 		.4byte	0xb1
 3161 03c9 7401     		.2byte	0x174
 3162 03cb 0F       		.uleb128 0xf
 3163 03cc 2A120000 		.4byte	.LASF1144
 3164 03d0 04       		.byte	0x4
 3165 03d1 5F       		.byte	0x5f
 3166 03d2 38010000 		.4byte	0x138
 3167 03d6 7801     		.2byte	0x178
 3168 03d8 0F       		.uleb128 0xf
 3169 03d9 EB320000 		.4byte	.LASF1145
ARM GAS  /tmp/ccGKa4GA.s 			page 87


 3170 03dd 04       		.byte	0x4
 3171 03de 60       		.byte	0x60
 3172 03df B1000000 		.4byte	0xb1
 3173 03e3 9801     		.2byte	0x198
 3174 03e5 0F       		.uleb128 0xf
 3175 03e6 1B620000 		.4byte	.LASF1146
 3176 03ea 04       		.byte	0x4
 3177 03eb 61       		.byte	0x61
 3178 03ec B6000000 		.4byte	0xb6
 3179 03f0 9C01     		.2byte	0x19c
 3180 03f2 0F       		.uleb128 0xf
 3181 03f3 6C5F0000 		.4byte	.LASF1147
 3182 03f7 04       		.byte	0x4
 3183 03f8 62       		.byte	0x62
 3184 03f9 42050000 		.4byte	0x542
 3185 03fd A001     		.2byte	0x1a0
 3186 03ff 0F       		.uleb128 0xf
 3187 0400 DE500000 		.4byte	.LASF1148
 3188 0404 04       		.byte	0x4
 3189 0405 63       		.byte	0x63
 3190 0406 B1000000 		.4byte	0xb1
 3191 040a 0002     		.2byte	0x200
 3192 040c 0F       		.uleb128 0xf
 3193 040d 776E0000 		.4byte	.LASF1149
 3194 0411 04       		.byte	0x4
 3195 0412 64       		.byte	0x64
 3196 0413 B1000000 		.4byte	0xb1
 3197 0417 0402     		.2byte	0x204
 3198 0419 0F       		.uleb128 0xf
 3199 041a A6730000 		.4byte	.LASF1150
 3200 041e 04       		.byte	0x4
 3201 041f 65       		.byte	0x65
 3202 0420 B1000000 		.4byte	0xb1
 3203 0424 0802     		.2byte	0x208
 3204 0426 0F       		.uleb128 0xf
 3205 0427 65770000 		.4byte	.LASF1151
 3206 042b 04       		.byte	0x4
 3207 042c 66       		.byte	0x66
 3208 042d B1000000 		.4byte	0xb1
 3209 0431 0C02     		.2byte	0x20c
 3210 0433 0F       		.uleb128 0xf
 3211 0434 775F0000 		.4byte	.LASF1152
 3212 0438 04       		.byte	0x4
 3213 0439 67       		.byte	0x67
 3214 043a B6000000 		.4byte	0xb6
 3215 043e 1002     		.2byte	0x210
 3216 0440 0F       		.uleb128 0xf
 3217 0441 816E0000 		.4byte	.LASF1153
 3218 0445 04       		.byte	0x4
 3219 0446 68       		.byte	0x68
 3220 0447 B1000000 		.4byte	0xb1
 3221 044b 1402     		.2byte	0x214
 3222 044d 0F       		.uleb128 0xf
 3223 044e 825F0000 		.4byte	.LASF1154
 3224 0452 04       		.byte	0x4
 3225 0453 69       		.byte	0x69
 3226 0454 28050000 		.4byte	0x528
ARM GAS  /tmp/ccGKa4GA.s 			page 88


 3227 0458 1802     		.2byte	0x218
 3228 045a 0F       		.uleb128 0xf
 3229 045b 7E4F0000 		.4byte	.LASF1155
 3230 045f 04       		.byte	0x4
 3231 0460 6A       		.byte	0x6a
 3232 0461 B1000000 		.4byte	0xb1
 3233 0465 3002     		.2byte	0x230
 3234 0467 0F       		.uleb128 0xf
 3235 0468 03620000 		.4byte	.LASF1156
 3236 046c 04       		.byte	0x4
 3237 046d 6B       		.byte	0x6b
 3238 046e B1000000 		.4byte	0xb1
 3239 0472 3402     		.2byte	0x234
 3240 0474 0F       		.uleb128 0xf
 3241 0475 931A0000 		.4byte	.LASF1157
 3242 0479 04       		.byte	0x4
 3243 047a 6C       		.byte	0x6c
 3244 047b B1000000 		.4byte	0xb1
 3245 047f 3802     		.2byte	0x238
 3246 0481 0F       		.uleb128 0xf
 3247 0482 8D5F0000 		.4byte	.LASF1158
 3248 0486 04       		.byte	0x4
 3249 0487 6D       		.byte	0x6d
 3250 0488 5C050000 		.4byte	0x55c
 3251 048c 3C02     		.2byte	0x23c
 3252 048e 0F       		.uleb128 0xf
 3253 048f 366B0000 		.4byte	.LASF1159
 3254 0493 04       		.byte	0x4
 3255 0494 6E       		.byte	0x6e
 3256 0495 B6000000 		.4byte	0xb6
 3257 0499 F403     		.2byte	0x3f4
 3258 049b 00       		.byte	0
 3259 049c 0A       		.uleb128 0xa
 3260 049d B6000000 		.4byte	0xb6
 3261 04a1 AC040000 		.4byte	0x4ac
 3262 04a5 0B       		.uleb128 0xb
 3263 04a6 21010000 		.4byte	0x121
 3264 04aa 01       		.byte	0x1
 3265 04ab 00       		.byte	0
 3266 04ac 06       		.uleb128 0x6
 3267 04ad 9C040000 		.4byte	0x49c
 3268 04b1 05       		.uleb128 0x5
 3269 04b2 AC040000 		.4byte	0x4ac
 3270 04b6 05       		.uleb128 0x5
 3271 04b7 AC040000 		.4byte	0x4ac
 3272 04bb 0A       		.uleb128 0xa
 3273 04bc B6000000 		.4byte	0xb6
 3274 04c0 CB040000 		.4byte	0x4cb
 3275 04c4 0B       		.uleb128 0xb
 3276 04c5 21010000 		.4byte	0x121
 3277 04c9 07       		.byte	0x7
 3278 04ca 00       		.byte	0
 3279 04cb 06       		.uleb128 0x6
 3280 04cc BB040000 		.4byte	0x4bb
 3281 04d0 05       		.uleb128 0x5
 3282 04d1 CB040000 		.4byte	0x4cb
 3283 04d5 05       		.uleb128 0x5
ARM GAS  /tmp/ccGKa4GA.s 			page 89


 3284 04d6 CB040000 		.4byte	0x4cb
 3285 04da 0A       		.uleb128 0xa
 3286 04db B6000000 		.4byte	0xb6
 3287 04df EA040000 		.4byte	0x4ea
 3288 04e3 0B       		.uleb128 0xb
 3289 04e4 21010000 		.4byte	0x121
 3290 04e8 04       		.byte	0x4
 3291 04e9 00       		.byte	0
 3292 04ea 06       		.uleb128 0x6
 3293 04eb DA040000 		.4byte	0x4da
 3294 04ef 05       		.uleb128 0x5
 3295 04f0 EA040000 		.4byte	0x4ea
 3296 04f4 0A       		.uleb128 0xa
 3297 04f5 B6000000 		.4byte	0xb6
 3298 04f9 04050000 		.4byte	0x504
 3299 04fd 0B       		.uleb128 0xb
 3300 04fe 21010000 		.4byte	0x121
 3301 0502 11       		.byte	0x11
 3302 0503 00       		.byte	0
 3303 0504 06       		.uleb128 0x6
 3304 0505 F4040000 		.4byte	0x4f4
 3305 0509 05       		.uleb128 0x5
 3306 050a 04050000 		.4byte	0x504
 3307 050e 0A       		.uleb128 0xa
 3308 050f B6000000 		.4byte	0xb6
 3309 0513 1E050000 		.4byte	0x51e
 3310 0517 0B       		.uleb128 0xb
 3311 0518 21010000 		.4byte	0x121
 3312 051c 05       		.byte	0x5
 3313 051d 00       		.byte	0
 3314 051e 06       		.uleb128 0x6
 3315 051f 0E050000 		.4byte	0x50e
 3316 0523 05       		.uleb128 0x5
 3317 0524 1E050000 		.4byte	0x51e
 3318 0528 05       		.uleb128 0x5
 3319 0529 1E050000 		.4byte	0x51e
 3320 052d 0A       		.uleb128 0xa
 3321 052e B6000000 		.4byte	0xb6
 3322 0532 3D050000 		.4byte	0x53d
 3323 0536 0B       		.uleb128 0xb
 3324 0537 21010000 		.4byte	0x121
 3325 053b 17       		.byte	0x17
 3326 053c 00       		.byte	0
 3327 053d 06       		.uleb128 0x6
 3328 053e 2D050000 		.4byte	0x52d
 3329 0542 05       		.uleb128 0x5
 3330 0543 3D050000 		.4byte	0x53d
 3331 0547 0A       		.uleb128 0xa
 3332 0548 B6000000 		.4byte	0xb6
 3333 054c 57050000 		.4byte	0x557
 3334 0550 0B       		.uleb128 0xb
 3335 0551 21010000 		.4byte	0x121
 3336 0555 6D       		.byte	0x6d
 3337 0556 00       		.byte	0
 3338 0557 06       		.uleb128 0x6
 3339 0558 47050000 		.4byte	0x547
 3340 055c 05       		.uleb128 0x5
ARM GAS  /tmp/ccGKa4GA.s 			page 90


 3341 055d 57050000 		.4byte	0x557
 3342 0561 03       		.uleb128 0x3
 3343 0562 59100000 		.4byte	.LASF1160
 3344 0566 04       		.byte	0x4
 3345 0567 6F       		.byte	0x6f
 3346 0568 87010000 		.4byte	0x187
 3347 056c 07       		.uleb128 0x7
 3348 056d 01       		.byte	0x1
 3349 056e 42000000 		.4byte	0x42
 3350 0572 04       		.byte	0x4
 3351 0573 87       		.byte	0x87
 3352 0574 C1050000 		.4byte	0x5c1
 3353 0578 08       		.uleb128 0x8
 3354 0579 65800000 		.4byte	.LASF1161
 3355 057d 00       		.byte	0
 3356 057e 08       		.uleb128 0x8
 3357 057f E6700000 		.4byte	.LASF1162
 3358 0583 01       		.byte	0x1
 3359 0584 08       		.uleb128 0x8
 3360 0585 70800000 		.4byte	.LASF1163
 3361 0589 02       		.byte	0x2
 3362 058a 08       		.uleb128 0x8
 3363 058b A1090000 		.4byte	.LASF1164
 3364 058f 03       		.byte	0x3
 3365 0590 08       		.uleb128 0x8
 3366 0591 AC0E0000 		.4byte	.LASF1165
 3367 0595 04       		.byte	0x4
 3368 0596 08       		.uleb128 0x8
 3369 0597 27770000 		.4byte	.LASF1166
 3370 059b 05       		.byte	0x5
 3371 059c 08       		.uleb128 0x8
 3372 059d 81370000 		.4byte	.LASF1167
 3373 05a1 06       		.byte	0x6
 3374 05a2 08       		.uleb128 0x8
 3375 05a3 AD7E0000 		.4byte	.LASF1168
 3376 05a7 07       		.byte	0x7
 3377 05a8 08       		.uleb128 0x8
 3378 05a9 3E400000 		.4byte	.LASF1169
 3379 05ad 08       		.byte	0x8
 3380 05ae 08       		.uleb128 0x8
 3381 05af 6F4E0000 		.4byte	.LASF1170
 3382 05b3 09       		.byte	0x9
 3383 05b4 08       		.uleb128 0x8
 3384 05b5 992F0000 		.4byte	.LASF1171
 3385 05b9 0A       		.byte	0xa
 3386 05ba 08       		.uleb128 0x8
 3387 05bb E53B0000 		.4byte	.LASF1172
 3388 05bf 0B       		.byte	0xb
 3389 05c0 00       		.byte	0
 3390 05c1 03       		.uleb128 0x3
 3391 05c2 DE4A0000 		.4byte	.LASF1173
 3392 05c6 04       		.byte	0x4
 3393 05c7 96       		.byte	0x96
 3394 05c8 6C050000 		.4byte	0x56c
 3395 05cc 10       		.uleb128 0x10
 3396 05cd 093E0000 		.4byte	.LASF1197
 3397 05d1 01       		.byte	0x1
ARM GAS  /tmp/ccGKa4GA.s 			page 91


 3398 05d2 42000000 		.4byte	0x42
 3399 05d6 03       		.byte	0x3
 3400 05d7 E4       		.byte	0xe4
 3401 05d8 4F060000 		.4byte	0x64f
 3402 05dc 08       		.uleb128 0x8
 3403 05dd B4000000 		.4byte	.LASF1174
 3404 05e1 00       		.byte	0
 3405 05e2 08       		.uleb128 0x8
 3406 05e3 2D400000 		.4byte	.LASF1175
 3407 05e7 01       		.byte	0x1
 3408 05e8 08       		.uleb128 0x8
 3409 05e9 A8010000 		.4byte	.LASF1176
 3410 05ed 02       		.byte	0x2
 3411 05ee 08       		.uleb128 0x8
 3412 05ef 8C590000 		.4byte	.LASF1177
 3413 05f3 03       		.byte	0x3
 3414 05f4 08       		.uleb128 0x8
 3415 05f5 B0340000 		.4byte	.LASF1178
 3416 05f9 04       		.byte	0x4
 3417 05fa 08       		.uleb128 0x8
 3418 05fb EC5D0000 		.4byte	.LASF1179
 3419 05ff 05       		.byte	0x5
 3420 0600 08       		.uleb128 0x8
 3421 0601 67350000 		.4byte	.LASF1180
 3422 0605 06       		.byte	0x6
 3423 0606 08       		.uleb128 0x8
 3424 0607 0A770000 		.4byte	.LASF1181
 3425 060b 07       		.byte	0x7
 3426 060c 08       		.uleb128 0x8
 3427 060d 5E070000 		.4byte	.LASF1182
 3428 0611 08       		.byte	0x8
 3429 0612 08       		.uleb128 0x8
 3430 0613 260E0000 		.4byte	.LASF1183
 3431 0617 09       		.byte	0x9
 3432 0618 08       		.uleb128 0x8
 3433 0619 3A0E0000 		.4byte	.LASF1184
 3434 061d 0A       		.byte	0xa
 3435 061e 08       		.uleb128 0x8
 3436 061f 57240000 		.4byte	.LASF1185
 3437 0623 0B       		.byte	0xb
 3438 0624 08       		.uleb128 0x8
 3439 0625 D95D0000 		.4byte	.LASF1186
 3440 0629 0C       		.byte	0xc
 3441 062a 08       		.uleb128 0x8
 3442 062b 465B0000 		.4byte	.LASF1187
 3443 062f 0D       		.byte	0xd
 3444 0630 08       		.uleb128 0x8
 3445 0631 325D0000 		.4byte	.LASF1188
 3446 0635 0E       		.byte	0xe
 3447 0636 08       		.uleb128 0x8
 3448 0637 B40F0000 		.4byte	.LASF1189
 3449 063b 0F       		.byte	0xf
 3450 063c 08       		.uleb128 0x8
 3451 063d 393E0000 		.4byte	.LASF1190
 3452 0641 10       		.byte	0x10
 3453 0642 08       		.uleb128 0x8
 3454 0643 FC800000 		.4byte	.LASF1191
ARM GAS  /tmp/ccGKa4GA.s 			page 92


 3455 0647 11       		.byte	0x11
 3456 0648 08       		.uleb128 0x8
 3457 0649 69240000 		.4byte	.LASF1192
 3458 064d 12       		.byte	0x12
 3459 064e 00       		.byte	0
 3460 064f 11       		.uleb128 0x11
 3461 0650 5F060000 		.4byte	.LASF1193
 3462 0654 03       		.byte	0x3
 3463 0655 2001     		.2byte	0x120
 3464 0657 CC050000 		.4byte	0x5cc
 3465 065b 12       		.uleb128 0x12
 3466 065c 04       		.byte	0x4
 3467 065d 13       		.uleb128 0x13
 3468 065e 24       		.byte	0x24
 3469 065f 02       		.byte	0x2
 3470 0660 2F       		.byte	0x2f
 3471 0661 D0060000 		.4byte	0x6d0
 3472 0665 14       		.uleb128 0x14
 3473 0666 43523000 		.ascii	"CR0\000"
 3474 066a 02       		.byte	0x2
 3475 066b 30       		.byte	0x30
 3476 066c B1000000 		.4byte	0xb1
 3477 0670 00       		.byte	0
 3478 0671 14       		.uleb128 0x14
 3479 0672 43523100 		.ascii	"CR1\000"
 3480 0676 02       		.byte	0x2
 3481 0677 31       		.byte	0x31
 3482 0678 B1000000 		.4byte	0xb1
 3483 067c 04       		.byte	0x4
 3484 067d 14       		.uleb128 0x14
 3485 067e 445200   		.ascii	"DR\000"
 3486 0681 02       		.byte	0x2
 3487 0682 32       		.byte	0x32
 3488 0683 B1000000 		.4byte	0xb1
 3489 0687 08       		.byte	0x8
 3490 0688 14       		.uleb128 0x14
 3491 0689 535200   		.ascii	"SR\000"
 3492 068c 02       		.byte	0x2
 3493 068d 33       		.byte	0x33
 3494 068e B6000000 		.4byte	0xb6
 3495 0692 0C       		.byte	0xc
 3496 0693 0E       		.uleb128 0xe
 3497 0694 68680000 		.4byte	.LASF1194
 3498 0698 02       		.byte	0x2
 3499 0699 34       		.byte	0x34
 3500 069a B1000000 		.4byte	0xb1
 3501 069e 10       		.byte	0x10
 3502 069f 0E       		.uleb128 0xe
 3503 06a0 281C0000 		.4byte	.LASF1195
 3504 06a4 02       		.byte	0x2
 3505 06a5 35       		.byte	0x35
 3506 06a6 B1000000 		.4byte	0xb1
 3507 06aa 14       		.byte	0x14
 3508 06ab 14       		.uleb128 0x14
 3509 06ac 52495300 		.ascii	"RIS\000"
 3510 06b0 02       		.byte	0x2
 3511 06b1 36       		.byte	0x36
ARM GAS  /tmp/ccGKa4GA.s 			page 93


 3512 06b2 B6000000 		.4byte	0xb6
 3513 06b6 18       		.byte	0x18
 3514 06b7 14       		.uleb128 0x14
 3515 06b8 4D495300 		.ascii	"MIS\000"
 3516 06bc 02       		.byte	0x2
 3517 06bd 37       		.byte	0x37
 3518 06be B6000000 		.4byte	0xb6
 3519 06c2 1C       		.byte	0x1c
 3520 06c3 14       		.uleb128 0x14
 3521 06c4 49435200 		.ascii	"ICR\000"
 3522 06c8 02       		.byte	0x2
 3523 06c9 38       		.byte	0x38
 3524 06ca B1000000 		.4byte	0xb1
 3525 06ce 20       		.byte	0x20
 3526 06cf 00       		.byte	0
 3527 06d0 03       		.uleb128 0x3
 3528 06d1 D20B0000 		.4byte	.LASF1196
 3529 06d5 02       		.byte	0x2
 3530 06d6 39       		.byte	0x39
 3531 06d7 5D060000 		.4byte	0x65d
 3532 06db 10       		.uleb128 0x10
 3533 06dc 77210000 		.4byte	.LASF1198
 3534 06e0 01       		.byte	0x1
 3535 06e1 42000000 		.4byte	0x42
 3536 06e5 02       		.byte	0x2
 3537 06e6 81       		.byte	0x81
 3538 06e7 0A070000 		.4byte	0x70a
 3539 06eb 08       		.uleb128 0x8
 3540 06ec F1700000 		.4byte	.LASF1199
 3541 06f0 01       		.byte	0x1
 3542 06f1 08       		.uleb128 0x8
 3543 06f2 050F0000 		.4byte	.LASF1200
 3544 06f6 02       		.byte	0x2
 3545 06f7 08       		.uleb128 0x8
 3546 06f8 AB5F0000 		.4byte	.LASF1201
 3547 06fc 04       		.byte	0x4
 3548 06fd 08       		.uleb128 0x8
 3549 06fe 843D0000 		.4byte	.LASF1202
 3550 0702 08       		.byte	0x8
 3551 0703 08       		.uleb128 0x8
 3552 0704 63590000 		.4byte	.LASF1203
 3553 0708 10       		.byte	0x10
 3554 0709 00       		.byte	0
 3555 070a 03       		.uleb128 0x3
 3556 070b 603A0000 		.4byte	.LASF1204
 3557 070f 02       		.byte	0x2
 3558 0710 87       		.byte	0x87
 3559 0711 DB060000 		.4byte	0x6db
 3560 0715 10       		.uleb128 0x10
 3561 0716 07820000 		.4byte	.LASF1205
 3562 071a 01       		.byte	0x1
 3563 071b 42000000 		.4byte	0x42
 3564 071f 02       		.byte	0x2
 3565 0720 A2       		.byte	0xa2
 3566 0721 44070000 		.4byte	0x744
 3567 0725 08       		.uleb128 0x8
 3568 0726 5E520000 		.4byte	.LASF1206
ARM GAS  /tmp/ccGKa4GA.s 			page 94


 3569 072a 01       		.byte	0x1
 3570 072b 08       		.uleb128 0x8
 3571 072c A5200000 		.4byte	.LASF1207
 3572 0730 02       		.byte	0x2
 3573 0731 08       		.uleb128 0x8
 3574 0732 FA220000 		.4byte	.LASF1208
 3575 0736 04       		.byte	0x4
 3576 0737 08       		.uleb128 0x8
 3577 0738 087D0000 		.4byte	.LASF1209
 3578 073c 08       		.byte	0x8
 3579 073d 08       		.uleb128 0x8
 3580 073e 56190000 		.4byte	.LASF1210
 3581 0742 0F       		.byte	0xf
 3582 0743 00       		.byte	0
 3583 0744 03       		.uleb128 0x3
 3584 0745 6C5A0000 		.4byte	.LASF1211
 3585 0749 02       		.byte	0x2
 3586 074a A8       		.byte	0xa8
 3587 074b 15070000 		.4byte	0x715
 3588 074f 10       		.uleb128 0x10
 3589 0750 EE210000 		.4byte	.LASF1212
 3590 0754 01       		.byte	0x1
 3591 0755 42000000 		.4byte	0x42
 3592 0759 02       		.byte	0x2
 3593 075a AA       		.byte	0xaa
 3594 075b 72070000 		.4byte	0x772
 3595 075f 08       		.uleb128 0x8
 3596 0760 DF460000 		.4byte	.LASF1213
 3597 0764 00       		.byte	0
 3598 0765 08       		.uleb128 0x8
 3599 0766 F6720000 		.4byte	.LASF1214
 3600 076a 01       		.byte	0x1
 3601 076b 08       		.uleb128 0x8
 3602 076c 73180000 		.4byte	.LASF1215
 3603 0770 03       		.byte	0x3
 3604 0771 00       		.byte	0
 3605 0772 03       		.uleb128 0x3
 3606 0773 7E790000 		.4byte	.LASF1216
 3607 0777 02       		.byte	0x2
 3608 0778 AE       		.byte	0xae
 3609 0779 4F070000 		.4byte	0x74f
 3610 077d 10       		.uleb128 0x10
 3611 077e EC2B0000 		.4byte	.LASF1217
 3612 0782 01       		.byte	0x1
 3613 0783 42000000 		.4byte	0x42
 3614 0787 02       		.byte	0x2
 3615 0788 B3       		.byte	0xb3
 3616 0789 BE070000 		.4byte	0x7be
 3617 078d 08       		.uleb128 0x8
 3618 078e 352E0000 		.4byte	.LASF1218
 3619 0792 00       		.byte	0
 3620 0793 08       		.uleb128 0x8
 3621 0794 4B2E0000 		.4byte	.LASF1219
 3622 0798 40       		.byte	0x40
 3623 0799 08       		.uleb128 0x8
 3624 079a 304D0000 		.4byte	.LASF1220
 3625 079e 80       		.byte	0x80
ARM GAS  /tmp/ccGKa4GA.s 			page 95


 3626 079f 08       		.uleb128 0x8
 3627 07a0 464D0000 		.4byte	.LASF1221
 3628 07a4 C0       		.byte	0xc0
 3629 07a5 08       		.uleb128 0x8
 3630 07a6 E82E0000 		.4byte	.LASF1222
 3631 07aa 00       		.byte	0
 3632 07ab 08       		.uleb128 0x8
 3633 07ac F82E0000 		.4byte	.LASF1223
 3634 07b0 80       		.byte	0x80
 3635 07b1 08       		.uleb128 0x8
 3636 07b2 BC050000 		.4byte	.LASF1224
 3637 07b6 40       		.byte	0x40
 3638 07b7 08       		.uleb128 0x8
 3639 07b8 132F0000 		.4byte	.LASF1225
 3640 07bc C0       		.byte	0xc0
 3641 07bd 00       		.byte	0
 3642 07be 10       		.uleb128 0x10
 3643 07bf 47090000 		.4byte	.LASF1226
 3644 07c3 01       		.byte	0x1
 3645 07c4 42000000 		.4byte	0x42
 3646 07c8 02       		.byte	0x2
 3647 07c9 C1       		.byte	0xc1
 3648 07ca E1070000 		.4byte	0x7e1
 3649 07ce 08       		.uleb128 0x8
 3650 07cf C0600000 		.4byte	.LASF1227
 3651 07d3 00       		.byte	0
 3652 07d4 08       		.uleb128 0x8
 3653 07d5 852E0000 		.4byte	.LASF1228
 3654 07d9 10       		.byte	0x10
 3655 07da 08       		.uleb128 0x8
 3656 07db 2A670000 		.4byte	.LASF1229
 3657 07df 20       		.byte	0x20
 3658 07e0 00       		.byte	0
 3659 07e1 10       		.uleb128 0x10
 3660 07e2 E27C0000 		.4byte	.LASF1230
 3661 07e6 01       		.byte	0x1
 3662 07e7 42000000 		.4byte	0x42
 3663 07eb 02       		.byte	0x2
 3664 07ec CA       		.byte	0xca
 3665 07ed 40080000 		.4byte	0x840
 3666 07f1 08       		.uleb128 0x8
 3667 07f2 FC810000 		.4byte	.LASF1231
 3668 07f6 03       		.byte	0x3
 3669 07f7 08       		.uleb128 0x8
 3670 07f8 251F0000 		.4byte	.LASF1232
 3671 07fc 04       		.byte	0x4
 3672 07fd 08       		.uleb128 0x8
 3673 07fe 19820000 		.4byte	.LASF1233
 3674 0802 05       		.byte	0x5
 3675 0803 08       		.uleb128 0x8
 3676 0804 24820000 		.4byte	.LASF1234
 3677 0808 06       		.byte	0x6
 3678 0809 08       		.uleb128 0x8
 3679 080a 2F820000 		.4byte	.LASF1235
 3680 080e 07       		.byte	0x7
 3681 080f 08       		.uleb128 0x8
 3682 0810 3A820000 		.4byte	.LASF1236
ARM GAS  /tmp/ccGKa4GA.s 			page 96


 3683 0814 08       		.byte	0x8
 3684 0815 08       		.uleb128 0x8
 3685 0816 12670000 		.4byte	.LASF1237
 3686 081a 09       		.byte	0x9
 3687 081b 08       		.uleb128 0x8
 3688 081c 1E670000 		.4byte	.LASF1238
 3689 0820 0A       		.byte	0xa
 3690 0821 08       		.uleb128 0x8
 3691 0822 4A030000 		.4byte	.LASF1239
 3692 0826 0B       		.byte	0xb
 3693 0827 08       		.uleb128 0x8
 3694 0828 44670000 		.4byte	.LASF1240
 3695 082c 0C       		.byte	0xc
 3696 082d 08       		.uleb128 0x8
 3697 082e 50670000 		.4byte	.LASF1241
 3698 0832 0D       		.byte	0xd
 3699 0833 08       		.uleb128 0x8
 3700 0834 5C670000 		.4byte	.LASF1242
 3701 0838 0E       		.byte	0xe
 3702 0839 08       		.uleb128 0x8
 3703 083a 68670000 		.4byte	.LASF1243
 3704 083e 0F       		.byte	0xf
 3705 083f 00       		.byte	0
 3706 0840 15       		.uleb128 0x15
 3707 0841 89180000 		.4byte	.LASF1244
 3708 0845 01       		.byte	0x1
 3709 0846 42000000 		.4byte	0x42
 3710 084a 02       		.byte	0x2
 3711 084b AB01     		.2byte	0x1ab
 3712 084d 5E080000 		.4byte	0x85e
 3713 0851 08       		.uleb128 0x8
 3714 0852 5D140000 		.4byte	.LASF1245
 3715 0856 00       		.byte	0
 3716 0857 08       		.uleb128 0x8
 3717 0858 34810000 		.4byte	.LASF1246
 3718 085c 04       		.byte	0x4
 3719 085d 00       		.byte	0
 3720 085e 16       		.uleb128 0x16
 3721 085f 14       		.byte	0x14
 3722 0860 02       		.byte	0x2
 3723 0861 BB01     		.2byte	0x1bb
 3724 0863 A9080000 		.4byte	0x8a9
 3725 0867 17       		.uleb128 0x17
 3726 0868 8B1A0000 		.4byte	.LASF1247
 3727 086c 02       		.byte	0x2
 3728 086d BC01     		.2byte	0x1bc
 3729 086f 5B060000 		.4byte	0x65b
 3730 0873 00       		.byte	0
 3731 0874 17       		.uleb128 0x17
 3732 0875 7C640000 		.4byte	.LASF1248
 3733 0879 02       		.byte	0x2
 3734 087a BD01     		.2byte	0x1bd
 3735 087c A6000000 		.4byte	0xa6
 3736 0880 04       		.byte	0x4
 3737 0881 17       		.uleb128 0x17
 3738 0882 560D0000 		.4byte	.LASF1249
 3739 0886 02       		.byte	0x2
ARM GAS  /tmp/ccGKa4GA.s 			page 97


 3740 0887 BE01     		.2byte	0x1be
 3741 0889 5B060000 		.4byte	0x65b
 3742 088d 08       		.byte	0x8
 3743 088e 17       		.uleb128 0x17
 3744 088f 06460000 		.4byte	.LASF1250
 3745 0893 02       		.byte	0x2
 3746 0894 BF01     		.2byte	0x1bf
 3747 0896 A6000000 		.4byte	0xa6
 3748 089a 0C       		.byte	0xc
 3749 089b 17       		.uleb128 0x17
 3750 089c BA5D0000 		.4byte	.LASF1251
 3751 08a0 02       		.byte	0x2
 3752 08a1 C001     		.2byte	0x1c0
 3753 08a3 A6000000 		.4byte	0xa6
 3754 08a7 10       		.byte	0x10
 3755 08a8 00       		.byte	0
 3756 08a9 11       		.uleb128 0x11
 3757 08aa 9C570000 		.4byte	.LASF1252
 3758 08ae 02       		.byte	0x2
 3759 08af C101     		.2byte	0x1c1
 3760 08b1 5E080000 		.4byte	0x85e
 3761 08b5 18       		.uleb128 0x18
 3762 08b6 04       		.byte	0x4
 3763 08b7 90000000 		.4byte	0x90
 3764 08bb 19       		.uleb128 0x19
 3765 08bc 503A0000 		.4byte	.LASF1253
 3766 08c0 08       		.byte	0x8
 3767 08c1 1D01     		.2byte	0x11d
 3768 08c3 A6000000 		.4byte	0xa6
 3769 08c7 1A       		.uleb128 0x1a
 3770 08c8 30280000 		.4byte	.LASF1254
 3771 08cc 01       		.byte	0x1
 3772 08cd EF01     		.2byte	0x1ef
 3773 08cf 00000000 		.4byte	.LFB216
 3774 08d3 48000000 		.4byte	.LFE216-.LFB216
 3775 08d7 01       		.uleb128 0x1
 3776 08d8 9C       		.byte	0x9c
 3777 08d9 A9090000 		.4byte	0x9a9
 3778 08dd 1B       		.uleb128 0x1b
 3779 08de 36100000 		.4byte	.LASF1256
 3780 08e2 01       		.byte	0x1
 3781 08e3 EF01     		.2byte	0x1ef
 3782 08e5 A9090000 		.4byte	0x9a9
 3783 08e9 00000000 		.4byte	.LLST164
 3784 08ed 1C       		.uleb128 0x1c
 3785 08ee 471C0000 		.4byte	0x1c47
 3786 08f2 00000000 		.4byte	.LBB644
 3787 08f6 08000000 		.4byte	.LBE644-.LBB644
 3788 08fa 01       		.byte	0x1
 3789 08fb F101     		.2byte	0x1f1
 3790 08fd 0B090000 		.4byte	0x90b
 3791 0901 1D       		.uleb128 0x1d
 3792 0902 531C0000 		.4byte	0x1c53
 3793 0906 3A000000 		.4byte	.LLST165
 3794 090a 00       		.byte	0
 3795 090b 1C       		.uleb128 0x1c
 3796 090c 3E1A0000 		.4byte	0x1a3e
ARM GAS  /tmp/ccGKa4GA.s 			page 98


 3797 0910 08000000 		.4byte	.LBB646
 3798 0914 06000000 		.4byte	.LBE646-.LBB646
 3799 0918 01       		.byte	0x1
 3800 0919 F301     		.2byte	0x1f3
 3801 091b 38090000 		.4byte	0x938
 3802 091f 1D       		.uleb128 0x1d
 3803 0920 4E1A0000 		.4byte	0x1a4e
 3804 0924 4D000000 		.4byte	.LLST166
 3805 0928 1E       		.uleb128 0x1e
 3806 0929 08000000 		.4byte	.LBB647
 3807 092d 06000000 		.4byte	.LBE647-.LBB647
 3808 0931 1F       		.uleb128 0x1f
 3809 0932 591A0000 		.4byte	0x1a59
 3810 0936 00       		.byte	0
 3811 0937 00       		.byte	0
 3812 0938 20       		.uleb128 0x20
 3813 0939 AD1C0000 		.4byte	0x1cad
 3814 093d 0E000000 		.4byte	.LBB648
 3815 0941 58070000 		.4byte	.Ldebug_ranges0+0x758
 3816 0945 01       		.byte	0x1
 3817 0946 F301     		.2byte	0x1f3
 3818 0948 52090000 		.4byte	0x952
 3819 094c 21       		.uleb128 0x21
 3820 094d BA1C0000 		.4byte	0x1cba
 3821 0951 00       		.byte	0
 3822 0952 22       		.uleb128 0x22
 3823 0953 F4190000 		.4byte	0x19f4
 3824 0957 1A000000 		.4byte	.LBB651
 3825 095b 70070000 		.4byte	.Ldebug_ranges0+0x770
 3826 095f 01       		.byte	0x1
 3827 0960 F401     		.2byte	0x1f4
 3828 0962 1D       		.uleb128 0x1d
 3829 0963 0B1A0000 		.4byte	0x1a0b
 3830 0967 60000000 		.4byte	.LLST167
 3831 096b 1D       		.uleb128 0x1d
 3832 096c 001A0000 		.4byte	0x1a00
 3833 0970 80000000 		.4byte	.LLST168
 3834 0974 23       		.uleb128 0x23
 3835 0975 6C1C0000 		.4byte	0x1c6c
 3836 0979 1A000000 		.4byte	.LBB652
 3837 097d 06000000 		.4byte	.LBE652-.LBB652
 3838 0981 01       		.byte	0x1
 3839 0982 90       		.byte	0x90
 3840 0983 91090000 		.4byte	0x991
 3841 0987 1D       		.uleb128 0x1d
 3842 0988 791C0000 		.4byte	0x1c79
 3843 098c A6000000 		.4byte	.LLST169
 3844 0990 00       		.byte	0
 3845 0991 24       		.uleb128 0x24
 3846 0992 931C0000 		.4byte	0x1c93
 3847 0996 2E000000 		.4byte	.LBB654
 3848 099a 1A000000 		.4byte	.LBE654-.LBB654
 3849 099e 01       		.byte	0x1
 3850 099f 8C       		.byte	0x8c
 3851 09a0 25       		.uleb128 0x25
 3852 09a1 A01C0000 		.4byte	0x1ca0
 3853 09a5 00       		.byte	0
ARM GAS  /tmp/ccGKa4GA.s 			page 99


 3854 09a6 00       		.byte	0
 3855 09a7 00       		.byte	0
 3856 09a8 00       		.byte	0
 3857 09a9 18       		.uleb128 0x18
 3858 09aa 04       		.byte	0x4
 3859 09ab D0060000 		.4byte	0x6d0
 3860 09af 1A       		.uleb128 0x1a
 3861 09b0 A1330000 		.4byte	.LASF1255
 3862 09b4 01       		.byte	0x1
 3863 09b5 E301     		.2byte	0x1e3
 3864 09b7 00000000 		.4byte	.LFB215
 3865 09bb 70000000 		.4byte	.LFE215-.LFB215
 3866 09bf 01       		.uleb128 0x1
 3867 09c0 9C       		.byte	0x9c
 3868 09c1 350B0000 		.4byte	0xb35
 3869 09c5 1B       		.uleb128 0x1b
 3870 09c6 36100000 		.4byte	.LASF1256
 3871 09ca 01       		.byte	0x1
 3872 09cb E301     		.2byte	0x1e3
 3873 09cd A9090000 		.4byte	0x9a9
 3874 09d1 BA000000 		.4byte	.LLST153
 3875 09d5 20       		.uleb128 0x20
 3876 09d6 3E1A0000 		.4byte	0x1a3e
 3877 09da 00000000 		.4byte	.LBB616
 3878 09de C8060000 		.4byte	.Ldebug_ranges0+0x6c8
 3879 09e2 01       		.byte	0x1
 3880 09e3 E501     		.2byte	0x1e5
 3881 09e5 FE090000 		.4byte	0x9fe
 3882 09e9 1D       		.uleb128 0x1d
 3883 09ea 4E1A0000 		.4byte	0x1a4e
 3884 09ee E6000000 		.4byte	.LLST154
 3885 09f2 26       		.uleb128 0x26
 3886 09f3 C8060000 		.4byte	.Ldebug_ranges0+0x6c8
 3887 09f7 1F       		.uleb128 0x1f
 3888 09f8 591A0000 		.4byte	0x1a59
 3889 09fc 00       		.byte	0
 3890 09fd 00       		.byte	0
 3891 09fe 20       		.uleb128 0x20
 3892 09ff C71C0000 		.4byte	0x1cc7
 3893 0a03 08000000 		.4byte	.LBB620
 3894 0a07 E0060000 		.4byte	.Ldebug_ranges0+0x6e0
 3895 0a0b 01       		.byte	0x1
 3896 0a0c E501     		.2byte	0x1e5
 3897 0a0e 180A0000 		.4byte	0xa18
 3898 0a12 21       		.uleb128 0x21
 3899 0a13 D41C0000 		.4byte	0x1cd4
 3900 0a17 00       		.byte	0
 3901 0a18 20       		.uleb128 0x20
 3902 0a19 F4190000 		.4byte	0x19f4
 3903 0a1d 16000000 		.4byte	.LBB623
 3904 0a21 F8060000 		.4byte	.Ldebug_ranges0+0x6f8
 3905 0a25 01       		.byte	0x1
 3906 0a26 E601     		.2byte	0x1e6
 3907 0a28 720A0000 		.4byte	0xa72
 3908 0a2c 1D       		.uleb128 0x1d
 3909 0a2d 0B1A0000 		.4byte	0x1a0b
 3910 0a31 F9000000 		.4byte	.LLST155
ARM GAS  /tmp/ccGKa4GA.s 			page 100


 3911 0a35 1D       		.uleb128 0x1d
 3912 0a36 001A0000 		.4byte	0x1a00
 3913 0a3a 19010000 		.4byte	.LLST156
 3914 0a3e 23       		.uleb128 0x23
 3915 0a3f 6C1C0000 		.4byte	0x1c6c
 3916 0a43 16000000 		.4byte	.LBB624
 3917 0a47 0A000000 		.4byte	.LBE624-.LBB624
 3918 0a4b 01       		.byte	0x1
 3919 0a4c 90       		.byte	0x90
 3920 0a4d 5B0A0000 		.4byte	0xa5b
 3921 0a51 1D       		.uleb128 0x1d
 3922 0a52 791C0000 		.4byte	0x1c79
 3923 0a56 3C010000 		.4byte	.LLST157
 3924 0a5a 00       		.byte	0
 3925 0a5b 24       		.uleb128 0x24
 3926 0a5c 931C0000 		.4byte	0x1c93
 3927 0a60 58000000 		.4byte	.LBB626
 3928 0a64 18000000 		.4byte	.LBE626-.LBB626
 3929 0a68 01       		.byte	0x1
 3930 0a69 8C       		.byte	0x8c
 3931 0a6a 25       		.uleb128 0x25
 3932 0a6b A01C0000 		.4byte	0x1ca0
 3933 0a6f 01       		.byte	0x1
 3934 0a70 00       		.byte	0
 3935 0a71 00       		.byte	0
 3936 0a72 20       		.uleb128 0x20
 3937 0a73 E11C0000 		.4byte	0x1ce1
 3938 0a77 20000000 		.4byte	.LBB628
 3939 0a7b 10070000 		.4byte	.Ldebug_ranges0+0x710
 3940 0a7f 01       		.byte	0x1
 3941 0a80 E701     		.2byte	0x1e7
 3942 0a82 BA0A0000 		.4byte	0xaba
 3943 0a86 21       		.uleb128 0x21
 3944 0a87 ED1C0000 		.4byte	0x1ced
 3945 0a8b 27       		.uleb128 0x27
 3946 0a8c 111D0000 		.4byte	0x1d11
 3947 0a90 20000000 		.4byte	.LBB629
 3948 0a94 28070000 		.4byte	.Ldebug_ranges0+0x728
 3949 0a98 04       		.byte	0x4
 3950 0a99 B5       		.byte	0xb5
 3951 0a9a A40A0000 		.4byte	0xaa4
 3952 0a9e 21       		.uleb128 0x21
 3953 0a9f 1D1D0000 		.4byte	0x1d1d
 3954 0aa3 00       		.byte	0
 3955 0aa4 24       		.uleb128 0x24
 3956 0aa5 F91C0000 		.4byte	0x1cf9
 3957 0aa9 28000000 		.4byte	.LBB633
 3958 0aad 06000000 		.4byte	.LBE633-.LBB633
 3959 0ab1 04       		.byte	0x4
 3960 0ab2 B6       		.byte	0xb6
 3961 0ab3 21       		.uleb128 0x21
 3962 0ab4 051D0000 		.4byte	0x1d05
 3963 0ab8 00       		.byte	0
 3964 0ab9 00       		.byte	0
 3965 0aba 20       		.uleb128 0x20
 3966 0abb 071B0000 		.4byte	0x1b07
 3967 0abf 2E000000 		.4byte	.LBB636
ARM GAS  /tmp/ccGKa4GA.s 			page 101


 3968 0ac3 40070000 		.4byte	.Ldebug_ranges0+0x740
 3969 0ac7 01       		.byte	0x1
 3970 0ac8 E901     		.2byte	0x1e9
 3971 0aca E10A0000 		.4byte	0xae1
 3972 0ace 1D       		.uleb128 0x1d
 3973 0acf 201B0000 		.4byte	0x1b20
 3974 0ad3 50010000 		.4byte	.LLST158
 3975 0ad7 1D       		.uleb128 0x1d
 3976 0ad8 141B0000 		.4byte	0x1b14
 3977 0adc 64010000 		.4byte	.LLST159
 3978 0ae0 00       		.byte	0
 3979 0ae1 1C       		.uleb128 0x1c
 3980 0ae2 2D1B0000 		.4byte	0x1b2d
 3981 0ae6 38000000 		.4byte	.LBB640
 3982 0aea 0C000000 		.4byte	.LBE640-.LBB640
 3983 0aee 01       		.byte	0x1
 3984 0aef EA01     		.2byte	0x1ea
 3985 0af1 1A0B0000 		.4byte	0xb1a
 3986 0af5 1D       		.uleb128 0x1d
 3987 0af6 5E1B0000 		.4byte	0x1b5e
 3988 0afa 77010000 		.4byte	.LLST160
 3989 0afe 1D       		.uleb128 0x1d
 3990 0aff 521B0000 		.4byte	0x1b52
 3991 0b03 77010000 		.4byte	.LLST160
 3992 0b07 1D       		.uleb128 0x1d
 3993 0b08 461B0000 		.4byte	0x1b46
 3994 0b0c 8B010000 		.4byte	.LLST162
 3995 0b10 1D       		.uleb128 0x1d
 3996 0b11 3A1B0000 		.4byte	0x1b3a
 3997 0b15 9F010000 		.4byte	.LLST163
 3998 0b19 00       		.byte	0
 3999 0b1a 28       		.uleb128 0x28
 4000 0b1b 48000000 		.4byte	.LVL245
 4001 0b1f 350B0000 		.4byte	0xb35
 4002 0b23 29       		.uleb128 0x29
 4003 0b24 01       		.uleb128 0x1
 4004 0b25 50       		.byte	0x50
 4005 0b26 03       		.uleb128 0x3
 4006 0b27 F3       		.byte	0xf3
 4007 0b28 01       		.uleb128 0x1
 4008 0b29 50       		.byte	0x50
 4009 0b2a 29       		.uleb128 0x29
 4010 0b2b 01       		.uleb128 0x1
 4011 0b2c 51       		.byte	0x51
 4012 0b2d 05       		.uleb128 0x5
 4013 0b2e 0C       		.byte	0xc
 4014 0b2f A0860100 		.4byte	0x186a0
 4015 0b33 00       		.byte	0
 4016 0b34 00       		.byte	0
 4017 0b35 2A       		.uleb128 0x2a
 4018 0b36 A2100000 		.4byte	.LASF1257
 4019 0b3a 01       		.byte	0x1
 4020 0b3b CA01     		.2byte	0x1ca
 4021 0b3d 00000000 		.4byte	.LFB214
 4022 0b41 80000000 		.4byte	.LFE214-.LFB214
 4023 0b45 01       		.uleb128 0x1
 4024 0b46 9C       		.byte	0x9c
ARM GAS  /tmp/ccGKa4GA.s 			page 102


 4025 0b47 2F0C0000 		.4byte	0xc2f
 4026 0b4b 1B       		.uleb128 0x1b
 4027 0b4c 36100000 		.4byte	.LASF1256
 4028 0b50 01       		.byte	0x1
 4029 0b51 CA01     		.2byte	0x1ca
 4030 0b53 A9090000 		.4byte	0x9a9
 4031 0b57 B2010000 		.4byte	.LLST144
 4032 0b5b 1B       		.uleb128 0x1b
 4033 0b5c AC660000 		.4byte	.LASF1258
 4034 0b60 01       		.byte	0x1
 4035 0b61 CA01     		.2byte	0x1ca
 4036 0b63 A6000000 		.4byte	0xa6
 4037 0b67 E9010000 		.4byte	.LLST145
 4038 0b6b 2B       		.uleb128 0x2b
 4039 0b6c 62370000 		.4byte	.LASF1278
 4040 0b70 01       		.byte	0x1
 4041 0b71 CC01     		.2byte	0x1cc
 4042 0b73 A6000000 		.4byte	0xa6
 4043 0b77 2C       		.uleb128 0x2c
 4044 0b78 4A5D0000 		.4byte	.LASF1259
 4045 0b7c 01       		.byte	0x1
 4046 0b7d CC01     		.2byte	0x1cc
 4047 0b7f A6000000 		.4byte	0xa6
 4048 0b83 20020000 		.4byte	.LLST146
 4049 0b87 2C       		.uleb128 0x2c
 4050 0b88 D17B0000 		.4byte	.LASF1260
 4051 0b8c 01       		.byte	0x1
 4052 0b8d CC01     		.2byte	0x1cc
 4053 0b8f A6000000 		.4byte	0xa6
 4054 0b93 6F020000 		.4byte	.LLST147
 4055 0b97 2C       		.uleb128 0x2c
 4056 0b98 307D0000 		.4byte	.LASF1261
 4057 0b9c 01       		.byte	0x1
 4058 0b9d CC01     		.2byte	0x1cc
 4059 0b9f A6000000 		.4byte	0xa6
 4060 0ba3 0E030000 		.4byte	.LLST148
 4061 0ba7 20       		.uleb128 0x20
 4062 0ba8 CD190000 		.4byte	0x19cd
 4063 0bac 0C000000 		.4byte	.LBB604
 4064 0bb0 98060000 		.4byte	.Ldebug_ranges0+0x698
 4065 0bb4 01       		.byte	0x1
 4066 0bb5 CE01     		.2byte	0x1ce
 4067 0bb7 FB0B0000 		.4byte	0xbfb
 4068 0bbb 1D       		.uleb128 0x1d
 4069 0bbc DD190000 		.4byte	0x19dd
 4070 0bc0 44030000 		.4byte	.LLST149
 4071 0bc4 26       		.uleb128 0x26
 4072 0bc5 98060000 		.4byte	.Ldebug_ranges0+0x698
 4073 0bc9 2D       		.uleb128 0x2d
 4074 0bca E8190000 		.4byte	0x19e8
 4075 0bce 6D030000 		.4byte	.LLST150
 4076 0bd2 2E       		.uleb128 0x2e
 4077 0bd3 5F1C0000 		.4byte	0x1c5f
 4078 0bd7 16000000 		.4byte	.LBB606
 4079 0bdb 06000000 		.4byte	.LBE606-.LBB606
 4080 0bdf 01       		.byte	0x1
 4081 0be0 9F       		.byte	0x9f
ARM GAS  /tmp/ccGKa4GA.s 			page 103


 4082 0be1 2E       		.uleb128 0x2e
 4083 0be2 861C0000 		.4byte	0x1c86
 4084 0be6 60000000 		.4byte	.LBB608
 4085 0bea 06000000 		.4byte	.LBE608-.LBB608
 4086 0bee 01       		.byte	0x1
 4087 0bef 9B       		.byte	0x9b
 4088 0bf0 2F       		.uleb128 0x2f
 4089 0bf1 10000000 		.4byte	.LVL216
 4090 0bf5 5D1D0000 		.4byte	0x1d5d
 4091 0bf9 00       		.byte	0
 4092 0bfa 00       		.byte	0
 4093 0bfb 22       		.uleb128 0x22
 4094 0bfc 94190000 		.4byte	0x1994
 4095 0c00 40000000 		.4byte	.LBB611
 4096 0c04 B0060000 		.4byte	.Ldebug_ranges0+0x6b0
 4097 0c08 01       		.byte	0x1
 4098 0c09 DF01     		.2byte	0x1df
 4099 0c0b 1D       		.uleb128 0x1d
 4100 0c0c B6190000 		.4byte	0x19b6
 4101 0c10 96030000 		.4byte	.LLST151
 4102 0c14 21       		.uleb128 0x21
 4103 0c15 AB190000 		.4byte	0x19ab
 4104 0c19 1D       		.uleb128 0x1d
 4105 0c1a A0190000 		.4byte	0x19a0
 4106 0c1e A9030000 		.4byte	.LLST152
 4107 0c22 26       		.uleb128 0x26
 4108 0c23 B0060000 		.4byte	.Ldebug_ranges0+0x6b0
 4109 0c27 1F       		.uleb128 0x1f
 4110 0c28 531D0000 		.4byte	0x1d53
 4111 0c2c 00       		.byte	0
 4112 0c2d 00       		.byte	0
 4113 0c2e 00       		.byte	0
 4114 0c2f 1A       		.uleb128 0x1a
 4115 0c30 985F0000 		.4byte	.LASF1262
 4116 0c34 01       		.byte	0x1
 4117 0c35 BF01     		.2byte	0x1bf
 4118 0c37 00000000 		.4byte	.LFB213
 4119 0c3b 14000000 		.4byte	.LFE213-.LFB213
 4120 0c3f 01       		.uleb128 0x1
 4121 0c40 9C       		.byte	0x9c
 4122 0c41 A70C0000 		.4byte	0xca7
 4123 0c45 30       		.uleb128 0x30
 4124 0c46 36100000 		.4byte	.LASF1256
 4125 0c4a 01       		.byte	0x1
 4126 0c4b BF01     		.2byte	0x1bf
 4127 0c4d A9090000 		.4byte	0x9a9
 4128 0c51 01       		.uleb128 0x1
 4129 0c52 50       		.byte	0x50
 4130 0c53 30       		.uleb128 0x30
 4131 0c54 D04F0000 		.4byte	.LASF1263
 4132 0c58 01       		.byte	0x1
 4133 0c59 BF01     		.2byte	0x1bf
 4134 0c5b 1A010000 		.4byte	0x11a
 4135 0c5f 01       		.uleb128 0x1
 4136 0c60 51       		.byte	0x51
 4137 0c61 20       		.uleb128 0x20
 4138 0c62 071B0000 		.4byte	0x1b07
ARM GAS  /tmp/ccGKa4GA.s 			page 104


 4139 0c66 00000000 		.4byte	.LBB598
 4140 0c6a 80060000 		.4byte	.Ldebug_ranges0+0x680
 4141 0c6e 01       		.byte	0x1
 4142 0c6f C201     		.2byte	0x1c2
 4143 0c71 830C0000 		.4byte	0xc83
 4144 0c75 25       		.uleb128 0x25
 4145 0c76 201B0000 		.4byte	0x1b20
 4146 0c7a 00       		.byte	0
 4147 0c7b 31       		.uleb128 0x31
 4148 0c7c 141B0000 		.4byte	0x1b14
 4149 0c80 01       		.uleb128 0x1
 4150 0c81 50       		.byte	0x50
 4151 0c82 00       		.byte	0
 4152 0c83 32       		.uleb128 0x32
 4153 0c84 071B0000 		.4byte	0x1b07
 4154 0c88 08000000 		.4byte	.LBB601
 4155 0c8c 04000000 		.4byte	.LBE601-.LBB601
 4156 0c90 01       		.byte	0x1
 4157 0c91 C501     		.2byte	0x1c5
 4158 0c93 1D       		.uleb128 0x1d
 4159 0c94 201B0000 		.4byte	0x1b20
 4160 0c98 BC030000 		.4byte	.LLST142
 4161 0c9c 1D       		.uleb128 0x1d
 4162 0c9d 141B0000 		.4byte	0x1b14
 4163 0ca1 D0030000 		.4byte	.LLST143
 4164 0ca5 00       		.byte	0
 4165 0ca6 00       		.byte	0
 4166 0ca7 33       		.uleb128 0x33
 4167 0ca8 AA350000 		.4byte	.LASF1265
 4168 0cac 01       		.byte	0x1
 4169 0cad A001     		.2byte	0x1a0
 4170 0caf 08010000 		.4byte	0x108
 4171 0cb3 00000000 		.4byte	.LFB212
 4172 0cb7 C8000000 		.4byte	.LFE212-.LFB212
 4173 0cbb 01       		.uleb128 0x1
 4174 0cbc 9C       		.byte	0x9c
 4175 0cbd 9F0E0000 		.4byte	0xe9f
 4176 0cc1 1B       		.uleb128 0x1b
 4177 0cc2 36100000 		.4byte	.LASF1256
 4178 0cc6 01       		.byte	0x1
 4179 0cc7 A001     		.2byte	0x1a0
 4180 0cc9 A9090000 		.4byte	0x9a9
 4181 0ccd E3030000 		.4byte	.LLST122
 4182 0cd1 30       		.uleb128 0x30
 4183 0cd2 3E210000 		.4byte	.LASF1264
 4184 0cd6 01       		.byte	0x1
 4185 0cd7 A001     		.2byte	0x1a0
 4186 0cd9 9F0E0000 		.4byte	0xe9f
 4187 0cdd 01       		.uleb128 0x1
 4188 0cde 51       		.byte	0x51
 4189 0cdf 1C       		.uleb128 0x1c
 4190 0ce0 F31B0000 		.4byte	0x1bf3
 4191 0ce4 04000000 		.4byte	.LBB536
 4192 0ce8 02000000 		.4byte	.LBE536-.LBB536
 4193 0cec 01       		.byte	0x1
 4194 0ced A301     		.2byte	0x1a3
 4195 0cef 060D0000 		.4byte	0xd06
ARM GAS  /tmp/ccGKa4GA.s 			page 105


 4196 0cf3 1D       		.uleb128 0x1d
 4197 0cf4 101C0000 		.4byte	0x1c10
 4198 0cf8 28040000 		.4byte	.LLST123
 4199 0cfc 1D       		.uleb128 0x1d
 4200 0cfd 041C0000 		.4byte	0x1c04
 4201 0d01 3C040000 		.4byte	.LLST124
 4202 0d05 00       		.byte	0
 4203 0d06 1C       		.uleb128 0x1c
 4204 0d07 931A0000 		.4byte	0x1a93
 4205 0d0b 14000000 		.4byte	.LBB538
 4206 0d0f 2A000000 		.4byte	.LBE538-.LBB538
 4207 0d13 01       		.byte	0x1
 4208 0d14 A901     		.2byte	0x1a9
 4209 0d16 730D0000 		.4byte	0xd73
 4210 0d1a 21       		.uleb128 0x21
 4211 0d1b AA1A0000 		.4byte	0x1aaa
 4212 0d1f 21       		.uleb128 0x21
 4213 0d20 9F1A0000 		.4byte	0x1a9f
 4214 0d24 1E       		.uleb128 0x1e
 4215 0d25 14000000 		.4byte	.LBB539
 4216 0d29 2A000000 		.4byte	.LBE539-.LBB539
 4217 0d2d 1F       		.uleb128 0x1f
 4218 0d2e B51A0000 		.4byte	0x1ab5
 4219 0d32 27       		.uleb128 0x27
 4220 0d33 1D1C0000 		.4byte	0x1c1d
 4221 0d37 14000000 		.4byte	.LBB540
 4222 0d3b 68050000 		.4byte	.Ldebug_ranges0+0x568
 4223 0d3f 01       		.byte	0x1
 4224 0d40 4D       		.byte	0x4d
 4225 0d41 580D0000 		.4byte	0xd58
 4226 0d45 1D       		.uleb128 0x1d
 4227 0d46 3A1C0000 		.4byte	0x1c3a
 4228 0d4a 4F040000 		.4byte	.LLST125
 4229 0d4e 1D       		.uleb128 0x1d
 4230 0d4f 2E1C0000 		.4byte	0x1c2e
 4231 0d53 63040000 		.4byte	.LLST126
 4232 0d57 00       		.byte	0
 4233 0d58 24       		.uleb128 0x24
 4234 0d59 911B0000 		.4byte	0x1b91
 4235 0d5d 2A000000 		.4byte	.LBB545
 4236 0d61 04000000 		.4byte	.LBE545-.LBB545
 4237 0d65 01       		.byte	0x1
 4238 0d66 4F       		.byte	0x4f
 4239 0d67 1D       		.uleb128 0x1d
 4240 0d68 A21B0000 		.4byte	0x1ba2
 4241 0d6c 76040000 		.4byte	.LLST127
 4242 0d70 00       		.byte	0
 4243 0d71 00       		.byte	0
 4244 0d72 00       		.byte	0
 4245 0d73 20       		.uleb128 0x20
 4246 0d74 E41A0000 		.4byte	0x1ae4
 4247 0d78 3E000000 		.4byte	.LBB548
 4248 0d7c 88050000 		.4byte	.Ldebug_ranges0+0x588
 4249 0d80 01       		.byte	0x1
 4250 0d81 AD01     		.2byte	0x1ad
 4251 0d83 EB0D0000 		.4byte	0xdeb
 4252 0d87 1D       		.uleb128 0x1d
ARM GAS  /tmp/ccGKa4GA.s 			page 106


 4253 0d88 FB1A0000 		.4byte	0x1afb
 4254 0d8c 89040000 		.4byte	.LLST128
 4255 0d90 1D       		.uleb128 0x1d
 4256 0d91 FB1A0000 		.4byte	0x1afb
 4257 0d95 89040000 		.4byte	.LLST128
 4258 0d99 1D       		.uleb128 0x1d
 4259 0d9a F01A0000 		.4byte	0x1af0
 4260 0d9e A7040000 		.4byte	.LLST130
 4261 0da2 27       		.uleb128 0x27
 4262 0da3 6B1B0000 		.4byte	0x1b6b
 4263 0da7 3E000000 		.4byte	.LBB550
 4264 0dab C0050000 		.4byte	.Ldebug_ranges0+0x5c0
 4265 0daf 01       		.byte	0x1
 4266 0db0 35       		.byte	0x35
 4267 0db1 C80D0000 		.4byte	0xdc8
 4268 0db5 1D       		.uleb128 0x1d
 4269 0db6 841B0000 		.4byte	0x1b84
 4270 0dba C5040000 		.4byte	.LLST131
 4271 0dbe 1D       		.uleb128 0x1d
 4272 0dbf 781B0000 		.4byte	0x1b78
 4273 0dc3 DA040000 		.4byte	.LLST132
 4274 0dc7 00       		.byte	0
 4275 0dc8 34       		.uleb128 0x34
 4276 0dc9 6B1B0000 		.4byte	0x1b6b
 4277 0dcd 5C000000 		.4byte	.LBB556
 4278 0dd1 E8050000 		.4byte	.Ldebug_ranges0+0x5e8
 4279 0dd5 01       		.byte	0x1
 4280 0dd6 31       		.byte	0x31
 4281 0dd7 1D       		.uleb128 0x1d
 4282 0dd8 841B0000 		.4byte	0x1b84
 4283 0ddc ED040000 		.4byte	.LLST133
 4284 0de0 1D       		.uleb128 0x1d
 4285 0de1 781B0000 		.4byte	0x1b78
 4286 0de5 3E050000 		.4byte	.LLST134
 4287 0de9 00       		.byte	0
 4288 0dea 00       		.byte	0
 4289 0deb 20       		.uleb128 0x20
 4290 0dec 1D1C0000 		.4byte	0x1c1d
 4291 0df0 40000000 		.4byte	.LBB567
 4292 0df4 00060000 		.4byte	.Ldebug_ranges0+0x600
 4293 0df8 01       		.byte	0x1
 4294 0df9 AB01     		.2byte	0x1ab
 4295 0dfb 120E0000 		.4byte	0xe12
 4296 0dff 1D       		.uleb128 0x1d
 4297 0e00 3A1C0000 		.4byte	0x1c3a
 4298 0e04 51050000 		.4byte	.LLST135
 4299 0e08 1D       		.uleb128 0x1d
 4300 0e09 2E1C0000 		.4byte	0x1c2e
 4301 0e0d 71050000 		.4byte	.LLST136
 4302 0e11 00       		.byte	0
 4303 0e12 20       		.uleb128 0x20
 4304 0e13 F31B0000 		.4byte	0x1bf3
 4305 0e17 44000000 		.4byte	.LBB572
 4306 0e1b 20060000 		.4byte	.Ldebug_ranges0+0x620
 4307 0e1f 01       		.byte	0x1
 4308 0e20 B001     		.2byte	0x1b0
 4309 0e22 390E0000 		.4byte	0xe39
ARM GAS  /tmp/ccGKa4GA.s 			page 107


 4310 0e26 1D       		.uleb128 0x1d
 4311 0e27 101C0000 		.4byte	0x1c10
 4312 0e2b 8F050000 		.4byte	.LLST137
 4313 0e2f 1D       		.uleb128 0x1d
 4314 0e30 041C0000 		.4byte	0x1c04
 4315 0e34 AF050000 		.4byte	.LLST138
 4316 0e38 00       		.byte	0
 4317 0e39 22       		.uleb128 0x22
 4318 0e3a 931A0000 		.4byte	0x1a93
 4319 0e3e 46000000 		.4byte	.LBB577
 4320 0e42 48060000 		.4byte	.Ldebug_ranges0+0x648
 4321 0e46 01       		.byte	0x1
 4322 0e47 B501     		.2byte	0x1b5
 4323 0e49 21       		.uleb128 0x21
 4324 0e4a AA1A0000 		.4byte	0x1aaa
 4325 0e4e 21       		.uleb128 0x21
 4326 0e4f 9F1A0000 		.4byte	0x1a9f
 4327 0e53 26       		.uleb128 0x26
 4328 0e54 48060000 		.4byte	.Ldebug_ranges0+0x648
 4329 0e58 1F       		.uleb128 0x1f
 4330 0e59 B51A0000 		.4byte	0x1ab5
 4331 0e5d 27       		.uleb128 0x27
 4332 0e5e 1D1C0000 		.4byte	0x1c1d
 4333 0e62 46000000 		.4byte	.LBB579
 4334 0e66 60060000 		.4byte	.Ldebug_ranges0+0x660
 4335 0e6a 01       		.byte	0x1
 4336 0e6b 4D       		.byte	0x4d
 4337 0e6c 830E0000 		.4byte	0xe83
 4338 0e70 1D       		.uleb128 0x1d
 4339 0e71 3A1C0000 		.4byte	0x1c3a
 4340 0e75 CD050000 		.4byte	.LLST139
 4341 0e79 1D       		.uleb128 0x1d
 4342 0e7a 2E1C0000 		.4byte	0x1c2e
 4343 0e7e E1050000 		.4byte	.LLST140
 4344 0e82 00       		.byte	0
 4345 0e83 24       		.uleb128 0x24
 4346 0e84 911B0000 		.4byte	0x1b91
 4347 0e88 82000000 		.4byte	.LBB584
 4348 0e8c 04000000 		.4byte	.LBE584-.LBB584
 4349 0e90 01       		.byte	0x1
 4350 0e91 4F       		.byte	0x4f
 4351 0e92 1D       		.uleb128 0x1d
 4352 0e93 A21B0000 		.4byte	0x1ba2
 4353 0e97 F4050000 		.4byte	.LLST141
 4354 0e9b 00       		.byte	0
 4355 0e9c 00       		.byte	0
 4356 0e9d 00       		.byte	0
 4357 0e9e 00       		.byte	0
 4358 0e9f 18       		.uleb128 0x18
 4359 0ea0 04       		.byte	0x4
 4360 0ea1 A9080000 		.4byte	0x8a9
 4361 0ea5 33       		.uleb128 0x33
 4362 0ea6 4A4B0000 		.4byte	.LASF1266
 4363 0eaa 01       		.byte	0x1
 4364 0eab 8101     		.2byte	0x181
 4365 0ead 08010000 		.4byte	0x108
 4366 0eb1 00000000 		.4byte	.LFB211
ARM GAS  /tmp/ccGKa4GA.s 			page 108


 4367 0eb5 B8000000 		.4byte	.LFE211-.LFB211
 4368 0eb9 01       		.uleb128 0x1
 4369 0eba 9C       		.byte	0x9c
 4370 0ebb 9D100000 		.4byte	0x109d
 4371 0ebf 1B       		.uleb128 0x1b
 4372 0ec0 36100000 		.4byte	.LASF1256
 4373 0ec4 01       		.byte	0x1
 4374 0ec5 8101     		.2byte	0x181
 4375 0ec7 A9090000 		.4byte	0x9a9
 4376 0ecb 07060000 		.4byte	.LLST102
 4377 0ecf 30       		.uleb128 0x30
 4378 0ed0 3E210000 		.4byte	.LASF1264
 4379 0ed4 01       		.byte	0x1
 4380 0ed5 8101     		.2byte	0x181
 4381 0ed7 9F0E0000 		.4byte	0xe9f
 4382 0edb 01       		.uleb128 0x1
 4383 0edc 51       		.byte	0x51
 4384 0edd 1C       		.uleb128 0x1c
 4385 0ede F31B0000 		.4byte	0x1bf3
 4386 0ee2 00000000 		.4byte	.LBB484
 4387 0ee6 02000000 		.4byte	.LBE484-.LBB484
 4388 0eea 01       		.byte	0x1
 4389 0eeb 8401     		.2byte	0x184
 4390 0eed 040F0000 		.4byte	0xf04
 4391 0ef1 1D       		.uleb128 0x1d
 4392 0ef2 101C0000 		.4byte	0x1c10
 4393 0ef6 4C060000 		.4byte	.LLST103
 4394 0efa 1D       		.uleb128 0x1d
 4395 0efb 041C0000 		.4byte	0x1c04
 4396 0eff 60060000 		.4byte	.LLST104
 4397 0f03 00       		.byte	0
 4398 0f04 1C       		.uleb128 0x1c
 4399 0f05 651A0000 		.4byte	0x1a65
 4400 0f09 10000000 		.4byte	.LBB486
 4401 0f0d 2C000000 		.4byte	.LBE486-.LBB486
 4402 0f11 01       		.byte	0x1
 4403 0f12 8A01     		.2byte	0x18a
 4404 0f14 710F0000 		.4byte	0xf71
 4405 0f18 21       		.uleb128 0x21
 4406 0f19 7C1A0000 		.4byte	0x1a7c
 4407 0f1d 21       		.uleb128 0x21
 4408 0f1e 711A0000 		.4byte	0x1a71
 4409 0f22 1E       		.uleb128 0x1e
 4410 0f23 10000000 		.4byte	.LBB487
 4411 0f27 2C000000 		.4byte	.LBE487-.LBB487
 4412 0f2b 1F       		.uleb128 0x1f
 4413 0f2c 871A0000 		.4byte	0x1a87
 4414 0f30 27       		.uleb128 0x27
 4415 0f31 1D1C0000 		.4byte	0x1c1d
 4416 0f35 10000000 		.4byte	.LBB488
 4417 0f39 88040000 		.4byte	.Ldebug_ranges0+0x488
 4418 0f3d 01       		.byte	0x1
 4419 0f3e 5D       		.byte	0x5d
 4420 0f3f 560F0000 		.4byte	0xf56
 4421 0f43 1D       		.uleb128 0x1d
 4422 0f44 3A1C0000 		.4byte	0x1c3a
 4423 0f48 73060000 		.4byte	.LLST105
ARM GAS  /tmp/ccGKa4GA.s 			page 109


 4424 0f4c 1D       		.uleb128 0x1d
 4425 0f4d 2E1C0000 		.4byte	0x1c2e
 4426 0f51 87060000 		.4byte	.LLST106
 4427 0f55 00       		.byte	0
 4428 0f56 24       		.uleb128 0x24
 4429 0f57 911B0000 		.4byte	0x1b91
 4430 0f5b 28000000 		.4byte	.LBB493
 4431 0f5f 02000000 		.4byte	.LBE493-.LBB493
 4432 0f63 01       		.byte	0x1
 4433 0f64 5F       		.byte	0x5f
 4434 0f65 1D       		.uleb128 0x1d
 4435 0f66 A21B0000 		.4byte	0x1ba2
 4436 0f6a 9A060000 		.4byte	.LLST107
 4437 0f6e 00       		.byte	0
 4438 0f6f 00       		.byte	0
 4439 0f70 00       		.byte	0
 4440 0f71 20       		.uleb128 0x20
 4441 0f72 C11A0000 		.4byte	0x1ac1
 4442 0f76 3C000000 		.4byte	.LBB496
 4443 0f7a A8040000 		.4byte	.Ldebug_ranges0+0x4a8
 4444 0f7e 01       		.byte	0x1
 4445 0f7f 8E01     		.2byte	0x18e
 4446 0f81 E90F0000 		.4byte	0xfe9
 4447 0f85 1D       		.uleb128 0x1d
 4448 0f86 D81A0000 		.4byte	0x1ad8
 4449 0f8a AD060000 		.4byte	.LLST108
 4450 0f8e 1D       		.uleb128 0x1d
 4451 0f8f D81A0000 		.4byte	0x1ad8
 4452 0f93 AD060000 		.4byte	.LLST108
 4453 0f97 1D       		.uleb128 0x1d
 4454 0f98 CD1A0000 		.4byte	0x1acd
 4455 0f9c CB060000 		.4byte	.LLST110
 4456 0fa0 27       		.uleb128 0x27
 4457 0fa1 6B1B0000 		.4byte	0x1b6b
 4458 0fa5 3C000000 		.4byte	.LBB498
 4459 0fa9 D0040000 		.4byte	.Ldebug_ranges0+0x4d0
 4460 0fad 01       		.byte	0x1
 4461 0fae 42       		.byte	0x42
 4462 0faf C60F0000 		.4byte	0xfc6
 4463 0fb3 1D       		.uleb128 0x1d
 4464 0fb4 841B0000 		.4byte	0x1b84
 4465 0fb8 E9060000 		.4byte	.LLST111
 4466 0fbc 1D       		.uleb128 0x1d
 4467 0fbd 781B0000 		.4byte	0x1b78
 4468 0fc1 FE060000 		.4byte	.LLST112
 4469 0fc5 00       		.byte	0
 4470 0fc6 24       		.uleb128 0x24
 4471 0fc7 6B1B0000 		.4byte	0x1b6b
 4472 0fcb 5A000000 		.4byte	.LBB503
 4473 0fcf 04000000 		.4byte	.LBE503-.LBB503
 4474 0fd3 01       		.byte	0x1
 4475 0fd4 3F       		.byte	0x3f
 4476 0fd5 1D       		.uleb128 0x1d
 4477 0fd6 841B0000 		.4byte	0x1b84
 4478 0fda 11070000 		.4byte	.LLST113
 4479 0fde 1D       		.uleb128 0x1d
 4480 0fdf 781B0000 		.4byte	0x1b78
ARM GAS  /tmp/ccGKa4GA.s 			page 110


 4481 0fe3 65070000 		.4byte	.LLST114
 4482 0fe7 00       		.byte	0
 4483 0fe8 00       		.byte	0
 4484 0fe9 20       		.uleb128 0x20
 4485 0fea 1D1C0000 		.4byte	0x1c1d
 4486 0fee 3E000000 		.4byte	.LBB509
 4487 0ff2 F0040000 		.4byte	.Ldebug_ranges0+0x4f0
 4488 0ff6 01       		.byte	0x1
 4489 0ff7 8C01     		.2byte	0x18c
 4490 0ff9 10100000 		.4byte	0x1010
 4491 0ffd 1D       		.uleb128 0x1d
 4492 0ffe 3A1C0000 		.4byte	0x1c3a
 4493 1002 78070000 		.4byte	.LLST115
 4494 1006 1D       		.uleb128 0x1d
 4495 1007 2E1C0000 		.4byte	0x1c2e
 4496 100b 98070000 		.4byte	.LLST116
 4497 100f 00       		.byte	0
 4498 1010 20       		.uleb128 0x20
 4499 1011 F31B0000 		.4byte	0x1bf3
 4500 1015 42000000 		.4byte	.LBB514
 4501 1019 10050000 		.4byte	.Ldebug_ranges0+0x510
 4502 101d 01       		.byte	0x1
 4503 101e 9101     		.2byte	0x191
 4504 1020 37100000 		.4byte	0x1037
 4505 1024 1D       		.uleb128 0x1d
 4506 1025 101C0000 		.4byte	0x1c10
 4507 1029 B6070000 		.4byte	.LLST117
 4508 102d 1D       		.uleb128 0x1d
 4509 102e 041C0000 		.4byte	0x1c04
 4510 1032 D6070000 		.4byte	.LLST118
 4511 1036 00       		.byte	0
 4512 1037 22       		.uleb128 0x22
 4513 1038 651A0000 		.4byte	0x1a65
 4514 103c 44000000 		.4byte	.LBB518
 4515 1040 30050000 		.4byte	.Ldebug_ranges0+0x530
 4516 1044 01       		.byte	0x1
 4517 1045 9601     		.2byte	0x196
 4518 1047 21       		.uleb128 0x21
 4519 1048 7C1A0000 		.4byte	0x1a7c
 4520 104c 21       		.uleb128 0x21
 4521 104d 711A0000 		.4byte	0x1a71
 4522 1051 26       		.uleb128 0x26
 4523 1052 30050000 		.4byte	.Ldebug_ranges0+0x530
 4524 1056 1F       		.uleb128 0x1f
 4525 1057 871A0000 		.4byte	0x1a87
 4526 105b 27       		.uleb128 0x27
 4527 105c 1D1C0000 		.4byte	0x1c1d
 4528 1060 44000000 		.4byte	.LBB520
 4529 1064 48050000 		.4byte	.Ldebug_ranges0+0x548
 4530 1068 01       		.byte	0x1
 4531 1069 5D       		.byte	0x5d
 4532 106a 81100000 		.4byte	0x1081
 4533 106e 1D       		.uleb128 0x1d
 4534 106f 3A1C0000 		.4byte	0x1c3a
 4535 1073 F4070000 		.4byte	.LLST119
 4536 1077 1D       		.uleb128 0x1d
 4537 1078 2E1C0000 		.4byte	0x1c2e
ARM GAS  /tmp/ccGKa4GA.s 			page 111


 4538 107c 08080000 		.4byte	.LLST120
 4539 1080 00       		.byte	0
 4540 1081 24       		.uleb128 0x24
 4541 1082 911B0000 		.4byte	0x1b91
 4542 1086 78000000 		.4byte	.LBB525
 4543 108a 02000000 		.4byte	.LBE525-.LBB525
 4544 108e 01       		.byte	0x1
 4545 108f 5F       		.byte	0x5f
 4546 1090 1D       		.uleb128 0x1d
 4547 1091 A21B0000 		.4byte	0x1ba2
 4548 1095 1B080000 		.4byte	.LLST121
 4549 1099 00       		.byte	0
 4550 109a 00       		.byte	0
 4551 109b 00       		.byte	0
 4552 109c 00       		.byte	0
 4553 109d 1A       		.uleb128 0x1a
 4554 109e 7B320000 		.4byte	.LASF1267
 4555 10a2 01       		.byte	0x1
 4556 10a3 7101     		.2byte	0x171
 4557 10a5 00000000 		.4byte	.LFB210
 4558 10a9 24000000 		.4byte	.LFE210-.LFB210
 4559 10ad 01       		.uleb128 0x1
 4560 10ae 9C       		.byte	0x9c
 4561 10af 78110000 		.4byte	0x1178
 4562 10b3 30       		.uleb128 0x30
 4563 10b4 36100000 		.4byte	.LASF1256
 4564 10b8 01       		.byte	0x1
 4565 10b9 7101     		.2byte	0x171
 4566 10bb A9090000 		.4byte	0x9a9
 4567 10bf 01       		.uleb128 0x1
 4568 10c0 50       		.byte	0x50
 4569 10c1 1C       		.uleb128 0x1c
 4570 10c2 1D1C0000 		.4byte	0x1c1d
 4571 10c6 00000000 		.4byte	.LBB468
 4572 10ca 02000000 		.4byte	.LBE468-.LBB468
 4573 10ce 01       		.byte	0x1
 4574 10cf 7301     		.2byte	0x173
 4575 10d1 E8100000 		.4byte	0x10e8
 4576 10d5 1D       		.uleb128 0x1d
 4577 10d6 3A1C0000 		.4byte	0x1c3a
 4578 10da 2E080000 		.4byte	.LLST93
 4579 10de 1D       		.uleb128 0x1d
 4580 10df 2E1C0000 		.4byte	0x1c2e
 4581 10e3 42080000 		.4byte	.LLST94
 4582 10e7 00       		.byte	0
 4583 10e8 1C       		.uleb128 0x1c
 4584 10e9 1D1C0000 		.4byte	0x1c1d
 4585 10ed 06000000 		.4byte	.LBB470
 4586 10f1 04000000 		.4byte	.LBE470-.LBB470
 4587 10f5 01       		.byte	0x1
 4588 10f6 7401     		.2byte	0x174
 4589 10f8 0F110000 		.4byte	0x110f
 4590 10fc 1D       		.uleb128 0x1d
 4591 10fd 3A1C0000 		.4byte	0x1c3a
 4592 1101 55080000 		.4byte	.LLST95
 4593 1105 1D       		.uleb128 0x1d
 4594 1106 2E1C0000 		.4byte	0x1c2e
ARM GAS  /tmp/ccGKa4GA.s 			page 112


 4595 110a 69080000 		.4byte	.LLST96
 4596 110e 00       		.byte	0
 4597 110f 20       		.uleb128 0x20
 4598 1110 1D1C0000 		.4byte	0x1c1d
 4599 1114 0E000000 		.4byte	.LBB472
 4600 1118 50040000 		.4byte	.Ldebug_ranges0+0x450
 4601 111c 01       		.byte	0x1
 4602 111d 7801     		.2byte	0x178
 4603 111f 36110000 		.4byte	0x1136
 4604 1123 1D       		.uleb128 0x1d
 4605 1124 3A1C0000 		.4byte	0x1c3a
 4606 1128 7C080000 		.4byte	.LLST97
 4607 112c 1D       		.uleb128 0x1d
 4608 112d 2E1C0000 		.4byte	0x1c2e
 4609 1131 9C080000 		.4byte	.LLST98
 4610 1135 00       		.byte	0
 4611 1136 1C       		.uleb128 0x1c
 4612 1137 911B0000 		.4byte	0x1b91
 4613 113b 16000000 		.4byte	.LBB477
 4614 113f 02000000 		.4byte	.LBE477-.LBB477
 4615 1143 01       		.byte	0x1
 4616 1144 7901     		.2byte	0x179
 4617 1146 54110000 		.4byte	0x1154
 4618 114a 1D       		.uleb128 0x1d
 4619 114b A21B0000 		.4byte	0x1ba2
 4620 114f BA080000 		.4byte	.LLST99
 4621 1153 00       		.byte	0
 4622 1154 22       		.uleb128 0x22
 4623 1155 AF1B0000 		.4byte	0x1baf
 4624 1159 1E000000 		.4byte	.LBB480
 4625 115d 70040000 		.4byte	.Ldebug_ranges0+0x470
 4626 1161 01       		.byte	0x1
 4627 1162 7D01     		.2byte	0x17d
 4628 1164 1D       		.uleb128 0x1d
 4629 1165 C81B0000 		.4byte	0x1bc8
 4630 1169 CD080000 		.4byte	.LLST100
 4631 116d 1D       		.uleb128 0x1d
 4632 116e BC1B0000 		.4byte	0x1bbc
 4633 1172 E1080000 		.4byte	.LLST101
 4634 1176 00       		.byte	0
 4635 1177 00       		.byte	0
 4636 1178 33       		.uleb128 0x33
 4637 1179 92470000 		.4byte	.LASF1268
 4638 117d 01       		.byte	0x1
 4639 117e 2D01     		.2byte	0x12d
 4640 1180 A6000000 		.4byte	0xa6
 4641 1184 00000000 		.4byte	.LFB209
 4642 1188 E0000000 		.4byte	.LFE209-.LFB209
 4643 118c 01       		.uleb128 0x1
 4644 118d 9C       		.byte	0x9c
 4645 118e 05140000 		.4byte	0x1405
 4646 1192 1B       		.uleb128 0x1b
 4647 1193 36100000 		.4byte	.LASF1256
 4648 1197 01       		.byte	0x1
 4649 1198 2D01     		.2byte	0x12d
 4650 119a A9090000 		.4byte	0x9a9
 4651 119e F4080000 		.4byte	.LLST64
ARM GAS  /tmp/ccGKa4GA.s 			page 113


 4652 11a2 1B       		.uleb128 0x1b
 4653 11a3 A4300000 		.4byte	.LASF1269
 4654 11a7 01       		.byte	0x1
 4655 11a8 2D01     		.2byte	0x12d
 4656 11aa B5080000 		.4byte	0x8b5
 4657 11ae 20090000 		.4byte	.LLST65
 4658 11b2 30       		.uleb128 0x30
 4659 11b3 FD330000 		.4byte	.LASF1270
 4660 11b7 01       		.byte	0x1
 4661 11b8 2D01     		.2byte	0x12d
 4662 11ba A6000000 		.4byte	0xa6
 4663 11be 01       		.uleb128 0x1
 4664 11bf 52       		.byte	0x52
 4665 11c0 2C       		.uleb128 0x2c
 4666 11c1 06460000 		.4byte	.LASF1250
 4667 11c5 01       		.byte	0x1
 4668 11c6 2F01     		.2byte	0x12f
 4669 11c8 A6000000 		.4byte	0xa6
 4670 11cc 5A090000 		.4byte	.LLST66
 4671 11d0 2C       		.uleb128 0x2c
 4672 11d1 7C640000 		.4byte	.LASF1248
 4673 11d5 01       		.byte	0x1
 4674 11d6 2F01     		.2byte	0x12f
 4675 11d8 A6000000 		.4byte	0xa6
 4676 11dc C0090000 		.4byte	.LLST67
 4677 11e0 35       		.uleb128 0x35
 4678 11e1 90030000 		.4byte	.Ldebug_ranges0+0x390
 4679 11e5 AE120000 		.4byte	0x12ae
 4680 11e9 36       		.uleb128 0x36
 4681 11ea D7090000 		.4byte	.LASF1271
 4682 11ee 01       		.byte	0x1
 4683 11ef 3A01     		.2byte	0x13a
 4684 11f1 05140000 		.4byte	0x1405
 4685 11f5 01       		.uleb128 0x1
 4686 11f6 51       		.byte	0x51
 4687 11f7 20       		.uleb128 0x20
 4688 11f8 1D1C0000 		.4byte	0x1c1d
 4689 11fc 8C000000 		.4byte	.LBB436
 4690 1200 B0030000 		.4byte	.Ldebug_ranges0+0x3b0
 4691 1204 01       		.byte	0x1
 4692 1205 4001     		.2byte	0x140
 4693 1207 1E120000 		.4byte	0x121e
 4694 120b 1D       		.uleb128 0x1d
 4695 120c 3A1C0000 		.4byte	0x1c3a
 4696 1210 0E0A0000 		.4byte	.LLST84
 4697 1214 1D       		.uleb128 0x1d
 4698 1215 2E1C0000 		.4byte	0x1c2e
 4699 1219 2E0A0000 		.4byte	.LLST85
 4700 121d 00       		.byte	0
 4701 121e 20       		.uleb128 0x20
 4702 121f 6B1B0000 		.4byte	0x1b6b
 4703 1223 90000000 		.4byte	.LBB440
 4704 1227 D0030000 		.4byte	.Ldebug_ranges0+0x3d0
 4705 122b 01       		.byte	0x1
 4706 122c 4101     		.2byte	0x141
 4707 122e 45120000 		.4byte	0x1245
 4708 1232 1D       		.uleb128 0x1d
ARM GAS  /tmp/ccGKa4GA.s 			page 114


 4709 1233 841B0000 		.4byte	0x1b84
 4710 1237 4C0A0000 		.4byte	.LLST86
 4711 123b 1D       		.uleb128 0x1d
 4712 123c 781B0000 		.4byte	0x1b78
 4713 1240 610A0000 		.4byte	.LLST87
 4714 1244 00       		.byte	0
 4715 1245 20       		.uleb128 0x20
 4716 1246 F31B0000 		.4byte	0x1bf3
 4717 124a 96000000 		.4byte	.LBB446
 4718 124e F8030000 		.4byte	.Ldebug_ranges0+0x3f8
 4719 1252 01       		.byte	0x1
 4720 1253 4601     		.2byte	0x146
 4721 1255 6C120000 		.4byte	0x126c
 4722 1259 1D       		.uleb128 0x1d
 4723 125a 101C0000 		.4byte	0x1c10
 4724 125e 740A0000 		.4byte	.LLST88
 4725 1262 1D       		.uleb128 0x1d
 4726 1263 041C0000 		.4byte	0x1c04
 4727 1267 880A0000 		.4byte	.LLST89
 4728 126b 00       		.byte	0
 4729 126c 20       		.uleb128 0x20
 4730 126d 1D1C0000 		.4byte	0x1c1d
 4731 1271 98000000 		.4byte	.LBB450
 4732 1275 18040000 		.4byte	.Ldebug_ranges0+0x418
 4733 1279 01       		.byte	0x1
 4734 127a 4B01     		.2byte	0x14b
 4735 127c 93120000 		.4byte	0x1293
 4736 1280 1D       		.uleb128 0x1d
 4737 1281 3A1C0000 		.4byte	0x1c3a
 4738 1285 9B0A0000 		.4byte	.LLST90
 4739 1289 1D       		.uleb128 0x1d
 4740 128a 2E1C0000 		.4byte	0x1c2e
 4741 128e AF0A0000 		.4byte	.LLST91
 4742 1292 00       		.byte	0
 4743 1293 22       		.uleb128 0x22
 4744 1294 911B0000 		.4byte	0x1b91
 4745 1298 B8000000 		.4byte	.LBB458
 4746 129c 38040000 		.4byte	.Ldebug_ranges0+0x438
 4747 12a0 01       		.byte	0x1
 4748 12a1 4C01     		.2byte	0x14c
 4749 12a3 1D       		.uleb128 0x1d
 4750 12a4 A21B0000 		.4byte	0x1ba2
 4751 12a8 C20A0000 		.4byte	.LLST92
 4752 12ac 00       		.byte	0
 4753 12ad 00       		.byte	0
 4754 12ae 35       		.uleb128 0x35
 4755 12af F0020000 		.4byte	.Ldebug_ranges0+0x2f0
 4756 12b3 7E130000 		.4byte	0x137e
 4757 12b7 2C       		.uleb128 0x2c
 4758 12b8 B3500000 		.4byte	.LASF1272
 4759 12bc 01       		.byte	0x1
 4760 12bd 5301     		.2byte	0x153
 4761 12bf B5080000 		.4byte	0x8b5
 4762 12c3 D50A0000 		.4byte	.LLST74
 4763 12c7 20       		.uleb128 0x20
 4764 12c8 1D1C0000 		.4byte	0x1c1d
 4765 12cc 28000000 		.4byte	.LBB406
ARM GAS  /tmp/ccGKa4GA.s 			page 115


 4766 12d0 08030000 		.4byte	.Ldebug_ranges0+0x308
 4767 12d4 01       		.byte	0x1
 4768 12d5 5901     		.2byte	0x159
 4769 12d7 EE120000 		.4byte	0x12ee
 4770 12db 1D       		.uleb128 0x1d
 4771 12dc 3A1C0000 		.4byte	0x1c3a
 4772 12e0 E80A0000 		.4byte	.LLST75
 4773 12e4 1D       		.uleb128 0x1d
 4774 12e5 2E1C0000 		.4byte	0x1c2e
 4775 12e9 080B0000 		.4byte	.LLST76
 4776 12ed 00       		.byte	0
 4777 12ee 20       		.uleb128 0x20
 4778 12ef 6B1B0000 		.4byte	0x1b6b
 4779 12f3 2C000000 		.4byte	.LBB410
 4780 12f7 28030000 		.4byte	.Ldebug_ranges0+0x328
 4781 12fb 01       		.byte	0x1
 4782 12fc 5A01     		.2byte	0x15a
 4783 12fe 15130000 		.4byte	0x1315
 4784 1302 1D       		.uleb128 0x1d
 4785 1303 841B0000 		.4byte	0x1b84
 4786 1307 260B0000 		.4byte	.LLST77
 4787 130b 1D       		.uleb128 0x1d
 4788 130c 781B0000 		.4byte	0x1b78
 4789 1310 3B0B0000 		.4byte	.LLST78
 4790 1314 00       		.byte	0
 4791 1315 20       		.uleb128 0x20
 4792 1316 F31B0000 		.4byte	0x1bf3
 4793 131a 30000000 		.4byte	.LBB414
 4794 131e 48030000 		.4byte	.Ldebug_ranges0+0x348
 4795 1322 01       		.byte	0x1
 4796 1323 5F01     		.2byte	0x15f
 4797 1325 3C130000 		.4byte	0x133c
 4798 1329 1D       		.uleb128 0x1d
 4799 132a 101C0000 		.4byte	0x1c10
 4800 132e 4E0B0000 		.4byte	.LLST79
 4801 1332 1D       		.uleb128 0x1d
 4802 1333 041C0000 		.4byte	0x1c04
 4803 1337 620B0000 		.4byte	.LLST80
 4804 133b 00       		.byte	0
 4805 133c 20       		.uleb128 0x20
 4806 133d 1D1C0000 		.4byte	0x1c1d
 4807 1341 36000000 		.4byte	.LBB420
 4808 1345 70030000 		.4byte	.Ldebug_ranges0+0x370
 4809 1349 01       		.byte	0x1
 4810 134a 6401     		.2byte	0x164
 4811 134c 63130000 		.4byte	0x1363
 4812 1350 1D       		.uleb128 0x1d
 4813 1351 3A1C0000 		.4byte	0x1c3a
 4814 1355 750B0000 		.4byte	.LLST81
 4815 1359 1D       		.uleb128 0x1d
 4816 135a 2E1C0000 		.4byte	0x1c2e
 4817 135e 890B0000 		.4byte	.LLST82
 4818 1362 00       		.byte	0
 4819 1363 32       		.uleb128 0x32
 4820 1364 911B0000 		.4byte	0x1b91
 4821 1368 54000000 		.4byte	.LBB427
 4822 136c 02000000 		.4byte	.LBE427-.LBB427
ARM GAS  /tmp/ccGKa4GA.s 			page 116


 4823 1370 01       		.byte	0x1
 4824 1371 6501     		.2byte	0x165
 4825 1373 1D       		.uleb128 0x1d
 4826 1374 A21B0000 		.4byte	0x1ba2
 4827 1378 9C0B0000 		.4byte	.LLST83
 4828 137c 00       		.byte	0
 4829 137d 00       		.byte	0
 4830 137e 20       		.uleb128 0x20
 4831 137f 1D1C0000 		.4byte	0x1c1d
 4832 1383 06000000 		.4byte	.LBB393
 4833 1387 D0020000 		.4byte	.Ldebug_ranges0+0x2d0
 4834 138b 01       		.byte	0x1
 4835 138c 3201     		.2byte	0x132
 4836 138e A5130000 		.4byte	0x13a5
 4837 1392 1D       		.uleb128 0x1d
 4838 1393 3A1C0000 		.4byte	0x1c3a
 4839 1397 AF0B0000 		.4byte	.LLST68
 4840 139b 1D       		.uleb128 0x1d
 4841 139c 2E1C0000 		.4byte	0x1c2e
 4842 13a0 CF0B0000 		.4byte	.LLST69
 4843 13a4 00       		.byte	0
 4844 13a5 1C       		.uleb128 0x1c
 4845 13a6 911B0000 		.4byte	0x1b91
 4846 13aa 10000000 		.4byte	.LBB398
 4847 13ae 02000000 		.4byte	.LBE398-.LBB398
 4848 13b2 01       		.byte	0x1
 4849 13b3 3301     		.2byte	0x133
 4850 13b5 C3130000 		.4byte	0x13c3
 4851 13b9 1D       		.uleb128 0x1d
 4852 13ba A21B0000 		.4byte	0x1ba2
 4853 13be ED0B0000 		.4byte	.LLST70
 4854 13c2 00       		.byte	0
 4855 13c3 1C       		.uleb128 0x1c
 4856 13c4 AF1B0000 		.4byte	0x1baf
 4857 13c8 18000000 		.4byte	.LBB401
 4858 13cc 04000000 		.4byte	.LBE401-.LBB401
 4859 13d0 01       		.byte	0x1
 4860 13d1 3701     		.2byte	0x137
 4861 13d3 EA130000 		.4byte	0x13ea
 4862 13d7 1D       		.uleb128 0x1d
 4863 13d8 C81B0000 		.4byte	0x1bc8
 4864 13dc 000C0000 		.4byte	.LLST71
 4865 13e0 1D       		.uleb128 0x1d
 4866 13e1 BC1B0000 		.4byte	0x1bbc
 4867 13e5 140C0000 		.4byte	.LLST72
 4868 13e9 00       		.byte	0
 4869 13ea 32       		.uleb128 0x32
 4870 13eb D51B0000 		.4byte	0x1bd5
 4871 13ef 1C000000 		.4byte	.LBB403
 4872 13f3 02000000 		.4byte	.LBE403-.LBB403
 4873 13f7 01       		.byte	0x1
 4874 13f8 3901     		.2byte	0x139
 4875 13fa 1D       		.uleb128 0x1d
 4876 13fb E61B0000 		.4byte	0x1be6
 4877 13ff 270C0000 		.4byte	.LLST73
 4878 1403 00       		.byte	0
 4879 1404 00       		.byte	0
ARM GAS  /tmp/ccGKa4GA.s 			page 117


 4880 1405 18       		.uleb128 0x18
 4881 1406 04       		.byte	0x4
 4882 1407 9B000000 		.4byte	0x9b
 4883 140b 37       		.uleb128 0x37
 4884 140c 2A7C0000 		.4byte	.LASF1273
 4885 1410 01       		.byte	0x1
 4886 1411 E9       		.byte	0xe9
 4887 1412 A6000000 		.4byte	0xa6
 4888 1416 00000000 		.4byte	.LFB208
 4889 141a C6000000 		.4byte	.LFE208-.LFB208
 4890 141e 01       		.uleb128 0x1
 4891 141f 9C       		.byte	0x9c
 4892 1420 8B160000 		.4byte	0x168b
 4893 1424 38       		.uleb128 0x38
 4894 1425 36100000 		.4byte	.LASF1256
 4895 1429 01       		.byte	0x1
 4896 142a E9       		.byte	0xe9
 4897 142b A9090000 		.4byte	0x9a9
 4898 142f 3A0C0000 		.4byte	.LLST35
 4899 1433 38       		.uleb128 0x38
 4900 1434 A4300000 		.4byte	.LASF1269
 4901 1438 01       		.byte	0x1
 4902 1439 E9       		.byte	0xe9
 4903 143a B5080000 		.4byte	0x8b5
 4904 143e 580C0000 		.4byte	.LLST36
 4905 1442 39       		.uleb128 0x39
 4906 1443 FD330000 		.4byte	.LASF1270
 4907 1447 01       		.byte	0x1
 4908 1448 E9       		.byte	0xe9
 4909 1449 A6000000 		.4byte	0xa6
 4910 144d 01       		.uleb128 0x1
 4911 144e 52       		.byte	0x52
 4912 144f 3A       		.uleb128 0x3a
 4913 1450 7C640000 		.4byte	.LASF1248
 4914 1454 01       		.byte	0x1
 4915 1455 EB       		.byte	0xeb
 4916 1456 A6000000 		.4byte	0xa6
 4917 145a 9D0C0000 		.4byte	.LLST37
 4918 145e 3A       		.uleb128 0x3a
 4919 145f 06460000 		.4byte	.LASF1250
 4920 1463 01       		.byte	0x1
 4921 1464 EB       		.byte	0xeb
 4922 1465 A6000000 		.4byte	0xa6
 4923 1469 D30C0000 		.4byte	.LLST38
 4924 146d 35       		.uleb128 0x35
 4925 146e 40020000 		.4byte	.Ldebug_ranges0+0x240
 4926 1472 38150000 		.4byte	0x1538
 4927 1476 3B       		.uleb128 0x3b
 4928 1477 9F560000 		.4byte	.LASF1274
 4929 147b 01       		.byte	0x1
 4930 147c F6       		.byte	0xf6
 4931 147d 05140000 		.4byte	0x1405
 4932 1481 01       		.uleb128 0x1
 4933 1482 58       		.byte	0x58
 4934 1483 27       		.uleb128 0x27
 4935 1484 1D1C0000 		.4byte	0x1c1d
 4936 1488 88000000 		.4byte	.LBB369
ARM GAS  /tmp/ccGKa4GA.s 			page 118


 4937 148c 60020000 		.4byte	.Ldebug_ranges0+0x260
 4938 1490 01       		.byte	0x1
 4939 1491 FC       		.byte	0xfc
 4940 1492 A9140000 		.4byte	0x14a9
 4941 1496 1D       		.uleb128 0x1d
 4942 1497 3A1C0000 		.4byte	0x1c3a
 4943 149b 210D0000 		.4byte	.LLST55
 4944 149f 1D       		.uleb128 0x1d
 4945 14a0 2E1C0000 		.4byte	0x1c2e
 4946 14a4 410D0000 		.4byte	.LLST56
 4947 14a8 00       		.byte	0
 4948 14a9 20       		.uleb128 0x20
 4949 14aa F31B0000 		.4byte	0x1bf3
 4950 14ae 8E000000 		.4byte	.LBB375
 4951 14b2 88020000 		.4byte	.Ldebug_ranges0+0x288
 4952 14b6 01       		.byte	0x1
 4953 14b7 0301     		.2byte	0x103
 4954 14b9 D0140000 		.4byte	0x14d0
 4955 14bd 1D       		.uleb128 0x1d
 4956 14be 101C0000 		.4byte	0x1c10
 4957 14c2 5F0D0000 		.4byte	.LLST57
 4958 14c6 1D       		.uleb128 0x1d
 4959 14c7 041C0000 		.4byte	0x1c04
 4960 14cb 730D0000 		.4byte	.LLST58
 4961 14cf 00       		.byte	0
 4962 14d0 20       		.uleb128 0x20
 4963 14d1 1D1C0000 		.4byte	0x1c1d
 4964 14d5 90000000 		.4byte	.LBB378
 4965 14d9 A0020000 		.4byte	.Ldebug_ranges0+0x2a0
 4966 14dd 01       		.byte	0x1
 4967 14de 0801     		.2byte	0x108
 4968 14e0 F7140000 		.4byte	0x14f7
 4969 14e4 1D       		.uleb128 0x1d
 4970 14e5 3A1C0000 		.4byte	0x1c3a
 4971 14e9 860D0000 		.4byte	.LLST59
 4972 14ed 1D       		.uleb128 0x1d
 4973 14ee 2E1C0000 		.4byte	0x1c2e
 4974 14f2 9A0D0000 		.4byte	.LLST60
 4975 14f6 00       		.byte	0
 4976 14f7 1C       		.uleb128 0x1c
 4977 14f8 911B0000 		.4byte	0x1b91
 4978 14fc A8000000 		.4byte	.LBB384
 4979 1500 02000000 		.4byte	.LBE384-.LBB384
 4980 1504 01       		.byte	0x1
 4981 1505 0901     		.2byte	0x109
 4982 1507 15150000 		.4byte	0x1515
 4983 150b 1D       		.uleb128 0x1d
 4984 150c A21B0000 		.4byte	0x1ba2
 4985 1510 AD0D0000 		.4byte	.LLST61
 4986 1514 00       		.byte	0
 4987 1515 34       		.uleb128 0x34
 4988 1516 6B1B0000 		.4byte	0x1b6b
 4989 151a B6000000 		.4byte	.LBB387
 4990 151e B8020000 		.4byte	.Ldebug_ranges0+0x2b8
 4991 1522 01       		.byte	0x1
 4992 1523 FD       		.byte	0xfd
 4993 1524 1D       		.uleb128 0x1d
ARM GAS  /tmp/ccGKa4GA.s 			page 119


 4994 1525 841B0000 		.4byte	0x1b84
 4995 1529 C00D0000 		.4byte	.LLST62
 4996 152d 1D       		.uleb128 0x1d
 4997 152e 781B0000 		.4byte	0x1b78
 4998 1532 D40D0000 		.4byte	.LLST63
 4999 1536 00       		.byte	0
 5000 1537 00       		.byte	0
 5001 1538 35       		.uleb128 0x35
 5002 1539 A8010000 		.4byte	.Ldebug_ranges0+0x1a8
 5003 153d 08160000 		.4byte	0x1608
 5004 1541 2C       		.uleb128 0x2c
 5005 1542 74000000 		.4byte	.LASF1275
 5006 1546 01       		.byte	0x1
 5007 1547 0F01     		.2byte	0x10f
 5008 1549 B5080000 		.4byte	0x8b5
 5009 154d E70D0000 		.4byte	.LLST45
 5010 1551 20       		.uleb128 0x20
 5011 1552 1D1C0000 		.4byte	0x1c1d
 5012 1556 2C000000 		.4byte	.LBB341
 5013 155a C0010000 		.4byte	.Ldebug_ranges0+0x1c0
 5014 155e 01       		.byte	0x1
 5015 155f 1501     		.2byte	0x115
 5016 1561 78150000 		.4byte	0x1578
 5017 1565 1D       		.uleb128 0x1d
 5018 1566 3A1C0000 		.4byte	0x1c3a
 5019 156a FA0D0000 		.4byte	.LLST46
 5020 156e 1D       		.uleb128 0x1d
 5021 156f 2E1C0000 		.4byte	0x1c2e
 5022 1573 1A0E0000 		.4byte	.LLST47
 5023 1577 00       		.byte	0
 5024 1578 20       		.uleb128 0x20
 5025 1579 F31B0000 		.4byte	0x1bf3
 5026 157d 32000000 		.4byte	.LBB347
 5027 1581 E8010000 		.4byte	.Ldebug_ranges0+0x1e8
 5028 1585 01       		.byte	0x1
 5029 1586 1C01     		.2byte	0x11c
 5030 1588 9F150000 		.4byte	0x159f
 5031 158c 1D       		.uleb128 0x1d
 5032 158d 101C0000 		.4byte	0x1c10
 5033 1591 380E0000 		.4byte	.LLST48
 5034 1595 1D       		.uleb128 0x1d
 5035 1596 041C0000 		.4byte	0x1c04
 5036 159a 4C0E0000 		.4byte	.LLST49
 5037 159e 00       		.byte	0
 5038 159f 20       		.uleb128 0x20
 5039 15a0 1D1C0000 		.4byte	0x1c1d
 5040 15a4 34000000 		.4byte	.LBB351
 5041 15a8 08020000 		.4byte	.Ldebug_ranges0+0x208
 5042 15ac 01       		.byte	0x1
 5043 15ad 2101     		.2byte	0x121
 5044 15af C6150000 		.4byte	0x15c6
 5045 15b3 1D       		.uleb128 0x1d
 5046 15b4 3A1C0000 		.4byte	0x1c3a
 5047 15b8 5F0E0000 		.4byte	.LLST50
 5048 15bc 1D       		.uleb128 0x1d
 5049 15bd 2E1C0000 		.4byte	0x1c2e
 5050 15c1 730E0000 		.4byte	.LLST51
ARM GAS  /tmp/ccGKa4GA.s 			page 120


 5051 15c5 00       		.byte	0
 5052 15c6 1C       		.uleb128 0x1c
 5053 15c7 911B0000 		.4byte	0x1b91
 5054 15cb 50000000 		.4byte	.LBB358
 5055 15cf 02000000 		.4byte	.LBE358-.LBB358
 5056 15d3 01       		.byte	0x1
 5057 15d4 2201     		.2byte	0x122
 5058 15d6 E4150000 		.4byte	0x15e4
 5059 15da 1D       		.uleb128 0x1d
 5060 15db A21B0000 		.4byte	0x1ba2
 5061 15df 860E0000 		.4byte	.LLST52
 5062 15e3 00       		.byte	0
 5063 15e4 22       		.uleb128 0x22
 5064 15e5 6B1B0000 		.4byte	0x1b6b
 5065 15e9 6A000000 		.4byte	.LBB362
 5066 15ed 28020000 		.4byte	.Ldebug_ranges0+0x228
 5067 15f1 01       		.byte	0x1
 5068 15f2 1601     		.2byte	0x116
 5069 15f4 1D       		.uleb128 0x1d
 5070 15f5 841B0000 		.4byte	0x1b84
 5071 15f9 990E0000 		.4byte	.LLST53
 5072 15fd 1D       		.uleb128 0x1d
 5073 15fe 781B0000 		.4byte	0x1b78
 5074 1602 B30E0000 		.4byte	.LLST54
 5075 1606 00       		.byte	0
 5076 1607 00       		.byte	0
 5077 1608 27       		.uleb128 0x27
 5078 1609 1D1C0000 		.4byte	0x1c1d
 5079 160d 08000000 		.4byte	.LBB328
 5080 1611 88010000 		.4byte	.Ldebug_ranges0+0x188
 5081 1615 01       		.byte	0x1
 5082 1616 EE       		.byte	0xee
 5083 1617 2E160000 		.4byte	0x162e
 5084 161b 1D       		.uleb128 0x1d
 5085 161c 3A1C0000 		.4byte	0x1c3a
 5086 1620 C60E0000 		.4byte	.LLST39
 5087 1624 1D       		.uleb128 0x1d
 5088 1625 2E1C0000 		.4byte	0x1c2e
 5089 1629 E60E0000 		.4byte	.LLST40
 5090 162d 00       		.byte	0
 5091 162e 23       		.uleb128 0x23
 5092 162f 911B0000 		.4byte	0x1b91
 5093 1633 14000000 		.4byte	.LBB333
 5094 1637 02000000 		.4byte	.LBE333-.LBB333
 5095 163b 01       		.byte	0x1
 5096 163c EF       		.byte	0xef
 5097 163d 4B160000 		.4byte	0x164b
 5098 1641 1D       		.uleb128 0x1d
 5099 1642 A21B0000 		.4byte	0x1ba2
 5100 1646 040F0000 		.4byte	.LLST41
 5101 164a 00       		.byte	0
 5102 164b 23       		.uleb128 0x23
 5103 164c AF1B0000 		.4byte	0x1baf
 5104 1650 1C000000 		.4byte	.LBB336
 5105 1654 04000000 		.4byte	.LBE336-.LBB336
 5106 1658 01       		.byte	0x1
 5107 1659 F3       		.byte	0xf3
ARM GAS  /tmp/ccGKa4GA.s 			page 121


 5108 165a 71160000 		.4byte	0x1671
 5109 165e 1D       		.uleb128 0x1d
 5110 165f C81B0000 		.4byte	0x1bc8
 5111 1663 170F0000 		.4byte	.LLST42
 5112 1667 1D       		.uleb128 0x1d
 5113 1668 BC1B0000 		.4byte	0x1bbc
 5114 166c 2B0F0000 		.4byte	.LLST43
 5115 1670 00       		.byte	0
 5116 1671 24       		.uleb128 0x24
 5117 1672 D51B0000 		.4byte	0x1bd5
 5118 1676 20000000 		.4byte	.LBB338
 5119 167a 02000000 		.4byte	.LBE338-.LBB338
 5120 167e 01       		.byte	0x1
 5121 167f F5       		.byte	0xf5
 5122 1680 1D       		.uleb128 0x1d
 5123 1681 E61B0000 		.4byte	0x1be6
 5124 1685 3E0F0000 		.4byte	.LLST44
 5125 1689 00       		.byte	0
 5126 168a 00       		.byte	0
 5127 168b 37       		.uleb128 0x37
 5128 168c 15780000 		.4byte	.LASF1276
 5129 1690 01       		.byte	0x1
 5130 1691 B4       		.byte	0xb4
 5131 1692 A6000000 		.4byte	0xa6
 5132 1696 00000000 		.4byte	.LFB207
 5133 169a 48010000 		.4byte	.LFE207-.LFB207
 5134 169e 01       		.uleb128 0x1
 5135 169f 9C       		.byte	0x9c
 5136 16a0 94190000 		.4byte	0x1994
 5137 16a4 38       		.uleb128 0x38
 5138 16a5 36100000 		.4byte	.LASF1256
 5139 16a9 01       		.byte	0x1
 5140 16aa B4       		.byte	0xb4
 5141 16ab A9090000 		.4byte	0x9a9
 5142 16af 510F0000 		.4byte	.LLST2
 5143 16b3 39       		.uleb128 0x39
 5144 16b4 3E210000 		.4byte	.LASF1264
 5145 16b8 01       		.byte	0x1
 5146 16b9 B4       		.byte	0xb4
 5147 16ba 9F0E0000 		.4byte	0xe9f
 5148 16be 01       		.uleb128 0x1
 5149 16bf 51       		.byte	0x51
 5150 16c0 27       		.uleb128 0x27
 5151 16c1 1D1C0000 		.4byte	0x1c1d
 5152 16c5 06000000 		.4byte	.LBB242
 5153 16c9 00000000 		.4byte	.Ldebug_ranges0+0
 5154 16cd 01       		.byte	0x1
 5155 16ce B7       		.byte	0xb7
 5156 16cf E6160000 		.4byte	0x16e6
 5157 16d3 1D       		.uleb128 0x1d
 5158 16d4 3A1C0000 		.4byte	0x1c3a
 5159 16d8 960F0000 		.4byte	.LLST3
 5160 16dc 1D       		.uleb128 0x1d
 5161 16dd 2E1C0000 		.4byte	0x1c2e
 5162 16e1 B60F0000 		.4byte	.LLST4
 5163 16e5 00       		.byte	0
 5164 16e6 23       		.uleb128 0x23
ARM GAS  /tmp/ccGKa4GA.s 			page 122


 5165 16e7 911B0000 		.4byte	0x1b91
 5166 16eb 10000000 		.4byte	.LBB247
 5167 16ef 02000000 		.4byte	.LBE247-.LBB247
 5168 16f3 01       		.byte	0x1
 5169 16f4 B8       		.byte	0xb8
 5170 16f5 03170000 		.4byte	0x1703
 5171 16f9 1D       		.uleb128 0x1d
 5172 16fa A21B0000 		.4byte	0x1ba2
 5173 16fe D40F0000 		.4byte	.LLST5
 5174 1702 00       		.byte	0
 5175 1703 23       		.uleb128 0x23
 5176 1704 AF1B0000 		.4byte	0x1baf
 5177 1708 18000000 		.4byte	.LBB250
 5178 170c 04000000 		.4byte	.LBE250-.LBB250
 5179 1710 01       		.byte	0x1
 5180 1711 BC       		.byte	0xbc
 5181 1712 29170000 		.4byte	0x1729
 5182 1716 1D       		.uleb128 0x1d
 5183 1717 C81B0000 		.4byte	0x1bc8
 5184 171b E70F0000 		.4byte	.LLST6
 5185 171f 1D       		.uleb128 0x1d
 5186 1720 BC1B0000 		.4byte	0x1bbc
 5187 1724 FB0F0000 		.4byte	.LLST7
 5188 1728 00       		.byte	0
 5189 1729 23       		.uleb128 0x23
 5190 172a D51B0000 		.4byte	0x1bd5
 5191 172e 1C000000 		.4byte	.LBB252
 5192 1732 02000000 		.4byte	.LBE252-.LBB252
 5193 1736 01       		.byte	0x1
 5194 1737 BE       		.byte	0xbe
 5195 1738 46170000 		.4byte	0x1746
 5196 173c 1D       		.uleb128 0x1d
 5197 173d E61B0000 		.4byte	0x1be6
 5198 1741 0E100000 		.4byte	.LLST8
 5199 1745 00       		.byte	0
 5200 1746 27       		.uleb128 0x27
 5201 1747 1D1C0000 		.4byte	0x1c1d
 5202 174b 26000000 		.4byte	.LBB254
 5203 174f 20000000 		.4byte	.Ldebug_ranges0+0x20
 5204 1753 01       		.byte	0x1
 5205 1754 D1       		.byte	0xd1
 5206 1755 6C170000 		.4byte	0x176c
 5207 1759 1D       		.uleb128 0x1d
 5208 175a 3A1C0000 		.4byte	0x1c3a
 5209 175e 21100000 		.4byte	.LLST9
 5210 1762 1D       		.uleb128 0x1d
 5211 1763 2E1C0000 		.4byte	0x1c2e
 5212 1767 41100000 		.4byte	.LLST10
 5213 176b 00       		.byte	0
 5214 176c 27       		.uleb128 0x27
 5215 176d C11A0000 		.4byte	0x1ac1
 5216 1771 2A000000 		.4byte	.LBB258
 5217 1775 40000000 		.4byte	.Ldebug_ranges0+0x40
 5218 1779 01       		.byte	0x1
 5219 177a D2       		.byte	0xd2
 5220 177b DE170000 		.4byte	0x17de
 5221 177f 1D       		.uleb128 0x1d
ARM GAS  /tmp/ccGKa4GA.s 			page 123


 5222 1780 D81A0000 		.4byte	0x1ad8
 5223 1784 5F100000 		.4byte	.LLST11
 5224 1788 1D       		.uleb128 0x1d
 5225 1789 D81A0000 		.4byte	0x1ad8
 5226 178d 5F100000 		.4byte	.LLST11
 5227 1791 1D       		.uleb128 0x1d
 5228 1792 CD1A0000 		.4byte	0x1acd
 5229 1796 7D100000 		.4byte	.LLST13
 5230 179a 27       		.uleb128 0x27
 5231 179b 6B1B0000 		.4byte	0x1b6b
 5232 179f 2A000000 		.4byte	.LBB260
 5233 17a3 60000000 		.4byte	.Ldebug_ranges0+0x60
 5234 17a7 01       		.byte	0x1
 5235 17a8 42       		.byte	0x42
 5236 17a9 BB170000 		.4byte	0x17bb
 5237 17ad 25       		.uleb128 0x25
 5238 17ae 841B0000 		.4byte	0x1b84
 5239 17b2 FF       		.byte	0xff
 5240 17b3 31       		.uleb128 0x31
 5241 17b4 781B0000 		.4byte	0x1b78
 5242 17b8 01       		.uleb128 0x1
 5243 17b9 50       		.byte	0x50
 5244 17ba 00       		.byte	0
 5245 17bb 24       		.uleb128 0x24
 5246 17bc 6B1B0000 		.4byte	0x1b6b
 5247 17c0 56000000 		.4byte	.LBB263
 5248 17c4 04000000 		.4byte	.LBE263-.LBB263
 5249 17c8 01       		.byte	0x1
 5250 17c9 3F       		.byte	0x3f
 5251 17ca 1D       		.uleb128 0x1d
 5252 17cb 841B0000 		.4byte	0x1b84
 5253 17cf 9B100000 		.4byte	.LLST14
 5254 17d3 1D       		.uleb128 0x1d
 5255 17d4 781B0000 		.4byte	0x1b78
 5256 17d8 C8100000 		.4byte	.LLST15
 5257 17dc 00       		.byte	0
 5258 17dd 00       		.byte	0
 5259 17de 27       		.uleb128 0x27
 5260 17df F31B0000 		.4byte	0x1bf3
 5261 17e3 2E000000 		.4byte	.LBB268
 5262 17e7 78000000 		.4byte	.Ldebug_ranges0+0x78
 5263 17eb 01       		.byte	0x1
 5264 17ec D6       		.byte	0xd6
 5265 17ed 04180000 		.4byte	0x1804
 5266 17f1 1D       		.uleb128 0x1d
 5267 17f2 101C0000 		.4byte	0x1c10
 5268 17f6 DB100000 		.4byte	.LLST16
 5269 17fa 1D       		.uleb128 0x1d
 5270 17fb 041C0000 		.4byte	0x1c04
 5271 17ff FB100000 		.4byte	.LLST17
 5272 1803 00       		.byte	0
 5273 1804 27       		.uleb128 0x27
 5274 1805 651A0000 		.4byte	0x1a65
 5275 1809 32000000 		.4byte	.LBB272
 5276 180d 98000000 		.4byte	.Ldebug_ranges0+0x98
 5277 1811 01       		.byte	0x1
 5278 1812 DB       		.byte	0xdb
ARM GAS  /tmp/ccGKa4GA.s 			page 124


 5279 1813 6C180000 		.4byte	0x186c
 5280 1817 21       		.uleb128 0x21
 5281 1818 7C1A0000 		.4byte	0x1a7c
 5282 181c 21       		.uleb128 0x21
 5283 181d 711A0000 		.4byte	0x1a71
 5284 1821 26       		.uleb128 0x26
 5285 1822 98000000 		.4byte	.Ldebug_ranges0+0x98
 5286 1826 1F       		.uleb128 0x1f
 5287 1827 871A0000 		.4byte	0x1a87
 5288 182b 27       		.uleb128 0x27
 5289 182c 1D1C0000 		.4byte	0x1c1d
 5290 1830 32000000 		.4byte	.LBB274
 5291 1834 B0000000 		.4byte	.Ldebug_ranges0+0xb0
 5292 1838 01       		.byte	0x1
 5293 1839 5D       		.byte	0x5d
 5294 183a 51180000 		.4byte	0x1851
 5295 183e 1D       		.uleb128 0x1d
 5296 183f 3A1C0000 		.4byte	0x1c3a
 5297 1843 19110000 		.4byte	.LLST18
 5298 1847 1D       		.uleb128 0x1d
 5299 1848 2E1C0000 		.4byte	0x1c2e
 5300 184c 39110000 		.4byte	.LLST19
 5301 1850 00       		.byte	0
 5302 1851 24       		.uleb128 0x24
 5303 1852 911B0000 		.4byte	0x1b91
 5304 1856 74000000 		.4byte	.LBB279
 5305 185a 02000000 		.4byte	.LBE279-.LBB279
 5306 185e 01       		.byte	0x1
 5307 185f 5F       		.byte	0x5f
 5308 1860 1D       		.uleb128 0x1d
 5309 1861 A21B0000 		.4byte	0x1ba2
 5310 1865 57110000 		.4byte	.LLST20
 5311 1869 00       		.byte	0
 5312 186a 00       		.byte	0
 5313 186b 00       		.byte	0
 5314 186c 27       		.uleb128 0x27
 5315 186d 1D1C0000 		.4byte	0x1c1d
 5316 1871 AE000000 		.4byte	.LBB289
 5317 1875 D0000000 		.4byte	.Ldebug_ranges0+0xd0
 5318 1879 01       		.byte	0x1
 5319 187a C1       		.byte	0xc1
 5320 187b 92180000 		.4byte	0x1892
 5321 187f 1D       		.uleb128 0x1d
 5322 1880 3A1C0000 		.4byte	0x1c3a
 5323 1884 6A110000 		.4byte	.LLST21
 5324 1888 1D       		.uleb128 0x1d
 5325 1889 2E1C0000 		.4byte	0x1c2e
 5326 188d 8A110000 		.4byte	.LLST22
 5327 1891 00       		.byte	0
 5328 1892 27       		.uleb128 0x27
 5329 1893 E41A0000 		.4byte	0x1ae4
 5330 1897 B2000000 		.4byte	.LBB293
 5331 189b F0000000 		.4byte	.Ldebug_ranges0+0xf0
 5332 189f 01       		.byte	0x1
 5333 18a0 C2       		.byte	0xc2
 5334 18a1 09190000 		.4byte	0x1909
 5335 18a5 1D       		.uleb128 0x1d
ARM GAS  /tmp/ccGKa4GA.s 			page 125


 5336 18a6 FB1A0000 		.4byte	0x1afb
 5337 18aa A8110000 		.4byte	.LLST23
 5338 18ae 1D       		.uleb128 0x1d
 5339 18af FB1A0000 		.4byte	0x1afb
 5340 18b3 A8110000 		.4byte	.LLST23
 5341 18b7 1D       		.uleb128 0x1d
 5342 18b8 F01A0000 		.4byte	0x1af0
 5343 18bc C6110000 		.4byte	.LLST25
 5344 18c0 27       		.uleb128 0x27
 5345 18c1 6B1B0000 		.4byte	0x1b6b
 5346 18c5 B2000000 		.4byte	.LBB295
 5347 18c9 18010000 		.4byte	.Ldebug_ranges0+0x118
 5348 18cd 01       		.byte	0x1
 5349 18ce 35       		.byte	0x35
 5350 18cf E6180000 		.4byte	0x18e6
 5351 18d3 1D       		.uleb128 0x1d
 5352 18d4 841B0000 		.4byte	0x1b84
 5353 18d8 E4110000 		.4byte	.LLST26
 5354 18dc 1D       		.uleb128 0x1d
 5355 18dd 781B0000 		.4byte	0x1b78
 5356 18e1 F9110000 		.4byte	.LLST27
 5357 18e5 00       		.byte	0
 5358 18e6 24       		.uleb128 0x24
 5359 18e7 6B1B0000 		.4byte	0x1b6b
 5360 18eb DA000000 		.4byte	.LBB300
 5361 18ef 04000000 		.4byte	.LBE300-.LBB300
 5362 18f3 01       		.byte	0x1
 5363 18f4 31       		.byte	0x31
 5364 18f5 1D       		.uleb128 0x1d
 5365 18f6 841B0000 		.4byte	0x1b84
 5366 18fa 0C120000 		.4byte	.LLST28
 5367 18fe 1D       		.uleb128 0x1d
 5368 18ff 781B0000 		.4byte	0x1b78
 5369 1903 2E120000 		.4byte	.LLST29
 5370 1907 00       		.byte	0
 5371 1908 00       		.byte	0
 5372 1909 27       		.uleb128 0x27
 5373 190a 931A0000 		.4byte	0x1a93
 5374 190e B4000000 		.4byte	.LBB306
 5375 1912 38010000 		.4byte	.Ldebug_ranges0+0x138
 5376 1916 01       		.byte	0x1
 5377 1917 CB       		.byte	0xcb
 5378 1918 71190000 		.4byte	0x1971
 5379 191c 21       		.uleb128 0x21
 5380 191d AA1A0000 		.4byte	0x1aaa
 5381 1921 21       		.uleb128 0x21
 5382 1922 9F1A0000 		.4byte	0x1a9f
 5383 1926 26       		.uleb128 0x26
 5384 1927 38010000 		.4byte	.Ldebug_ranges0+0x138
 5385 192b 1F       		.uleb128 0x1f
 5386 192c B51A0000 		.4byte	0x1ab5
 5387 1930 27       		.uleb128 0x27
 5388 1931 1D1C0000 		.4byte	0x1c1d
 5389 1935 B4000000 		.4byte	.LBB308
 5390 1939 50010000 		.4byte	.Ldebug_ranges0+0x150
 5391 193d 01       		.byte	0x1
 5392 193e 4D       		.byte	0x4d
ARM GAS  /tmp/ccGKa4GA.s 			page 126


 5393 193f 56190000 		.4byte	0x1956
 5394 1943 1D       		.uleb128 0x1d
 5395 1944 3A1C0000 		.4byte	0x1c3a
 5396 1948 41120000 		.4byte	.LLST30
 5397 194c 1D       		.uleb128 0x1d
 5398 194d 2E1C0000 		.4byte	0x1c2e
 5399 1951 55120000 		.4byte	.LLST31
 5400 1955 00       		.byte	0
 5401 1956 24       		.uleb128 0x24
 5402 1957 911B0000 		.4byte	0x1b91
 5403 195b FE000000 		.4byte	.LBB313
 5404 195f 04000000 		.4byte	.LBE313-.LBB313
 5405 1963 01       		.byte	0x1
 5406 1964 4F       		.byte	0x4f
 5407 1965 1D       		.uleb128 0x1d
 5408 1966 A21B0000 		.4byte	0x1ba2
 5409 196a 68120000 		.4byte	.LLST32
 5410 196e 00       		.byte	0
 5411 196f 00       		.byte	0
 5412 1970 00       		.byte	0
 5413 1971 34       		.uleb128 0x34
 5414 1972 F31B0000 		.4byte	0x1bf3
 5415 1976 B8000000 		.4byte	.LBB318
 5416 197a 70010000 		.4byte	.Ldebug_ranges0+0x170
 5417 197e 01       		.byte	0x1
 5418 197f C6       		.byte	0xc6
 5419 1980 1D       		.uleb128 0x1d
 5420 1981 101C0000 		.4byte	0x1c10
 5421 1985 7B120000 		.4byte	.LLST33
 5422 1989 1D       		.uleb128 0x1d
 5423 198a 041C0000 		.4byte	0x1c04
 5424 198e 8F120000 		.4byte	.LLST34
 5425 1992 00       		.byte	0
 5426 1993 00       		.byte	0
 5427 1994 3C       		.uleb128 0x3c
 5428 1995 ED360000 		.4byte	.LASF1321
 5429 1999 01       		.byte	0x1
 5430 199a AB       		.byte	0xab
 5431 199b 01       		.byte	0x1
 5432 199c CD190000 		.4byte	0x19cd
 5433 19a0 3D       		.uleb128 0x3d
 5434 19a1 36100000 		.4byte	.LASF1256
 5435 19a5 01       		.byte	0x1
 5436 19a6 AB       		.byte	0xab
 5437 19a7 A9090000 		.4byte	0x9a9
 5438 19ab 3D       		.uleb128 0x3d
 5439 19ac 09020000 		.4byte	.LASF1277
 5440 19b0 01       		.byte	0x1
 5441 19b1 AB       		.byte	0xab
 5442 19b2 A6000000 		.4byte	0xa6
 5443 19b6 3D       		.uleb128 0x3d
 5444 19b7 307D0000 		.4byte	.LASF1261
 5445 19bb 01       		.byte	0x1
 5446 19bc AB       		.byte	0xab
 5447 19bd A6000000 		.4byte	0xa6
 5448 19c1 3E       		.uleb128 0x3e
 5449 19c2 757E0000 		.4byte	.LASF1279
ARM GAS  /tmp/ccGKa4GA.s 			page 127


 5450 19c6 01       		.byte	0x1
 5451 19c7 AD       		.byte	0xad
 5452 19c8 A6000000 		.4byte	0xa6
 5453 19cc 00       		.byte	0
 5454 19cd 3F       		.uleb128 0x3f
 5455 19ce C6240000 		.4byte	.LASF1281
 5456 19d2 01       		.byte	0x1
 5457 19d3 96       		.byte	0x96
 5458 19d4 A6000000 		.4byte	0xa6
 5459 19d8 01       		.byte	0x1
 5460 19d9 F4190000 		.4byte	0x19f4
 5461 19dd 3D       		.uleb128 0x3d
 5462 19de 36100000 		.4byte	.LASF1256
 5463 19e2 01       		.byte	0x1
 5464 19e3 96       		.byte	0x96
 5465 19e4 A9090000 		.4byte	0x9a9
 5466 19e8 3E       		.uleb128 0x3e
 5467 19e9 60780000 		.4byte	.LASF1280
 5468 19ed 01       		.byte	0x1
 5469 19ee 98       		.byte	0x98
 5470 19ef A6000000 		.4byte	0xa6
 5471 19f3 00       		.byte	0
 5472 19f4 40       		.uleb128 0x40
 5473 19f5 7E690000 		.4byte	.LASF1286
 5474 19f9 01       		.byte	0x1
 5475 19fa 89       		.byte	0x89
 5476 19fb 01       		.byte	0x1
 5477 19fc 171A0000 		.4byte	0x1a17
 5478 1a00 3D       		.uleb128 0x3d
 5479 1a01 36100000 		.4byte	.LASF1256
 5480 1a05 01       		.byte	0x1
 5481 1a06 89       		.byte	0x89
 5482 1a07 A9090000 		.4byte	0x9a9
 5483 1a0b 41       		.uleb128 0x41
 5484 1a0c 64697600 		.ascii	"div\000"
 5485 1a10 01       		.byte	0x1
 5486 1a11 89       		.byte	0x89
 5487 1a12 A6000000 		.4byte	0xa6
 5488 1a16 00       		.byte	0
 5489 1a17 3F       		.uleb128 0x3f
 5490 1a18 67780000 		.4byte	.LASF1282
 5491 1a1c 01       		.byte	0x1
 5492 1a1d 7A       		.byte	0x7a
 5493 1a1e C1050000 		.4byte	0x5c1
 5494 1a22 01       		.byte	0x1
 5495 1a23 3E1A0000 		.4byte	0x1a3e
 5496 1a27 3D       		.uleb128 0x3d
 5497 1a28 36100000 		.4byte	.LASF1256
 5498 1a2c 01       		.byte	0x1
 5499 1a2d 7A       		.byte	0x7a
 5500 1a2e A9090000 		.4byte	0x9a9
 5501 1a32 3E       		.uleb128 0x3e
 5502 1a33 26760000 		.4byte	.LASF1283
 5503 1a37 01       		.byte	0x1
 5504 1a38 7C       		.byte	0x7c
 5505 1a39 C1050000 		.4byte	0x5c1
 5506 1a3d 00       		.byte	0
ARM GAS  /tmp/ccGKa4GA.s 			page 128


 5507 1a3e 3F       		.uleb128 0x3f
 5508 1a3f DC2C0000 		.4byte	.LASF1284
 5509 1a43 01       		.byte	0x1
 5510 1a44 69       		.byte	0x69
 5511 1a45 4F060000 		.4byte	0x64f
 5512 1a49 01       		.byte	0x1
 5513 1a4a 651A0000 		.4byte	0x1a65
 5514 1a4e 3D       		.uleb128 0x3d
 5515 1a4f 36100000 		.4byte	.LASF1256
 5516 1a53 01       		.byte	0x1
 5517 1a54 69       		.byte	0x69
 5518 1a55 A9090000 		.4byte	0x9a9
 5519 1a59 3E       		.uleb128 0x3e
 5520 1a5a 38410000 		.4byte	.LASF1285
 5521 1a5e 01       		.byte	0x1
 5522 1a5f 6B       		.byte	0x6b
 5523 1a60 4F060000 		.4byte	0x64f
 5524 1a64 00       		.byte	0
 5525 1a65 40       		.uleb128 0x40
 5526 1a66 216C0000 		.4byte	.LASF1287
 5527 1a6a 01       		.byte	0x1
 5528 1a6b 59       		.byte	0x59
 5529 1a6c 01       		.byte	0x1
 5530 1a6d 931A0000 		.4byte	0x1a93
 5531 1a71 3D       		.uleb128 0x3d
 5532 1a72 36100000 		.4byte	.LASF1256
 5533 1a76 01       		.byte	0x1
 5534 1a77 59       		.byte	0x59
 5535 1a78 A9090000 		.4byte	0x9a9
 5536 1a7c 3D       		.uleb128 0x3d
 5537 1a7d 3E210000 		.4byte	.LASF1264
 5538 1a81 01       		.byte	0x1
 5539 1a82 59       		.byte	0x59
 5540 1a83 9F0E0000 		.4byte	0xe9f
 5541 1a87 3E       		.uleb128 0x3e
 5542 1a88 48780000 		.4byte	.LASF1288
 5543 1a8c 01       		.byte	0x1
 5544 1a8d 5B       		.byte	0x5b
 5545 1a8e 9B000000 		.4byte	0x9b
 5546 1a92 00       		.byte	0
 5547 1a93 40       		.uleb128 0x40
 5548 1a94 8D490000 		.4byte	.LASF1289
 5549 1a98 01       		.byte	0x1
 5550 1a99 49       		.byte	0x49
 5551 1a9a 01       		.byte	0x1
 5552 1a9b C11A0000 		.4byte	0x1ac1
 5553 1a9f 3D       		.uleb128 0x3d
 5554 1aa0 36100000 		.4byte	.LASF1256
 5555 1aa4 01       		.byte	0x1
 5556 1aa5 49       		.byte	0x49
 5557 1aa6 A9090000 		.4byte	0x9a9
 5558 1aaa 3D       		.uleb128 0x3d
 5559 1aab 3E210000 		.4byte	.LASF1264
 5560 1aaf 01       		.byte	0x1
 5561 1ab0 49       		.byte	0x49
 5562 1ab1 9F0E0000 		.4byte	0xe9f
 5563 1ab5 3E       		.uleb128 0x3e
ARM GAS  /tmp/ccGKa4GA.s 			page 129


 5564 1ab6 48780000 		.4byte	.LASF1288
 5565 1aba 01       		.byte	0x1
 5566 1abb 4B       		.byte	0x4b
 5567 1abc 9B000000 		.4byte	0x9b
 5568 1ac0 00       		.byte	0
 5569 1ac1 40       		.uleb128 0x40
 5570 1ac2 183A0000 		.4byte	.LASF1290
 5571 1ac6 01       		.byte	0x1
 5572 1ac7 3C       		.byte	0x3c
 5573 1ac8 01       		.byte	0x1
 5574 1ac9 E41A0000 		.4byte	0x1ae4
 5575 1acd 3D       		.uleb128 0x3d
 5576 1ace 36100000 		.4byte	.LASF1256
 5577 1ad2 01       		.byte	0x1
 5578 1ad3 3C       		.byte	0x3c
 5579 1ad4 A9090000 		.4byte	0x9a9
 5580 1ad8 3D       		.uleb128 0x3d
 5581 1ad9 3E210000 		.4byte	.LASF1264
 5582 1add 01       		.byte	0x1
 5583 1ade 3C       		.byte	0x3c
 5584 1adf 9F0E0000 		.4byte	0xe9f
 5585 1ae3 00       		.byte	0
 5586 1ae4 40       		.uleb128 0x40
 5587 1ae5 BF310000 		.4byte	.LASF1291
 5588 1ae9 01       		.byte	0x1
 5589 1aea 2E       		.byte	0x2e
 5590 1aeb 01       		.byte	0x1
 5591 1aec 071B0000 		.4byte	0x1b07
 5592 1af0 3D       		.uleb128 0x3d
 5593 1af1 36100000 		.4byte	.LASF1256
 5594 1af5 01       		.byte	0x1
 5595 1af6 2E       		.byte	0x2e
 5596 1af7 A9090000 		.4byte	0x9a9
 5597 1afb 3D       		.uleb128 0x3d
 5598 1afc 3E210000 		.4byte	.LASF1264
 5599 1b00 01       		.byte	0x1
 5600 1b01 2E       		.byte	0x2e
 5601 1b02 9F0E0000 		.4byte	0xe9f
 5602 1b06 00       		.byte	0
 5603 1b07 42       		.uleb128 0x42
 5604 1b08 7B740000 		.4byte	.LASF1292
 5605 1b0c 02       		.byte	0x2
 5606 1b0d A301     		.2byte	0x1a3
 5607 1b0f 03       		.byte	0x3
 5608 1b10 2D1B0000 		.4byte	0x1b2d
 5609 1b14 43       		.uleb128 0x43
 5610 1b15 36100000 		.4byte	.LASF1256
 5611 1b19 02       		.byte	0x2
 5612 1b1a A301     		.2byte	0x1a3
 5613 1b1c A9090000 		.4byte	0x9a9
 5614 1b20 43       		.uleb128 0x43
 5615 1b21 186D0000 		.4byte	.LASF1293
 5616 1b25 02       		.byte	0x2
 5617 1b26 A301     		.2byte	0x1a3
 5618 1b28 A6000000 		.4byte	0xa6
 5619 1b2c 00       		.byte	0
 5620 1b2d 42       		.uleb128 0x42
ARM GAS  /tmp/ccGKa4GA.s 			page 130


 5621 1b2e 0D480000 		.4byte	.LASF1294
 5622 1b32 02       		.byte	0x2
 5623 1b33 9601     		.2byte	0x196
 5624 1b35 03       		.byte	0x3
 5625 1b36 6B1B0000 		.4byte	0x1b6b
 5626 1b3a 43       		.uleb128 0x43
 5627 1b3b 36100000 		.4byte	.LASF1256
 5628 1b3f 02       		.byte	0x2
 5629 1b40 9601     		.2byte	0x196
 5630 1b42 A9090000 		.4byte	0x9a9
 5631 1b46 43       		.uleb128 0x43
 5632 1b47 6E4F0000 		.4byte	.LASF1295
 5633 1b4b 02       		.byte	0x2
 5634 1b4c 9601     		.2byte	0x196
 5635 1b4e A6000000 		.4byte	0xa6
 5636 1b52 43       		.uleb128 0x43
 5637 1b53 271E0000 		.4byte	.LASF1296
 5638 1b57 02       		.byte	0x2
 5639 1b58 9601     		.2byte	0x196
 5640 1b5a A6000000 		.4byte	0xa6
 5641 1b5e 43       		.uleb128 0x43
 5642 1b5f 027F0000 		.4byte	.LASF1297
 5643 1b63 02       		.byte	0x2
 5644 1b64 9601     		.2byte	0x196
 5645 1b66 A6000000 		.4byte	0xa6
 5646 1b6a 00       		.byte	0
 5647 1b6b 42       		.uleb128 0x42
 5648 1b6c A9530000 		.4byte	.LASF1298
 5649 1b70 02       		.byte	0x2
 5650 1b71 7701     		.2byte	0x177
 5651 1b73 03       		.byte	0x3
 5652 1b74 911B0000 		.4byte	0x1b91
 5653 1b78 43       		.uleb128 0x43
 5654 1b79 36100000 		.4byte	.LASF1256
 5655 1b7d 02       		.byte	0x2
 5656 1b7e 7701     		.2byte	0x177
 5657 1b80 A9090000 		.4byte	0x9a9
 5658 1b84 43       		.uleb128 0x43
 5659 1b85 8B1A0000 		.4byte	.LASF1247
 5660 1b89 02       		.byte	0x2
 5661 1b8a 7701     		.2byte	0x177
 5662 1b8c 9B000000 		.4byte	0x9b
 5663 1b90 00       		.byte	0
 5664 1b91 44       		.uleb128 0x44
 5665 1b92 40490000 		.4byte	.LASF1299
 5666 1b96 02       		.byte	0x2
 5667 1b97 6C01     		.2byte	0x16c
 5668 1b99 9B000000 		.4byte	0x9b
 5669 1b9d 03       		.byte	0x3
 5670 1b9e AF1B0000 		.4byte	0x1baf
 5671 1ba2 43       		.uleb128 0x43
 5672 1ba3 36100000 		.4byte	.LASF1256
 5673 1ba7 02       		.byte	0x2
 5674 1ba8 6C01     		.2byte	0x16c
 5675 1baa A9090000 		.4byte	0x9a9
 5676 1bae 00       		.byte	0
 5677 1baf 42       		.uleb128 0x42
ARM GAS  /tmp/ccGKa4GA.s 			page 131


 5678 1bb0 EC150000 		.4byte	.LASF1300
 5679 1bb4 02       		.byte	0x2
 5680 1bb5 4E01     		.2byte	0x14e
 5681 1bb7 03       		.byte	0x3
 5682 1bb8 D51B0000 		.4byte	0x1bd5
 5683 1bbc 43       		.uleb128 0x43
 5684 1bbd 36100000 		.4byte	.LASF1256
 5685 1bc1 02       		.byte	0x2
 5686 1bc2 4E01     		.2byte	0x14e
 5687 1bc4 A9090000 		.4byte	0x9a9
 5688 1bc8 43       		.uleb128 0x43
 5689 1bc9 C7260000 		.4byte	.LASF1301
 5690 1bcd 02       		.byte	0x2
 5691 1bce 4E01     		.2byte	0x14e
 5692 1bd0 72070000 		.4byte	0x772
 5693 1bd4 00       		.byte	0
 5694 1bd5 44       		.uleb128 0x44
 5695 1bd6 1B370000 		.4byte	.LASF1302
 5696 1bda 02       		.byte	0x2
 5697 1bdb 4001     		.2byte	0x140
 5698 1bdd 90000000 		.4byte	0x90
 5699 1be1 03       		.byte	0x3
 5700 1be2 F31B0000 		.4byte	0x1bf3
 5701 1be6 43       		.uleb128 0x43
 5702 1be7 36100000 		.4byte	.LASF1256
 5703 1beb 02       		.byte	0x2
 5704 1bec 4001     		.2byte	0x140
 5705 1bee A9090000 		.4byte	0x9a9
 5706 1bf2 00       		.byte	0
 5707 1bf3 44       		.uleb128 0x44
 5708 1bf4 86540000 		.4byte	.LASF1303
 5709 1bf8 02       		.byte	0x2
 5710 1bf9 3501     		.2byte	0x135
 5711 1bfb E4000000 		.4byte	0xe4
 5712 1bff 03       		.byte	0x3
 5713 1c00 1D1C0000 		.4byte	0x1c1d
 5714 1c04 43       		.uleb128 0x43
 5715 1c05 36100000 		.4byte	.LASF1256
 5716 1c09 02       		.byte	0x2
 5717 1c0a 3501     		.2byte	0x135
 5718 1c0c A9090000 		.4byte	0x9a9
 5719 1c10 43       		.uleb128 0x43
 5720 1c11 71030000 		.4byte	.LASF1304
 5721 1c15 02       		.byte	0x2
 5722 1c16 3501     		.2byte	0x135
 5723 1c18 44070000 		.4byte	0x744
 5724 1c1c 00       		.byte	0
 5725 1c1d 44       		.uleb128 0x44
 5726 1c1e 11750000 		.4byte	.LASF1305
 5727 1c22 02       		.byte	0x2
 5728 1c23 1A01     		.2byte	0x11a
 5729 1c25 D9000000 		.4byte	0xd9
 5730 1c29 03       		.byte	0x3
 5731 1c2a 471C0000 		.4byte	0x1c47
 5732 1c2e 43       		.uleb128 0x43
 5733 1c2f 36100000 		.4byte	.LASF1256
 5734 1c33 02       		.byte	0x2
ARM GAS  /tmp/ccGKa4GA.s 			page 132


 5735 1c34 1A01     		.2byte	0x11a
 5736 1c36 A9090000 		.4byte	0x9a9
 5737 1c3a 43       		.uleb128 0x43
 5738 1c3b 5B510000 		.4byte	.LASF1306
 5739 1c3f 02       		.byte	0x2
 5740 1c40 1A01     		.2byte	0x11a
 5741 1c42 0A070000 		.4byte	0x70a
 5742 1c46 00       		.byte	0
 5743 1c47 40       		.uleb128 0x40
 5744 1c48 C3040000 		.4byte	.LASF1307
 5745 1c4c 02       		.byte	0x2
 5746 1c4d F2       		.byte	0xf2
 5747 1c4e 03       		.byte	0x3
 5748 1c4f 5F1C0000 		.4byte	0x1c5f
 5749 1c53 3D       		.uleb128 0x3d
 5750 1c54 36100000 		.4byte	.LASF1256
 5751 1c58 02       		.byte	0x2
 5752 1c59 F2       		.byte	0xf2
 5753 1c5a A9090000 		.4byte	0x9a9
 5754 1c5e 00       		.byte	0
 5755 1c5f 45       		.uleb128 0x45
 5756 1c60 B2550000 		.4byte	.LASF1309
 5757 1c64 03       		.byte	0x3
 5758 1c65 7401     		.2byte	0x174
 5759 1c67 A6000000 		.4byte	0xa6
 5760 1c6b 03       		.byte	0x3
 5761 1c6c 42       		.uleb128 0x42
 5762 1c6d 2A460000 		.4byte	.LASF1308
 5763 1c71 03       		.byte	0x3
 5764 1c72 6A01     		.2byte	0x16a
 5765 1c74 03       		.byte	0x3
 5766 1c75 861C0000 		.4byte	0x1c86
 5767 1c79 46       		.uleb128 0x46
 5768 1c7a 64697600 		.ascii	"div\000"
 5769 1c7e 03       		.byte	0x3
 5770 1c7f 6A01     		.2byte	0x16a
 5771 1c81 A6000000 		.4byte	0xa6
 5772 1c85 00       		.byte	0
 5773 1c86 45       		.uleb128 0x45
 5774 1c87 FA370000 		.4byte	.LASF1310
 5775 1c8b 03       		.byte	0x3
 5776 1c8c 4701     		.2byte	0x147
 5777 1c8e A6000000 		.4byte	0xa6
 5778 1c92 03       		.byte	0x3
 5779 1c93 42       		.uleb128 0x42
 5780 1c94 79280000 		.4byte	.LASF1311
 5781 1c98 03       		.byte	0x3
 5782 1c99 3D01     		.2byte	0x13d
 5783 1c9b 03       		.byte	0x3
 5784 1c9c AD1C0000 		.4byte	0x1cad
 5785 1ca0 46       		.uleb128 0x46
 5786 1ca1 64697600 		.ascii	"div\000"
 5787 1ca5 03       		.byte	0x3
 5788 1ca6 3D01     		.2byte	0x13d
 5789 1ca8 A6000000 		.4byte	0xa6
 5790 1cac 00       		.byte	0
 5791 1cad 42       		.uleb128 0x42
ARM GAS  /tmp/ccGKa4GA.s 			page 133


 5792 1cae C6350000 		.4byte	.LASF1312
 5793 1cb2 03       		.byte	0x3
 5794 1cb3 3101     		.2byte	0x131
 5795 1cb5 03       		.byte	0x3
 5796 1cb6 C71C0000 		.4byte	0x1cc7
 5797 1cba 46       		.uleb128 0x46
 5798 1cbb 636C6B00 		.ascii	"clk\000"
 5799 1cbf 03       		.byte	0x3
 5800 1cc0 3101     		.2byte	0x131
 5801 1cc2 4F060000 		.4byte	0x64f
 5802 1cc6 00       		.byte	0
 5803 1cc7 42       		.uleb128 0x42
 5804 1cc8 7B5D0000 		.4byte	.LASF1313
 5805 1ccc 03       		.byte	0x3
 5806 1ccd 2701     		.2byte	0x127
 5807 1ccf 03       		.byte	0x3
 5808 1cd0 E11C0000 		.4byte	0x1ce1
 5809 1cd4 46       		.uleb128 0x46
 5810 1cd5 636C6B00 		.ascii	"clk\000"
 5811 1cd9 03       		.byte	0x3
 5812 1cda 2701     		.2byte	0x127
 5813 1cdc 4F060000 		.4byte	0x64f
 5814 1ce0 00       		.byte	0
 5815 1ce1 40       		.uleb128 0x40
 5816 1ce2 21170000 		.4byte	.LASF1314
 5817 1ce6 04       		.byte	0x4
 5818 1ce7 B3       		.byte	0xb3
 5819 1ce8 03       		.byte	0x3
 5820 1ce9 F91C0000 		.4byte	0x1cf9
 5821 1ced 3D       		.uleb128 0x3d
 5822 1cee B4660000 		.4byte	.LASF1315
 5823 1cf2 04       		.byte	0x4
 5824 1cf3 B3       		.byte	0xb3
 5825 1cf4 C1050000 		.4byte	0x5c1
 5826 1cf8 00       		.byte	0
 5827 1cf9 40       		.uleb128 0x40
 5828 1cfa C94E0000 		.4byte	.LASF1316
 5829 1cfe 04       		.byte	0x4
 5830 1cff A9       		.byte	0xa9
 5831 1d00 03       		.byte	0x3
 5832 1d01 111D0000 		.4byte	0x1d11
 5833 1d05 3D       		.uleb128 0x3d
 5834 1d06 B4660000 		.4byte	.LASF1315
 5835 1d0a 04       		.byte	0x4
 5836 1d0b A9       		.byte	0xa9
 5837 1d0c C1050000 		.4byte	0x5c1
 5838 1d10 00       		.byte	0
 5839 1d11 40       		.uleb128 0x40
 5840 1d12 B41B0000 		.4byte	.LASF1317
 5841 1d16 04       		.byte	0x4
 5842 1d17 9F       		.byte	0x9f
 5843 1d18 03       		.byte	0x3
 5844 1d19 291D0000 		.4byte	0x1d29
 5845 1d1d 3D       		.uleb128 0x3d
 5846 1d1e B4660000 		.4byte	.LASF1315
 5847 1d22 04       		.byte	0x4
 5848 1d23 9F       		.byte	0x9f
ARM GAS  /tmp/ccGKa4GA.s 			page 134


 5849 1d24 C1050000 		.4byte	0x5c1
 5850 1d28 00       		.byte	0
 5851 1d29 47       		.uleb128 0x47
 5852 1d2a 94190000 		.4byte	0x1994
 5853 1d2e 00000000 		.4byte	.LFB206
 5854 1d32 18000000 		.4byte	.LFE206-.LFB206
 5855 1d36 01       		.uleb128 0x1
 5856 1d37 9C       		.byte	0x9c
 5857 1d38 5D1D0000 		.4byte	0x1d5d
 5858 1d3c 31       		.uleb128 0x31
 5859 1d3d A0190000 		.4byte	0x19a0
 5860 1d41 01       		.uleb128 0x1
 5861 1d42 50       		.byte	0x50
 5862 1d43 1D       		.uleb128 0x1d
 5863 1d44 AB190000 		.4byte	0x19ab
 5864 1d48 A2120000 		.4byte	.LLST0
 5865 1d4c 31       		.uleb128 0x31
 5866 1d4d B6190000 		.4byte	0x19b6
 5867 1d51 01       		.uleb128 0x1
 5868 1d52 52       		.byte	0x52
 5869 1d53 2D       		.uleb128 0x2d
 5870 1d54 C1190000 		.4byte	0x19c1
 5871 1d58 C3120000 		.4byte	.LLST1
 5872 1d5c 00       		.byte	0
 5873 1d5d 48       		.uleb128 0x48
 5874 1d5e F8440000 		.4byte	.LASF1322
 5875 1d62 F8440000 		.4byte	.LASF1322
 5876 1d66 03       		.byte	0x3
 5877 1d67 1302     		.2byte	0x213
 5878 1d69 00       		.byte	0
 5879              		.section	.debug_abbrev,"",%progbits
 5880              	.Ldebug_abbrev0:
 5881 0000 01       		.uleb128 0x1
 5882 0001 11       		.uleb128 0x11
 5883 0002 01       		.byte	0x1
 5884 0003 25       		.uleb128 0x25
 5885 0004 0E       		.uleb128 0xe
 5886 0005 13       		.uleb128 0x13
 5887 0006 0B       		.uleb128 0xb
 5888 0007 03       		.uleb128 0x3
 5889 0008 0E       		.uleb128 0xe
 5890 0009 1B       		.uleb128 0x1b
 5891 000a 0E       		.uleb128 0xe
 5892 000b 55       		.uleb128 0x55
 5893 000c 17       		.uleb128 0x17
 5894 000d 11       		.uleb128 0x11
 5895 000e 01       		.uleb128 0x1
 5896 000f 10       		.uleb128 0x10
 5897 0010 17       		.uleb128 0x17
 5898 0011 9942     		.uleb128 0x2119
 5899 0013 17       		.uleb128 0x17
 5900 0014 00       		.byte	0
 5901 0015 00       		.byte	0
 5902 0016 02       		.uleb128 0x2
 5903 0017 24       		.uleb128 0x24
 5904 0018 00       		.byte	0
 5905 0019 0B       		.uleb128 0xb
ARM GAS  /tmp/ccGKa4GA.s 			page 135


 5906 001a 0B       		.uleb128 0xb
 5907 001b 3E       		.uleb128 0x3e
 5908 001c 0B       		.uleb128 0xb
 5909 001d 03       		.uleb128 0x3
 5910 001e 0E       		.uleb128 0xe
 5911 001f 00       		.byte	0
 5912 0020 00       		.byte	0
 5913 0021 03       		.uleb128 0x3
 5914 0022 16       		.uleb128 0x16
 5915 0023 00       		.byte	0
 5916 0024 03       		.uleb128 0x3
 5917 0025 0E       		.uleb128 0xe
 5918 0026 3A       		.uleb128 0x3a
 5919 0027 0B       		.uleb128 0xb
 5920 0028 3B       		.uleb128 0x3b
 5921 0029 0B       		.uleb128 0xb
 5922 002a 49       		.uleb128 0x49
 5923 002b 13       		.uleb128 0x13
 5924 002c 00       		.byte	0
 5925 002d 00       		.byte	0
 5926 002e 04       		.uleb128 0x4
 5927 002f 24       		.uleb128 0x24
 5928 0030 00       		.byte	0
 5929 0031 0B       		.uleb128 0xb
 5930 0032 0B       		.uleb128 0xb
 5931 0033 3E       		.uleb128 0x3e
 5932 0034 0B       		.uleb128 0xb
 5933 0035 03       		.uleb128 0x3
 5934 0036 08       		.uleb128 0x8
 5935 0037 00       		.byte	0
 5936 0038 00       		.byte	0
 5937 0039 05       		.uleb128 0x5
 5938 003a 35       		.uleb128 0x35
 5939 003b 00       		.byte	0
 5940 003c 49       		.uleb128 0x49
 5941 003d 13       		.uleb128 0x13
 5942 003e 00       		.byte	0
 5943 003f 00       		.byte	0
 5944 0040 06       		.uleb128 0x6
 5945 0041 26       		.uleb128 0x26
 5946 0042 00       		.byte	0
 5947 0043 49       		.uleb128 0x49
 5948 0044 13       		.uleb128 0x13
 5949 0045 00       		.byte	0
 5950 0046 00       		.byte	0
 5951 0047 07       		.uleb128 0x7
 5952 0048 04       		.uleb128 0x4
 5953 0049 01       		.byte	0x1
 5954 004a 0B       		.uleb128 0xb
 5955 004b 0B       		.uleb128 0xb
 5956 004c 49       		.uleb128 0x49
 5957 004d 13       		.uleb128 0x13
 5958 004e 3A       		.uleb128 0x3a
 5959 004f 0B       		.uleb128 0xb
 5960 0050 3B       		.uleb128 0x3b
 5961 0051 0B       		.uleb128 0xb
 5962 0052 01       		.uleb128 0x1
ARM GAS  /tmp/ccGKa4GA.s 			page 136


 5963 0053 13       		.uleb128 0x13
 5964 0054 00       		.byte	0
 5965 0055 00       		.byte	0
 5966 0056 08       		.uleb128 0x8
 5967 0057 28       		.uleb128 0x28
 5968 0058 00       		.byte	0
 5969 0059 03       		.uleb128 0x3
 5970 005a 0E       		.uleb128 0xe
 5971 005b 1C       		.uleb128 0x1c
 5972 005c 0B       		.uleb128 0xb
 5973 005d 00       		.byte	0
 5974 005e 00       		.byte	0
 5975 005f 09       		.uleb128 0x9
 5976 0060 28       		.uleb128 0x28
 5977 0061 00       		.byte	0
 5978 0062 03       		.uleb128 0x3
 5979 0063 08       		.uleb128 0x8
 5980 0064 1C       		.uleb128 0x1c
 5981 0065 0B       		.uleb128 0xb
 5982 0066 00       		.byte	0
 5983 0067 00       		.byte	0
 5984 0068 0A       		.uleb128 0xa
 5985 0069 01       		.uleb128 0x1
 5986 006a 01       		.byte	0x1
 5987 006b 49       		.uleb128 0x49
 5988 006c 13       		.uleb128 0x13
 5989 006d 01       		.uleb128 0x1
 5990 006e 13       		.uleb128 0x13
 5991 006f 00       		.byte	0
 5992 0070 00       		.byte	0
 5993 0071 0B       		.uleb128 0xb
 5994 0072 21       		.uleb128 0x21
 5995 0073 00       		.byte	0
 5996 0074 49       		.uleb128 0x49
 5997 0075 13       		.uleb128 0x13
 5998 0076 2F       		.uleb128 0x2f
 5999 0077 0B       		.uleb128 0xb
 6000 0078 00       		.byte	0
 6001 0079 00       		.byte	0
 6002 007a 0C       		.uleb128 0xc
 6003 007b 34       		.uleb128 0x34
 6004 007c 00       		.byte	0
 6005 007d 03       		.uleb128 0x3
 6006 007e 0E       		.uleb128 0xe
 6007 007f 3A       		.uleb128 0x3a
 6008 0080 0B       		.uleb128 0xb
 6009 0081 3B       		.uleb128 0x3b
 6010 0082 0B       		.uleb128 0xb
 6011 0083 49       		.uleb128 0x49
 6012 0084 13       		.uleb128 0x13
 6013 0085 3F       		.uleb128 0x3f
 6014 0086 19       		.uleb128 0x19
 6015 0087 3C       		.uleb128 0x3c
 6016 0088 19       		.uleb128 0x19
 6017 0089 00       		.byte	0
 6018 008a 00       		.byte	0
 6019 008b 0D       		.uleb128 0xd
ARM GAS  /tmp/ccGKa4GA.s 			page 137


 6020 008c 13       		.uleb128 0x13
 6021 008d 01       		.byte	0x1
 6022 008e 0B       		.uleb128 0xb
 6023 008f 05       		.uleb128 0x5
 6024 0090 3A       		.uleb128 0x3a
 6025 0091 0B       		.uleb128 0xb
 6026 0092 3B       		.uleb128 0x3b
 6027 0093 0B       		.uleb128 0xb
 6028 0094 01       		.uleb128 0x1
 6029 0095 13       		.uleb128 0x13
 6030 0096 00       		.byte	0
 6031 0097 00       		.byte	0
 6032 0098 0E       		.uleb128 0xe
 6033 0099 0D       		.uleb128 0xd
 6034 009a 00       		.byte	0
 6035 009b 03       		.uleb128 0x3
 6036 009c 0E       		.uleb128 0xe
 6037 009d 3A       		.uleb128 0x3a
 6038 009e 0B       		.uleb128 0xb
 6039 009f 3B       		.uleb128 0x3b
 6040 00a0 0B       		.uleb128 0xb
 6041 00a1 49       		.uleb128 0x49
 6042 00a2 13       		.uleb128 0x13
 6043 00a3 38       		.uleb128 0x38
 6044 00a4 0B       		.uleb128 0xb
 6045 00a5 00       		.byte	0
 6046 00a6 00       		.byte	0
 6047 00a7 0F       		.uleb128 0xf
 6048 00a8 0D       		.uleb128 0xd
 6049 00a9 00       		.byte	0
 6050 00aa 03       		.uleb128 0x3
 6051 00ab 0E       		.uleb128 0xe
 6052 00ac 3A       		.uleb128 0x3a
 6053 00ad 0B       		.uleb128 0xb
 6054 00ae 3B       		.uleb128 0x3b
 6055 00af 0B       		.uleb128 0xb
 6056 00b0 49       		.uleb128 0x49
 6057 00b1 13       		.uleb128 0x13
 6058 00b2 38       		.uleb128 0x38
 6059 00b3 05       		.uleb128 0x5
 6060 00b4 00       		.byte	0
 6061 00b5 00       		.byte	0
 6062 00b6 10       		.uleb128 0x10
 6063 00b7 04       		.uleb128 0x4
 6064 00b8 01       		.byte	0x1
 6065 00b9 03       		.uleb128 0x3
 6066 00ba 0E       		.uleb128 0xe
 6067 00bb 0B       		.uleb128 0xb
 6068 00bc 0B       		.uleb128 0xb
 6069 00bd 49       		.uleb128 0x49
 6070 00be 13       		.uleb128 0x13
 6071 00bf 3A       		.uleb128 0x3a
 6072 00c0 0B       		.uleb128 0xb
 6073 00c1 3B       		.uleb128 0x3b
 6074 00c2 0B       		.uleb128 0xb
 6075 00c3 01       		.uleb128 0x1
 6076 00c4 13       		.uleb128 0x13
ARM GAS  /tmp/ccGKa4GA.s 			page 138


 6077 00c5 00       		.byte	0
 6078 00c6 00       		.byte	0
 6079 00c7 11       		.uleb128 0x11
 6080 00c8 16       		.uleb128 0x16
 6081 00c9 00       		.byte	0
 6082 00ca 03       		.uleb128 0x3
 6083 00cb 0E       		.uleb128 0xe
 6084 00cc 3A       		.uleb128 0x3a
 6085 00cd 0B       		.uleb128 0xb
 6086 00ce 3B       		.uleb128 0x3b
 6087 00cf 05       		.uleb128 0x5
 6088 00d0 49       		.uleb128 0x49
 6089 00d1 13       		.uleb128 0x13
 6090 00d2 00       		.byte	0
 6091 00d3 00       		.byte	0
 6092 00d4 12       		.uleb128 0x12
 6093 00d5 0F       		.uleb128 0xf
 6094 00d6 00       		.byte	0
 6095 00d7 0B       		.uleb128 0xb
 6096 00d8 0B       		.uleb128 0xb
 6097 00d9 00       		.byte	0
 6098 00da 00       		.byte	0
 6099 00db 13       		.uleb128 0x13
 6100 00dc 13       		.uleb128 0x13
 6101 00dd 01       		.byte	0x1
 6102 00de 0B       		.uleb128 0xb
 6103 00df 0B       		.uleb128 0xb
 6104 00e0 3A       		.uleb128 0x3a
 6105 00e1 0B       		.uleb128 0xb
 6106 00e2 3B       		.uleb128 0x3b
 6107 00e3 0B       		.uleb128 0xb
 6108 00e4 01       		.uleb128 0x1
 6109 00e5 13       		.uleb128 0x13
 6110 00e6 00       		.byte	0
 6111 00e7 00       		.byte	0
 6112 00e8 14       		.uleb128 0x14
 6113 00e9 0D       		.uleb128 0xd
 6114 00ea 00       		.byte	0
 6115 00eb 03       		.uleb128 0x3
 6116 00ec 08       		.uleb128 0x8
 6117 00ed 3A       		.uleb128 0x3a
 6118 00ee 0B       		.uleb128 0xb
 6119 00ef 3B       		.uleb128 0x3b
 6120 00f0 0B       		.uleb128 0xb
 6121 00f1 49       		.uleb128 0x49
 6122 00f2 13       		.uleb128 0x13
 6123 00f3 38       		.uleb128 0x38
 6124 00f4 0B       		.uleb128 0xb
 6125 00f5 00       		.byte	0
 6126 00f6 00       		.byte	0
 6127 00f7 15       		.uleb128 0x15
 6128 00f8 04       		.uleb128 0x4
 6129 00f9 01       		.byte	0x1
 6130 00fa 03       		.uleb128 0x3
 6131 00fb 0E       		.uleb128 0xe
 6132 00fc 0B       		.uleb128 0xb
 6133 00fd 0B       		.uleb128 0xb
ARM GAS  /tmp/ccGKa4GA.s 			page 139


 6134 00fe 49       		.uleb128 0x49
 6135 00ff 13       		.uleb128 0x13
 6136 0100 3A       		.uleb128 0x3a
 6137 0101 0B       		.uleb128 0xb
 6138 0102 3B       		.uleb128 0x3b
 6139 0103 05       		.uleb128 0x5
 6140 0104 01       		.uleb128 0x1
 6141 0105 13       		.uleb128 0x13
 6142 0106 00       		.byte	0
 6143 0107 00       		.byte	0
 6144 0108 16       		.uleb128 0x16
 6145 0109 13       		.uleb128 0x13
 6146 010a 01       		.byte	0x1
 6147 010b 0B       		.uleb128 0xb
 6148 010c 0B       		.uleb128 0xb
 6149 010d 3A       		.uleb128 0x3a
 6150 010e 0B       		.uleb128 0xb
 6151 010f 3B       		.uleb128 0x3b
 6152 0110 05       		.uleb128 0x5
 6153 0111 01       		.uleb128 0x1
 6154 0112 13       		.uleb128 0x13
 6155 0113 00       		.byte	0
 6156 0114 00       		.byte	0
 6157 0115 17       		.uleb128 0x17
 6158 0116 0D       		.uleb128 0xd
 6159 0117 00       		.byte	0
 6160 0118 03       		.uleb128 0x3
 6161 0119 0E       		.uleb128 0xe
 6162 011a 3A       		.uleb128 0x3a
 6163 011b 0B       		.uleb128 0xb
 6164 011c 3B       		.uleb128 0x3b
 6165 011d 05       		.uleb128 0x5
 6166 011e 49       		.uleb128 0x49
 6167 011f 13       		.uleb128 0x13
 6168 0120 38       		.uleb128 0x38
 6169 0121 0B       		.uleb128 0xb
 6170 0122 00       		.byte	0
 6171 0123 00       		.byte	0
 6172 0124 18       		.uleb128 0x18
 6173 0125 0F       		.uleb128 0xf
 6174 0126 00       		.byte	0
 6175 0127 0B       		.uleb128 0xb
 6176 0128 0B       		.uleb128 0xb
 6177 0129 49       		.uleb128 0x49
 6178 012a 13       		.uleb128 0x13
 6179 012b 00       		.byte	0
 6180 012c 00       		.byte	0
 6181 012d 19       		.uleb128 0x19
 6182 012e 34       		.uleb128 0x34
 6183 012f 00       		.byte	0
 6184 0130 03       		.uleb128 0x3
 6185 0131 0E       		.uleb128 0xe
 6186 0132 3A       		.uleb128 0x3a
 6187 0133 0B       		.uleb128 0xb
 6188 0134 3B       		.uleb128 0x3b
 6189 0135 05       		.uleb128 0x5
 6190 0136 49       		.uleb128 0x49
ARM GAS  /tmp/ccGKa4GA.s 			page 140


 6191 0137 13       		.uleb128 0x13
 6192 0138 3F       		.uleb128 0x3f
 6193 0139 19       		.uleb128 0x19
 6194 013a 3C       		.uleb128 0x3c
 6195 013b 19       		.uleb128 0x19
 6196 013c 00       		.byte	0
 6197 013d 00       		.byte	0
 6198 013e 1A       		.uleb128 0x1a
 6199 013f 2E       		.uleb128 0x2e
 6200 0140 01       		.byte	0x1
 6201 0141 3F       		.uleb128 0x3f
 6202 0142 19       		.uleb128 0x19
 6203 0143 03       		.uleb128 0x3
 6204 0144 0E       		.uleb128 0xe
 6205 0145 3A       		.uleb128 0x3a
 6206 0146 0B       		.uleb128 0xb
 6207 0147 3B       		.uleb128 0x3b
 6208 0148 05       		.uleb128 0x5
 6209 0149 27       		.uleb128 0x27
 6210 014a 19       		.uleb128 0x19
 6211 014b 11       		.uleb128 0x11
 6212 014c 01       		.uleb128 0x1
 6213 014d 12       		.uleb128 0x12
 6214 014e 06       		.uleb128 0x6
 6215 014f 40       		.uleb128 0x40
 6216 0150 18       		.uleb128 0x18
 6217 0151 9742     		.uleb128 0x2117
 6218 0153 19       		.uleb128 0x19
 6219 0154 01       		.uleb128 0x1
 6220 0155 13       		.uleb128 0x13
 6221 0156 00       		.byte	0
 6222 0157 00       		.byte	0
 6223 0158 1B       		.uleb128 0x1b
 6224 0159 05       		.uleb128 0x5
 6225 015a 00       		.byte	0
 6226 015b 03       		.uleb128 0x3
 6227 015c 0E       		.uleb128 0xe
 6228 015d 3A       		.uleb128 0x3a
 6229 015e 0B       		.uleb128 0xb
 6230 015f 3B       		.uleb128 0x3b
 6231 0160 05       		.uleb128 0x5
 6232 0161 49       		.uleb128 0x49
 6233 0162 13       		.uleb128 0x13
 6234 0163 02       		.uleb128 0x2
 6235 0164 17       		.uleb128 0x17
 6236 0165 00       		.byte	0
 6237 0166 00       		.byte	0
 6238 0167 1C       		.uleb128 0x1c
 6239 0168 1D       		.uleb128 0x1d
 6240 0169 01       		.byte	0x1
 6241 016a 31       		.uleb128 0x31
 6242 016b 13       		.uleb128 0x13
 6243 016c 11       		.uleb128 0x11
 6244 016d 01       		.uleb128 0x1
 6245 016e 12       		.uleb128 0x12
 6246 016f 06       		.uleb128 0x6
 6247 0170 58       		.uleb128 0x58
ARM GAS  /tmp/ccGKa4GA.s 			page 141


 6248 0171 0B       		.uleb128 0xb
 6249 0172 59       		.uleb128 0x59
 6250 0173 05       		.uleb128 0x5
 6251 0174 01       		.uleb128 0x1
 6252 0175 13       		.uleb128 0x13
 6253 0176 00       		.byte	0
 6254 0177 00       		.byte	0
 6255 0178 1D       		.uleb128 0x1d
 6256 0179 05       		.uleb128 0x5
 6257 017a 00       		.byte	0
 6258 017b 31       		.uleb128 0x31
 6259 017c 13       		.uleb128 0x13
 6260 017d 02       		.uleb128 0x2
 6261 017e 17       		.uleb128 0x17
 6262 017f 00       		.byte	0
 6263 0180 00       		.byte	0
 6264 0181 1E       		.uleb128 0x1e
 6265 0182 0B       		.uleb128 0xb
 6266 0183 01       		.byte	0x1
 6267 0184 11       		.uleb128 0x11
 6268 0185 01       		.uleb128 0x1
 6269 0186 12       		.uleb128 0x12
 6270 0187 06       		.uleb128 0x6
 6271 0188 00       		.byte	0
 6272 0189 00       		.byte	0
 6273 018a 1F       		.uleb128 0x1f
 6274 018b 34       		.uleb128 0x34
 6275 018c 00       		.byte	0
 6276 018d 31       		.uleb128 0x31
 6277 018e 13       		.uleb128 0x13
 6278 018f 00       		.byte	0
 6279 0190 00       		.byte	0
 6280 0191 20       		.uleb128 0x20
 6281 0192 1D       		.uleb128 0x1d
 6282 0193 01       		.byte	0x1
 6283 0194 31       		.uleb128 0x31
 6284 0195 13       		.uleb128 0x13
 6285 0196 52       		.uleb128 0x52
 6286 0197 01       		.uleb128 0x1
 6287 0198 55       		.uleb128 0x55
 6288 0199 17       		.uleb128 0x17
 6289 019a 58       		.uleb128 0x58
 6290 019b 0B       		.uleb128 0xb
 6291 019c 59       		.uleb128 0x59
 6292 019d 05       		.uleb128 0x5
 6293 019e 01       		.uleb128 0x1
 6294 019f 13       		.uleb128 0x13
 6295 01a0 00       		.byte	0
 6296 01a1 00       		.byte	0
 6297 01a2 21       		.uleb128 0x21
 6298 01a3 05       		.uleb128 0x5
 6299 01a4 00       		.byte	0
 6300 01a5 31       		.uleb128 0x31
 6301 01a6 13       		.uleb128 0x13
 6302 01a7 00       		.byte	0
 6303 01a8 00       		.byte	0
 6304 01a9 22       		.uleb128 0x22
ARM GAS  /tmp/ccGKa4GA.s 			page 142


 6305 01aa 1D       		.uleb128 0x1d
 6306 01ab 01       		.byte	0x1
 6307 01ac 31       		.uleb128 0x31
 6308 01ad 13       		.uleb128 0x13
 6309 01ae 52       		.uleb128 0x52
 6310 01af 01       		.uleb128 0x1
 6311 01b0 55       		.uleb128 0x55
 6312 01b1 17       		.uleb128 0x17
 6313 01b2 58       		.uleb128 0x58
 6314 01b3 0B       		.uleb128 0xb
 6315 01b4 59       		.uleb128 0x59
 6316 01b5 05       		.uleb128 0x5
 6317 01b6 00       		.byte	0
 6318 01b7 00       		.byte	0
 6319 01b8 23       		.uleb128 0x23
 6320 01b9 1D       		.uleb128 0x1d
 6321 01ba 01       		.byte	0x1
 6322 01bb 31       		.uleb128 0x31
 6323 01bc 13       		.uleb128 0x13
 6324 01bd 11       		.uleb128 0x11
 6325 01be 01       		.uleb128 0x1
 6326 01bf 12       		.uleb128 0x12
 6327 01c0 06       		.uleb128 0x6
 6328 01c1 58       		.uleb128 0x58
 6329 01c2 0B       		.uleb128 0xb
 6330 01c3 59       		.uleb128 0x59
 6331 01c4 0B       		.uleb128 0xb
 6332 01c5 01       		.uleb128 0x1
 6333 01c6 13       		.uleb128 0x13
 6334 01c7 00       		.byte	0
 6335 01c8 00       		.byte	0
 6336 01c9 24       		.uleb128 0x24
 6337 01ca 1D       		.uleb128 0x1d
 6338 01cb 01       		.byte	0x1
 6339 01cc 31       		.uleb128 0x31
 6340 01cd 13       		.uleb128 0x13
 6341 01ce 11       		.uleb128 0x11
 6342 01cf 01       		.uleb128 0x1
 6343 01d0 12       		.uleb128 0x12
 6344 01d1 06       		.uleb128 0x6
 6345 01d2 58       		.uleb128 0x58
 6346 01d3 0B       		.uleb128 0xb
 6347 01d4 59       		.uleb128 0x59
 6348 01d5 0B       		.uleb128 0xb
 6349 01d6 00       		.byte	0
 6350 01d7 00       		.byte	0
 6351 01d8 25       		.uleb128 0x25
 6352 01d9 05       		.uleb128 0x5
 6353 01da 00       		.byte	0
 6354 01db 31       		.uleb128 0x31
 6355 01dc 13       		.uleb128 0x13
 6356 01dd 1C       		.uleb128 0x1c
 6357 01de 0B       		.uleb128 0xb
 6358 01df 00       		.byte	0
 6359 01e0 00       		.byte	0
 6360 01e1 26       		.uleb128 0x26
 6361 01e2 0B       		.uleb128 0xb
ARM GAS  /tmp/ccGKa4GA.s 			page 143


 6362 01e3 01       		.byte	0x1
 6363 01e4 55       		.uleb128 0x55
 6364 01e5 17       		.uleb128 0x17
 6365 01e6 00       		.byte	0
 6366 01e7 00       		.byte	0
 6367 01e8 27       		.uleb128 0x27
 6368 01e9 1D       		.uleb128 0x1d
 6369 01ea 01       		.byte	0x1
 6370 01eb 31       		.uleb128 0x31
 6371 01ec 13       		.uleb128 0x13
 6372 01ed 52       		.uleb128 0x52
 6373 01ee 01       		.uleb128 0x1
 6374 01ef 55       		.uleb128 0x55
 6375 01f0 17       		.uleb128 0x17
 6376 01f1 58       		.uleb128 0x58
 6377 01f2 0B       		.uleb128 0xb
 6378 01f3 59       		.uleb128 0x59
 6379 01f4 0B       		.uleb128 0xb
 6380 01f5 01       		.uleb128 0x1
 6381 01f6 13       		.uleb128 0x13
 6382 01f7 00       		.byte	0
 6383 01f8 00       		.byte	0
 6384 01f9 28       		.uleb128 0x28
 6385 01fa 898201   		.uleb128 0x4109
 6386 01fd 01       		.byte	0x1
 6387 01fe 11       		.uleb128 0x11
 6388 01ff 01       		.uleb128 0x1
 6389 0200 31       		.uleb128 0x31
 6390 0201 13       		.uleb128 0x13
 6391 0202 00       		.byte	0
 6392 0203 00       		.byte	0
 6393 0204 29       		.uleb128 0x29
 6394 0205 8A8201   		.uleb128 0x410a
 6395 0208 00       		.byte	0
 6396 0209 02       		.uleb128 0x2
 6397 020a 18       		.uleb128 0x18
 6398 020b 9142     		.uleb128 0x2111
 6399 020d 18       		.uleb128 0x18
 6400 020e 00       		.byte	0
 6401 020f 00       		.byte	0
 6402 0210 2A       		.uleb128 0x2a
 6403 0211 2E       		.uleb128 0x2e
 6404 0212 01       		.byte	0x1
 6405 0213 3F       		.uleb128 0x3f
 6406 0214 19       		.uleb128 0x19
 6407 0215 03       		.uleb128 0x3
 6408 0216 0E       		.uleb128 0xe
 6409 0217 3A       		.uleb128 0x3a
 6410 0218 0B       		.uleb128 0xb
 6411 0219 3B       		.uleb128 0x3b
 6412 021a 05       		.uleb128 0x5
 6413 021b 27       		.uleb128 0x27
 6414 021c 19       		.uleb128 0x19
 6415 021d 11       		.uleb128 0x11
 6416 021e 01       		.uleb128 0x1
 6417 021f 12       		.uleb128 0x12
 6418 0220 06       		.uleb128 0x6
ARM GAS  /tmp/ccGKa4GA.s 			page 144


 6419 0221 40       		.uleb128 0x40
 6420 0222 18       		.uleb128 0x18
 6421 0223 9642     		.uleb128 0x2116
 6422 0225 19       		.uleb128 0x19
 6423 0226 01       		.uleb128 0x1
 6424 0227 13       		.uleb128 0x13
 6425 0228 00       		.byte	0
 6426 0229 00       		.byte	0
 6427 022a 2B       		.uleb128 0x2b
 6428 022b 34       		.uleb128 0x34
 6429 022c 00       		.byte	0
 6430 022d 03       		.uleb128 0x3
 6431 022e 0E       		.uleb128 0xe
 6432 022f 3A       		.uleb128 0x3a
 6433 0230 0B       		.uleb128 0xb
 6434 0231 3B       		.uleb128 0x3b
 6435 0232 05       		.uleb128 0x5
 6436 0233 49       		.uleb128 0x49
 6437 0234 13       		.uleb128 0x13
 6438 0235 00       		.byte	0
 6439 0236 00       		.byte	0
 6440 0237 2C       		.uleb128 0x2c
 6441 0238 34       		.uleb128 0x34
 6442 0239 00       		.byte	0
 6443 023a 03       		.uleb128 0x3
 6444 023b 0E       		.uleb128 0xe
 6445 023c 3A       		.uleb128 0x3a
 6446 023d 0B       		.uleb128 0xb
 6447 023e 3B       		.uleb128 0x3b
 6448 023f 05       		.uleb128 0x5
 6449 0240 49       		.uleb128 0x49
 6450 0241 13       		.uleb128 0x13
 6451 0242 02       		.uleb128 0x2
 6452 0243 17       		.uleb128 0x17
 6453 0244 00       		.byte	0
 6454 0245 00       		.byte	0
 6455 0246 2D       		.uleb128 0x2d
 6456 0247 34       		.uleb128 0x34
 6457 0248 00       		.byte	0
 6458 0249 31       		.uleb128 0x31
 6459 024a 13       		.uleb128 0x13
 6460 024b 02       		.uleb128 0x2
 6461 024c 17       		.uleb128 0x17
 6462 024d 00       		.byte	0
 6463 024e 00       		.byte	0
 6464 024f 2E       		.uleb128 0x2e
 6465 0250 1D       		.uleb128 0x1d
 6466 0251 00       		.byte	0
 6467 0252 31       		.uleb128 0x31
 6468 0253 13       		.uleb128 0x13
 6469 0254 11       		.uleb128 0x11
 6470 0255 01       		.uleb128 0x1
 6471 0256 12       		.uleb128 0x12
 6472 0257 06       		.uleb128 0x6
 6473 0258 58       		.uleb128 0x58
 6474 0259 0B       		.uleb128 0xb
 6475 025a 59       		.uleb128 0x59
ARM GAS  /tmp/ccGKa4GA.s 			page 145


 6476 025b 0B       		.uleb128 0xb
 6477 025c 00       		.byte	0
 6478 025d 00       		.byte	0
 6479 025e 2F       		.uleb128 0x2f
 6480 025f 898201   		.uleb128 0x4109
 6481 0262 00       		.byte	0
 6482 0263 11       		.uleb128 0x11
 6483 0264 01       		.uleb128 0x1
 6484 0265 31       		.uleb128 0x31
 6485 0266 13       		.uleb128 0x13
 6486 0267 00       		.byte	0
 6487 0268 00       		.byte	0
 6488 0269 30       		.uleb128 0x30
 6489 026a 05       		.uleb128 0x5
 6490 026b 00       		.byte	0
 6491 026c 03       		.uleb128 0x3
 6492 026d 0E       		.uleb128 0xe
 6493 026e 3A       		.uleb128 0x3a
 6494 026f 0B       		.uleb128 0xb
 6495 0270 3B       		.uleb128 0x3b
 6496 0271 05       		.uleb128 0x5
 6497 0272 49       		.uleb128 0x49
 6498 0273 13       		.uleb128 0x13
 6499 0274 02       		.uleb128 0x2
 6500 0275 18       		.uleb128 0x18
 6501 0276 00       		.byte	0
 6502 0277 00       		.byte	0
 6503 0278 31       		.uleb128 0x31
 6504 0279 05       		.uleb128 0x5
 6505 027a 00       		.byte	0
 6506 027b 31       		.uleb128 0x31
 6507 027c 13       		.uleb128 0x13
 6508 027d 02       		.uleb128 0x2
 6509 027e 18       		.uleb128 0x18
 6510 027f 00       		.byte	0
 6511 0280 00       		.byte	0
 6512 0281 32       		.uleb128 0x32
 6513 0282 1D       		.uleb128 0x1d
 6514 0283 01       		.byte	0x1
 6515 0284 31       		.uleb128 0x31
 6516 0285 13       		.uleb128 0x13
 6517 0286 11       		.uleb128 0x11
 6518 0287 01       		.uleb128 0x1
 6519 0288 12       		.uleb128 0x12
 6520 0289 06       		.uleb128 0x6
 6521 028a 58       		.uleb128 0x58
 6522 028b 0B       		.uleb128 0xb
 6523 028c 59       		.uleb128 0x59
 6524 028d 05       		.uleb128 0x5
 6525 028e 00       		.byte	0
 6526 028f 00       		.byte	0
 6527 0290 33       		.uleb128 0x33
 6528 0291 2E       		.uleb128 0x2e
 6529 0292 01       		.byte	0x1
 6530 0293 3F       		.uleb128 0x3f
 6531 0294 19       		.uleb128 0x19
 6532 0295 03       		.uleb128 0x3
ARM GAS  /tmp/ccGKa4GA.s 			page 146


 6533 0296 0E       		.uleb128 0xe
 6534 0297 3A       		.uleb128 0x3a
 6535 0298 0B       		.uleb128 0xb
 6536 0299 3B       		.uleb128 0x3b
 6537 029a 05       		.uleb128 0x5
 6538 029b 27       		.uleb128 0x27
 6539 029c 19       		.uleb128 0x19
 6540 029d 49       		.uleb128 0x49
 6541 029e 13       		.uleb128 0x13
 6542 029f 11       		.uleb128 0x11
 6543 02a0 01       		.uleb128 0x1
 6544 02a1 12       		.uleb128 0x12
 6545 02a2 06       		.uleb128 0x6
 6546 02a3 40       		.uleb128 0x40
 6547 02a4 18       		.uleb128 0x18
 6548 02a5 9742     		.uleb128 0x2117
 6549 02a7 19       		.uleb128 0x19
 6550 02a8 01       		.uleb128 0x1
 6551 02a9 13       		.uleb128 0x13
 6552 02aa 00       		.byte	0
 6553 02ab 00       		.byte	0
 6554 02ac 34       		.uleb128 0x34
 6555 02ad 1D       		.uleb128 0x1d
 6556 02ae 01       		.byte	0x1
 6557 02af 31       		.uleb128 0x31
 6558 02b0 13       		.uleb128 0x13
 6559 02b1 52       		.uleb128 0x52
 6560 02b2 01       		.uleb128 0x1
 6561 02b3 55       		.uleb128 0x55
 6562 02b4 17       		.uleb128 0x17
 6563 02b5 58       		.uleb128 0x58
 6564 02b6 0B       		.uleb128 0xb
 6565 02b7 59       		.uleb128 0x59
 6566 02b8 0B       		.uleb128 0xb
 6567 02b9 00       		.byte	0
 6568 02ba 00       		.byte	0
 6569 02bb 35       		.uleb128 0x35
 6570 02bc 0B       		.uleb128 0xb
 6571 02bd 01       		.byte	0x1
 6572 02be 55       		.uleb128 0x55
 6573 02bf 17       		.uleb128 0x17
 6574 02c0 01       		.uleb128 0x1
 6575 02c1 13       		.uleb128 0x13
 6576 02c2 00       		.byte	0
 6577 02c3 00       		.byte	0
 6578 02c4 36       		.uleb128 0x36
 6579 02c5 34       		.uleb128 0x34
 6580 02c6 00       		.byte	0
 6581 02c7 03       		.uleb128 0x3
 6582 02c8 0E       		.uleb128 0xe
 6583 02c9 3A       		.uleb128 0x3a
 6584 02ca 0B       		.uleb128 0xb
 6585 02cb 3B       		.uleb128 0x3b
 6586 02cc 05       		.uleb128 0x5
 6587 02cd 49       		.uleb128 0x49
 6588 02ce 13       		.uleb128 0x13
 6589 02cf 02       		.uleb128 0x2
ARM GAS  /tmp/ccGKa4GA.s 			page 147


 6590 02d0 18       		.uleb128 0x18
 6591 02d1 00       		.byte	0
 6592 02d2 00       		.byte	0
 6593 02d3 37       		.uleb128 0x37
 6594 02d4 2E       		.uleb128 0x2e
 6595 02d5 01       		.byte	0x1
 6596 02d6 3F       		.uleb128 0x3f
 6597 02d7 19       		.uleb128 0x19
 6598 02d8 03       		.uleb128 0x3
 6599 02d9 0E       		.uleb128 0xe
 6600 02da 3A       		.uleb128 0x3a
 6601 02db 0B       		.uleb128 0xb
 6602 02dc 3B       		.uleb128 0x3b
 6603 02dd 0B       		.uleb128 0xb
 6604 02de 27       		.uleb128 0x27
 6605 02df 19       		.uleb128 0x19
 6606 02e0 49       		.uleb128 0x49
 6607 02e1 13       		.uleb128 0x13
 6608 02e2 11       		.uleb128 0x11
 6609 02e3 01       		.uleb128 0x1
 6610 02e4 12       		.uleb128 0x12
 6611 02e5 06       		.uleb128 0x6
 6612 02e6 40       		.uleb128 0x40
 6613 02e7 18       		.uleb128 0x18
 6614 02e8 9742     		.uleb128 0x2117
 6615 02ea 19       		.uleb128 0x19
 6616 02eb 01       		.uleb128 0x1
 6617 02ec 13       		.uleb128 0x13
 6618 02ed 00       		.byte	0
 6619 02ee 00       		.byte	0
 6620 02ef 38       		.uleb128 0x38
 6621 02f0 05       		.uleb128 0x5
 6622 02f1 00       		.byte	0
 6623 02f2 03       		.uleb128 0x3
 6624 02f3 0E       		.uleb128 0xe
 6625 02f4 3A       		.uleb128 0x3a
 6626 02f5 0B       		.uleb128 0xb
 6627 02f6 3B       		.uleb128 0x3b
 6628 02f7 0B       		.uleb128 0xb
 6629 02f8 49       		.uleb128 0x49
 6630 02f9 13       		.uleb128 0x13
 6631 02fa 02       		.uleb128 0x2
 6632 02fb 17       		.uleb128 0x17
 6633 02fc 00       		.byte	0
 6634 02fd 00       		.byte	0
 6635 02fe 39       		.uleb128 0x39
 6636 02ff 05       		.uleb128 0x5
 6637 0300 00       		.byte	0
 6638 0301 03       		.uleb128 0x3
 6639 0302 0E       		.uleb128 0xe
 6640 0303 3A       		.uleb128 0x3a
 6641 0304 0B       		.uleb128 0xb
 6642 0305 3B       		.uleb128 0x3b
 6643 0306 0B       		.uleb128 0xb
 6644 0307 49       		.uleb128 0x49
 6645 0308 13       		.uleb128 0x13
 6646 0309 02       		.uleb128 0x2
ARM GAS  /tmp/ccGKa4GA.s 			page 148


 6647 030a 18       		.uleb128 0x18
 6648 030b 00       		.byte	0
 6649 030c 00       		.byte	0
 6650 030d 3A       		.uleb128 0x3a
 6651 030e 34       		.uleb128 0x34
 6652 030f 00       		.byte	0
 6653 0310 03       		.uleb128 0x3
 6654 0311 0E       		.uleb128 0xe
 6655 0312 3A       		.uleb128 0x3a
 6656 0313 0B       		.uleb128 0xb
 6657 0314 3B       		.uleb128 0x3b
 6658 0315 0B       		.uleb128 0xb
 6659 0316 49       		.uleb128 0x49
 6660 0317 13       		.uleb128 0x13
 6661 0318 02       		.uleb128 0x2
 6662 0319 17       		.uleb128 0x17
 6663 031a 00       		.byte	0
 6664 031b 00       		.byte	0
 6665 031c 3B       		.uleb128 0x3b
 6666 031d 34       		.uleb128 0x34
 6667 031e 00       		.byte	0
 6668 031f 03       		.uleb128 0x3
 6669 0320 0E       		.uleb128 0xe
 6670 0321 3A       		.uleb128 0x3a
 6671 0322 0B       		.uleb128 0xb
 6672 0323 3B       		.uleb128 0x3b
 6673 0324 0B       		.uleb128 0xb
 6674 0325 49       		.uleb128 0x49
 6675 0326 13       		.uleb128 0x13
 6676 0327 02       		.uleb128 0x2
 6677 0328 18       		.uleb128 0x18
 6678 0329 00       		.byte	0
 6679 032a 00       		.byte	0
 6680 032b 3C       		.uleb128 0x3c
 6681 032c 2E       		.uleb128 0x2e
 6682 032d 01       		.byte	0x1
 6683 032e 3F       		.uleb128 0x3f
 6684 032f 19       		.uleb128 0x19
 6685 0330 03       		.uleb128 0x3
 6686 0331 0E       		.uleb128 0xe
 6687 0332 3A       		.uleb128 0x3a
 6688 0333 0B       		.uleb128 0xb
 6689 0334 3B       		.uleb128 0x3b
 6690 0335 0B       		.uleb128 0xb
 6691 0336 27       		.uleb128 0x27
 6692 0337 19       		.uleb128 0x19
 6693 0338 20       		.uleb128 0x20
 6694 0339 0B       		.uleb128 0xb
 6695 033a 01       		.uleb128 0x1
 6696 033b 13       		.uleb128 0x13
 6697 033c 00       		.byte	0
 6698 033d 00       		.byte	0
 6699 033e 3D       		.uleb128 0x3d
 6700 033f 05       		.uleb128 0x5
 6701 0340 00       		.byte	0
 6702 0341 03       		.uleb128 0x3
 6703 0342 0E       		.uleb128 0xe
ARM GAS  /tmp/ccGKa4GA.s 			page 149


 6704 0343 3A       		.uleb128 0x3a
 6705 0344 0B       		.uleb128 0xb
 6706 0345 3B       		.uleb128 0x3b
 6707 0346 0B       		.uleb128 0xb
 6708 0347 49       		.uleb128 0x49
 6709 0348 13       		.uleb128 0x13
 6710 0349 00       		.byte	0
 6711 034a 00       		.byte	0
 6712 034b 3E       		.uleb128 0x3e
 6713 034c 34       		.uleb128 0x34
 6714 034d 00       		.byte	0
 6715 034e 03       		.uleb128 0x3
 6716 034f 0E       		.uleb128 0xe
 6717 0350 3A       		.uleb128 0x3a
 6718 0351 0B       		.uleb128 0xb
 6719 0352 3B       		.uleb128 0x3b
 6720 0353 0B       		.uleb128 0xb
 6721 0354 49       		.uleb128 0x49
 6722 0355 13       		.uleb128 0x13
 6723 0356 00       		.byte	0
 6724 0357 00       		.byte	0
 6725 0358 3F       		.uleb128 0x3f
 6726 0359 2E       		.uleb128 0x2e
 6727 035a 01       		.byte	0x1
 6728 035b 03       		.uleb128 0x3
 6729 035c 0E       		.uleb128 0xe
 6730 035d 3A       		.uleb128 0x3a
 6731 035e 0B       		.uleb128 0xb
 6732 035f 3B       		.uleb128 0x3b
 6733 0360 0B       		.uleb128 0xb
 6734 0361 27       		.uleb128 0x27
 6735 0362 19       		.uleb128 0x19
 6736 0363 49       		.uleb128 0x49
 6737 0364 13       		.uleb128 0x13
 6738 0365 20       		.uleb128 0x20
 6739 0366 0B       		.uleb128 0xb
 6740 0367 01       		.uleb128 0x1
 6741 0368 13       		.uleb128 0x13
 6742 0369 00       		.byte	0
 6743 036a 00       		.byte	0
 6744 036b 40       		.uleb128 0x40
 6745 036c 2E       		.uleb128 0x2e
 6746 036d 01       		.byte	0x1
 6747 036e 03       		.uleb128 0x3
 6748 036f 0E       		.uleb128 0xe
 6749 0370 3A       		.uleb128 0x3a
 6750 0371 0B       		.uleb128 0xb
 6751 0372 3B       		.uleb128 0x3b
 6752 0373 0B       		.uleb128 0xb
 6753 0374 27       		.uleb128 0x27
 6754 0375 19       		.uleb128 0x19
 6755 0376 20       		.uleb128 0x20
 6756 0377 0B       		.uleb128 0xb
 6757 0378 01       		.uleb128 0x1
 6758 0379 13       		.uleb128 0x13
 6759 037a 00       		.byte	0
 6760 037b 00       		.byte	0
ARM GAS  /tmp/ccGKa4GA.s 			page 150


 6761 037c 41       		.uleb128 0x41
 6762 037d 05       		.uleb128 0x5
 6763 037e 00       		.byte	0
 6764 037f 03       		.uleb128 0x3
 6765 0380 08       		.uleb128 0x8
 6766 0381 3A       		.uleb128 0x3a
 6767 0382 0B       		.uleb128 0xb
 6768 0383 3B       		.uleb128 0x3b
 6769 0384 0B       		.uleb128 0xb
 6770 0385 49       		.uleb128 0x49
 6771 0386 13       		.uleb128 0x13
 6772 0387 00       		.byte	0
 6773 0388 00       		.byte	0
 6774 0389 42       		.uleb128 0x42
 6775 038a 2E       		.uleb128 0x2e
 6776 038b 01       		.byte	0x1
 6777 038c 03       		.uleb128 0x3
 6778 038d 0E       		.uleb128 0xe
 6779 038e 3A       		.uleb128 0x3a
 6780 038f 0B       		.uleb128 0xb
 6781 0390 3B       		.uleb128 0x3b
 6782 0391 05       		.uleb128 0x5
 6783 0392 27       		.uleb128 0x27
 6784 0393 19       		.uleb128 0x19
 6785 0394 20       		.uleb128 0x20
 6786 0395 0B       		.uleb128 0xb
 6787 0396 01       		.uleb128 0x1
 6788 0397 13       		.uleb128 0x13
 6789 0398 00       		.byte	0
 6790 0399 00       		.byte	0
 6791 039a 43       		.uleb128 0x43
 6792 039b 05       		.uleb128 0x5
 6793 039c 00       		.byte	0
 6794 039d 03       		.uleb128 0x3
 6795 039e 0E       		.uleb128 0xe
 6796 039f 3A       		.uleb128 0x3a
 6797 03a0 0B       		.uleb128 0xb
 6798 03a1 3B       		.uleb128 0x3b
 6799 03a2 05       		.uleb128 0x5
 6800 03a3 49       		.uleb128 0x49
 6801 03a4 13       		.uleb128 0x13
 6802 03a5 00       		.byte	0
 6803 03a6 00       		.byte	0
 6804 03a7 44       		.uleb128 0x44
 6805 03a8 2E       		.uleb128 0x2e
 6806 03a9 01       		.byte	0x1
 6807 03aa 03       		.uleb128 0x3
 6808 03ab 0E       		.uleb128 0xe
 6809 03ac 3A       		.uleb128 0x3a
 6810 03ad 0B       		.uleb128 0xb
 6811 03ae 3B       		.uleb128 0x3b
 6812 03af 05       		.uleb128 0x5
 6813 03b0 27       		.uleb128 0x27
 6814 03b1 19       		.uleb128 0x19
 6815 03b2 49       		.uleb128 0x49
 6816 03b3 13       		.uleb128 0x13
 6817 03b4 20       		.uleb128 0x20
ARM GAS  /tmp/ccGKa4GA.s 			page 151


 6818 03b5 0B       		.uleb128 0xb
 6819 03b6 01       		.uleb128 0x1
 6820 03b7 13       		.uleb128 0x13
 6821 03b8 00       		.byte	0
 6822 03b9 00       		.byte	0
 6823 03ba 45       		.uleb128 0x45
 6824 03bb 2E       		.uleb128 0x2e
 6825 03bc 00       		.byte	0
 6826 03bd 03       		.uleb128 0x3
 6827 03be 0E       		.uleb128 0xe
 6828 03bf 3A       		.uleb128 0x3a
 6829 03c0 0B       		.uleb128 0xb
 6830 03c1 3B       		.uleb128 0x3b
 6831 03c2 05       		.uleb128 0x5
 6832 03c3 27       		.uleb128 0x27
 6833 03c4 19       		.uleb128 0x19
 6834 03c5 49       		.uleb128 0x49
 6835 03c6 13       		.uleb128 0x13
 6836 03c7 20       		.uleb128 0x20
 6837 03c8 0B       		.uleb128 0xb
 6838 03c9 00       		.byte	0
 6839 03ca 00       		.byte	0
 6840 03cb 46       		.uleb128 0x46
 6841 03cc 05       		.uleb128 0x5
 6842 03cd 00       		.byte	0
 6843 03ce 03       		.uleb128 0x3
 6844 03cf 08       		.uleb128 0x8
 6845 03d0 3A       		.uleb128 0x3a
 6846 03d1 0B       		.uleb128 0xb
 6847 03d2 3B       		.uleb128 0x3b
 6848 03d3 05       		.uleb128 0x5
 6849 03d4 49       		.uleb128 0x49
 6850 03d5 13       		.uleb128 0x13
 6851 03d6 00       		.byte	0
 6852 03d7 00       		.byte	0
 6853 03d8 47       		.uleb128 0x47
 6854 03d9 2E       		.uleb128 0x2e
 6855 03da 01       		.byte	0x1
 6856 03db 31       		.uleb128 0x31
 6857 03dc 13       		.uleb128 0x13
 6858 03dd 11       		.uleb128 0x11
 6859 03de 01       		.uleb128 0x1
 6860 03df 12       		.uleb128 0x12
 6861 03e0 06       		.uleb128 0x6
 6862 03e1 40       		.uleb128 0x40
 6863 03e2 18       		.uleb128 0x18
 6864 03e3 9742     		.uleb128 0x2117
 6865 03e5 19       		.uleb128 0x19
 6866 03e6 01       		.uleb128 0x1
 6867 03e7 13       		.uleb128 0x13
 6868 03e8 00       		.byte	0
 6869 03e9 00       		.byte	0
 6870 03ea 48       		.uleb128 0x48
 6871 03eb 2E       		.uleb128 0x2e
 6872 03ec 00       		.byte	0
 6873 03ed 3F       		.uleb128 0x3f
 6874 03ee 19       		.uleb128 0x19
ARM GAS  /tmp/ccGKa4GA.s 			page 152


 6875 03ef 3C       		.uleb128 0x3c
 6876 03f0 19       		.uleb128 0x19
 6877 03f1 6E       		.uleb128 0x6e
 6878 03f2 0E       		.uleb128 0xe
 6879 03f3 03       		.uleb128 0x3
 6880 03f4 0E       		.uleb128 0xe
 6881 03f5 3A       		.uleb128 0x3a
 6882 03f6 0B       		.uleb128 0xb
 6883 03f7 3B       		.uleb128 0x3b
 6884 03f8 05       		.uleb128 0x5
 6885 03f9 00       		.byte	0
 6886 03fa 00       		.byte	0
 6887 03fb 00       		.byte	0
 6888              		.section	.debug_loc,"",%progbits
 6889              	.Ldebug_loc0:
 6890              	.LLST164:
 6891 0000 00000000 		.4byte	.LVL249
 6892 0004 14000000 		.4byte	.LVL252
 6893 0008 0100     		.2byte	0x1
 6894 000a 50       		.byte	0x50
 6895 000b 14000000 		.4byte	.LVL252
 6896 000f 22000000 		.4byte	.LVL255
 6897 0013 0400     		.2byte	0x4
 6898 0015 F3       		.byte	0xf3
 6899 0016 01       		.uleb128 0x1
 6900 0017 50       		.byte	0x50
 6901 0018 9F       		.byte	0x9f
 6902 0019 22000000 		.4byte	.LVL255
 6903 001d 28000000 		.4byte	.LVL256
 6904 0021 0100     		.2byte	0x1
 6905 0023 50       		.byte	0x50
 6906 0024 28000000 		.4byte	.LVL256
 6907 0028 48000000 		.4byte	.LFE216
 6908 002c 0400     		.2byte	0x4
 6909 002e F3       		.byte	0xf3
 6910 002f 01       		.uleb128 0x1
 6911 0030 50       		.byte	0x50
 6912 0031 9F       		.byte	0x9f
 6913 0032 00000000 		.4byte	0
 6914 0036 00000000 		.4byte	0
 6915              	.LLST165:
 6916 003a 00000000 		.4byte	.LVL249
 6917 003e 08000000 		.4byte	.LVL250
 6918 0042 0100     		.2byte	0x1
 6919 0044 50       		.byte	0x50
 6920 0045 00000000 		.4byte	0
 6921 0049 00000000 		.4byte	0
 6922              	.LLST166:
 6923 004d 08000000 		.4byte	.LVL250
 6924 0051 0E000000 		.4byte	.LVL251
 6925 0055 0100     		.2byte	0x1
 6926 0057 50       		.byte	0x50
 6927 0058 00000000 		.4byte	0
 6928 005c 00000000 		.4byte	0
 6929              	.LLST167:
 6930 0060 1A000000 		.4byte	.LVL253
 6931 0064 22000000 		.4byte	.LVL255
ARM GAS  /tmp/ccGKa4GA.s 			page 153


 6932 0068 0200     		.2byte	0x2
 6933 006a 30       		.byte	0x30
 6934 006b 9F       		.byte	0x9f
 6935 006c 2E000000 		.4byte	.LVL257
 6936 0070 48000000 		.4byte	.LFE216
 6937 0074 0200     		.2byte	0x2
 6938 0076 30       		.byte	0x30
 6939 0077 9F       		.byte	0x9f
 6940 0078 00000000 		.4byte	0
 6941 007c 00000000 		.4byte	0
 6942              	.LLST168:
 6943 0080 1A000000 		.4byte	.LVL253
 6944 0084 20000000 		.4byte	.LVL254
 6945 0088 0400     		.2byte	0x4
 6946 008a F3       		.byte	0xf3
 6947 008b 01       		.uleb128 0x1
 6948 008c 50       		.byte	0x50
 6949 008d 9F       		.byte	0x9f
 6950 008e 2E000000 		.4byte	.LVL257
 6951 0092 48000000 		.4byte	.LFE216
 6952 0096 0600     		.2byte	0x6
 6953 0098 0C       		.byte	0xc
 6954 0099 00000440 		.4byte	0x40040000
 6955 009d 9F       		.byte	0x9f
 6956 009e 00000000 		.4byte	0
 6957 00a2 00000000 		.4byte	0
 6958              	.LLST169:
 6959 00a6 1A000000 		.4byte	.LVL253
 6960 00aa 20000000 		.4byte	.LVL254
 6961 00ae 0200     		.2byte	0x2
 6962 00b0 30       		.byte	0x30
 6963 00b1 9F       		.byte	0x9f
 6964 00b2 00000000 		.4byte	0
 6965 00b6 00000000 		.4byte	0
 6966              	.LLST153:
 6967 00ba 00000000 		.4byte	.LVL237
 6968 00be 47000000 		.4byte	.LVL245-1
 6969 00c2 0100     		.2byte	0x1
 6970 00c4 50       		.byte	0x50
 6971 00c5 47000000 		.4byte	.LVL245-1
 6972 00c9 4A000000 		.4byte	.LVL246
 6973 00cd 0400     		.2byte	0x4
 6974 00cf F3       		.byte	0xf3
 6975 00d0 01       		.uleb128 0x1
 6976 00d1 50       		.byte	0x50
 6977 00d2 9F       		.byte	0x9f
 6978 00d3 4A000000 		.4byte	.LVL246
 6979 00d7 70000000 		.4byte	.LFE215
 6980 00db 0100     		.2byte	0x1
 6981 00dd 50       		.byte	0x50
 6982 00de 00000000 		.4byte	0
 6983 00e2 00000000 		.4byte	0
 6984              	.LLST154:
 6985 00e6 00000000 		.4byte	.LVL237
 6986 00ea 08000000 		.4byte	.LVL238
 6987 00ee 0100     		.2byte	0x1
 6988 00f0 50       		.byte	0x50
ARM GAS  /tmp/ccGKa4GA.s 			page 154


 6989 00f1 00000000 		.4byte	0
 6990 00f5 00000000 		.4byte	0
 6991              	.LLST155:
 6992 00f9 16000000 		.4byte	.LVL239
 6993 00fd 1C000000 		.4byte	.LVL240
 6994 0101 0200     		.2byte	0x2
 6995 0103 31       		.byte	0x31
 6996 0104 9F       		.byte	0x9f
 6997 0105 58000000 		.4byte	.LVL247
 6998 0109 5E000000 		.4byte	.LVL248
 6999 010d 0200     		.2byte	0x2
 7000 010f 31       		.byte	0x31
 7001 0110 9F       		.byte	0x9f
 7002 0111 00000000 		.4byte	0
 7003 0115 00000000 		.4byte	0
 7004              	.LLST156:
 7005 0119 16000000 		.4byte	.LVL239
 7006 011d 1C000000 		.4byte	.LVL240
 7007 0121 0100     		.2byte	0x1
 7008 0123 50       		.byte	0x50
 7009 0124 58000000 		.4byte	.LVL247
 7010 0128 5E000000 		.4byte	.LVL248
 7011 012c 0600     		.2byte	0x6
 7012 012e 0C       		.byte	0xc
 7013 012f 00000440 		.4byte	0x40040000
 7014 0133 9F       		.byte	0x9f
 7015 0134 00000000 		.4byte	0
 7016 0138 00000000 		.4byte	0
 7017              	.LLST157:
 7018 013c 16000000 		.4byte	.LVL239
 7019 0140 20000000 		.4byte	.LVL241
 7020 0144 0200     		.2byte	0x2
 7021 0146 31       		.byte	0x31
 7022 0147 9F       		.byte	0x9f
 7023 0148 00000000 		.4byte	0
 7024 014c 00000000 		.4byte	0
 7025              	.LLST158:
 7026 0150 2E000000 		.4byte	.LVL242
 7027 0154 38000000 		.4byte	.LVL243
 7028 0158 0200     		.2byte	0x2
 7029 015a 30       		.byte	0x30
 7030 015b 9F       		.byte	0x9f
 7031 015c 00000000 		.4byte	0
 7032 0160 00000000 		.4byte	0
 7033              	.LLST159:
 7034 0164 2E000000 		.4byte	.LVL242
 7035 0168 38000000 		.4byte	.LVL243
 7036 016c 0100     		.2byte	0x1
 7037 016e 50       		.byte	0x50
 7038 016f 00000000 		.4byte	0
 7039 0173 00000000 		.4byte	0
 7040              	.LLST160:
 7041 0177 38000000 		.4byte	.LVL243
 7042 017b 44000000 		.4byte	.LVL244
 7043 017f 0200     		.2byte	0x2
 7044 0181 30       		.byte	0x30
 7045 0182 9F       		.byte	0x9f
ARM GAS  /tmp/ccGKa4GA.s 			page 155


 7046 0183 00000000 		.4byte	0
 7047 0187 00000000 		.4byte	0
 7048              	.LLST162:
 7049 018b 38000000 		.4byte	.LVL243
 7050 018f 44000000 		.4byte	.LVL244
 7051 0193 0200     		.2byte	0x2
 7052 0195 37       		.byte	0x37
 7053 0196 9F       		.byte	0x9f
 7054 0197 00000000 		.4byte	0
 7055 019b 00000000 		.4byte	0
 7056              	.LLST163:
 7057 019f 38000000 		.4byte	.LVL243
 7058 01a3 44000000 		.4byte	.LVL244
 7059 01a7 0100     		.2byte	0x1
 7060 01a9 50       		.byte	0x50
 7061 01aa 00000000 		.4byte	0
 7062 01ae 00000000 		.4byte	0
 7063              	.LLST144:
 7064 01b2 00000000 		.4byte	.LVL214
 7065 01b6 0F000000 		.4byte	.LVL216-1
 7066 01ba 0100     		.2byte	0x1
 7067 01bc 50       		.byte	0x50
 7068 01bd 0F000000 		.4byte	.LVL216-1
 7069 01c1 4C000000 		.4byte	.LVL227
 7070 01c5 0100     		.2byte	0x1
 7071 01c7 57       		.byte	0x57
 7072 01c8 4C000000 		.4byte	.LVL227
 7073 01cc 54000000 		.4byte	.LVL229
 7074 01d0 0400     		.2byte	0x4
 7075 01d2 F3       		.byte	0xf3
 7076 01d3 01       		.uleb128 0x1
 7077 01d4 50       		.byte	0x50
 7078 01d5 9F       		.byte	0x9f
 7079 01d6 54000000 		.4byte	.LVL229
 7080 01da 80000000 		.4byte	.LFE214
 7081 01de 0100     		.2byte	0x1
 7082 01e0 57       		.byte	0x57
 7083 01e1 00000000 		.4byte	0
 7084 01e5 00000000 		.4byte	0
 7085              	.LLST145:
 7086 01e9 00000000 		.4byte	.LVL214
 7087 01ed 0F000000 		.4byte	.LVL216-1
 7088 01f1 0100     		.2byte	0x1
 7089 01f3 51       		.byte	0x51
 7090 01f4 0F000000 		.4byte	.LVL216-1
 7091 01f8 4C000000 		.4byte	.LVL228
 7092 01fc 0100     		.2byte	0x1
 7093 01fe 58       		.byte	0x58
 7094 01ff 4C000000 		.4byte	.LVL228
 7095 0203 54000000 		.4byte	.LVL229
 7096 0207 0400     		.2byte	0x4
 7097 0209 F3       		.byte	0xf3
 7098 020a 01       		.uleb128 0x1
 7099 020b 51       		.byte	0x51
 7100 020c 9F       		.byte	0x9f
 7101 020d 54000000 		.4byte	.LVL229
 7102 0211 80000000 		.4byte	.LFE214
ARM GAS  /tmp/ccGKa4GA.s 			page 156


 7103 0215 0100     		.2byte	0x1
 7104 0217 58       		.byte	0x58
 7105 0218 00000000 		.4byte	0
 7106 021c 00000000 		.4byte	0
 7107              	.LLST146:
 7108 0220 22000000 		.4byte	.LVL218
 7109 0224 2C000000 		.4byte	.LVL219
 7110 0228 0200     		.2byte	0x2
 7111 022a 30       		.byte	0x30
 7112 022b 9F       		.byte	0x9f
 7113 022c 2C000000 		.4byte	.LVL219
 7114 0230 3E000000 		.4byte	.LVL222
 7115 0234 0100     		.2byte	0x1
 7116 0236 54       		.byte	0x54
 7117 0237 3E000000 		.4byte	.LVL222
 7118 023b 40000000 		.4byte	.LVL223
 7119 023f 0300     		.2byte	0x3
 7120 0241 75       		.byte	0x75
 7121 0242 7F       		.sleb128 -1
 7122 0243 9F       		.byte	0x9f
 7123 0244 54000000 		.4byte	.LVL229
 7124 0248 5A000000 		.4byte	.LVL230
 7125 024c 0100     		.2byte	0x1
 7126 024e 55       		.byte	0x55
 7127 024f 5A000000 		.4byte	.LVL230
 7128 0253 60000000 		.4byte	.LVL233
 7129 0257 0200     		.2byte	0x2
 7130 0259 30       		.byte	0x30
 7131 025a 9F       		.byte	0x9f
 7132 025b 6E000000 		.4byte	.LVL236
 7133 025f 80000000 		.4byte	.LFE214
 7134 0263 0200     		.2byte	0x2
 7135 0265 30       		.byte	0x30
 7136 0266 9F       		.byte	0x9f
 7137 0267 00000000 		.4byte	0
 7138 026b 00000000 		.4byte	0
 7139              	.LLST147:
 7140 026f 22000000 		.4byte	.LVL218
 7141 0273 30000000 		.4byte	.LVL220
 7142 0277 0300     		.2byte	0x3
 7143 0279 09       		.byte	0x9
 7144 027a FF       		.byte	0xff
 7145 027b 9F       		.byte	0x9f
 7146 027c 30000000 		.4byte	.LVL220
 7147 0280 40000000 		.4byte	.LVL223
 7148 0284 0F00     		.2byte	0xf
 7149 0286 79       		.byte	0x79
 7150 0287 00       		.sleb128 0
 7151 0288 F7       		.byte	0xf7
 7152 0289 29       		.uleb128 0x29
 7153 028a 75       		.byte	0x75
 7154 028b 00       		.sleb128 0
 7155 028c 76       		.byte	0x76
 7156 028d 00       		.sleb128 0
 7157 028e 1E       		.byte	0x1e
 7158 028f F7       		.byte	0xf7
 7159 0290 29       		.uleb128 0x29
ARM GAS  /tmp/ccGKa4GA.s 			page 157


 7160 0291 1B       		.byte	0x1b
 7161 0292 F7       		.byte	0xf7
 7162 0293 00       		.uleb128 0
 7163 0294 9F       		.byte	0x9f
 7164 0295 54000000 		.4byte	.LVL229
 7165 0299 5A000000 		.4byte	.LVL230
 7166 029d 0F00     		.2byte	0xf
 7167 029f 79       		.byte	0x79
 7168 02a0 00       		.sleb128 0
 7169 02a1 F7       		.byte	0xf7
 7170 02a2 29       		.uleb128 0x29
 7171 02a3 75       		.byte	0x75
 7172 02a4 00       		.sleb128 0
 7173 02a5 76       		.byte	0x76
 7174 02a6 00       		.sleb128 0
 7175 02a7 1E       		.byte	0x1e
 7176 02a8 F7       		.byte	0xf7
 7177 02a9 29       		.uleb128 0x29
 7178 02aa 1B       		.byte	0x1b
 7179 02ab F7       		.byte	0xf7
 7180 02ac 00       		.uleb128 0
 7181 02ad 9F       		.byte	0x9f
 7182 02ae 5A000000 		.4byte	.LVL230
 7183 02b2 5C000000 		.4byte	.LVL231
 7184 02b6 0F00     		.2byte	0xf
 7185 02b8 79       		.byte	0x79
 7186 02b9 00       		.sleb128 0
 7187 02ba F7       		.byte	0xf7
 7188 02bb 29       		.uleb128 0x29
 7189 02bc 74       		.byte	0x74
 7190 02bd 00       		.sleb128 0
 7191 02be 76       		.byte	0x76
 7192 02bf 00       		.sleb128 0
 7193 02c0 1E       		.byte	0x1e
 7194 02c1 F7       		.byte	0xf7
 7195 02c2 29       		.uleb128 0x29
 7196 02c3 1B       		.byte	0x1b
 7197 02c4 F7       		.byte	0xf7
 7198 02c5 00       		.uleb128 0
 7199 02c6 9F       		.byte	0x9f
 7200 02c7 5C000000 		.4byte	.LVL231
 7201 02cb 5E000000 		.4byte	.LVL232
 7202 02cf 0F00     		.2byte	0xf
 7203 02d1 79       		.byte	0x79
 7204 02d2 00       		.sleb128 0
 7205 02d3 F7       		.byte	0xf7
 7206 02d4 29       		.uleb128 0x29
 7207 02d5 76       		.byte	0x76
 7208 02d6 7E       		.sleb128 -2
 7209 02d7 74       		.byte	0x74
 7210 02d8 00       		.sleb128 0
 7211 02d9 1E       		.byte	0x1e
 7212 02da F7       		.byte	0xf7
 7213 02db 29       		.uleb128 0x29
 7214 02dc 1B       		.byte	0x1b
 7215 02dd F7       		.byte	0xf7
 7216 02de 00       		.uleb128 0
ARM GAS  /tmp/ccGKa4GA.s 			page 158


 7217 02df 9F       		.byte	0x9f
 7218 02e0 5E000000 		.4byte	.LVL232
 7219 02e4 60000000 		.4byte	.LVL233
 7220 02e8 0F00     		.2byte	0xf
 7221 02ea 79       		.byte	0x79
 7222 02eb 00       		.sleb128 0
 7223 02ec F7       		.byte	0xf7
 7224 02ed 29       		.uleb128 0x29
 7225 02ee 76       		.byte	0x76
 7226 02ef 7E       		.sleb128 -2
 7227 02f0 75       		.byte	0x75
 7228 02f1 00       		.sleb128 0
 7229 02f2 1E       		.byte	0x1e
 7230 02f3 F7       		.byte	0xf7
 7231 02f4 29       		.uleb128 0x29
 7232 02f5 1B       		.byte	0x1b
 7233 02f6 F7       		.byte	0xf7
 7234 02f7 00       		.uleb128 0
 7235 02f8 9F       		.byte	0x9f
 7236 02f9 6E000000 		.4byte	.LVL236
 7237 02fd 80000000 		.4byte	.LFE214
 7238 0301 0300     		.2byte	0x3
 7239 0303 09       		.byte	0x9
 7240 0304 FF       		.byte	0xff
 7241 0305 9F       		.byte	0x9f
 7242 0306 00000000 		.4byte	0
 7243 030a 00000000 		.4byte	0
 7244              	.LLST148:
 7245 030e 22000000 		.4byte	.LVL218
 7246 0312 2C000000 		.4byte	.LVL219
 7247 0316 0200     		.2byte	0x2
 7248 0318 32       		.byte	0x32
 7249 0319 9F       		.byte	0x9f
 7250 031a 2C000000 		.4byte	.LVL219
 7251 031e 40000000 		.4byte	.LVL223
 7252 0322 0100     		.2byte	0x1
 7253 0324 56       		.byte	0x56
 7254 0325 54000000 		.4byte	.LVL229
 7255 0329 60000000 		.4byte	.LVL233
 7256 032d 0100     		.2byte	0x1
 7257 032f 56       		.byte	0x56
 7258 0330 6E000000 		.4byte	.LVL236
 7259 0334 80000000 		.4byte	.LFE214
 7260 0338 0200     		.2byte	0x2
 7261 033a 32       		.byte	0x32
 7262 033b 9F       		.byte	0x9f
 7263 033c 00000000 		.4byte	0
 7264 0340 00000000 		.4byte	0
 7265              	.LLST149:
 7266 0344 0C000000 		.4byte	.LVL215
 7267 0348 0F000000 		.4byte	.LVL216-1
 7268 034c 0100     		.2byte	0x1
 7269 034e 50       		.byte	0x50
 7270 034f 0F000000 		.4byte	.LVL216-1
 7271 0353 22000000 		.4byte	.LVL218
 7272 0357 0100     		.2byte	0x1
 7273 0359 57       		.byte	0x57
ARM GAS  /tmp/ccGKa4GA.s 			page 159


 7274 035a 60000000 		.4byte	.LVL233
 7275 035e 6E000000 		.4byte	.LVL236
 7276 0362 0100     		.2byte	0x1
 7277 0364 57       		.byte	0x57
 7278 0365 00000000 		.4byte	0
 7279 0369 00000000 		.4byte	0
 7280              	.LLST150:
 7281 036d 10000000 		.4byte	.LVL216
 7282 0371 1F000000 		.4byte	.LVL217-1
 7283 0375 0100     		.2byte	0x1
 7284 0377 50       		.byte	0x50
 7285 0378 60000000 		.4byte	.LVL233
 7286 037c 69000000 		.4byte	.LVL234-1
 7287 0380 0100     		.2byte	0x1
 7288 0382 50       		.byte	0x50
 7289 0383 6C000000 		.4byte	.LVL235
 7290 0387 6E000000 		.4byte	.LVL236
 7291 038b 0100     		.2byte	0x1
 7292 038d 50       		.byte	0x50
 7293 038e 00000000 		.4byte	0
 7294 0392 00000000 		.4byte	0
 7295              	.LLST151:
 7296 0396 40000000 		.4byte	.LVL223
 7297 039a 4C000000 		.4byte	.LVL226
 7298 039e 0100     		.2byte	0x1
 7299 03a0 56       		.byte	0x56
 7300 03a1 00000000 		.4byte	0
 7301 03a5 00000000 		.4byte	0
 7302              	.LLST152:
 7303 03a9 40000000 		.4byte	.LVL223
 7304 03ad 4C000000 		.4byte	.LVL226
 7305 03b1 0100     		.2byte	0x1
 7306 03b3 57       		.byte	0x57
 7307 03b4 00000000 		.4byte	0
 7308 03b8 00000000 		.4byte	0
 7309              	.LLST142:
 7310 03bc 08000000 		.4byte	.LVL211
 7311 03c0 0C000000 		.4byte	.LVL212
 7312 03c4 0200     		.2byte	0x2
 7313 03c6 34       		.byte	0x34
 7314 03c7 9F       		.byte	0x9f
 7315 03c8 00000000 		.4byte	0
 7316 03cc 00000000 		.4byte	0
 7317              	.LLST143:
 7318 03d0 08000000 		.4byte	.LVL211
 7319 03d4 0C000000 		.4byte	.LVL212
 7320 03d8 0100     		.2byte	0x1
 7321 03da 50       		.byte	0x50
 7322 03db 00000000 		.4byte	0
 7323 03df 00000000 		.4byte	0
 7324              	.LLST122:
 7325 03e3 00000000 		.4byte	.LVL178
 7326 03e7 9E000000 		.4byte	.LVL203
 7327 03eb 0100     		.2byte	0x1
 7328 03ed 50       		.byte	0x50
 7329 03ee 9E000000 		.4byte	.LVL203
 7330 03f2 A0000000 		.4byte	.LVL204
ARM GAS  /tmp/ccGKa4GA.s 			page 160


 7331 03f6 0400     		.2byte	0x4
 7332 03f8 F3       		.byte	0xf3
 7333 03f9 01       		.uleb128 0x1
 7334 03fa 50       		.byte	0x50
 7335 03fb 9F       		.byte	0x9f
 7336 03fc A0000000 		.4byte	.LVL204
 7337 0400 B4000000 		.4byte	.LVL208
 7338 0404 0100     		.2byte	0x1
 7339 0406 50       		.byte	0x50
 7340 0407 B4000000 		.4byte	.LVL208
 7341 040b BA000000 		.4byte	.LVL209
 7342 040f 0400     		.2byte	0x4
 7343 0411 F3       		.byte	0xf3
 7344 0412 01       		.uleb128 0x1
 7345 0413 50       		.byte	0x50
 7346 0414 9F       		.byte	0x9f
 7347 0415 BA000000 		.4byte	.LVL209
 7348 0419 C8000000 		.4byte	.LFE212
 7349 041d 0100     		.2byte	0x1
 7350 041f 50       		.byte	0x50
 7351 0420 00000000 		.4byte	0
 7352 0424 00000000 		.4byte	0
 7353              	.LLST123:
 7354 0428 00000000 		.4byte	.LVL178
 7355 042c 06000000 		.4byte	.LVL179
 7356 0430 0200     		.2byte	0x2
 7357 0432 31       		.byte	0x31
 7358 0433 9F       		.byte	0x9f
 7359 0434 00000000 		.4byte	0
 7360 0438 00000000 		.4byte	0
 7361              	.LLST124:
 7362 043c 00000000 		.4byte	.LVL178
 7363 0440 06000000 		.4byte	.LVL179
 7364 0444 0100     		.2byte	0x1
 7365 0446 50       		.byte	0x50
 7366 0447 00000000 		.4byte	0
 7367 044b 00000000 		.4byte	0
 7368              	.LLST125:
 7369 044f 14000000 		.4byte	.LVL180
 7370 0453 16000000 		.4byte	.LVL181
 7371 0457 0200     		.2byte	0x2
 7372 0459 34       		.byte	0x34
 7373 045a 9F       		.byte	0x9f
 7374 045b 00000000 		.4byte	0
 7375 045f 00000000 		.4byte	0
 7376              	.LLST126:
 7377 0463 14000000 		.4byte	.LVL180
 7378 0467 16000000 		.4byte	.LVL181
 7379 046b 0100     		.2byte	0x1
 7380 046d 50       		.byte	0x50
 7381 046e 00000000 		.4byte	0
 7382 0472 00000000 		.4byte	0
 7383              	.LLST127:
 7384 0476 2A000000 		.4byte	.LVL182
 7385 047a 2E000000 		.4byte	.LVL183
 7386 047e 0100     		.2byte	0x1
 7387 0480 50       		.byte	0x50
ARM GAS  /tmp/ccGKa4GA.s 			page 161


 7388 0481 00000000 		.4byte	0
 7389 0485 00000000 		.4byte	0
 7390              	.LLST128:
 7391 0489 58000000 		.4byte	.LVL187
 7392 048d 9C000000 		.4byte	.LVL202
 7393 0491 0100     		.2byte	0x1
 7394 0493 51       		.byte	0x51
 7395 0494 A0000000 		.4byte	.LVL204
 7396 0498 B2000000 		.4byte	.LVL207
 7397 049c 0100     		.2byte	0x1
 7398 049e 51       		.byte	0x51
 7399 049f 00000000 		.4byte	0
 7400 04a3 00000000 		.4byte	0
 7401              	.LLST130:
 7402 04a7 58000000 		.4byte	.LVL187
 7403 04ab 68000000 		.4byte	.LVL193
 7404 04af 0100     		.2byte	0x1
 7405 04b1 50       		.byte	0x50
 7406 04b2 A0000000 		.4byte	.LVL204
 7407 04b6 AC000000 		.4byte	.LVL205
 7408 04ba 0100     		.2byte	0x1
 7409 04bc 50       		.byte	0x50
 7410 04bd 00000000 		.4byte	0
 7411 04c1 00000000 		.4byte	0
 7412              	.LLST131:
 7413 04c5 A0000000 		.4byte	.LVL204
 7414 04c9 B2000000 		.4byte	.LVL207
 7415 04cd 0300     		.2byte	0x3
 7416 04cf 09       		.byte	0x9
 7417 04d0 FF       		.byte	0xff
 7418 04d1 9F       		.byte	0x9f
 7419 04d2 00000000 		.4byte	0
 7420 04d6 00000000 		.4byte	0
 7421              	.LLST132:
 7422 04da A0000000 		.4byte	.LVL204
 7423 04de B2000000 		.4byte	.LVL207
 7424 04e2 0100     		.2byte	0x1
 7425 04e4 50       		.byte	0x50
 7426 04e5 00000000 		.4byte	0
 7427 04e9 00000000 		.4byte	0
 7428              	.LLST133:
 7429 04ed 5C000000 		.4byte	.LVL188
 7430 04f1 5E000000 		.4byte	.LVL189
 7431 04f5 0500     		.2byte	0x5
 7432 04f7 72       		.byte	0x72
 7433 04f8 00       		.sleb128 0
 7434 04f9 73       		.byte	0x73
 7435 04fa 00       		.sleb128 0
 7436 04fb 22       		.byte	0x22
 7437 04fc 5E000000 		.4byte	.LVL189
 7438 0500 60000000 		.4byte	.LVL190
 7439 0504 0600     		.2byte	0x6
 7440 0506 72       		.byte	0x72
 7441 0507 00       		.sleb128 0
 7442 0508 71       		.byte	0x71
 7443 0509 04       		.sleb128 4
 7444 050a 06       		.byte	0x6
ARM GAS  /tmp/ccGKa4GA.s 			page 162


 7445 050b 22       		.byte	0x22
 7446 050c 60000000 		.4byte	.LVL190
 7447 0510 62000000 		.4byte	.LVL191
 7448 0514 0700     		.2byte	0x7
 7449 0516 71       		.byte	0x71
 7450 0517 00       		.sleb128 0
 7451 0518 06       		.byte	0x6
 7452 0519 71       		.byte	0x71
 7453 051a 04       		.sleb128 4
 7454 051b 06       		.byte	0x6
 7455 051c 22       		.byte	0x22
 7456 051d 62000000 		.4byte	.LVL191
 7457 0521 64000000 		.4byte	.LVL192
 7458 0525 0100     		.2byte	0x1
 7459 0527 53       		.byte	0x53
 7460 0528 64000000 		.4byte	.LVL192
 7461 052c 68000000 		.4byte	.LVL193
 7462 0530 0400     		.2byte	0x4
 7463 0532 70       		.byte	0x70
 7464 0533 08       		.sleb128 8
 7465 0534 06       		.byte	0x6
 7466 0535 9F       		.byte	0x9f
 7467 0536 00000000 		.4byte	0
 7468 053a 00000000 		.4byte	0
 7469              	.LLST134:
 7470 053e 5C000000 		.4byte	.LVL188
 7471 0542 6E000000 		.4byte	.LVL195
 7472 0546 0100     		.2byte	0x1
 7473 0548 50       		.byte	0x50
 7474 0549 00000000 		.4byte	0
 7475 054d 00000000 		.4byte	0
 7476              	.LLST135:
 7477 0551 4A000000 		.4byte	.LVL185
 7478 0555 4C000000 		.4byte	.LVL186
 7479 0559 0200     		.2byte	0x2
 7480 055b 32       		.byte	0x32
 7481 055c 9F       		.byte	0x9f
 7482 055d 96000000 		.4byte	.LVL200
 7483 0561 98000000 		.4byte	.LVL201
 7484 0565 0200     		.2byte	0x2
 7485 0567 32       		.byte	0x32
 7486 0568 9F       		.byte	0x9f
 7487 0569 00000000 		.4byte	0
 7488 056d 00000000 		.4byte	0
 7489              	.LLST136:
 7490 0571 4A000000 		.4byte	.LVL185
 7491 0575 4C000000 		.4byte	.LVL186
 7492 0579 0100     		.2byte	0x1
 7493 057b 50       		.byte	0x50
 7494 057c 96000000 		.4byte	.LVL200
 7495 0580 98000000 		.4byte	.LVL201
 7496 0584 0100     		.2byte	0x1
 7497 0586 50       		.byte	0x50
 7498 0587 00000000 		.4byte	0
 7499 058b 00000000 		.4byte	0
 7500              	.LLST137:
 7501 058f 68000000 		.4byte	.LVL193
ARM GAS  /tmp/ccGKa4GA.s 			page 163


 7502 0593 6A000000 		.4byte	.LVL194
 7503 0597 0200     		.2byte	0x2
 7504 0599 31       		.byte	0x31
 7505 059a 9F       		.byte	0x9f
 7506 059b AC000000 		.4byte	.LVL205
 7507 059f AE000000 		.4byte	.LVL206
 7508 05a3 0200     		.2byte	0x2
 7509 05a5 31       		.byte	0x31
 7510 05a6 9F       		.byte	0x9f
 7511 05a7 00000000 		.4byte	0
 7512 05ab 00000000 		.4byte	0
 7513              	.LLST138:
 7514 05af 68000000 		.4byte	.LVL193
 7515 05b3 6A000000 		.4byte	.LVL194
 7516 05b7 0100     		.2byte	0x1
 7517 05b9 50       		.byte	0x50
 7518 05ba AC000000 		.4byte	.LVL205
 7519 05be AE000000 		.4byte	.LVL206
 7520 05c2 0100     		.2byte	0x1
 7521 05c4 50       		.byte	0x50
 7522 05c5 00000000 		.4byte	0
 7523 05c9 00000000 		.4byte	0
 7524              	.LLST139:
 7525 05cd 6E000000 		.4byte	.LVL195
 7526 05d1 70000000 		.4byte	.LVL196
 7527 05d5 0200     		.2byte	0x2
 7528 05d7 34       		.byte	0x34
 7529 05d8 9F       		.byte	0x9f
 7530 05d9 00000000 		.4byte	0
 7531 05dd 00000000 		.4byte	0
 7532              	.LLST140:
 7533 05e1 6E000000 		.4byte	.LVL195
 7534 05e5 70000000 		.4byte	.LVL196
 7535 05e9 0100     		.2byte	0x1
 7536 05eb 50       		.byte	0x50
 7537 05ec 00000000 		.4byte	0
 7538 05f0 00000000 		.4byte	0
 7539              	.LLST141:
 7540 05f4 82000000 		.4byte	.LVL197
 7541 05f8 86000000 		.4byte	.LVL198
 7542 05fc 0100     		.2byte	0x1
 7543 05fe 50       		.byte	0x50
 7544 05ff 00000000 		.4byte	0
 7545 0603 00000000 		.4byte	0
 7546              	.LLST102:
 7547 0607 00000000 		.4byte	.LVL147
 7548 060b 9A000000 		.4byte	.LVL171
 7549 060f 0100     		.2byte	0x1
 7550 0611 50       		.byte	0x50
 7551 0612 9A000000 		.4byte	.LVL171
 7552 0616 9C000000 		.4byte	.LVL172
 7553 061a 0400     		.2byte	0x4
 7554 061c F3       		.byte	0xf3
 7555 061d 01       		.uleb128 0x1
 7556 061e 50       		.byte	0x50
 7557 061f 9F       		.byte	0x9f
 7558 0620 9C000000 		.4byte	.LVL172
ARM GAS  /tmp/ccGKa4GA.s 			page 164


 7559 0624 AE000000 		.4byte	.LVL176
 7560 0628 0100     		.2byte	0x1
 7561 062a 50       		.byte	0x50
 7562 062b AE000000 		.4byte	.LVL176
 7563 062f B0000000 		.4byte	.LVL177
 7564 0633 0400     		.2byte	0x4
 7565 0635 F3       		.byte	0xf3
 7566 0636 01       		.uleb128 0x1
 7567 0637 50       		.byte	0x50
 7568 0638 9F       		.byte	0x9f
 7569 0639 B0000000 		.4byte	.LVL177
 7570 063d B8000000 		.4byte	.LFE211
 7571 0641 0100     		.2byte	0x1
 7572 0643 50       		.byte	0x50
 7573 0644 00000000 		.4byte	0
 7574 0648 00000000 		.4byte	0
 7575              	.LLST103:
 7576 064c 00000000 		.4byte	.LVL147
 7577 0650 02000000 		.4byte	.LVL148
 7578 0654 0200     		.2byte	0x2
 7579 0656 31       		.byte	0x31
 7580 0657 9F       		.byte	0x9f
 7581 0658 00000000 		.4byte	0
 7582 065c 00000000 		.4byte	0
 7583              	.LLST104:
 7584 0660 00000000 		.4byte	.LVL147
 7585 0664 02000000 		.4byte	.LVL148
 7586 0668 0100     		.2byte	0x1
 7587 066a 50       		.byte	0x50
 7588 066b 00000000 		.4byte	0
 7589 066f 00000000 		.4byte	0
 7590              	.LLST105:
 7591 0673 10000000 		.4byte	.LVL149
 7592 0677 12000000 		.4byte	.LVL150
 7593 067b 0200     		.2byte	0x2
 7594 067d 34       		.byte	0x34
 7595 067e 9F       		.byte	0x9f
 7596 067f 00000000 		.4byte	0
 7597 0683 00000000 		.4byte	0
 7598              	.LLST106:
 7599 0687 10000000 		.4byte	.LVL149
 7600 068b 12000000 		.4byte	.LVL150
 7601 068f 0100     		.2byte	0x1
 7602 0691 50       		.byte	0x50
 7603 0692 00000000 		.4byte	0
 7604 0696 00000000 		.4byte	0
 7605              	.LLST107:
 7606 069a 26000000 		.4byte	.LVL151
 7607 069e 2A000000 		.4byte	.LVL152
 7608 06a2 0100     		.2byte	0x1
 7609 06a4 50       		.byte	0x50
 7610 06a5 00000000 		.4byte	0
 7611 06a9 00000000 		.4byte	0
 7612              	.LLST108:
 7613 06ad 56000000 		.4byte	.LVL156
 7614 06b1 98000000 		.4byte	.LVL170
 7615 06b5 0100     		.2byte	0x1
ARM GAS  /tmp/ccGKa4GA.s 			page 165


 7616 06b7 51       		.byte	0x51
 7617 06b8 9C000000 		.4byte	.LVL172
 7618 06bc AC000000 		.4byte	.LVL175
 7619 06c0 0100     		.2byte	0x1
 7620 06c2 51       		.byte	0x51
 7621 06c3 00000000 		.4byte	0
 7622 06c7 00000000 		.4byte	0
 7623              	.LLST110:
 7624 06cb 56000000 		.4byte	.LVL156
 7625 06cf 64000000 		.4byte	.LVL161
 7626 06d3 0100     		.2byte	0x1
 7627 06d5 50       		.byte	0x50
 7628 06d6 9C000000 		.4byte	.LVL172
 7629 06da A6000000 		.4byte	.LVL173
 7630 06de 0100     		.2byte	0x1
 7631 06e0 50       		.byte	0x50
 7632 06e1 00000000 		.4byte	0
 7633 06e5 00000000 		.4byte	0
 7634              	.LLST111:
 7635 06e9 9C000000 		.4byte	.LVL172
 7636 06ed AC000000 		.4byte	.LVL175
 7637 06f1 0300     		.2byte	0x3
 7638 06f3 08       		.byte	0x8
 7639 06f4 FF       		.byte	0xff
 7640 06f5 9F       		.byte	0x9f
 7641 06f6 00000000 		.4byte	0
 7642 06fa 00000000 		.4byte	0
 7643              	.LLST112:
 7644 06fe 9C000000 		.4byte	.LVL172
 7645 0702 AC000000 		.4byte	.LVL175
 7646 0706 0100     		.2byte	0x1
 7647 0708 50       		.byte	0x50
 7648 0709 00000000 		.4byte	0
 7649 070d 00000000 		.4byte	0
 7650              	.LLST113:
 7651 0711 5A000000 		.4byte	.LVL157
 7652 0715 5C000000 		.4byte	.LVL158
 7653 0719 0B00     		.2byte	0xb
 7654 071b 74       		.byte	0x74
 7655 071c 00       		.sleb128 0
 7656 071d 73       		.byte	0x73
 7657 071e 00       		.sleb128 0
 7658 071f 22       		.byte	0x22
 7659 0720 94       		.byte	0x94
 7660 0721 01       		.byte	0x1
 7661 0722 08       		.byte	0x8
 7662 0723 FF       		.byte	0xff
 7663 0724 1A       		.byte	0x1a
 7664 0725 9F       		.byte	0x9f
 7665 0726 5C000000 		.4byte	.LVL158
 7666 072a 5E000000 		.4byte	.LVL159
 7667 072e 0C00     		.2byte	0xc
 7668 0730 74       		.byte	0x74
 7669 0731 00       		.sleb128 0
 7670 0732 71       		.byte	0x71
 7671 0733 04       		.sleb128 4
 7672 0734 06       		.byte	0x6
ARM GAS  /tmp/ccGKa4GA.s 			page 166


 7673 0735 22       		.byte	0x22
 7674 0736 94       		.byte	0x94
 7675 0737 01       		.byte	0x1
 7676 0738 08       		.byte	0x8
 7677 0739 FF       		.byte	0xff
 7678 073a 1A       		.byte	0x1a
 7679 073b 9F       		.byte	0x9f
 7680 073c 5E000000 		.4byte	.LVL159
 7681 0740 60000000 		.4byte	.LVL160
 7682 0744 0600     		.2byte	0x6
 7683 0746 73       		.byte	0x73
 7684 0747 00       		.sleb128 0
 7685 0748 08       		.byte	0x8
 7686 0749 FF       		.byte	0xff
 7687 074a 1A       		.byte	0x1a
 7688 074b 9F       		.byte	0x9f
 7689 074c 60000000 		.4byte	.LVL160
 7690 0750 64000000 		.4byte	.LVL161
 7691 0754 0700     		.2byte	0x7
 7692 0756 70       		.byte	0x70
 7693 0757 08       		.sleb128 8
 7694 0758 06       		.byte	0x6
 7695 0759 08       		.byte	0x8
 7696 075a FF       		.byte	0xff
 7697 075b 1A       		.byte	0x1a
 7698 075c 9F       		.byte	0x9f
 7699 075d 00000000 		.4byte	0
 7700 0761 00000000 		.4byte	0
 7701              	.LLST114:
 7702 0765 5A000000 		.4byte	.LVL157
 7703 0769 6A000000 		.4byte	.LVL163
 7704 076d 0100     		.2byte	0x1
 7705 076f 50       		.byte	0x50
 7706 0770 00000000 		.4byte	0
 7707 0774 00000000 		.4byte	0
 7708              	.LLST115:
 7709 0778 46000000 		.4byte	.LVL154
 7710 077c 48000000 		.4byte	.LVL155
 7711 0780 0200     		.2byte	0x2
 7712 0782 32       		.byte	0x32
 7713 0783 9F       		.byte	0x9f
 7714 0784 92000000 		.4byte	.LVL168
 7715 0788 94000000 		.4byte	.LVL169
 7716 078c 0200     		.2byte	0x2
 7717 078e 32       		.byte	0x32
 7718 078f 9F       		.byte	0x9f
 7719 0790 00000000 		.4byte	0
 7720 0794 00000000 		.4byte	0
 7721              	.LLST116:
 7722 0798 46000000 		.4byte	.LVL154
 7723 079c 48000000 		.4byte	.LVL155
 7724 07a0 0100     		.2byte	0x1
 7725 07a2 50       		.byte	0x50
 7726 07a3 92000000 		.4byte	.LVL168
 7727 07a7 94000000 		.4byte	.LVL169
 7728 07ab 0100     		.2byte	0x1
 7729 07ad 50       		.byte	0x50
ARM GAS  /tmp/ccGKa4GA.s 			page 167


 7730 07ae 00000000 		.4byte	0
 7731 07b2 00000000 		.4byte	0
 7732              	.LLST117:
 7733 07b6 64000000 		.4byte	.LVL161
 7734 07ba 66000000 		.4byte	.LVL162
 7735 07be 0200     		.2byte	0x2
 7736 07c0 31       		.byte	0x31
 7737 07c1 9F       		.byte	0x9f
 7738 07c2 A6000000 		.4byte	.LVL173
 7739 07c6 A8000000 		.4byte	.LVL174
 7740 07ca 0200     		.2byte	0x2
 7741 07cc 31       		.byte	0x31
 7742 07cd 9F       		.byte	0x9f
 7743 07ce 00000000 		.4byte	0
 7744 07d2 00000000 		.4byte	0
 7745              	.LLST118:
 7746 07d6 64000000 		.4byte	.LVL161
 7747 07da 66000000 		.4byte	.LVL162
 7748 07de 0100     		.2byte	0x1
 7749 07e0 50       		.byte	0x50
 7750 07e1 A6000000 		.4byte	.LVL173
 7751 07e5 A8000000 		.4byte	.LVL174
 7752 07e9 0100     		.2byte	0x1
 7753 07eb 50       		.byte	0x50
 7754 07ec 00000000 		.4byte	0
 7755 07f0 00000000 		.4byte	0
 7756              	.LLST119:
 7757 07f4 6A000000 		.4byte	.LVL163
 7758 07f8 6C000000 		.4byte	.LVL164
 7759 07fc 0200     		.2byte	0x2
 7760 07fe 34       		.byte	0x34
 7761 07ff 9F       		.byte	0x9f
 7762 0800 00000000 		.4byte	0
 7763 0804 00000000 		.4byte	0
 7764              	.LLST120:
 7765 0808 6A000000 		.4byte	.LVL163
 7766 080c 6C000000 		.4byte	.LVL164
 7767 0810 0100     		.2byte	0x1
 7768 0812 50       		.byte	0x50
 7769 0813 00000000 		.4byte	0
 7770 0817 00000000 		.4byte	0
 7771              	.LLST121:
 7772 081b 76000000 		.4byte	.LVL165
 7773 081f 7A000000 		.4byte	.LVL166
 7774 0823 0100     		.2byte	0x1
 7775 0825 50       		.byte	0x50
 7776 0826 00000000 		.4byte	0
 7777 082a 00000000 		.4byte	0
 7778              	.LLST93:
 7779 082e 00000000 		.4byte	.LVL136
 7780 0832 02000000 		.4byte	.LVL137
 7781 0836 0200     		.2byte	0x2
 7782 0838 40       		.byte	0x40
 7783 0839 9F       		.byte	0x9f
 7784 083a 00000000 		.4byte	0
 7785 083e 00000000 		.4byte	0
 7786              	.LLST94:
ARM GAS  /tmp/ccGKa4GA.s 			page 168


 7787 0842 00000000 		.4byte	.LVL136
 7788 0846 02000000 		.4byte	.LVL137
 7789 084a 0100     		.2byte	0x1
 7790 084c 50       		.byte	0x50
 7791 084d 00000000 		.4byte	0
 7792 0851 00000000 		.4byte	0
 7793              	.LLST95:
 7794 0855 08000000 		.4byte	.LVL138
 7795 0859 0A000000 		.4byte	.LVL139
 7796 085d 0200     		.2byte	0x2
 7797 085f 40       		.byte	0x40
 7798 0860 9F       		.byte	0x9f
 7799 0861 00000000 		.4byte	0
 7800 0865 00000000 		.4byte	0
 7801              	.LLST96:
 7802 0869 08000000 		.4byte	.LVL138
 7803 086d 0A000000 		.4byte	.LVL139
 7804 0871 0100     		.2byte	0x1
 7805 0873 50       		.byte	0x50
 7806 0874 00000000 		.4byte	0
 7807 0878 00000000 		.4byte	0
 7808              	.LLST97:
 7809 087c 0E000000 		.4byte	.LVL140
 7810 0880 10000000 		.4byte	.LVL141
 7811 0884 0200     		.2byte	0x2
 7812 0886 34       		.byte	0x34
 7813 0887 9F       		.byte	0x9f
 7814 0888 18000000 		.4byte	.LVL143
 7815 088c 1A000000 		.4byte	.LVL144
 7816 0890 0200     		.2byte	0x2
 7817 0892 34       		.byte	0x34
 7818 0893 9F       		.byte	0x9f
 7819 0894 00000000 		.4byte	0
 7820 0898 00000000 		.4byte	0
 7821              	.LLST98:
 7822 089c 0E000000 		.4byte	.LVL140
 7823 08a0 10000000 		.4byte	.LVL141
 7824 08a4 0100     		.2byte	0x1
 7825 08a6 50       		.byte	0x50
 7826 08a7 18000000 		.4byte	.LVL143
 7827 08ab 1A000000 		.4byte	.LVL144
 7828 08af 0100     		.2byte	0x1
 7829 08b1 50       		.byte	0x50
 7830 08b2 00000000 		.4byte	0
 7831 08b6 00000000 		.4byte	0
 7832              	.LLST99:
 7833 08ba 16000000 		.4byte	.LVL142
 7834 08be 1E000000 		.4byte	.LVL145
 7835 08c2 0100     		.2byte	0x1
 7836 08c4 50       		.byte	0x50
 7837 08c5 00000000 		.4byte	0
 7838 08c9 00000000 		.4byte	0
 7839              	.LLST100:
 7840 08cd 1E000000 		.4byte	.LVL145
 7841 08d1 22000000 		.4byte	.LVL146
 7842 08d5 0200     		.2byte	0x2
 7843 08d7 33       		.byte	0x33
ARM GAS  /tmp/ccGKa4GA.s 			page 169


 7844 08d8 9F       		.byte	0x9f
 7845 08d9 00000000 		.4byte	0
 7846 08dd 00000000 		.4byte	0
 7847              	.LLST101:
 7848 08e1 1E000000 		.4byte	.LVL145
 7849 08e5 22000000 		.4byte	.LVL146
 7850 08e9 0100     		.2byte	0x1
 7851 08eb 50       		.byte	0x50
 7852 08ec 00000000 		.4byte	0
 7853 08f0 00000000 		.4byte	0
 7854              	.LLST64:
 7855 08f4 00000000 		.4byte	.LVL93
 7856 08f8 84000000 		.4byte	.LVL118
 7857 08fc 0100     		.2byte	0x1
 7858 08fe 50       		.byte	0x50
 7859 08ff 84000000 		.4byte	.LVL118
 7860 0903 8C000000 		.4byte	.LVL120
 7861 0907 0400     		.2byte	0x4
 7862 0909 F3       		.byte	0xf3
 7863 090a 01       		.uleb128 0x1
 7864 090b 50       		.byte	0x50
 7865 090c 9F       		.byte	0x9f
 7866 090d 8C000000 		.4byte	.LVL120
 7867 0911 E0000000 		.4byte	.LFE209
 7868 0915 0100     		.2byte	0x1
 7869 0917 50       		.byte	0x50
 7870 0918 00000000 		.4byte	0
 7871 091c 00000000 		.4byte	0
 7872              	.LLST65:
 7873 0920 00000000 		.4byte	.LVL93
 7874 0924 38000000 		.4byte	.LVL101
 7875 0928 0100     		.2byte	0x1
 7876 092a 51       		.byte	0x51
 7877 092b 38000000 		.4byte	.LVL101
 7878 092f 8C000000 		.4byte	.LVL120
 7879 0933 0400     		.2byte	0x4
 7880 0935 F3       		.byte	0xf3
 7881 0936 01       		.uleb128 0x1
 7882 0937 51       		.byte	0x51
 7883 0938 9F       		.byte	0x9f
 7884 0939 8C000000 		.4byte	.LVL120
 7885 093d 9C000000 		.4byte	.LVL121
 7886 0941 0100     		.2byte	0x1
 7887 0943 51       		.byte	0x51
 7888 0944 9C000000 		.4byte	.LVL121
 7889 0948 E0000000 		.4byte	.LFE209
 7890 094c 0400     		.2byte	0x4
 7891 094e F3       		.byte	0xf3
 7892 094f 01       		.uleb128 0x1
 7893 0950 51       		.byte	0x51
 7894 0951 9F       		.byte	0x9f
 7895 0952 00000000 		.4byte	0
 7896 0956 00000000 		.4byte	0
 7897              	.LLST66:
 7898 095a 00000000 		.4byte	.LVL93
 7899 095e 38000000 		.4byte	.LVL101
 7900 0962 0200     		.2byte	0x2
ARM GAS  /tmp/ccGKa4GA.s 			page 170


 7901 0964 30       		.byte	0x30
 7902 0965 9F       		.byte	0x9f
 7903 0966 38000000 		.4byte	.LVL101
 7904 096a 58000000 		.4byte	.LVL109
 7905 096e 0100     		.2byte	0x1
 7906 0970 53       		.byte	0x53
 7907 0971 58000000 		.4byte	.LVL109
 7908 0975 5E000000 		.4byte	.LVL110
 7909 0979 0300     		.2byte	0x3
 7910 097b 73       		.byte	0x73
 7911 097c 7F       		.sleb128 -1
 7912 097d 9F       		.byte	0x9f
 7913 097e 5E000000 		.4byte	.LVL110
 7914 0982 82000000 		.4byte	.LVL117
 7915 0986 0100     		.2byte	0x1
 7916 0988 53       		.byte	0x53
 7917 0989 8C000000 		.4byte	.LVL120
 7918 098d 9C000000 		.4byte	.LVL121
 7919 0991 0200     		.2byte	0x2
 7920 0993 30       		.byte	0x30
 7921 0994 9F       		.byte	0x9f
 7922 0995 9C000000 		.4byte	.LVL121
 7923 0999 BC000000 		.4byte	.LVL129
 7924 099d 0100     		.2byte	0x1
 7925 099f 53       		.byte	0x53
 7926 09a0 BC000000 		.4byte	.LVL129
 7927 09a4 C2000000 		.4byte	.LVL130
 7928 09a8 0300     		.2byte	0x3
 7929 09aa 73       		.byte	0x73
 7930 09ab 7E       		.sleb128 -2
 7931 09ac 9F       		.byte	0x9f
 7932 09ad C2000000 		.4byte	.LVL130
 7933 09b1 E0000000 		.4byte	.LFE209
 7934 09b5 0100     		.2byte	0x1
 7935 09b7 53       		.byte	0x53
 7936 09b8 00000000 		.4byte	0
 7937 09bc 00000000 		.4byte	0
 7938              	.LLST67:
 7939 09c0 00000000 		.4byte	.LVL93
 7940 09c4 38000000 		.4byte	.LVL101
 7941 09c8 0200     		.2byte	0x2
 7942 09ca 30       		.byte	0x30
 7943 09cb 9F       		.byte	0x9f
 7944 09cc 38000000 		.4byte	.LVL101
 7945 09d0 84000000 		.4byte	.LVL119
 7946 09d4 0100     		.2byte	0x1
 7947 09d6 56       		.byte	0x56
 7948 09d7 8C000000 		.4byte	.LVL120
 7949 09db 9C000000 		.4byte	.LVL121
 7950 09df 0200     		.2byte	0x2
 7951 09e1 30       		.byte	0x30
 7952 09e2 9F       		.byte	0x9f
 7953 09e3 9C000000 		.4byte	.LVL121
 7954 09e7 D6000000 		.4byte	.LVL134
 7955 09eb 0100     		.2byte	0x1
 7956 09ed 56       		.byte	0x56
 7957 09ee D6000000 		.4byte	.LVL134
ARM GAS  /tmp/ccGKa4GA.s 			page 171


 7958 09f2 D8000000 		.4byte	.LVL135
 7959 09f6 0300     		.2byte	0x3
 7960 09f8 76       		.byte	0x76
 7961 09f9 7E       		.sleb128 -2
 7962 09fa 9F       		.byte	0x9f
 7963 09fb D8000000 		.4byte	.LVL135
 7964 09ff E0000000 		.4byte	.LFE209
 7965 0a03 0100     		.2byte	0x1
 7966 0a05 56       		.byte	0x56
 7967 0a06 00000000 		.4byte	0
 7968 0a0a 00000000 		.4byte	0
 7969              	.LLST84:
 7970 0a0e A4000000 		.4byte	.LVL122
 7971 0a12 A6000000 		.4byte	.LVL123
 7972 0a16 0200     		.2byte	0x2
 7973 0a18 32       		.byte	0x32
 7974 0a19 9F       		.byte	0x9f
 7975 0a1a CA000000 		.4byte	.LVL131
 7976 0a1e CE000000 		.4byte	.LVL132
 7977 0a22 0200     		.2byte	0x2
 7978 0a24 32       		.byte	0x32
 7979 0a25 9F       		.byte	0x9f
 7980 0a26 00000000 		.4byte	0
 7981 0a2a 00000000 		.4byte	0
 7982              	.LLST85:
 7983 0a2e A4000000 		.4byte	.LVL122
 7984 0a32 A6000000 		.4byte	.LVL123
 7985 0a36 0100     		.2byte	0x1
 7986 0a38 50       		.byte	0x50
 7987 0a39 CA000000 		.4byte	.LVL131
 7988 0a3d CE000000 		.4byte	.LVL132
 7989 0a41 0100     		.2byte	0x1
 7990 0a43 50       		.byte	0x50
 7991 0a44 00000000 		.4byte	0
 7992 0a48 00000000 		.4byte	0
 7993              	.LLST86:
 7994 0a4c D2000000 		.4byte	.LVL133
 7995 0a50 D8000000 		.4byte	.LVL135
 7996 0a54 0300     		.2byte	0x3
 7997 0a56 09       		.byte	0x9
 7998 0a57 FF       		.byte	0xff
 7999 0a58 9F       		.byte	0x9f
 8000 0a59 00000000 		.4byte	0
 8001 0a5d 00000000 		.4byte	0
 8002              	.LLST87:
 8003 0a61 D2000000 		.4byte	.LVL133
 8004 0a65 D8000000 		.4byte	.LVL135
 8005 0a69 0100     		.2byte	0x1
 8006 0a6b 50       		.byte	0x50
 8007 0a6c 00000000 		.4byte	0
 8008 0a70 00000000 		.4byte	0
 8009              	.LLST88:
 8010 0a74 A6000000 		.4byte	.LVL123
 8011 0a78 AA000000 		.4byte	.LVL124
 8012 0a7c 0200     		.2byte	0x2
 8013 0a7e 31       		.byte	0x31
 8014 0a7f 9F       		.byte	0x9f
ARM GAS  /tmp/ccGKa4GA.s 			page 172


 8015 0a80 00000000 		.4byte	0
 8016 0a84 00000000 		.4byte	0
 8017              	.LLST89:
 8018 0a88 A6000000 		.4byte	.LVL123
 8019 0a8c AA000000 		.4byte	.LVL124
 8020 0a90 0100     		.2byte	0x1
 8021 0a92 50       		.byte	0x50
 8022 0a93 00000000 		.4byte	0
 8023 0a97 00000000 		.4byte	0
 8024              	.LLST90:
 8025 0a9b AE000000 		.4byte	.LVL125
 8026 0a9f B0000000 		.4byte	.LVL126
 8027 0aa3 0200     		.2byte	0x2
 8028 0aa5 34       		.byte	0x34
 8029 0aa6 9F       		.byte	0x9f
 8030 0aa7 00000000 		.4byte	0
 8031 0aab 00000000 		.4byte	0
 8032              	.LLST91:
 8033 0aaf AE000000 		.4byte	.LVL125
 8034 0ab3 B0000000 		.4byte	.LVL126
 8035 0ab7 0100     		.2byte	0x1
 8036 0ab9 50       		.byte	0x50
 8037 0aba 00000000 		.4byte	0
 8038 0abe 00000000 		.4byte	0
 8039              	.LLST92:
 8040 0ac2 B8000000 		.4byte	.LVL127
 8041 0ac6 BA000000 		.4byte	.LVL128
 8042 0aca 0100     		.2byte	0x1
 8043 0acc 50       		.byte	0x50
 8044 0acd 00000000 		.4byte	0
 8045 0ad1 00000000 		.4byte	0
 8046              	.LLST74:
 8047 0ad5 38000000 		.4byte	.LVL101
 8048 0ad9 80000000 		.4byte	.LVL116
 8049 0add 0100     		.2byte	0x1
 8050 0adf 51       		.byte	0x51
 8051 0ae0 00000000 		.4byte	0
 8052 0ae4 00000000 		.4byte	0
 8053              	.LLST75:
 8054 0ae8 40000000 		.4byte	.LVL102
 8055 0aec 42000000 		.4byte	.LVL103
 8056 0af0 0200     		.2byte	0x2
 8057 0af2 32       		.byte	0x32
 8058 0af3 9F       		.byte	0x9f
 8059 0af4 6A000000 		.4byte	.LVL111
 8060 0af8 6E000000 		.4byte	.LVL112
 8061 0afc 0200     		.2byte	0x2
 8062 0afe 32       		.byte	0x32
 8063 0aff 9F       		.byte	0x9f
 8064 0b00 00000000 		.4byte	0
 8065 0b04 00000000 		.4byte	0
 8066              	.LLST76:
 8067 0b08 40000000 		.4byte	.LVL102
 8068 0b0c 42000000 		.4byte	.LVL103
 8069 0b10 0100     		.2byte	0x1
 8070 0b12 50       		.byte	0x50
 8071 0b13 6A000000 		.4byte	.LVL111
ARM GAS  /tmp/ccGKa4GA.s 			page 173


 8072 0b17 6E000000 		.4byte	.LVL112
 8073 0b1b 0100     		.2byte	0x1
 8074 0b1d 50       		.byte	0x50
 8075 0b1e 00000000 		.4byte	0
 8076 0b22 00000000 		.4byte	0
 8077              	.LLST77:
 8078 0b26 72000000 		.4byte	.LVL113
 8079 0b2a 78000000 		.4byte	.LVL114
 8080 0b2e 0300     		.2byte	0x3
 8081 0b30 08       		.byte	0x8
 8082 0b31 FF       		.byte	0xff
 8083 0b32 9F       		.byte	0x9f
 8084 0b33 00000000 		.4byte	0
 8085 0b37 00000000 		.4byte	0
 8086              	.LLST78:
 8087 0b3b 72000000 		.4byte	.LVL113
 8088 0b3f 78000000 		.4byte	.LVL114
 8089 0b43 0100     		.2byte	0x1
 8090 0b45 50       		.byte	0x50
 8091 0b46 00000000 		.4byte	0
 8092 0b4a 00000000 		.4byte	0
 8093              	.LLST79:
 8094 0b4e 42000000 		.4byte	.LVL103
 8095 0b52 46000000 		.4byte	.LVL104
 8096 0b56 0200     		.2byte	0x2
 8097 0b58 31       		.byte	0x31
 8098 0b59 9F       		.byte	0x9f
 8099 0b5a 00000000 		.4byte	0
 8100 0b5e 00000000 		.4byte	0
 8101              	.LLST80:
 8102 0b62 42000000 		.4byte	.LVL103
 8103 0b66 46000000 		.4byte	.LVL104
 8104 0b6a 0100     		.2byte	0x1
 8105 0b6c 50       		.byte	0x50
 8106 0b6d 00000000 		.4byte	0
 8107 0b71 00000000 		.4byte	0
 8108              	.LLST81:
 8109 0b75 4A000000 		.4byte	.LVL105
 8110 0b79 4C000000 		.4byte	.LVL106
 8111 0b7d 0200     		.2byte	0x2
 8112 0b7f 34       		.byte	0x34
 8113 0b80 9F       		.byte	0x9f
 8114 0b81 00000000 		.4byte	0
 8115 0b85 00000000 		.4byte	0
 8116              	.LLST82:
 8117 0b89 4A000000 		.4byte	.LVL105
 8118 0b8d 4C000000 		.4byte	.LVL106
 8119 0b91 0100     		.2byte	0x1
 8120 0b93 50       		.byte	0x50
 8121 0b94 00000000 		.4byte	0
 8122 0b98 00000000 		.4byte	0
 8123              	.LLST83:
 8124 0b9c 54000000 		.4byte	.LVL107
 8125 0ba0 56000000 		.4byte	.LVL108
 8126 0ba4 0100     		.2byte	0x1
 8127 0ba6 50       		.byte	0x50
 8128 0ba7 00000000 		.4byte	0
ARM GAS  /tmp/ccGKa4GA.s 			page 174


 8129 0bab 00000000 		.4byte	0
 8130              	.LLST68:
 8131 0baf 00000000 		.4byte	.LVL93
 8132 0bb3 08000000 		.4byte	.LVL94
 8133 0bb7 0200     		.2byte	0x2
 8134 0bb9 34       		.byte	0x34
 8135 0bba 9F       		.byte	0x9f
 8136 0bbb 12000000 		.4byte	.LVL96
 8137 0bbf 14000000 		.4byte	.LVL97
 8138 0bc3 0200     		.2byte	0x2
 8139 0bc5 34       		.byte	0x34
 8140 0bc6 9F       		.byte	0x9f
 8141 0bc7 00000000 		.4byte	0
 8142 0bcb 00000000 		.4byte	0
 8143              	.LLST69:
 8144 0bcf 00000000 		.4byte	.LVL93
 8145 0bd3 08000000 		.4byte	.LVL94
 8146 0bd7 0100     		.2byte	0x1
 8147 0bd9 50       		.byte	0x50
 8148 0bda 12000000 		.4byte	.LVL96
 8149 0bde 14000000 		.4byte	.LVL97
 8150 0be2 0100     		.2byte	0x1
 8151 0be4 50       		.byte	0x50
 8152 0be5 00000000 		.4byte	0
 8153 0be9 00000000 		.4byte	0
 8154              	.LLST70:
 8155 0bed 10000000 		.4byte	.LVL95
 8156 0bf1 18000000 		.4byte	.LVL98
 8157 0bf5 0100     		.2byte	0x1
 8158 0bf7 50       		.byte	0x50
 8159 0bf8 00000000 		.4byte	0
 8160 0bfc 00000000 		.4byte	0
 8161              	.LLST71:
 8162 0c00 18000000 		.4byte	.LVL98
 8163 0c04 1C000000 		.4byte	.LVL99
 8164 0c08 0200     		.2byte	0x2
 8165 0c0a 33       		.byte	0x33
 8166 0c0b 9F       		.byte	0x9f
 8167 0c0c 00000000 		.4byte	0
 8168 0c10 00000000 		.4byte	0
 8169              	.LLST72:
 8170 0c14 18000000 		.4byte	.LVL98
 8171 0c18 1C000000 		.4byte	.LVL99
 8172 0c1c 0100     		.2byte	0x1
 8173 0c1e 50       		.byte	0x50
 8174 0c1f 00000000 		.4byte	0
 8175 0c23 00000000 		.4byte	0
 8176              	.LLST73:
 8177 0c27 1C000000 		.4byte	.LVL99
 8178 0c2b 1E000000 		.4byte	.LVL100
 8179 0c2f 0100     		.2byte	0x1
 8180 0c31 50       		.byte	0x50
 8181 0c32 00000000 		.4byte	0
 8182 0c36 00000000 		.4byte	0
 8183              	.LLST35:
 8184 0c3a 00000000 		.4byte	.LVL50
 8185 0c3e 0A000000 		.4byte	.LVL51
ARM GAS  /tmp/ccGKa4GA.s 			page 175


 8186 0c42 0100     		.2byte	0x1
 8187 0c44 50       		.byte	0x50
 8188 0c45 0A000000 		.4byte	.LVL51
 8189 0c49 C6000000 		.4byte	.LFE208
 8190 0c4d 0100     		.2byte	0x1
 8191 0c4f 53       		.byte	0x53
 8192 0c50 00000000 		.4byte	0
 8193 0c54 00000000 		.4byte	0
 8194              	.LLST36:
 8195 0c58 00000000 		.4byte	.LVL50
 8196 0c5c 12000000 		.4byte	.LVL52
 8197 0c60 0100     		.2byte	0x1
 8198 0c62 51       		.byte	0x51
 8199 0c63 12000000 		.4byte	.LVL52
 8200 0c67 36000000 		.4byte	.LVL59
 8201 0c6b 0100     		.2byte	0x1
 8202 0c6d 58       		.byte	0x58
 8203 0c6e 36000000 		.4byte	.LVL59
 8204 0c72 88000000 		.4byte	.LVL77
 8205 0c76 0400     		.2byte	0x4
 8206 0c78 F3       		.byte	0xf3
 8207 0c79 01       		.uleb128 0x1
 8208 0c7a 51       		.byte	0x51
 8209 0c7b 9F       		.byte	0x9f
 8210 0c7c 88000000 		.4byte	.LVL77
 8211 0c80 92000000 		.4byte	.LVL78
 8212 0c84 0100     		.2byte	0x1
 8213 0c86 58       		.byte	0x58
 8214 0c87 92000000 		.4byte	.LVL78
 8215 0c8b C6000000 		.4byte	.LFE208
 8216 0c8f 0400     		.2byte	0x4
 8217 0c91 F3       		.byte	0xf3
 8218 0c92 01       		.uleb128 0x1
 8219 0c93 51       		.byte	0x51
 8220 0c94 9F       		.byte	0x9f
 8221 0c95 00000000 		.4byte	0
 8222 0c99 00000000 		.4byte	0
 8223              	.LLST37:
 8224 0c9d 00000000 		.4byte	.LVL50
 8225 0ca1 36000000 		.4byte	.LVL59
 8226 0ca5 0200     		.2byte	0x2
 8227 0ca7 30       		.byte	0x30
 8228 0ca8 9F       		.byte	0x9f
 8229 0ca9 36000000 		.4byte	.LVL59
 8230 0cad 80000000 		.4byte	.LVL75
 8231 0cb1 0100     		.2byte	0x1
 8232 0cb3 50       		.byte	0x50
 8233 0cb4 88000000 		.4byte	.LVL77
 8234 0cb8 92000000 		.4byte	.LVL78
 8235 0cbc 0200     		.2byte	0x2
 8236 0cbe 30       		.byte	0x30
 8237 0cbf 9F       		.byte	0x9f
 8238 0cc0 92000000 		.4byte	.LVL78
 8239 0cc4 C6000000 		.4byte	.LFE208
 8240 0cc8 0100     		.2byte	0x1
 8241 0cca 50       		.byte	0x50
 8242 0ccb 00000000 		.4byte	0
ARM GAS  /tmp/ccGKa4GA.s 			page 176


 8243 0ccf 00000000 		.4byte	0
 8244              	.LLST38:
 8245 0cd3 00000000 		.4byte	.LVL50
 8246 0cd7 36000000 		.4byte	.LVL59
 8247 0cdb 0200     		.2byte	0x2
 8248 0cdd 30       		.byte	0x30
 8249 0cde 9F       		.byte	0x9f
 8250 0cdf 36000000 		.4byte	.LVL59
 8251 0ce3 80000000 		.4byte	.LVL76
 8252 0ce7 0100     		.2byte	0x1
 8253 0ce9 54       		.byte	0x54
 8254 0cea 88000000 		.4byte	.LVL77
 8255 0cee 92000000 		.4byte	.LVL78
 8256 0cf2 0200     		.2byte	0x2
 8257 0cf4 30       		.byte	0x30
 8258 0cf5 9F       		.byte	0x9f
 8259 0cf6 92000000 		.4byte	.LVL78
 8260 0cfa AC000000 		.4byte	.LVL86
 8261 0cfe 0100     		.2byte	0x1
 8262 0d00 54       		.byte	0x54
 8263 0d01 AC000000 		.4byte	.LVL86
 8264 0d05 AE000000 		.4byte	.LVL87
 8265 0d09 0300     		.2byte	0x3
 8266 0d0b 74       		.byte	0x74
 8267 0d0c 7E       		.sleb128 -2
 8268 0d0d 9F       		.byte	0x9f
 8269 0d0e AE000000 		.4byte	.LVL87
 8270 0d12 C6000000 		.4byte	.LFE208
 8271 0d16 0100     		.2byte	0x1
 8272 0d18 54       		.byte	0x54
 8273 0d19 00000000 		.4byte	0
 8274 0d1d 00000000 		.4byte	0
 8275              	.LLST55:
 8276 0d21 9A000000 		.4byte	.LVL79
 8277 0d25 9C000000 		.4byte	.LVL80
 8278 0d29 0200     		.2byte	0x2
 8279 0d2b 32       		.byte	0x32
 8280 0d2c 9F       		.byte	0x9f
 8281 0d2d AE000000 		.4byte	.LVL87
 8282 0d31 B2000000 		.4byte	.LVL88
 8283 0d35 0200     		.2byte	0x2
 8284 0d37 32       		.byte	0x32
 8285 0d38 9F       		.byte	0x9f
 8286 0d39 00000000 		.4byte	0
 8287 0d3d 00000000 		.4byte	0
 8288              	.LLST56:
 8289 0d41 9A000000 		.4byte	.LVL79
 8290 0d45 9C000000 		.4byte	.LVL80
 8291 0d49 0100     		.2byte	0x1
 8292 0d4b 53       		.byte	0x53
 8293 0d4c AE000000 		.4byte	.LVL87
 8294 0d50 B2000000 		.4byte	.LVL88
 8295 0d54 0100     		.2byte	0x1
 8296 0d56 53       		.byte	0x53
 8297 0d57 00000000 		.4byte	0
 8298 0d5b 00000000 		.4byte	0
 8299              	.LLST57:
ARM GAS  /tmp/ccGKa4GA.s 			page 177


 8300 0d5f 9C000000 		.4byte	.LVL80
 8301 0d63 9E000000 		.4byte	.LVL81
 8302 0d67 0200     		.2byte	0x2
 8303 0d69 31       		.byte	0x31
 8304 0d6a 9F       		.byte	0x9f
 8305 0d6b 00000000 		.4byte	0
 8306 0d6f 00000000 		.4byte	0
 8307              	.LLST58:
 8308 0d73 9C000000 		.4byte	.LVL80
 8309 0d77 9E000000 		.4byte	.LVL81
 8310 0d7b 0100     		.2byte	0x1
 8311 0d7d 53       		.byte	0x53
 8312 0d7e 00000000 		.4byte	0
 8313 0d82 00000000 		.4byte	0
 8314              	.LLST59:
 8315 0d86 A2000000 		.4byte	.LVL82
 8316 0d8a A4000000 		.4byte	.LVL83
 8317 0d8e 0200     		.2byte	0x2
 8318 0d90 34       		.byte	0x34
 8319 0d91 9F       		.byte	0x9f
 8320 0d92 00000000 		.4byte	0
 8321 0d96 00000000 		.4byte	0
 8322              	.LLST60:
 8323 0d9a A2000000 		.4byte	.LVL82
 8324 0d9e A4000000 		.4byte	.LVL83
 8325 0da2 0100     		.2byte	0x1
 8326 0da4 53       		.byte	0x53
 8327 0da5 00000000 		.4byte	0
 8328 0da9 00000000 		.4byte	0
 8329              	.LLST61:
 8330 0dad A8000000 		.4byte	.LVL84
 8331 0db1 AA000000 		.4byte	.LVL85
 8332 0db5 0100     		.2byte	0x1
 8333 0db7 53       		.byte	0x53
 8334 0db8 00000000 		.4byte	0
 8335 0dbc 00000000 		.4byte	0
 8336              	.LLST62:
 8337 0dc0 B6000000 		.4byte	.LVL89
 8338 0dc4 C0000000 		.4byte	.LVL90
 8339 0dc8 0200     		.2byte	0x2
 8340 0dca 78       		.byte	0x78
 8341 0dcb 00       		.sleb128 0
 8342 0dcc 00000000 		.4byte	0
 8343 0dd0 00000000 		.4byte	0
 8344              	.LLST63:
 8345 0dd4 B6000000 		.4byte	.LVL89
 8346 0dd8 C0000000 		.4byte	.LVL90
 8347 0ddc 0100     		.2byte	0x1
 8348 0dde 53       		.byte	0x53
 8349 0ddf 00000000 		.4byte	0
 8350 0de3 00000000 		.4byte	0
 8351              	.LLST45:
 8352 0de7 36000000 		.4byte	.LVL59
 8353 0deb 7E000000 		.4byte	.LVL74
 8354 0def 0100     		.2byte	0x1
 8355 0df1 58       		.byte	0x58
 8356 0df2 00000000 		.4byte	0
ARM GAS  /tmp/ccGKa4GA.s 			page 178


 8357 0df6 00000000 		.4byte	0
 8358              	.LLST46:
 8359 0dfa 3E000000 		.4byte	.LVL60
 8360 0dfe 40000000 		.4byte	.LVL61
 8361 0e02 0200     		.2byte	0x2
 8362 0e04 32       		.byte	0x32
 8363 0e05 9F       		.byte	0x9f
 8364 0e06 62000000 		.4byte	.LVL68
 8365 0e0a 66000000 		.4byte	.LVL69
 8366 0e0e 0200     		.2byte	0x2
 8367 0e10 32       		.byte	0x32
 8368 0e11 9F       		.byte	0x9f
 8369 0e12 00000000 		.4byte	0
 8370 0e16 00000000 		.4byte	0
 8371              	.LLST47:
 8372 0e1a 3E000000 		.4byte	.LVL60
 8373 0e1e 40000000 		.4byte	.LVL61
 8374 0e22 0100     		.2byte	0x1
 8375 0e24 53       		.byte	0x53
 8376 0e25 62000000 		.4byte	.LVL68
 8377 0e29 66000000 		.4byte	.LVL69
 8378 0e2d 0100     		.2byte	0x1
 8379 0e2f 53       		.byte	0x53
 8380 0e30 00000000 		.4byte	0
 8381 0e34 00000000 		.4byte	0
 8382              	.LLST48:
 8383 0e38 40000000 		.4byte	.LVL61
 8384 0e3c 42000000 		.4byte	.LVL62
 8385 0e40 0200     		.2byte	0x2
 8386 0e42 31       		.byte	0x31
 8387 0e43 9F       		.byte	0x9f
 8388 0e44 00000000 		.4byte	0
 8389 0e48 00000000 		.4byte	0
 8390              	.LLST49:
 8391 0e4c 40000000 		.4byte	.LVL61
 8392 0e50 42000000 		.4byte	.LVL62
 8393 0e54 0100     		.2byte	0x1
 8394 0e56 53       		.byte	0x53
 8395 0e57 00000000 		.4byte	0
 8396 0e5b 00000000 		.4byte	0
 8397              	.LLST50:
 8398 0e5f 46000000 		.4byte	.LVL63
 8399 0e63 48000000 		.4byte	.LVL64
 8400 0e67 0200     		.2byte	0x2
 8401 0e69 34       		.byte	0x34
 8402 0e6a 9F       		.byte	0x9f
 8403 0e6b 00000000 		.4byte	0
 8404 0e6f 00000000 		.4byte	0
 8405              	.LLST51:
 8406 0e73 46000000 		.4byte	.LVL63
 8407 0e77 48000000 		.4byte	.LVL64
 8408 0e7b 0100     		.2byte	0x1
 8409 0e7d 53       		.byte	0x53
 8410 0e7e 00000000 		.4byte	0
 8411 0e82 00000000 		.4byte	0
 8412              	.LLST52:
 8413 0e86 50000000 		.4byte	.LVL65
ARM GAS  /tmp/ccGKa4GA.s 			page 179


 8414 0e8a 52000000 		.4byte	.LVL66
 8415 0e8e 0100     		.2byte	0x1
 8416 0e90 53       		.byte	0x53
 8417 0e91 00000000 		.4byte	0
 8418 0e95 00000000 		.4byte	0
 8419              	.LLST53:
 8420 0e99 6A000000 		.4byte	.LVL70
 8421 0e9d 74000000 		.4byte	.LVL71
 8422 0ea1 0800     		.2byte	0x8
 8423 0ea3 78       		.byte	0x78
 8424 0ea4 00       		.sleb128 0
 8425 0ea5 94       		.byte	0x94
 8426 0ea6 01       		.byte	0x1
 8427 0ea7 08       		.byte	0x8
 8428 0ea8 FF       		.byte	0xff
 8429 0ea9 1A       		.byte	0x1a
 8430 0eaa 9F       		.byte	0x9f
 8431 0eab 00000000 		.4byte	0
 8432 0eaf 00000000 		.4byte	0
 8433              	.LLST54:
 8434 0eb3 6A000000 		.4byte	.LVL70
 8435 0eb7 74000000 		.4byte	.LVL71
 8436 0ebb 0100     		.2byte	0x1
 8437 0ebd 53       		.byte	0x53
 8438 0ebe 00000000 		.4byte	0
 8439 0ec2 00000000 		.4byte	0
 8440              	.LLST39:
 8441 0ec6 00000000 		.4byte	.LVL50
 8442 0eca 0A000000 		.4byte	.LVL51
 8443 0ece 0200     		.2byte	0x2
 8444 0ed0 34       		.byte	0x34
 8445 0ed1 9F       		.byte	0x9f
 8446 0ed2 16000000 		.4byte	.LVL54
 8447 0ed6 18000000 		.4byte	.LVL55
 8448 0eda 0200     		.2byte	0x2
 8449 0edc 34       		.byte	0x34
 8450 0edd 9F       		.byte	0x9f
 8451 0ede 00000000 		.4byte	0
 8452 0ee2 00000000 		.4byte	0
 8453              	.LLST40:
 8454 0ee6 00000000 		.4byte	.LVL50
 8455 0eea 0A000000 		.4byte	.LVL51
 8456 0eee 0100     		.2byte	0x1
 8457 0ef0 50       		.byte	0x50
 8458 0ef1 16000000 		.4byte	.LVL54
 8459 0ef5 18000000 		.4byte	.LVL55
 8460 0ef9 0100     		.2byte	0x1
 8461 0efb 53       		.byte	0x53
 8462 0efc 00000000 		.4byte	0
 8463 0f00 00000000 		.4byte	0
 8464              	.LLST41:
 8465 0f04 14000000 		.4byte	.LVL53
 8466 0f08 1C000000 		.4byte	.LVL56
 8467 0f0c 0100     		.2byte	0x1
 8468 0f0e 53       		.byte	0x53
 8469 0f0f 00000000 		.4byte	0
 8470 0f13 00000000 		.4byte	0
ARM GAS  /tmp/ccGKa4GA.s 			page 180


 8471              	.LLST42:
 8472 0f17 1C000000 		.4byte	.LVL56
 8473 0f1b 20000000 		.4byte	.LVL57
 8474 0f1f 0200     		.2byte	0x2
 8475 0f21 33       		.byte	0x33
 8476 0f22 9F       		.byte	0x9f
 8477 0f23 00000000 		.4byte	0
 8478 0f27 00000000 		.4byte	0
 8479              	.LLST43:
 8480 0f2b 1C000000 		.4byte	.LVL56
 8481 0f2f 20000000 		.4byte	.LVL57
 8482 0f33 0100     		.2byte	0x1
 8483 0f35 53       		.byte	0x53
 8484 0f36 00000000 		.4byte	0
 8485 0f3a 00000000 		.4byte	0
 8486              	.LLST44:
 8487 0f3e 20000000 		.4byte	.LVL57
 8488 0f42 22000000 		.4byte	.LVL58
 8489 0f46 0100     		.2byte	0x1
 8490 0f48 53       		.byte	0x53
 8491 0f49 00000000 		.4byte	0
 8492 0f4d 00000000 		.4byte	0
 8493              	.LLST2:
 8494 0f51 00000000 		.4byte	.LVL4
 8495 0f55 A4000000 		.4byte	.LVL30
 8496 0f59 0100     		.2byte	0x1
 8497 0f5b 50       		.byte	0x50
 8498 0f5c A4000000 		.4byte	.LVL30
 8499 0f60 AE000000 		.4byte	.LVL31
 8500 0f64 0400     		.2byte	0x4
 8501 0f66 F3       		.byte	0xf3
 8502 0f67 01       		.uleb128 0x1
 8503 0f68 50       		.byte	0x50
 8504 0f69 9F       		.byte	0x9f
 8505 0f6a AE000000 		.4byte	.LVL31
 8506 0f6e 2A010000 		.4byte	.LVL47
 8507 0f72 0100     		.2byte	0x1
 8508 0f74 50       		.byte	0x50
 8509 0f75 2A010000 		.4byte	.LVL47
 8510 0f79 38010000 		.4byte	.LVL48
 8511 0f7d 0400     		.2byte	0x4
 8512 0f7f F3       		.byte	0xf3
 8513 0f80 01       		.uleb128 0x1
 8514 0f81 50       		.byte	0x50
 8515 0f82 9F       		.byte	0x9f
 8516 0f83 38010000 		.4byte	.LVL48
 8517 0f87 48010000 		.4byte	.LFE207
 8518 0f8b 0100     		.2byte	0x1
 8519 0f8d 50       		.byte	0x50
 8520 0f8e 00000000 		.4byte	0
 8521 0f92 00000000 		.4byte	0
 8522              	.LLST3:
 8523 0f96 00000000 		.4byte	.LVL4
 8524 0f9a 08000000 		.4byte	.LVL5
 8525 0f9e 0200     		.2byte	0x2
 8526 0fa0 34       		.byte	0x34
 8527 0fa1 9F       		.byte	0x9f
ARM GAS  /tmp/ccGKa4GA.s 			page 181


 8528 0fa2 12000000 		.4byte	.LVL7
 8529 0fa6 14000000 		.4byte	.LVL8
 8530 0faa 0200     		.2byte	0x2
 8531 0fac 34       		.byte	0x34
 8532 0fad 9F       		.byte	0x9f
 8533 0fae 00000000 		.4byte	0
 8534 0fb2 00000000 		.4byte	0
 8535              	.LLST4:
 8536 0fb6 00000000 		.4byte	.LVL4
 8537 0fba 08000000 		.4byte	.LVL5
 8538 0fbe 0100     		.2byte	0x1
 8539 0fc0 50       		.byte	0x50
 8540 0fc1 12000000 		.4byte	.LVL7
 8541 0fc5 14000000 		.4byte	.LVL8
 8542 0fc9 0100     		.2byte	0x1
 8543 0fcb 50       		.byte	0x50
 8544 0fcc 00000000 		.4byte	0
 8545 0fd0 00000000 		.4byte	0
 8546              	.LLST5:
 8547 0fd4 10000000 		.4byte	.LVL6
 8548 0fd8 18000000 		.4byte	.LVL9
 8549 0fdc 0100     		.2byte	0x1
 8550 0fde 50       		.byte	0x50
 8551 0fdf 00000000 		.4byte	0
 8552 0fe3 00000000 		.4byte	0
 8553              	.LLST6:
 8554 0fe7 18000000 		.4byte	.LVL9
 8555 0feb 1C000000 		.4byte	.LVL10
 8556 0fef 0200     		.2byte	0x2
 8557 0ff1 33       		.byte	0x33
 8558 0ff2 9F       		.byte	0x9f
 8559 0ff3 00000000 		.4byte	0
 8560 0ff7 00000000 		.4byte	0
 8561              	.LLST7:
 8562 0ffb 18000000 		.4byte	.LVL9
 8563 0fff 1C000000 		.4byte	.LVL10
 8564 1003 0100     		.2byte	0x1
 8565 1005 50       		.byte	0x50
 8566 1006 00000000 		.4byte	0
 8567 100a 00000000 		.4byte	0
 8568              	.LLST8:
 8569 100e 1C000000 		.4byte	.LVL10
 8570 1012 1E000000 		.4byte	.LVL11
 8571 1016 0100     		.2byte	0x1
 8572 1018 50       		.byte	0x50
 8573 1019 00000000 		.4byte	0
 8574 101d 00000000 		.4byte	0
 8575              	.LLST9:
 8576 1021 46000000 		.4byte	.LVL12
 8577 1025 4A000000 		.4byte	.LVL13
 8578 1029 0200     		.2byte	0x2
 8579 102b 32       		.byte	0x32
 8580 102c 9F       		.byte	0x9f
 8581 102d 8E000000 		.4byte	.LVL26
 8582 1031 92000000 		.4byte	.LVL27
 8583 1035 0200     		.2byte	0x2
 8584 1037 32       		.byte	0x32
ARM GAS  /tmp/ccGKa4GA.s 			page 182


 8585 1038 9F       		.byte	0x9f
 8586 1039 00000000 		.4byte	0
 8587 103d 00000000 		.4byte	0
 8588              	.LLST10:
 8589 1041 46000000 		.4byte	.LVL12
 8590 1045 4A000000 		.4byte	.LVL13
 8591 1049 0100     		.2byte	0x1
 8592 104b 50       		.byte	0x50
 8593 104c 8E000000 		.4byte	.LVL26
 8594 1050 92000000 		.4byte	.LVL27
 8595 1054 0100     		.2byte	0x1
 8596 1056 50       		.byte	0x50
 8597 1057 00000000 		.4byte	0
 8598 105b 00000000 		.4byte	0
 8599              	.LLST11:
 8600 105f 50000000 		.4byte	.LVL14
 8601 1063 60000000 		.4byte	.LVL18
 8602 1067 0100     		.2byte	0x1
 8603 1069 51       		.byte	0x51
 8604 106a 3E010000 		.4byte	.LVL49
 8605 106e 48010000 		.4byte	.LFE207
 8606 1072 0100     		.2byte	0x1
 8607 1074 51       		.byte	0x51
 8608 1075 00000000 		.4byte	0
 8609 1079 00000000 		.4byte	0
 8610              	.LLST13:
 8611 107d 50000000 		.4byte	.LVL14
 8612 1081 60000000 		.4byte	.LVL18
 8613 1085 0100     		.2byte	0x1
 8614 1087 50       		.byte	0x50
 8615 1088 3E010000 		.4byte	.LVL49
 8616 108c 48010000 		.4byte	.LFE207
 8617 1090 0100     		.2byte	0x1
 8618 1092 50       		.byte	0x50
 8619 1093 00000000 		.4byte	0
 8620 1097 00000000 		.4byte	0
 8621              	.LLST14:
 8622 109b 56000000 		.4byte	.LVL15
 8623 109f 58000000 		.4byte	.LVL16
 8624 10a3 0B00     		.2byte	0xb
 8625 10a5 75       		.byte	0x75
 8626 10a6 00       		.sleb128 0
 8627 10a7 72       		.byte	0x72
 8628 10a8 00       		.sleb128 0
 8629 10a9 22       		.byte	0x22
 8630 10aa 94       		.byte	0x94
 8631 10ab 01       		.byte	0x1
 8632 10ac 08       		.byte	0x8
 8633 10ad FF       		.byte	0xff
 8634 10ae 1A       		.byte	0x1a
 8635 10af 9F       		.byte	0x9f
 8636 10b0 58000000 		.4byte	.LVL16
 8637 10b4 5A000000 		.4byte	.LVL17
 8638 10b8 0600     		.2byte	0x6
 8639 10ba 72       		.byte	0x72
 8640 10bb 00       		.sleb128 0
 8641 10bc 08       		.byte	0x8
ARM GAS  /tmp/ccGKa4GA.s 			page 183


 8642 10bd FF       		.byte	0xff
 8643 10be 1A       		.byte	0x1a
 8644 10bf 9F       		.byte	0x9f
 8645 10c0 00000000 		.4byte	0
 8646 10c4 00000000 		.4byte	0
 8647              	.LLST15:
 8648 10c8 56000000 		.4byte	.LVL15
 8649 10cc 5A000000 		.4byte	.LVL17
 8650 10d0 0100     		.2byte	0x1
 8651 10d2 50       		.byte	0x50
 8652 10d3 00000000 		.4byte	0
 8653 10d7 00000000 		.4byte	0
 8654              	.LLST16:
 8655 10db 60000000 		.4byte	.LVL18
 8656 10df 64000000 		.4byte	.LVL19
 8657 10e3 0200     		.2byte	0x2
 8658 10e5 31       		.byte	0x31
 8659 10e6 9F       		.byte	0x9f
 8660 10e7 9C000000 		.4byte	.LVL28
 8661 10eb A0000000 		.4byte	.LVL29
 8662 10ef 0200     		.2byte	0x2
 8663 10f1 31       		.byte	0x31
 8664 10f2 9F       		.byte	0x9f
 8665 10f3 00000000 		.4byte	0
 8666 10f7 00000000 		.4byte	0
 8667              	.LLST17:
 8668 10fb 60000000 		.4byte	.LVL18
 8669 10ff 64000000 		.4byte	.LVL19
 8670 1103 0100     		.2byte	0x1
 8671 1105 50       		.byte	0x50
 8672 1106 9C000000 		.4byte	.LVL28
 8673 110a A0000000 		.4byte	.LVL29
 8674 110e 0100     		.2byte	0x1
 8675 1110 50       		.byte	0x50
 8676 1111 00000000 		.4byte	0
 8677 1115 00000000 		.4byte	0
 8678              	.LLST18:
 8679 1119 68000000 		.4byte	.LVL20
 8680 111d 6A000000 		.4byte	.LVL21
 8681 1121 0200     		.2byte	0x2
 8682 1123 34       		.byte	0x34
 8683 1124 9F       		.byte	0x9f
 8684 1125 84000000 		.4byte	.LVL24
 8685 1129 86000000 		.4byte	.LVL25
 8686 112d 0200     		.2byte	0x2
 8687 112f 34       		.byte	0x34
 8688 1130 9F       		.byte	0x9f
 8689 1131 00000000 		.4byte	0
 8690 1135 00000000 		.4byte	0
 8691              	.LLST19:
 8692 1139 68000000 		.4byte	.LVL20
 8693 113d 6A000000 		.4byte	.LVL21
 8694 1141 0100     		.2byte	0x1
 8695 1143 50       		.byte	0x50
 8696 1144 84000000 		.4byte	.LVL24
 8697 1148 86000000 		.4byte	.LVL25
 8698 114c 0100     		.2byte	0x1
ARM GAS  /tmp/ccGKa4GA.s 			page 184


 8699 114e 50       		.byte	0x50
 8700 114f 00000000 		.4byte	0
 8701 1153 00000000 		.4byte	0
 8702              	.LLST20:
 8703 1157 72000000 		.4byte	.LVL22
 8704 115b 76000000 		.4byte	.LVL23
 8705 115f 0100     		.2byte	0x1
 8706 1161 50       		.byte	0x50
 8707 1162 00000000 		.4byte	0
 8708 1166 00000000 		.4byte	0
 8709              	.LLST21:
 8710 116a CC000000 		.4byte	.LVL32
 8711 116e D0000000 		.4byte	.LVL33
 8712 1172 0200     		.2byte	0x2
 8713 1174 32       		.byte	0x32
 8714 1175 9F       		.byte	0x9f
 8715 1176 16010000 		.4byte	.LVL45
 8716 117a 1A010000 		.4byte	.LVL46
 8717 117e 0200     		.2byte	0x2
 8718 1180 32       		.byte	0x32
 8719 1181 9F       		.byte	0x9f
 8720 1182 00000000 		.4byte	0
 8721 1186 00000000 		.4byte	0
 8722              	.LLST22:
 8723 118a CC000000 		.4byte	.LVL32
 8724 118e D0000000 		.4byte	.LVL33
 8725 1192 0100     		.2byte	0x1
 8726 1194 50       		.byte	0x50
 8727 1195 16010000 		.4byte	.LVL45
 8728 1199 1A010000 		.4byte	.LVL46
 8729 119d 0100     		.2byte	0x1
 8730 119f 50       		.byte	0x50
 8731 11a0 00000000 		.4byte	0
 8732 11a4 00000000 		.4byte	0
 8733              	.LLST23:
 8734 11a8 D6000000 		.4byte	.LVL34
 8735 11ac E4000000 		.4byte	.LVL38
 8736 11b0 0100     		.2byte	0x1
 8737 11b2 51       		.byte	0x51
 8738 11b3 38010000 		.4byte	.LVL48
 8739 11b7 3E010000 		.4byte	.LVL49
 8740 11bb 0100     		.2byte	0x1
 8741 11bd 51       		.byte	0x51
 8742 11be 00000000 		.4byte	0
 8743 11c2 00000000 		.4byte	0
 8744              	.LLST25:
 8745 11c6 D6000000 		.4byte	.LVL34
 8746 11ca E4000000 		.4byte	.LVL38
 8747 11ce 0100     		.2byte	0x1
 8748 11d0 50       		.byte	0x50
 8749 11d1 38010000 		.4byte	.LVL48
 8750 11d5 3E010000 		.4byte	.LVL49
 8751 11d9 0100     		.2byte	0x1
 8752 11db 50       		.byte	0x50
 8753 11dc 00000000 		.4byte	0
 8754 11e0 00000000 		.4byte	0
 8755              	.LLST26:
ARM GAS  /tmp/ccGKa4GA.s 			page 185


 8756 11e4 38010000 		.4byte	.LVL48
 8757 11e8 3E010000 		.4byte	.LVL49
 8758 11ec 0300     		.2byte	0x3
 8759 11ee 09       		.byte	0x9
 8760 11ef FF       		.byte	0xff
 8761 11f0 9F       		.byte	0x9f
 8762 11f1 00000000 		.4byte	0
 8763 11f5 00000000 		.4byte	0
 8764              	.LLST27:
 8765 11f9 38010000 		.4byte	.LVL48
 8766 11fd 3E010000 		.4byte	.LVL49
 8767 1201 0100     		.2byte	0x1
 8768 1203 50       		.byte	0x50
 8769 1204 00000000 		.4byte	0
 8770 1208 00000000 		.4byte	0
 8771              	.LLST28:
 8772 120c DA000000 		.4byte	.LVL35
 8773 1210 DC000000 		.4byte	.LVL36
 8774 1214 0500     		.2byte	0x5
 8775 1216 74       		.byte	0x74
 8776 1217 00       		.sleb128 0
 8777 1218 72       		.byte	0x72
 8778 1219 00       		.sleb128 0
 8779 121a 22       		.byte	0x22
 8780 121b DC000000 		.4byte	.LVL36
 8781 121f DE000000 		.4byte	.LVL37
 8782 1223 0100     		.2byte	0x1
 8783 1225 52       		.byte	0x52
 8784 1226 00000000 		.4byte	0
 8785 122a 00000000 		.4byte	0
 8786              	.LLST29:
 8787 122e DA000000 		.4byte	.LVL35
 8788 1232 DE000000 		.4byte	.LVL37
 8789 1236 0100     		.2byte	0x1
 8790 1238 50       		.byte	0x50
 8791 1239 00000000 		.4byte	0
 8792 123d 00000000 		.4byte	0
 8793              	.LLST30:
 8794 1241 EC000000 		.4byte	.LVL40
 8795 1245 EE000000 		.4byte	.LVL41
 8796 1249 0200     		.2byte	0x2
 8797 124b 34       		.byte	0x34
 8798 124c 9F       		.byte	0x9f
 8799 124d 00000000 		.4byte	0
 8800 1251 00000000 		.4byte	0
 8801              	.LLST31:
 8802 1255 EC000000 		.4byte	.LVL40
 8803 1259 EE000000 		.4byte	.LVL41
 8804 125d 0100     		.2byte	0x1
 8805 125f 50       		.byte	0x50
 8806 1260 00000000 		.4byte	0
 8807 1264 00000000 		.4byte	0
 8808              	.LLST32:
 8809 1268 FE000000 		.4byte	.LVL42
 8810 126c 02010000 		.4byte	.LVL43
 8811 1270 0100     		.2byte	0x1
 8812 1272 50       		.byte	0x50
ARM GAS  /tmp/ccGKa4GA.s 			page 186


 8813 1273 00000000 		.4byte	0
 8814 1277 00000000 		.4byte	0
 8815              	.LLST33:
 8816 127b E4000000 		.4byte	.LVL38
 8817 127f E8000000 		.4byte	.LVL39
 8818 1283 0200     		.2byte	0x2
 8819 1285 31       		.byte	0x31
 8820 1286 9F       		.byte	0x9f
 8821 1287 00000000 		.4byte	0
 8822 128b 00000000 		.4byte	0
 8823              	.LLST34:
 8824 128f E4000000 		.4byte	.LVL38
 8825 1293 E8000000 		.4byte	.LVL39
 8826 1297 0100     		.2byte	0x1
 8827 1299 50       		.byte	0x50
 8828 129a 00000000 		.4byte	0
 8829 129e 00000000 		.4byte	0
 8830              	.LLST0:
 8831 12a2 00000000 		.4byte	.LVL0
 8832 12a6 08000000 		.4byte	.LVL2
 8833 12aa 0100     		.2byte	0x1
 8834 12ac 51       		.byte	0x51
 8835 12ad 08000000 		.4byte	.LVL2
 8836 12b1 18000000 		.4byte	.LFE206
 8837 12b5 0400     		.2byte	0x4
 8838 12b7 F3       		.byte	0xf3
 8839 12b8 01       		.uleb128 0x1
 8840 12b9 51       		.byte	0x51
 8841 12ba 9F       		.byte	0x9f
 8842 12bb 00000000 		.4byte	0
 8843 12bf 00000000 		.4byte	0
 8844              	.LLST1:
 8845 12c3 04000000 		.4byte	.LVL1
 8846 12c7 0A000000 		.4byte	.LVL3
 8847 12cb 0800     		.2byte	0x8
 8848 12cd 73       		.byte	0x73
 8849 12ce 00       		.sleb128 0
 8850 12cf 11       		.byte	0x11
 8851 12d0 FF817C   		.sleb128 -65281
 8852 12d3 1A       		.byte	0x1a
 8853 12d4 9F       		.byte	0x9f
 8854 12d5 0A000000 		.4byte	.LVL3
 8855 12d9 18000000 		.4byte	.LFE206
 8856 12dd 0100     		.2byte	0x1
 8857 12df 53       		.byte	0x53
 8858 12e0 00000000 		.4byte	0
 8859 12e4 00000000 		.4byte	0
 8860              		.section	.debug_aranges,"",%progbits
 8861 0000 6C000000 		.4byte	0x6c
 8862 0004 0200     		.2byte	0x2
 8863 0006 00000000 		.4byte	.Ldebug_info0
 8864 000a 04       		.byte	0x4
 8865 000b 00       		.byte	0
 8866 000c 0000     		.2byte	0
 8867 000e 0000     		.2byte	0
 8868 0010 00000000 		.4byte	.LFB206
 8869 0014 18000000 		.4byte	.LFE206-.LFB206
ARM GAS  /tmp/ccGKa4GA.s 			page 187


 8870 0018 00000000 		.4byte	.LFB207
 8871 001c 48010000 		.4byte	.LFE207-.LFB207
 8872 0020 00000000 		.4byte	.LFB208
 8873 0024 C6000000 		.4byte	.LFE208-.LFB208
 8874 0028 00000000 		.4byte	.LFB209
 8875 002c E0000000 		.4byte	.LFE209-.LFB209
 8876 0030 00000000 		.4byte	.LFB210
 8877 0034 24000000 		.4byte	.LFE210-.LFB210
 8878 0038 00000000 		.4byte	.LFB211
 8879 003c B8000000 		.4byte	.LFE211-.LFB211
 8880 0040 00000000 		.4byte	.LFB212
 8881 0044 C8000000 		.4byte	.LFE212-.LFB212
 8882 0048 00000000 		.4byte	.LFB213
 8883 004c 14000000 		.4byte	.LFE213-.LFB213
 8884 0050 00000000 		.4byte	.LFB214
 8885 0054 80000000 		.4byte	.LFE214-.LFB214
 8886 0058 00000000 		.4byte	.LFB215
 8887 005c 70000000 		.4byte	.LFE215-.LFB215
 8888 0060 00000000 		.4byte	.LFB216
 8889 0064 48000000 		.4byte	.LFE216-.LFB216
 8890 0068 00000000 		.4byte	0
 8891 006c 00000000 		.4byte	0
 8892              		.section	.debug_ranges,"",%progbits
 8893              	.Ldebug_ranges0:
 8894 0000 06000000 		.4byte	.LBB242
 8895 0004 08000000 		.4byte	.LBE242
 8896 0008 0E000000 		.4byte	.LBB246
 8897 000c 10000000 		.4byte	.LBE246
 8898 0010 12000000 		.4byte	.LBB249
 8899 0014 14000000 		.4byte	.LBE249
 8900 0018 00000000 		.4byte	0
 8901 001c 00000000 		.4byte	0
 8902 0020 26000000 		.4byte	.LBB254
 8903 0024 2A000000 		.4byte	.LBE254
 8904 0028 48000000 		.4byte	.LBB283
 8905 002c 4A000000 		.4byte	.LBE283
 8906 0030 90000000 		.4byte	.LBB287
 8907 0034 92000000 		.4byte	.LBE287
 8908 0038 00000000 		.4byte	0
 8909 003c 00000000 		.4byte	0
 8910 0040 2A000000 		.4byte	.LBB258
 8911 0044 2E000000 		.4byte	.LBE258
 8912 0048 50000000 		.4byte	.LBB284
 8913 004c 60000000 		.4byte	.LBE284
 8914 0050 3E010000 		.4byte	.LBB327
 8915 0054 48010000 		.4byte	.LBE327
 8916 0058 00000000 		.4byte	0
 8917 005c 00000000 		.4byte	0
 8918 0060 2A000000 		.4byte	.LBB260
 8919 0064 2E000000 		.4byte	.LBE260
 8920 0068 3E010000 		.4byte	.LBB265
 8921 006c 48010000 		.4byte	.LBE265
 8922 0070 00000000 		.4byte	0
 8923 0074 00000000 		.4byte	0
 8924 0078 2E000000 		.4byte	.LBB268
 8925 007c 32000000 		.4byte	.LBE268
 8926 0080 62000000 		.4byte	.LBB285
ARM GAS  /tmp/ccGKa4GA.s 			page 188


 8927 0084 64000000 		.4byte	.LBE285
 8928 0088 9E000000 		.4byte	.LBB288
 8929 008c A0000000 		.4byte	.LBE288
 8930 0090 00000000 		.4byte	0
 8931 0094 00000000 		.4byte	0
 8932 0098 32000000 		.4byte	.LBB272
 8933 009c 38000000 		.4byte	.LBE272
 8934 00a0 68000000 		.4byte	.LBB286
 8935 00a4 8A000000 		.4byte	.LBE286
 8936 00a8 00000000 		.4byte	0
 8937 00ac 00000000 		.4byte	0
 8938 00b0 32000000 		.4byte	.LBB274
 8939 00b4 38000000 		.4byte	.LBE274
 8940 00b8 68000000 		.4byte	.LBB278
 8941 00bc 6A000000 		.4byte	.LBE278
 8942 00c0 84000000 		.4byte	.LBB281
 8943 00c4 86000000 		.4byte	.LBE281
 8944 00c8 00000000 		.4byte	0
 8945 00cc 00000000 		.4byte	0
 8946 00d0 AE000000 		.4byte	.LBB289
 8947 00d4 B2000000 		.4byte	.LBE289
 8948 00d8 CE000000 		.4byte	.LBB321
 8949 00dc D0000000 		.4byte	.LBE321
 8950 00e0 18010000 		.4byte	.LBB325
 8951 00e4 1A010000 		.4byte	.LBE325
 8952 00e8 00000000 		.4byte	0
 8953 00ec 00000000 		.4byte	0
 8954 00f0 B2000000 		.4byte	.LBB293
 8955 00f4 B4000000 		.4byte	.LBE293
 8956 00f8 B6000000 		.4byte	.LBB317
 8957 00fc B8000000 		.4byte	.LBE317
 8958 0100 D6000000 		.4byte	.LBB322
 8959 0104 E4000000 		.4byte	.LBE322
 8960 0108 38010000 		.4byte	.LBB326
 8961 010c 3E010000 		.4byte	.LBE326
 8962 0110 00000000 		.4byte	0
 8963 0114 00000000 		.4byte	0
 8964 0118 B2000000 		.4byte	.LBB295
 8965 011c B4000000 		.4byte	.LBE295
 8966 0120 B6000000 		.4byte	.LBB299
 8967 0124 B8000000 		.4byte	.LBE299
 8968 0128 38010000 		.4byte	.LBB302
 8969 012c 3E010000 		.4byte	.LBE302
 8970 0130 00000000 		.4byte	0
 8971 0134 00000000 		.4byte	0
 8972 0138 B4000000 		.4byte	.LBB306
 8973 013c B6000000 		.4byte	.LBE306
 8974 0140 EC000000 		.4byte	.LBB324
 8975 0144 12010000 		.4byte	.LBE324
 8976 0148 00000000 		.4byte	0
 8977 014c 00000000 		.4byte	0
 8978 0150 B4000000 		.4byte	.LBB308
 8979 0154 B6000000 		.4byte	.LBE308
 8980 0158 EC000000 		.4byte	.LBB312
 8981 015c EE000000 		.4byte	.LBE312
 8982 0160 08010000 		.4byte	.LBB315
 8983 0164 0A010000 		.4byte	.LBE315
ARM GAS  /tmp/ccGKa4GA.s 			page 189


 8984 0168 00000000 		.4byte	0
 8985 016c 00000000 		.4byte	0
 8986 0170 B8000000 		.4byte	.LBB318
 8987 0174 C0000000 		.4byte	.LBE318
 8988 0178 E6000000 		.4byte	.LBB323
 8989 017c E8000000 		.4byte	.LBE323
 8990 0180 00000000 		.4byte	0
 8991 0184 00000000 		.4byte	0
 8992 0188 08000000 		.4byte	.LBB328
 8993 018c 0A000000 		.4byte	.LBE328
 8994 0190 12000000 		.4byte	.LBB332
 8995 0194 14000000 		.4byte	.LBE332
 8996 0198 16000000 		.4byte	.LBB335
 8997 019c 18000000 		.4byte	.LBE335
 8998 01a0 00000000 		.4byte	0
 8999 01a4 00000000 		.4byte	0
 9000 01a8 2C000000 		.4byte	.LBB340
 9001 01ac 2E000000 		.4byte	.LBE340
 9002 01b0 30000000 		.4byte	.LBB367
 9003 01b4 7E000000 		.4byte	.LBE367
 9004 01b8 00000000 		.4byte	0
 9005 01bc 00000000 		.4byte	0
 9006 01c0 2C000000 		.4byte	.LBB341
 9007 01c4 2E000000 		.4byte	.LBE341
 9008 01c8 30000000 		.4byte	.LBB346
 9009 01cc 32000000 		.4byte	.LBE346
 9010 01d0 3E000000 		.4byte	.LBB355
 9011 01d4 40000000 		.4byte	.LBE355
 9012 01d8 64000000 		.4byte	.LBB361
 9013 01dc 66000000 		.4byte	.LBE361
 9014 01e0 00000000 		.4byte	0
 9015 01e4 00000000 		.4byte	0
 9016 01e8 32000000 		.4byte	.LBB347
 9017 01ec 34000000 		.4byte	.LBE347
 9018 01f0 40000000 		.4byte	.LBB356
 9019 01f4 42000000 		.4byte	.LBE356
 9020 01f8 74000000 		.4byte	.LBB366
 9021 01fc 76000000 		.4byte	.LBE366
 9022 0200 00000000 		.4byte	0
 9023 0204 00000000 		.4byte	0
 9024 0208 34000000 		.4byte	.LBB351
 9025 020c 36000000 		.4byte	.LBE351
 9026 0210 46000000 		.4byte	.LBB357
 9027 0214 48000000 		.4byte	.LBE357
 9028 0218 52000000 		.4byte	.LBB360
 9029 021c 54000000 		.4byte	.LBE360
 9030 0220 00000000 		.4byte	0
 9031 0224 00000000 		.4byte	0
 9032 0228 6A000000 		.4byte	.LBB362
 9033 022c 6E000000 		.4byte	.LBE362
 9034 0230 72000000 		.4byte	.LBB365
 9035 0234 74000000 		.4byte	.LBE365
 9036 0238 00000000 		.4byte	0
 9037 023c 00000000 		.4byte	0
 9038 0240 7E000000 		.4byte	.LBB368
 9039 0244 80000000 		.4byte	.LBE368
 9040 0248 88000000 		.4byte	.LBB391
ARM GAS  /tmp/ccGKa4GA.s 			page 190


 9041 024c 8A000000 		.4byte	.LBE391
 9042 0250 8C000000 		.4byte	.LBB392
 9043 0254 C6000000 		.4byte	.LBE392
 9044 0258 00000000 		.4byte	0
 9045 025c 00000000 		.4byte	0
 9046 0260 88000000 		.4byte	.LBB369
 9047 0264 8A000000 		.4byte	.LBE369
 9048 0268 8C000000 		.4byte	.LBB374
 9049 026c 8E000000 		.4byte	.LBE374
 9050 0270 9A000000 		.4byte	.LBB381
 9051 0274 9C000000 		.4byte	.LBE381
 9052 0278 B0000000 		.4byte	.LBB386
 9053 027c B2000000 		.4byte	.LBE386
 9054 0280 00000000 		.4byte	0
 9055 0284 00000000 		.4byte	0
 9056 0288 8E000000 		.4byte	.LBB375
 9057 028c 90000000 		.4byte	.LBE375
 9058 0290 9C000000 		.4byte	.LBB382
 9059 0294 9E000000 		.4byte	.LBE382
 9060 0298 00000000 		.4byte	0
 9061 029c 00000000 		.4byte	0
 9062 02a0 90000000 		.4byte	.LBB378
 9063 02a4 92000000 		.4byte	.LBE378
 9064 02a8 A2000000 		.4byte	.LBB383
 9065 02ac A4000000 		.4byte	.LBE383
 9066 02b0 00000000 		.4byte	0
 9067 02b4 00000000 		.4byte	0
 9068 02b8 B6000000 		.4byte	.LBB387
 9069 02bc BA000000 		.4byte	.LBE387
 9070 02c0 BE000000 		.4byte	.LBB390
 9071 02c4 C0000000 		.4byte	.LBE390
 9072 02c8 00000000 		.4byte	0
 9073 02cc 00000000 		.4byte	0
 9074 02d0 06000000 		.4byte	.LBB393
 9075 02d4 08000000 		.4byte	.LBE393
 9076 02d8 0E000000 		.4byte	.LBB397
 9077 02dc 10000000 		.4byte	.LBE397
 9078 02e0 12000000 		.4byte	.LBB400
 9079 02e4 14000000 		.4byte	.LBE400
 9080 02e8 00000000 		.4byte	0
 9081 02ec 00000000 		.4byte	0
 9082 02f0 28000000 		.4byte	.LBB405
 9083 02f4 32000000 		.4byte	.LBE405
 9084 02f8 34000000 		.4byte	.LBB434
 9085 02fc 80000000 		.4byte	.LBE434
 9086 0300 00000000 		.4byte	0
 9087 0304 00000000 		.4byte	0
 9088 0308 28000000 		.4byte	.LBB406
 9089 030c 2C000000 		.4byte	.LBE406
 9090 0310 40000000 		.4byte	.LBB424
 9091 0314 42000000 		.4byte	.LBE424
 9092 0318 6C000000 		.4byte	.LBB430
 9093 031c 6E000000 		.4byte	.LBE430
 9094 0320 00000000 		.4byte	0
 9095 0324 00000000 		.4byte	0
 9096 0328 2C000000 		.4byte	.LBB410
 9097 032c 30000000 		.4byte	.LBE410
ARM GAS  /tmp/ccGKa4GA.s 			page 191


 9098 0330 72000000 		.4byte	.LBB431
 9099 0334 74000000 		.4byte	.LBE431
 9100 0338 76000000 		.4byte	.LBB432
 9101 033c 78000000 		.4byte	.LBE432
 9102 0340 00000000 		.4byte	0
 9103 0344 00000000 		.4byte	0
 9104 0348 30000000 		.4byte	.LBB414
 9105 034c 32000000 		.4byte	.LBE414
 9106 0350 34000000 		.4byte	.LBB419
 9107 0354 36000000 		.4byte	.LBE419
 9108 0358 44000000 		.4byte	.LBB425
 9109 035c 46000000 		.4byte	.LBE425
 9110 0360 78000000 		.4byte	.LBB433
 9111 0364 7A000000 		.4byte	.LBE433
 9112 0368 00000000 		.4byte	0
 9113 036c 00000000 		.4byte	0
 9114 0370 36000000 		.4byte	.LBB420
 9115 0374 38000000 		.4byte	.LBE420
 9116 0378 4A000000 		.4byte	.LBB426
 9117 037c 4C000000 		.4byte	.LBE426
 9118 0380 5A000000 		.4byte	.LBB429
 9119 0384 5C000000 		.4byte	.LBE429
 9120 0388 00000000 		.4byte	0
 9121 038c 00000000 		.4byte	0
 9122 0390 80000000 		.4byte	.LBB435
 9123 0394 82000000 		.4byte	.LBE435
 9124 0398 8C000000 		.4byte	.LBB466
 9125 039c 92000000 		.4byte	.LBE466
 9126 03a0 94000000 		.4byte	.LBB467
 9127 03a4 E0000000 		.4byte	.LBE467
 9128 03a8 00000000 		.4byte	0
 9129 03ac 00000000 		.4byte	0
 9130 03b0 8C000000 		.4byte	.LBB436
 9131 03b4 90000000 		.4byte	.LBE436
 9132 03b8 A4000000 		.4byte	.LBB455
 9133 03bc A6000000 		.4byte	.LBE455
 9134 03c0 CC000000 		.4byte	.LBB463
 9135 03c4 CE000000 		.4byte	.LBE463
 9136 03c8 00000000 		.4byte	0
 9137 03cc 00000000 		.4byte	0
 9138 03d0 90000000 		.4byte	.LBB440
 9139 03d4 92000000 		.4byte	.LBE440
 9140 03d8 94000000 		.4byte	.LBB445
 9141 03dc 96000000 		.4byte	.LBE445
 9142 03e0 D2000000 		.4byte	.LBB464
 9143 03e4 D4000000 		.4byte	.LBE464
 9144 03e8 D6000000 		.4byte	.LBB465
 9145 03ec E0000000 		.4byte	.LBE465
 9146 03f0 00000000 		.4byte	0
 9147 03f4 00000000 		.4byte	0
 9148 03f8 96000000 		.4byte	.LBB446
 9149 03fc 98000000 		.4byte	.LBE446
 9150 0400 9A000000 		.4byte	.LBB454
 9151 0404 9C000000 		.4byte	.LBE454
 9152 0408 A8000000 		.4byte	.LBB456
 9153 040c AA000000 		.4byte	.LBE456
 9154 0410 00000000 		.4byte	0
ARM GAS  /tmp/ccGKa4GA.s 			page 192


 9155 0414 00000000 		.4byte	0
 9156 0418 98000000 		.4byte	.LBB450
 9157 041c 9A000000 		.4byte	.LBE450
 9158 0420 AE000000 		.4byte	.LBB457
 9159 0424 B0000000 		.4byte	.LBE457
 9160 0428 BE000000 		.4byte	.LBB462
 9161 042c C0000000 		.4byte	.LBE462
 9162 0430 00000000 		.4byte	0
 9163 0434 00000000 		.4byte	0
 9164 0438 B8000000 		.4byte	.LBB458
 9165 043c BA000000 		.4byte	.LBE458
 9166 0440 BC000000 		.4byte	.LBB461
 9167 0444 BE000000 		.4byte	.LBE461
 9168 0448 00000000 		.4byte	0
 9169 044c 00000000 		.4byte	0
 9170 0450 0E000000 		.4byte	.LBB472
 9171 0454 10000000 		.4byte	.LBE472
 9172 0458 14000000 		.4byte	.LBB476
 9173 045c 16000000 		.4byte	.LBE476
 9174 0460 18000000 		.4byte	.LBB479
 9175 0464 1A000000 		.4byte	.LBE479
 9176 0468 00000000 		.4byte	0
 9177 046c 00000000 		.4byte	0
 9178 0470 1E000000 		.4byte	.LBB480
 9179 0474 20000000 		.4byte	.LBE480
 9180 0478 20000000 		.4byte	.LBB483
 9181 047c 22000000 		.4byte	.LBE483
 9182 0480 00000000 		.4byte	0
 9183 0484 00000000 		.4byte	0
 9184 0488 10000000 		.4byte	.LBB488
 9185 048c 12000000 		.4byte	.LBE488
 9186 0490 18000000 		.4byte	.LBB492
 9187 0494 1A000000 		.4byte	.LBE492
 9188 0498 32000000 		.4byte	.LBB495
 9189 049c 34000000 		.4byte	.LBE495
 9190 04a0 00000000 		.4byte	0
 9191 04a4 00000000 		.4byte	0
 9192 04a8 3C000000 		.4byte	.LBB496
 9193 04ac 3E000000 		.4byte	.LBE496
 9194 04b0 40000000 		.4byte	.LBB513
 9195 04b4 42000000 		.4byte	.LBE513
 9196 04b8 56000000 		.4byte	.LBB530
 9197 04bc 64000000 		.4byte	.LBE530
 9198 04c0 9C000000 		.4byte	.LBB534
 9199 04c4 A6000000 		.4byte	.LBE534
 9200 04c8 00000000 		.4byte	0
 9201 04cc 00000000 		.4byte	0
 9202 04d0 3C000000 		.4byte	.LBB498
 9203 04d4 3E000000 		.4byte	.LBE498
 9204 04d8 40000000 		.4byte	.LBB502
 9205 04dc 42000000 		.4byte	.LBE502
 9206 04e0 9C000000 		.4byte	.LBB505
 9207 04e4 A0000000 		.4byte	.LBE505
 9208 04e8 00000000 		.4byte	0
 9209 04ec 00000000 		.4byte	0
 9210 04f0 3E000000 		.4byte	.LBB509
 9211 04f4 40000000 		.4byte	.LBE509
ARM GAS  /tmp/ccGKa4GA.s 			page 193


 9212 04f8 46000000 		.4byte	.LBB529
 9213 04fc 48000000 		.4byte	.LBE529
 9214 0500 92000000 		.4byte	.LBB533
 9215 0504 94000000 		.4byte	.LBE533
 9216 0508 00000000 		.4byte	0
 9217 050c 00000000 		.4byte	0
 9218 0510 42000000 		.4byte	.LBB514
 9219 0514 44000000 		.4byte	.LBE514
 9220 0518 64000000 		.4byte	.LBB531
 9221 051c 66000000 		.4byte	.LBE531
 9222 0520 A6000000 		.4byte	.LBB535
 9223 0524 A8000000 		.4byte	.LBE535
 9224 0528 00000000 		.4byte	0
 9225 052c 00000000 		.4byte	0
 9226 0530 44000000 		.4byte	.LBB518
 9227 0534 46000000 		.4byte	.LBE518
 9228 0538 6A000000 		.4byte	.LBB532
 9229 053c 92000000 		.4byte	.LBE532
 9230 0540 00000000 		.4byte	0
 9231 0544 00000000 		.4byte	0
 9232 0548 44000000 		.4byte	.LBB520
 9233 054c 46000000 		.4byte	.LBE520
 9234 0550 6A000000 		.4byte	.LBB524
 9235 0554 6C000000 		.4byte	.LBE524
 9236 0558 82000000 		.4byte	.LBB527
 9237 055c 84000000 		.4byte	.LBE527
 9238 0560 00000000 		.4byte	0
 9239 0564 00000000 		.4byte	0
 9240 0568 14000000 		.4byte	.LBB540
 9241 056c 16000000 		.4byte	.LBE540
 9242 0570 22000000 		.4byte	.LBB544
 9243 0574 26000000 		.4byte	.LBE544
 9244 0578 34000000 		.4byte	.LBB547
 9245 057c 36000000 		.4byte	.LBE547
 9246 0580 00000000 		.4byte	0
 9247 0584 00000000 		.4byte	0
 9248 0588 3E000000 		.4byte	.LBB548
 9249 058c 40000000 		.4byte	.LBE548
 9250 0590 42000000 		.4byte	.LBB571
 9251 0594 44000000 		.4byte	.LBE571
 9252 0598 58000000 		.4byte	.LBB590
 9253 059c 5E000000 		.4byte	.LBE590
 9254 05a0 60000000 		.4byte	.LBB591
 9255 05a4 68000000 		.4byte	.LBE591
 9256 05a8 A0000000 		.4byte	.LBB595
 9257 05ac A2000000 		.4byte	.LBE595
 9258 05b0 A4000000 		.4byte	.LBB596
 9259 05b4 AC000000 		.4byte	.LBE596
 9260 05b8 00000000 		.4byte	0
 9261 05bc 00000000 		.4byte	0
 9262 05c0 3E000000 		.4byte	.LBB550
 9263 05c4 40000000 		.4byte	.LBE550
 9264 05c8 42000000 		.4byte	.LBB555
 9265 05cc 44000000 		.4byte	.LBE555
 9266 05d0 A0000000 		.4byte	.LBB560
 9267 05d4 A2000000 		.4byte	.LBE560
 9268 05d8 A4000000 		.4byte	.LBB561
ARM GAS  /tmp/ccGKa4GA.s 			page 194


 9269 05dc A6000000 		.4byte	.LBE561
 9270 05e0 00000000 		.4byte	0
 9271 05e4 00000000 		.4byte	0
 9272 05e8 5C000000 		.4byte	.LBB556
 9273 05ec 5E000000 		.4byte	.LBE556
 9274 05f0 60000000 		.4byte	.LBB559
 9275 05f4 62000000 		.4byte	.LBE559
 9276 05f8 00000000 		.4byte	0
 9277 05fc 00000000 		.4byte	0
 9278 0600 40000000 		.4byte	.LBB567
 9279 0604 42000000 		.4byte	.LBE567
 9280 0608 4A000000 		.4byte	.LBB589
 9281 060c 4C000000 		.4byte	.LBE589
 9282 0610 96000000 		.4byte	.LBB594
 9283 0614 98000000 		.4byte	.LBE594
 9284 0618 00000000 		.4byte	0
 9285 061c 00000000 		.4byte	0
 9286 0620 44000000 		.4byte	.LBB572
 9287 0624 46000000 		.4byte	.LBE572
 9288 0628 48000000 		.4byte	.LBB588
 9289 062c 4A000000 		.4byte	.LBE588
 9290 0630 68000000 		.4byte	.LBB592
 9291 0634 6A000000 		.4byte	.LBE592
 9292 0638 AC000000 		.4byte	.LBB597
 9293 063c AE000000 		.4byte	.LBE597
 9294 0640 00000000 		.4byte	0
 9295 0644 00000000 		.4byte	0
 9296 0648 46000000 		.4byte	.LBB577
 9297 064c 48000000 		.4byte	.LBE577
 9298 0650 6E000000 		.4byte	.LBB593
 9299 0654 96000000 		.4byte	.LBE593
 9300 0658 00000000 		.4byte	0
 9301 065c 00000000 		.4byte	0
 9302 0660 46000000 		.4byte	.LBB579
 9303 0664 48000000 		.4byte	.LBE579
 9304 0668 6E000000 		.4byte	.LBB583
 9305 066c 70000000 		.4byte	.LBE583
 9306 0670 8C000000 		.4byte	.LBB586
 9307 0674 8E000000 		.4byte	.LBE586
 9308 0678 00000000 		.4byte	0
 9309 067c 00000000 		.4byte	0
 9310 0680 00000000 		.4byte	.LBB598
 9311 0684 04000000 		.4byte	.LBE598
 9312 0688 0E000000 		.4byte	.LBB603
 9313 068c 14000000 		.4byte	.LBE603
 9314 0690 00000000 		.4byte	0
 9315 0694 00000000 		.4byte	0
 9316 0698 0C000000 		.4byte	.LBB604
 9317 069c 22000000 		.4byte	.LBE604
 9318 06a0 60000000 		.4byte	.LBB615
 9319 06a4 6E000000 		.4byte	.LBE615
 9320 06a8 00000000 		.4byte	0
 9321 06ac 00000000 		.4byte	0
 9322 06b0 40000000 		.4byte	.LBB611
 9323 06b4 44000000 		.4byte	.LBE611
 9324 06b8 44000000 		.4byte	.LBB614
 9325 06bc 4C000000 		.4byte	.LBE614
ARM GAS  /tmp/ccGKa4GA.s 			page 195


 9326 06c0 00000000 		.4byte	0
 9327 06c4 00000000 		.4byte	0
 9328 06c8 00000000 		.4byte	.LBB616
 9329 06cc 02000000 		.4byte	.LBE616
 9330 06d0 04000000 		.4byte	.LBB619
 9331 06d4 08000000 		.4byte	.LBE619
 9332 06d8 00000000 		.4byte	0
 9333 06dc 00000000 		.4byte	0
 9334 06e0 08000000 		.4byte	.LBB620
 9335 06e4 16000000 		.4byte	.LBE620
 9336 06e8 4A000000 		.4byte	.LBB642
 9337 06ec 58000000 		.4byte	.LBE642
 9338 06f0 00000000 		.4byte	0
 9339 06f4 00000000 		.4byte	0
 9340 06f8 16000000 		.4byte	.LBB623
 9341 06fc 20000000 		.4byte	.LBE623
 9342 0700 58000000 		.4byte	.LBB643
 9343 0704 70000000 		.4byte	.LBE643
 9344 0708 00000000 		.4byte	0
 9345 070c 00000000 		.4byte	0
 9346 0710 20000000 		.4byte	.LBB628
 9347 0714 22000000 		.4byte	.LBE628
 9348 0718 22000000 		.4byte	.LBB635
 9349 071c 2E000000 		.4byte	.LBE635
 9350 0720 00000000 		.4byte	0
 9351 0724 00000000 		.4byte	0
 9352 0728 20000000 		.4byte	.LBB629
 9353 072c 22000000 		.4byte	.LBE629
 9354 0730 22000000 		.4byte	.LBB632
 9355 0734 28000000 		.4byte	.LBE632
 9356 0738 00000000 		.4byte	0
 9357 073c 00000000 		.4byte	0
 9358 0740 2E000000 		.4byte	.LBB636
 9359 0744 32000000 		.4byte	.LBE636
 9360 0748 34000000 		.4byte	.LBB639
 9361 074c 38000000 		.4byte	.LBE639
 9362 0750 00000000 		.4byte	0
 9363 0754 00000000 		.4byte	0
 9364 0758 0E000000 		.4byte	.LBB648
 9365 075c 1A000000 		.4byte	.LBE648
 9366 0760 22000000 		.4byte	.LBB656
 9367 0764 2E000000 		.4byte	.LBE656
 9368 0768 00000000 		.4byte	0
 9369 076c 00000000 		.4byte	0
 9370 0770 1A000000 		.4byte	.LBB651
 9371 0774 20000000 		.4byte	.LBE651
 9372 0778 2E000000 		.4byte	.LBB657
 9373 077c 48000000 		.4byte	.LBE657
 9374 0780 00000000 		.4byte	0
 9375 0784 00000000 		.4byte	0
 9376 0788 00000000 		.4byte	.LFB206
 9377 078c 18000000 		.4byte	.LFE206
 9378 0790 00000000 		.4byte	.LFB207
 9379 0794 48010000 		.4byte	.LFE207
 9380 0798 00000000 		.4byte	.LFB208
 9381 079c C6000000 		.4byte	.LFE208
 9382 07a0 00000000 		.4byte	.LFB209
ARM GAS  /tmp/ccGKa4GA.s 			page 196


 9383 07a4 E0000000 		.4byte	.LFE209
 9384 07a8 00000000 		.4byte	.LFB210
 9385 07ac 24000000 		.4byte	.LFE210
 9386 07b0 00000000 		.4byte	.LFB211
 9387 07b4 B8000000 		.4byte	.LFE211
 9388 07b8 00000000 		.4byte	.LFB212
 9389 07bc C8000000 		.4byte	.LFE212
 9390 07c0 00000000 		.4byte	.LFB213
 9391 07c4 14000000 		.4byte	.LFE213
 9392 07c8 00000000 		.4byte	.LFB214
 9393 07cc 80000000 		.4byte	.LFE214
 9394 07d0 00000000 		.4byte	.LFB215
 9395 07d4 70000000 		.4byte	.LFE215
 9396 07d8 00000000 		.4byte	.LFB216
 9397 07dc 48000000 		.4byte	.LFE216
 9398 07e0 00000000 		.4byte	0
 9399 07e4 00000000 		.4byte	0
 9400              		.section	.debug_macro,"",%progbits
 9401              	.Ldebug_macro0:
 9402 0000 0400     		.2byte	0x4
 9403 0002 02       		.byte	0x2
 9404 0003 00000000 		.4byte	.Ldebug_line0
 9405 0007 07       		.byte	0x7
 9406 0008 00000000 		.4byte	.Ldebug_macro1
 9407 000c 03       		.byte	0x3
 9408 000d 00       		.uleb128 0
 9409 000e 01       		.uleb128 0x1
 9410 000f 03       		.byte	0x3
 9411 0010 20       		.uleb128 0x20
 9412 0011 08       		.uleb128 0x8
 9413 0012 05       		.byte	0x5
 9414 0013 1E       		.uleb128 0x1e
 9415 0014 A27F0000 		.4byte	.LASF362
 9416 0018 03       		.byte	0x3
 9417 0019 20       		.uleb128 0x20
 9418 001a 07       		.uleb128 0x7
 9419 001b 05       		.byte	0x5
 9420 001c 21       		.uleb128 0x21
 9421 001d 8F220000 		.4byte	.LASF363
 9422              		.file 9 "/usr/lib/gcc/arm-none-eabi/6.2.1/include/stdint.h"
 9423 0021 03       		.byte	0x3
 9424 0022 23       		.uleb128 0x23
 9425 0023 09       		.uleb128 0x9
 9426              		.file 10 "/usr/arm-none-eabi/include/stdint.h"
 9427 0024 03       		.byte	0x3
 9428 0025 09       		.uleb128 0x9
 9429 0026 0A       		.uleb128 0xa
 9430 0027 05       		.byte	0x5
 9431 0028 0A       		.uleb128 0xa
 9432 0029 A71D0000 		.4byte	.LASF364
 9433 002d 03       		.byte	0x3
 9434 002e 0C       		.uleb128 0xc
 9435 002f 05       		.uleb128 0x5
 9436 0030 05       		.byte	0x5
 9437 0031 06       		.uleb128 0x6
 9438 0032 16550000 		.4byte	.LASF365
 9439              		.file 11 "/usr/arm-none-eabi/include/sys/features.h"
ARM GAS  /tmp/ccGKa4GA.s 			page 197


 9440 0036 03       		.byte	0x3
 9441 0037 08       		.uleb128 0x8
 9442 0038 0B       		.uleb128 0xb
 9443 0039 05       		.byte	0x5
 9444 003a 16       		.uleb128 0x16
 9445 003b C2220000 		.4byte	.LASF366
 9446              		.file 12 "/usr/arm-none-eabi/include/_newlib_version.h"
 9447 003f 03       		.byte	0x3
 9448 0040 1C       		.uleb128 0x1c
 9449 0041 0C       		.uleb128 0xc
 9450 0042 07       		.byte	0x7
 9451 0043 00000000 		.4byte	.Ldebug_macro2
 9452 0047 04       		.byte	0x4
 9453 0048 07       		.byte	0x7
 9454 0049 00000000 		.4byte	.Ldebug_macro3
 9455 004d 04       		.byte	0x4
 9456 004e 07       		.byte	0x7
 9457 004f 00000000 		.4byte	.Ldebug_macro4
 9458 0053 04       		.byte	0x4
 9459              		.file 13 "/usr/arm-none-eabi/include/sys/_intsup.h"
 9460 0054 03       		.byte	0x3
 9461 0055 0D       		.uleb128 0xd
 9462 0056 0D       		.uleb128 0xd
 9463 0057 07       		.byte	0x7
 9464 0058 00000000 		.4byte	.Ldebug_macro5
 9465 005c 04       		.byte	0x4
 9466 005d 03       		.byte	0x3
 9467 005e 0E       		.uleb128 0xe
 9468 005f 06       		.uleb128 0x6
 9469 0060 07       		.byte	0x7
 9470 0061 00000000 		.4byte	.Ldebug_macro6
 9471 0065 04       		.byte	0x4
 9472 0066 07       		.byte	0x7
 9473 0067 00000000 		.4byte	.Ldebug_macro7
 9474 006b 04       		.byte	0x4
 9475 006c 05       		.byte	0x5
 9476 006d 0D       		.uleb128 0xd
 9477 006e 856B0000 		.4byte	.LASF518
 9478 0072 04       		.byte	0x4
 9479              		.file 14 "/usr/lib/gcc/arm-none-eabi/6.2.1/include/stdbool.h"
 9480 0073 03       		.byte	0x3
 9481 0074 24       		.uleb128 0x24
 9482 0075 0E       		.uleb128 0xe
 9483 0076 07       		.byte	0x7
 9484 0077 00000000 		.4byte	.Ldebug_macro8
 9485 007b 04       		.byte	0x4
 9486 007c 07       		.byte	0x7
 9487 007d 00000000 		.4byte	.Ldebug_macro9
 9488 0081 04       		.byte	0x4
 9489              		.file 15 "../../lpc11cx4-library/lpc_chip_11cxx_lib/inc/sys_config.h"
 9490 0082 03       		.byte	0x3
 9491 0083 21       		.uleb128 0x21
 9492 0084 0F       		.uleb128 0xf
 9493 0085 07       		.byte	0x7
 9494 0086 00000000 		.4byte	.Ldebug_macro10
 9495 008a 04       		.byte	0x4
 9496              		.file 16 "../../lpc11cx4-library/lpc_chip_11cxx_lib/inc/cmsis.h"
ARM GAS  /tmp/ccGKa4GA.s 			page 198


 9497 008b 03       		.byte	0x3
 9498 008c 22       		.uleb128 0x22
 9499 008d 10       		.uleb128 0x10
 9500 008e 05       		.byte	0x5
 9501 008f 1E       		.uleb128 0x1e
 9502 0090 9D530000 		.4byte	.LASF542
 9503              		.file 17 "../../lpc11cx4-library/lpc_chip_11cxx_lib/inc/cmsis_11cxx.h"
 9504 0094 03       		.byte	0x3
 9505 0095 2E       		.uleb128 0x2e
 9506 0096 11       		.uleb128 0x11
 9507 0097 07       		.byte	0x7
 9508 0098 00000000 		.4byte	.Ldebug_macro11
 9509 009c 04       		.byte	0x4
 9510              		.file 18 "../../lpc11cx4-library/lpc_chip_11cxx_lib/inc/core_cm0.h"
 9511 009d 03       		.byte	0x3
 9512 009e 3E       		.uleb128 0x3e
 9513 009f 12       		.uleb128 0x12
 9514 00a0 07       		.byte	0x7
 9515 00a1 00000000 		.4byte	.Ldebug_macro12
 9516              		.file 19 "../../lpc11cx4-library/lpc_chip_11cxx_lib/inc/core_cmInstr.h"
 9517 00a5 03       		.byte	0x3
 9518 00a6 70       		.uleb128 0x70
 9519 00a7 13       		.uleb128 0x13
 9520 00a8 05       		.byte	0x5
 9521 00a9 19       		.uleb128 0x19
 9522 00aa 151E0000 		.4byte	.LASF556
 9523 00ae 04       		.byte	0x4
 9524              		.file 20 "../../lpc11cx4-library/lpc_chip_11cxx_lib/inc/core_cmFunc.h"
 9525 00af 03       		.byte	0x3
 9526 00b0 71       		.uleb128 0x71
 9527 00b1 14       		.uleb128 0x14
 9528 00b2 05       		.byte	0x5
 9529 00b3 19       		.uleb128 0x19
 9530 00b4 240C0000 		.4byte	.LASF557
 9531 00b8 04       		.byte	0x4
 9532 00b9 07       		.byte	0x7
 9533 00ba 00000000 		.4byte	.Ldebug_macro13
 9534 00be 04       		.byte	0x4
 9535 00bf 04       		.byte	0x4
 9536 00c0 07       		.byte	0x7
 9537 00c1 00000000 		.4byte	.Ldebug_macro14
 9538              		.file 21 "../../lpc11cx4-library/lpc_chip_11cxx_lib/inc/pmu_11xx.h"
 9539 00c5 03       		.byte	0x3
 9540 00c6 E901     		.uleb128 0xe9
 9541 00c8 15       		.uleb128 0x15
 9542 00c9 07       		.byte	0x7
 9543 00ca 00000000 		.4byte	.Ldebug_macro15
 9544 00ce 04       		.byte	0x4
 9545              		.file 22 "../../lpc11cx4-library/lpc_chip_11cxx_lib/inc/fmc_11xx.h"
 9546 00cf 03       		.byte	0x3
 9547 00d0 EA01     		.uleb128 0xea
 9548 00d2 16       		.uleb128 0x16
 9549 00d3 05       		.byte	0x5
 9550 00d4 21       		.uleb128 0x21
 9551 00d5 B26D0000 		.4byte	.LASF687
 9552 00d9 04       		.byte	0x4
 9553 00da 03       		.byte	0x3
ARM GAS  /tmp/ccGKa4GA.s 			page 199


 9554 00db EB01     		.uleb128 0xeb
 9555 00dd 04       		.uleb128 0x4
 9556 00de 07       		.byte	0x7
 9557 00df 00000000 		.4byte	.Ldebug_macro16
 9558 00e3 04       		.byte	0x4
 9559 00e4 03       		.byte	0x3
 9560 00e5 EC01     		.uleb128 0xec
 9561 00e7 03       		.uleb128 0x3
 9562 00e8 07       		.byte	0x7
 9563 00e9 00000000 		.4byte	.Ldebug_macro17
 9564 00ed 04       		.byte	0x4
 9565              		.file 23 "../../lpc11cx4-library/lpc_chip_11cxx_lib/inc/iocon_11xx.h"
 9566 00ee 03       		.byte	0x3
 9567 00ef ED01     		.uleb128 0xed
 9568 00f1 17       		.uleb128 0x17
 9569 00f2 07       		.byte	0x7
 9570 00f3 00000000 		.4byte	.Ldebug_macro18
 9571 00f7 04       		.byte	0x4
 9572              		.file 24 "../../lpc11cx4-library/lpc_chip_11cxx_lib/inc/timer_11xx.h"
 9573 00f8 03       		.byte	0x3
 9574 00f9 EE01     		.uleb128 0xee
 9575 00fb 18       		.uleb128 0x18
 9576 00fc 07       		.byte	0x7
 9577 00fd 00000000 		.4byte	.Ldebug_macro19
 9578 0101 04       		.byte	0x4
 9579              		.file 25 "../../lpc11cx4-library/lpc_chip_11cxx_lib/inc/uart_11xx.h"
 9580 0102 03       		.byte	0x3
 9581 0103 EF01     		.uleb128 0xef
 9582 0105 19       		.uleb128 0x19
 9583 0106 05       		.byte	0x5
 9584 0107 21       		.uleb128 0x21
 9585 0108 BB250000 		.4byte	.LASF771
 9586              		.file 26 "../../lpc11cx4-library/lpc_chip_11cxx_lib/inc/ring_buffer.h"
 9587 010c 03       		.byte	0x3
 9588 010d 23       		.uleb128 0x23
 9589 010e 1A       		.uleb128 0x1a
 9590 010f 07       		.byte	0x7
 9591 0110 00000000 		.4byte	.Ldebug_macro20
 9592 0114 04       		.byte	0x4
 9593 0115 07       		.byte	0x7
 9594 0116 00000000 		.4byte	.Ldebug_macro21
 9595 011a 04       		.byte	0x4
 9596              		.file 27 "../../lpc11cx4-library/lpc_chip_11cxx_lib/inc/wwdt_11xx.h"
 9597 011b 03       		.byte	0x3
 9598 011c F001     		.uleb128 0xf0
 9599 011e 1B       		.uleb128 0x1b
 9600 011f 07       		.byte	0x7
 9601 0120 00000000 		.4byte	.Ldebug_macro22
 9602 0124 04       		.byte	0x4
 9603 0125 03       		.byte	0x3
 9604 0126 F101     		.uleb128 0xf1
 9605 0128 02       		.uleb128 0x2
 9606 0129 07       		.byte	0x7
 9607 012a 00000000 		.4byte	.Ldebug_macro23
 9608 012e 04       		.byte	0x4
 9609              		.file 28 "../../lpc11cx4-library/lpc_chip_11cxx_lib/inc/romapi_11xx.h"
 9610 012f 03       		.byte	0x3
ARM GAS  /tmp/ccGKa4GA.s 			page 200


 9611 0130 F201     		.uleb128 0xf2
 9612 0132 1C       		.uleb128 0x1c
 9613 0133 05       		.byte	0x5
 9614 0134 21       		.uleb128 0x21
 9615 0135 985D0000 		.4byte	.LASF924
 9616              		.file 29 "../../lpc11cx4-library/lpc_chip_11cxx_lib/inc/error.h"
 9617 0139 03       		.byte	0x3
 9618 013a 23       		.uleb128 0x23
 9619 013b 1D       		.uleb128 0x1d
 9620 013c 07       		.byte	0x7
 9621 013d 00000000 		.4byte	.Ldebug_macro24
 9622 0141 04       		.byte	0x4
 9623 0142 04       		.byte	0x4
 9624              		.file 30 "../../lpc11cx4-library/lpc_chip_11cxx_lib/inc/adc_11xx.h"
 9625 0143 03       		.byte	0x3
 9626 0144 F601     		.uleb128 0xf6
 9627 0146 1E       		.uleb128 0x1e
 9628 0147 07       		.byte	0x7
 9629 0148 00000000 		.4byte	.Ldebug_macro25
 9630 014c 04       		.byte	0x4
 9631              		.file 31 "../../lpc11cx4-library/lpc_chip_11cxx_lib/inc/gpio_11xx_2.h"
 9632 014d 03       		.byte	0x3
 9633 014e FF01     		.uleb128 0xff
 9634 0150 1F       		.uleb128 0x1f
 9635 0151 05       		.byte	0x5
 9636 0152 22       		.uleb128 0x22
 9637 0153 0F6C0000 		.4byte	.LASF947
 9638 0157 04       		.byte	0x4
 9639              		.file 32 "../../lpc11cx4-library/lpc_chip_11cxx_lib/inc/i2c_11xx.h"
 9640 0158 03       		.byte	0x3
 9641 0159 8C02     		.uleb128 0x10c
 9642 015b 20       		.uleb128 0x20
 9643 015c 07       		.byte	0x7
 9644 015d 00000000 		.4byte	.Ldebug_macro26
 9645 0161 04       		.byte	0x4
 9646              		.file 33 "../../lpc11cx4-library/lpc_chip_11cxx_lib/inc/ccand_11xx.h"
 9647 0162 03       		.byte	0x3
 9648 0163 8F02     		.uleb128 0x10f
 9649 0165 21       		.uleb128 0x21
 9650 0166 07       		.byte	0x7
 9651 0167 00000000 		.4byte	.Ldebug_macro27
 9652 016b 04       		.byte	0x4
 9653 016c 04       		.byte	0x4
 9654 016d 04       		.byte	0x4
 9655 016e 00       		.byte	0
 9656              		.section	.debug_macro,"G",%progbits,wm4.0.adead285382a0a5b53a07cb69e17d027,comdat
 9657              	.Ldebug_macro1:
 9658 0000 0400     		.2byte	0x4
 9659 0002 00       		.byte	0
 9660 0003 05       		.byte	0x5
 9661 0004 00       		.uleb128 0
 9662 0005 734F0000 		.4byte	.LASF0
 9663 0009 05       		.byte	0x5
 9664 000a 00       		.uleb128 0
 9665 000b 1D0A0000 		.4byte	.LASF1
 9666 000f 05       		.byte	0x5
 9667 0010 00       		.uleb128 0
ARM GAS  /tmp/ccGKa4GA.s 			page 201


 9668 0011 1B390000 		.4byte	.LASF2
 9669 0015 05       		.byte	0x5
 9670 0016 00       		.uleb128 0
 9671 0017 22660000 		.4byte	.LASF3
 9672 001b 05       		.byte	0x5
 9673 001c 00       		.uleb128 0
 9674 001d E41C0000 		.4byte	.LASF4
 9675 0021 05       		.byte	0x5
 9676 0022 00       		.uleb128 0
 9677 0023 A24D0000 		.4byte	.LASF5
 9678 0027 05       		.byte	0x5
 9679 0028 00       		.uleb128 0
 9680 0029 876D0000 		.4byte	.LASF6
 9681 002d 05       		.byte	0x5
 9682 002e 00       		.uleb128 0
 9683 002f 711F0000 		.4byte	.LASF7
 9684 0033 05       		.byte	0x5
 9685 0034 00       		.uleb128 0
 9686 0035 97350000 		.4byte	.LASF8
 9687 0039 05       		.byte	0x5
 9688 003a 00       		.uleb128 0
 9689 003b D63D0000 		.4byte	.LASF9
 9690 003f 05       		.byte	0x5
 9691 0040 00       		.uleb128 0
 9692 0041 777F0000 		.4byte	.LASF10
 9693 0045 05       		.byte	0x5
 9694 0046 00       		.uleb128 0
 9695 0047 78030000 		.4byte	.LASF11
 9696 004b 05       		.byte	0x5
 9697 004c 00       		.uleb128 0
 9698 004d A83E0000 		.4byte	.LASF12
 9699 0051 05       		.byte	0x5
 9700 0052 00       		.uleb128 0
 9701 0053 5A600000 		.4byte	.LASF13
 9702 0057 05       		.byte	0x5
 9703 0058 00       		.uleb128 0
 9704 0059 A6760000 		.4byte	.LASF14
 9705 005d 05       		.byte	0x5
 9706 005e 00       		.uleb128 0
 9707 005f 46180000 		.4byte	.LASF15
 9708 0063 05       		.byte	0x5
 9709 0064 00       		.uleb128 0
 9710 0065 D4040000 		.4byte	.LASF16
 9711 0069 05       		.byte	0x5
 9712 006a 00       		.uleb128 0
 9713 006b FC210000 		.4byte	.LASF17
 9714 006f 05       		.byte	0x5
 9715 0070 00       		.uleb128 0
 9716 0071 D46E0000 		.4byte	.LASF18
 9717 0075 05       		.byte	0x5
 9718 0076 00       		.uleb128 0
 9719 0077 06190000 		.4byte	.LASF19
 9720 007b 05       		.byte	0x5
 9721 007c 00       		.uleb128 0
 9722 007d 04230000 		.4byte	.LASF20
 9723 0081 05       		.byte	0x5
 9724 0082 00       		.uleb128 0
ARM GAS  /tmp/ccGKa4GA.s 			page 202


 9725 0083 806A0000 		.4byte	.LASF21
 9726 0087 05       		.byte	0x5
 9727 0088 00       		.uleb128 0
 9728 0089 45460000 		.4byte	.LASF22
 9729 008d 05       		.byte	0x5
 9730 008e 00       		.uleb128 0
 9731 008f 31550000 		.4byte	.LASF23
 9732 0093 05       		.byte	0x5
 9733 0094 00       		.uleb128 0
 9734 0095 6A5C0000 		.4byte	.LASF24
 9735 0099 05       		.byte	0x5
 9736 009a 00       		.uleb128 0
 9737 009b 0C0E0000 		.4byte	.LASF25
 9738 009f 05       		.byte	0x5
 9739 00a0 00       		.uleb128 0
 9740 00a1 45060000 		.4byte	.LASF26
 9741 00a5 05       		.byte	0x5
 9742 00a6 00       		.uleb128 0
 9743 00a7 77480000 		.4byte	.LASF27
 9744 00ab 05       		.byte	0x5
 9745 00ac 00       		.uleb128 0
 9746 00ad A34F0000 		.4byte	.LASF28
 9747 00b1 05       		.byte	0x5
 9748 00b2 00       		.uleb128 0
 9749 00b3 05160000 		.4byte	.LASF29
 9750 00b7 05       		.byte	0x5
 9751 00b8 00       		.uleb128 0
 9752 00b9 8A7D0000 		.4byte	.LASF30
 9753 00bd 05       		.byte	0x5
 9754 00be 00       		.uleb128 0
 9755 00bf 022C0000 		.4byte	.LASF31
 9756 00c3 05       		.byte	0x5
 9757 00c4 00       		.uleb128 0
 9758 00c5 69230000 		.4byte	.LASF32
 9759 00c9 05       		.byte	0x5
 9760 00ca 00       		.uleb128 0
 9761 00cb E6490000 		.4byte	.LASF33
 9762 00cf 05       		.byte	0x5
 9763 00d0 00       		.uleb128 0
 9764 00d1 A57D0000 		.4byte	.LASF34
 9765 00d5 05       		.byte	0x5
 9766 00d6 00       		.uleb128 0
 9767 00d7 E74C0000 		.4byte	.LASF35
 9768 00db 05       		.byte	0x5
 9769 00dc 00       		.uleb128 0
 9770 00dd 5B690000 		.4byte	.LASF36
 9771 00e1 05       		.byte	0x5
 9772 00e2 00       		.uleb128 0
 9773 00e3 80170000 		.4byte	.LASF37
 9774 00e7 05       		.byte	0x5
 9775 00e8 00       		.uleb128 0
 9776 00e9 CD3B0000 		.4byte	.LASF38
 9777 00ed 05       		.byte	0x5
 9778 00ee 00       		.uleb128 0
 9779 00ef DF060000 		.4byte	.LASF39
 9780 00f3 05       		.byte	0x5
 9781 00f4 00       		.uleb128 0
ARM GAS  /tmp/ccGKa4GA.s 			page 203


 9782 00f5 41080000 		.4byte	.LASF40
 9783 00f9 05       		.byte	0x5
 9784 00fa 00       		.uleb128 0
 9785 00fb 8A7F0000 		.4byte	.LASF41
 9786 00ff 05       		.byte	0x5
 9787 0100 00       		.uleb128 0
 9788 0101 0D460000 		.4byte	.LASF42
 9789 0105 05       		.byte	0x5
 9790 0106 00       		.uleb128 0
 9791 0107 F44F0000 		.4byte	.LASF43
 9792 010b 05       		.byte	0x5
 9793 010c 00       		.uleb128 0
 9794 010d 4C390000 		.4byte	.LASF44
 9795 0111 05       		.byte	0x5
 9796 0112 00       		.uleb128 0
 9797 0113 24750000 		.4byte	.LASF45
 9798 0117 05       		.byte	0x5
 9799 0118 00       		.uleb128 0
 9800 0119 CE6A0000 		.4byte	.LASF46
 9801 011d 05       		.byte	0x5
 9802 011e 00       		.uleb128 0
 9803 011f 1A160000 		.4byte	.LASF47
 9804 0123 05       		.byte	0x5
 9805 0124 00       		.uleb128 0
 9806 0125 CE790000 		.4byte	.LASF48
 9807 0129 05       		.byte	0x5
 9808 012a 00       		.uleb128 0
 9809 012b 4C3E0000 		.4byte	.LASF49
 9810 012f 05       		.byte	0x5
 9811 0130 00       		.uleb128 0
 9812 0131 BE810000 		.4byte	.LASF50
 9813 0135 05       		.byte	0x5
 9814 0136 00       		.uleb128 0
 9815 0137 35130000 		.4byte	.LASF51
 9816 013b 05       		.byte	0x5
 9817 013c 00       		.uleb128 0
 9818 013d E55E0000 		.4byte	.LASF52
 9819 0141 05       		.byte	0x5
 9820 0142 00       		.uleb128 0
 9821 0143 33660000 		.4byte	.LASF53
 9822 0147 05       		.byte	0x5
 9823 0148 00       		.uleb128 0
 9824 0149 D83C0000 		.4byte	.LASF54
 9825 014d 05       		.byte	0x5
 9826 014e 00       		.uleb128 0
 9827 014f 75150000 		.4byte	.LASF55
 9828 0153 05       		.byte	0x5
 9829 0154 00       		.uleb128 0
 9830 0155 1F5E0000 		.4byte	.LASF56
 9831 0159 05       		.byte	0x5
 9832 015a 00       		.uleb128 0
 9833 015b 213E0000 		.4byte	.LASF57
 9834 015f 05       		.byte	0x5
 9835 0160 00       		.uleb128 0
 9836 0161 8C0A0000 		.4byte	.LASF58
 9837 0165 05       		.byte	0x5
 9838 0166 00       		.uleb128 0
ARM GAS  /tmp/ccGKa4GA.s 			page 204


 9839 0167 833A0000 		.4byte	.LASF59
 9840 016b 05       		.byte	0x5
 9841 016c 00       		.uleb128 0
 9842 016d B7380000 		.4byte	.LASF60
 9843 0171 05       		.byte	0x5
 9844 0172 00       		.uleb128 0
 9845 0173 FD5D0000 		.4byte	.LASF61
 9846 0177 05       		.byte	0x5
 9847 0178 00       		.uleb128 0
 9848 0179 2B240000 		.4byte	.LASF62
 9849 017d 05       		.byte	0x5
 9850 017e 00       		.uleb128 0
 9851 017f 47690000 		.4byte	.LASF63
 9852 0183 05       		.byte	0x5
 9853 0184 00       		.uleb128 0
 9854 0185 6F390000 		.4byte	.LASF64
 9855 0189 05       		.byte	0x5
 9856 018a 00       		.uleb128 0
 9857 018b 75360000 		.4byte	.LASF65
 9858 018f 05       		.byte	0x5
 9859 0190 00       		.uleb128 0
 9860 0191 562A0000 		.4byte	.LASF66
 9861 0195 05       		.byte	0x5
 9862 0196 00       		.uleb128 0
 9863 0197 E6280000 		.4byte	.LASF67
 9864 019b 05       		.byte	0x5
 9865 019c 00       		.uleb128 0
 9866 019d 85230000 		.4byte	.LASF68
 9867 01a1 05       		.byte	0x5
 9868 01a2 00       		.uleb128 0
 9869 01a3 FA5C0000 		.4byte	.LASF69
 9870 01a7 05       		.byte	0x5
 9871 01a8 00       		.uleb128 0
 9872 01a9 A7810000 		.4byte	.LASF70
 9873 01ad 05       		.byte	0x5
 9874 01ae 00       		.uleb128 0
 9875 01af 987C0000 		.4byte	.LASF71
 9876 01b3 05       		.byte	0x5
 9877 01b4 00       		.uleb128 0
 9878 01b5 21570000 		.4byte	.LASF72
 9879 01b9 05       		.byte	0x5
 9880 01ba 00       		.uleb128 0
 9881 01bb A9030000 		.4byte	.LASF73
 9882 01bf 05       		.byte	0x5
 9883 01c0 00       		.uleb128 0
 9884 01c1 2A420000 		.4byte	.LASF74
 9885 01c5 05       		.byte	0x5
 9886 01c6 00       		.uleb128 0
 9887 01c7 A7790000 		.4byte	.LASF75
 9888 01cb 05       		.byte	0x5
 9889 01cc 00       		.uleb128 0
 9890 01cd 6E790000 		.4byte	.LASF76
 9891 01d1 05       		.byte	0x5
 9892 01d2 00       		.uleb128 0
 9893 01d3 6E020000 		.4byte	.LASF77
 9894 01d7 05       		.byte	0x5
 9895 01d8 00       		.uleb128 0
ARM GAS  /tmp/ccGKa4GA.s 			page 205


 9896 01d9 B87B0000 		.4byte	.LASF78
 9897 01dd 05       		.byte	0x5
 9898 01de 00       		.uleb128 0
 9899 01df F1020000 		.4byte	.LASF79
 9900 01e3 05       		.byte	0x5
 9901 01e4 00       		.uleb128 0
 9902 01e5 C7020000 		.4byte	.LASF80
 9903 01e9 05       		.byte	0x5
 9904 01ea 00       		.uleb128 0
 9905 01eb D6800000 		.4byte	.LASF81
 9906 01ef 05       		.byte	0x5
 9907 01f0 00       		.uleb128 0
 9908 01f1 790B0000 		.4byte	.LASF82
 9909 01f5 05       		.byte	0x5
 9910 01f6 00       		.uleb128 0
 9911 01f7 096E0000 		.4byte	.LASF83
 9912 01fb 05       		.byte	0x5
 9913 01fc 00       		.uleb128 0
 9914 01fd 44300000 		.4byte	.LASF84
 9915 0201 05       		.byte	0x5
 9916 0202 00       		.uleb128 0
 9917 0203 E8370000 		.4byte	.LASF85
 9918 0207 05       		.byte	0x5
 9919 0208 00       		.uleb128 0
 9920 0209 91700000 		.4byte	.LASF86
 9921 020d 05       		.byte	0x5
 9922 020e 00       		.uleb128 0
 9923 020f 573B0000 		.4byte	.LASF87
 9924 0213 05       		.byte	0x5
 9925 0214 00       		.uleb128 0
 9926 0215 C03F0000 		.4byte	.LASF88
 9927 0219 05       		.byte	0x5
 9928 021a 00       		.uleb128 0
 9929 021b 1A270000 		.4byte	.LASF89
 9930 021f 05       		.byte	0x5
 9931 0220 00       		.uleb128 0
 9932 0221 01210000 		.4byte	.LASF90
 9933 0225 05       		.byte	0x5
 9934 0226 00       		.uleb128 0
 9935 0227 C8340000 		.4byte	.LASF91
 9936 022b 05       		.byte	0x5
 9937 022c 00       		.uleb128 0
 9938 022d 39340000 		.4byte	.LASF92
 9939 0231 05       		.byte	0x5
 9940 0232 00       		.uleb128 0
 9941 0233 4F350000 		.4byte	.LASF93
 9942 0237 05       		.byte	0x5
 9943 0238 00       		.uleb128 0
 9944 0239 04580000 		.4byte	.LASF94
 9945 023d 05       		.byte	0x5
 9946 023e 00       		.uleb128 0
 9947 023f 54290000 		.4byte	.LASF95
 9948 0243 05       		.byte	0x5
 9949 0244 00       		.uleb128 0
 9950 0245 9E7E0000 		.4byte	.LASF96
 9951 0249 05       		.byte	0x5
 9952 024a 00       		.uleb128 0
ARM GAS  /tmp/ccGKa4GA.s 			page 206


 9953 024b 5A730000 		.4byte	.LASF97
 9954 024f 05       		.byte	0x5
 9955 0250 00       		.uleb128 0
 9956 0251 E80D0000 		.4byte	.LASF98
 9957 0255 05       		.byte	0x5
 9958 0256 00       		.uleb128 0
 9959 0257 72450000 		.4byte	.LASF99
 9960 025b 05       		.byte	0x5
 9961 025c 00       		.uleb128 0
 9962 025d 0E6B0000 		.4byte	.LASF100
 9963 0261 05       		.byte	0x5
 9964 0262 00       		.uleb128 0
 9965 0263 71300000 		.4byte	.LASF101
 9966 0267 05       		.byte	0x5
 9967 0268 00       		.uleb128 0
 9968 0269 32080000 		.4byte	.LASF102
 9969 026d 05       		.byte	0x5
 9970 026e 00       		.uleb128 0
 9971 026f 331D0000 		.4byte	.LASF103
 9972 0273 05       		.byte	0x5
 9973 0274 00       		.uleb128 0
 9974 0275 BB6C0000 		.4byte	.LASF104
 9975 0279 05       		.byte	0x5
 9976 027a 00       		.uleb128 0
 9977 027b 09730000 		.4byte	.LASF105
 9978 027f 05       		.byte	0x5
 9979 0280 00       		.uleb128 0
 9980 0281 D52A0000 		.4byte	.LASF106
 9981 0285 05       		.byte	0x5
 9982 0286 00       		.uleb128 0
 9983 0287 8C5B0000 		.4byte	.LASF107
 9984 028b 05       		.byte	0x5
 9985 028c 00       		.uleb128 0
 9986 028d C15A0000 		.4byte	.LASF108
 9987 0291 05       		.byte	0x5
 9988 0292 00       		.uleb128 0
 9989 0293 01740000 		.4byte	.LASF109
 9990 0297 05       		.byte	0x5
 9991 0298 00       		.uleb128 0
 9992 0299 71600000 		.4byte	.LASF110
 9993 029d 05       		.byte	0x5
 9994 029e 00       		.uleb128 0
 9995 029f 531F0000 		.4byte	.LASF111
 9996 02a3 05       		.byte	0x5
 9997 02a4 00       		.uleb128 0
 9998 02a5 6D140000 		.4byte	.LASF112
 9999 02a9 05       		.byte	0x5
 10000 02aa 00       		.uleb128 0
 10001 02ab 460F0000 		.4byte	.LASF113
 10002 02af 05       		.byte	0x5
 10003 02b0 00       		.uleb128 0
 10004 02b1 48110000 		.4byte	.LASF114
 10005 02b5 05       		.byte	0x5
 10006 02b6 00       		.uleb128 0
 10007 02b7 12180000 		.4byte	.LASF115
 10008 02bb 05       		.byte	0x5
 10009 02bc 00       		.uleb128 0
ARM GAS  /tmp/ccGKa4GA.s 			page 207


 10010 02bd B75B0000 		.4byte	.LASF116
 10011 02c1 05       		.byte	0x5
 10012 02c2 00       		.uleb128 0
 10013 02c3 D1100000 		.4byte	.LASF117
 10014 02c7 05       		.byte	0x5
 10015 02c8 00       		.uleb128 0
 10016 02c9 543C0000 		.4byte	.LASF118
 10017 02cd 05       		.byte	0x5
 10018 02ce 00       		.uleb128 0
 10019 02cf 0A1F0000 		.4byte	.LASF119
 10020 02d3 05       		.byte	0x5
 10021 02d4 00       		.uleb128 0
 10022 02d5 E0380000 		.4byte	.LASF120
 10023 02d9 05       		.byte	0x5
 10024 02da 00       		.uleb128 0
 10025 02db 5C4D0000 		.4byte	.LASF121
 10026 02df 05       		.byte	0x5
 10027 02e0 00       		.uleb128 0
 10028 02e1 BA4B0000 		.4byte	.LASF122
 10029 02e5 05       		.byte	0x5
 10030 02e6 00       		.uleb128 0
 10031 02e7 C8420000 		.4byte	.LASF123
 10032 02eb 05       		.byte	0x5
 10033 02ec 00       		.uleb128 0
 10034 02ed F53D0000 		.4byte	.LASF124
 10035 02f1 05       		.byte	0x5
 10036 02f2 00       		.uleb128 0
 10037 02f3 D94C0000 		.4byte	.LASF125
 10038 02f7 05       		.byte	0x5
 10039 02f8 00       		.uleb128 0
 10040 02f9 A34B0000 		.4byte	.LASF126
 10041 02fd 05       		.byte	0x5
 10042 02fe 00       		.uleb128 0
 10043 02ff 0E1B0000 		.4byte	.LASF127
 10044 0303 05       		.byte	0x5
 10045 0304 00       		.uleb128 0
 10046 0305 32180000 		.4byte	.LASF128
 10047 0309 05       		.byte	0x5
 10048 030a 00       		.uleb128 0
 10049 030b E6650000 		.4byte	.LASF129
 10050 030f 05       		.byte	0x5
 10051 0310 00       		.uleb128 0
 10052 0311 7F1B0000 		.4byte	.LASF130
 10053 0315 05       		.byte	0x5
 10054 0316 00       		.uleb128 0
 10055 0317 51250000 		.4byte	.LASF131
 10056 031b 05       		.byte	0x5
 10057 031c 00       		.uleb128 0
 10058 031d A2240000 		.4byte	.LASF132
 10059 0321 05       		.byte	0x5
 10060 0322 00       		.uleb128 0
 10061 0323 872B0000 		.4byte	.LASF133
 10062 0327 05       		.byte	0x5
 10063 0328 00       		.uleb128 0
 10064 0329 A6290000 		.4byte	.LASF134
 10065 032d 05       		.byte	0x5
 10066 032e 00       		.uleb128 0
ARM GAS  /tmp/ccGKa4GA.s 			page 208


 10067 032f CA060000 		.4byte	.LASF135
 10068 0333 05       		.byte	0x5
 10069 0334 00       		.uleb128 0
 10070 0335 6A370000 		.4byte	.LASF136
 10071 0339 05       		.byte	0x5
 10072 033a 00       		.uleb128 0
 10073 033b B51C0000 		.4byte	.LASF137
 10074 033f 05       		.byte	0x5
 10075 0340 00       		.uleb128 0
 10076 0341 0D810000 		.4byte	.LASF138
 10077 0345 05       		.byte	0x5
 10078 0346 00       		.uleb128 0
 10079 0347 56040000 		.4byte	.LASF139
 10080 034b 05       		.byte	0x5
 10081 034c 00       		.uleb128 0
 10082 034d D3580000 		.4byte	.LASF140
 10083 0351 05       		.byte	0x5
 10084 0352 00       		.uleb128 0
 10085 0353 AD7F0000 		.4byte	.LASF141
 10086 0357 05       		.byte	0x5
 10087 0358 00       		.uleb128 0
 10088 0359 B33D0000 		.4byte	.LASF142
 10089 035d 05       		.byte	0x5
 10090 035e 00       		.uleb128 0
 10091 035f EB040000 		.4byte	.LASF143
 10092 0363 05       		.byte	0x5
 10093 0364 00       		.uleb128 0
 10094 0365 3F6F0000 		.4byte	.LASF144
 10095 0369 05       		.byte	0x5
 10096 036a 00       		.uleb128 0
 10097 036b 177A0000 		.4byte	.LASF145
 10098 036f 05       		.byte	0x5
 10099 0370 00       		.uleb128 0
 10100 0371 95140000 		.4byte	.LASF146
 10101 0375 05       		.byte	0x5
 10102 0376 00       		.uleb128 0
 10103 0377 30370000 		.4byte	.LASF147
 10104 037b 05       		.byte	0x5
 10105 037c 00       		.uleb128 0
 10106 037d 28740000 		.4byte	.LASF148
 10107 0381 05       		.byte	0x5
 10108 0382 00       		.uleb128 0
 10109 0383 E2270000 		.4byte	.LASF149
 10110 0387 05       		.byte	0x5
 10111 0388 00       		.uleb128 0
 10112 0389 DA6D0000 		.4byte	.LASF150
 10113 038d 05       		.byte	0x5
 10114 038e 00       		.uleb128 0
 10115 038f AD750000 		.4byte	.LASF151
 10116 0393 05       		.byte	0x5
 10117 0394 00       		.uleb128 0
 10118 0395 D8070000 		.4byte	.LASF152
 10119 0399 05       		.byte	0x5
 10120 039a 00       		.uleb128 0
 10121 039b 14790000 		.4byte	.LASF153
 10122 039f 05       		.byte	0x5
 10123 03a0 00       		.uleb128 0
ARM GAS  /tmp/ccGKa4GA.s 			page 209


 10124 03a1 AF070000 		.4byte	.LASF154
 10125 03a5 05       		.byte	0x5
 10126 03a6 00       		.uleb128 0
 10127 03a7 A0510000 		.4byte	.LASF155
 10128 03ab 05       		.byte	0x5
 10129 03ac 00       		.uleb128 0
 10130 03ad 42270000 		.4byte	.LASF156
 10131 03b1 05       		.byte	0x5
 10132 03b2 00       		.uleb128 0
 10133 03b3 704A0000 		.4byte	.LASF157
 10134 03b7 05       		.byte	0x5
 10135 03b8 00       		.uleb128 0
 10136 03b9 42000000 		.4byte	.LASF158
 10137 03bd 05       		.byte	0x5
 10138 03be 00       		.uleb128 0
 10139 03bf A2420000 		.4byte	.LASF159
 10140 03c3 05       		.byte	0x5
 10141 03c4 00       		.uleb128 0
 10142 03c5 BB6B0000 		.4byte	.LASF160
 10143 03c9 05       		.byte	0x5
 10144 03ca 00       		.uleb128 0
 10145 03cb 4C3D0000 		.4byte	.LASF161
 10146 03cf 05       		.byte	0x5
 10147 03d0 00       		.uleb128 0
 10148 03d1 933F0000 		.4byte	.LASF162
 10149 03d5 05       		.byte	0x5
 10150 03d6 00       		.uleb128 0
 10151 03d7 445A0000 		.4byte	.LASF163
 10152 03db 05       		.byte	0x5
 10153 03dc 00       		.uleb128 0
 10154 03dd 0B4B0000 		.4byte	.LASF164
 10155 03e1 05       		.byte	0x5
 10156 03e2 00       		.uleb128 0
 10157 03e3 45430000 		.4byte	.LASF165
 10158 03e7 05       		.byte	0x5
 10159 03e8 00       		.uleb128 0
 10160 03e9 9F540000 		.4byte	.LASF166
 10161 03ed 05       		.byte	0x5
 10162 03ee 00       		.uleb128 0
 10163 03ef 38260000 		.4byte	.LASF167
 10164 03f3 05       		.byte	0x5
 10165 03f4 00       		.uleb128 0
 10166 03f5 C6390000 		.4byte	.LASF168
 10167 03f9 05       		.byte	0x5
 10168 03fa 00       		.uleb128 0
 10169 03fb CC050000 		.4byte	.LASF169
 10170 03ff 05       		.byte	0x5
 10171 0400 00       		.uleb128 0
 10172 0401 32120000 		.4byte	.LASF170
 10173 0405 05       		.byte	0x5
 10174 0406 00       		.uleb128 0
 10175 0407 650F0000 		.4byte	.LASF171
 10176 040b 05       		.byte	0x5
 10177 040c 00       		.uleb128 0
 10178 040d 15030000 		.4byte	.LASF172
 10179 0411 05       		.byte	0x5
 10180 0412 00       		.uleb128 0
ARM GAS  /tmp/ccGKa4GA.s 			page 210


 10181 0413 4D590000 		.4byte	.LASF173
 10182 0417 05       		.byte	0x5
 10183 0418 00       		.uleb128 0
 10184 0419 0C7F0000 		.4byte	.LASF174
 10185 041d 05       		.byte	0x5
 10186 041e 00       		.uleb128 0
 10187 041f 73060000 		.4byte	.LASF175
 10188 0423 05       		.byte	0x5
 10189 0424 00       		.uleb128 0
 10190 0425 FF6E0000 		.4byte	.LASF176
 10191 0429 05       		.byte	0x5
 10192 042a 00       		.uleb128 0
 10193 042b 651A0000 		.4byte	.LASF177
 10194 042f 05       		.byte	0x5
 10195 0430 00       		.uleb128 0
 10196 0431 8D790000 		.4byte	.LASF178
 10197 0435 05       		.byte	0x5
 10198 0436 00       		.uleb128 0
 10199 0437 F6320000 		.4byte	.LASF179
 10200 043b 05       		.byte	0x5
 10201 043c 00       		.uleb128 0
 10202 043d E9500000 		.4byte	.LASF180
 10203 0441 05       		.byte	0x5
 10204 0442 00       		.uleb128 0
 10205 0443 3B150000 		.4byte	.LASF181
 10206 0447 05       		.byte	0x5
 10207 0448 00       		.uleb128 0
 10208 0449 F21E0000 		.4byte	.LASF182
 10209 044d 05       		.byte	0x5
 10210 044e 00       		.uleb128 0
 10211 044f F56A0000 		.4byte	.LASF183
 10212 0453 05       		.byte	0x5
 10213 0454 00       		.uleb128 0
 10214 0455 1A3C0000 		.4byte	.LASF184
 10215 0459 05       		.byte	0x5
 10216 045a 00       		.uleb128 0
 10217 045b EF000000 		.4byte	.LASF185
 10218 045f 05       		.byte	0x5
 10219 0460 00       		.uleb128 0
 10220 0461 E6690000 		.4byte	.LASF186
 10221 0465 05       		.byte	0x5
 10222 0466 00       		.uleb128 0
 10223 0467 B9010000 		.4byte	.LASF187
 10224 046b 05       		.byte	0x5
 10225 046c 00       		.uleb128 0
 10226 046d C95F0000 		.4byte	.LASF188
 10227 0471 05       		.byte	0x5
 10228 0472 00       		.uleb128 0
 10229 0473 78380000 		.4byte	.LASF189
 10230 0477 05       		.byte	0x5
 10231 0478 00       		.uleb128 0
 10232 0479 157E0000 		.4byte	.LASF190
 10233 047d 05       		.byte	0x5
 10234 047e 00       		.uleb128 0
 10235 047f CC0D0000 		.4byte	.LASF191
 10236 0483 05       		.byte	0x5
 10237 0484 00       		.uleb128 0
ARM GAS  /tmp/ccGKa4GA.s 			page 211


 10238 0485 393D0000 		.4byte	.LASF192
 10239 0489 05       		.byte	0x5
 10240 048a 00       		.uleb128 0
 10241 048b 50260000 		.4byte	.LASF193
 10242 048f 05       		.byte	0x5
 10243 0490 00       		.uleb128 0
 10244 0491 D0260000 		.4byte	.LASF194
 10245 0495 05       		.byte	0x5
 10246 0496 00       		.uleb128 0
 10247 0497 A50B0000 		.4byte	.LASF195
 10248 049b 05       		.byte	0x5
 10249 049c 00       		.uleb128 0
 10250 049d 27330000 		.4byte	.LASF196
 10251 04a1 05       		.byte	0x5
 10252 04a2 00       		.uleb128 0
 10253 04a3 991C0000 		.4byte	.LASF197
 10254 04a7 05       		.byte	0x5
 10255 04a8 00       		.uleb128 0
 10256 04a9 66210000 		.4byte	.LASF198
 10257 04ad 05       		.byte	0x5
 10258 04ae 00       		.uleb128 0
 10259 04af 36050000 		.4byte	.LASF199
 10260 04b3 05       		.byte	0x5
 10261 04b4 00       		.uleb128 0
 10262 04b5 7C4B0000 		.4byte	.LASF200
 10263 04b9 05       		.byte	0x5
 10264 04ba 00       		.uleb128 0
 10265 04bb F53A0000 		.4byte	.LASF201
 10266 04bf 05       		.byte	0x5
 10267 04c0 00       		.uleb128 0
 10268 04c1 A86C0000 		.4byte	.LASF202
 10269 04c5 05       		.byte	0x5
 10270 04c6 00       		.uleb128 0
 10271 04c7 C8570000 		.4byte	.LASF203
 10272 04cb 05       		.byte	0x5
 10273 04cc 00       		.uleb128 0
 10274 04cd 4E120000 		.4byte	.LASF204
 10275 04d1 05       		.byte	0x5
 10276 04d2 00       		.uleb128 0
 10277 04d3 76470000 		.4byte	.LASF205
 10278 04d7 05       		.byte	0x5
 10279 04d8 00       		.uleb128 0
 10280 04d9 0D420000 		.4byte	.LASF206
 10281 04dd 05       		.byte	0x5
 10282 04de 00       		.uleb128 0
 10283 04df E3720000 		.4byte	.LASF207
 10284 04e3 05       		.byte	0x5
 10285 04e4 00       		.uleb128 0
 10286 04e5 12580000 		.4byte	.LASF208
 10287 04e9 05       		.byte	0x5
 10288 04ea 00       		.uleb128 0
 10289 04eb 8B030000 		.4byte	.LASF209
 10290 04ef 05       		.byte	0x5
 10291 04f0 00       		.uleb128 0
 10292 04f1 374F0000 		.4byte	.LASF210
 10293 04f5 05       		.byte	0x5
 10294 04f6 00       		.uleb128 0
ARM GAS  /tmp/ccGKa4GA.s 			page 212


 10295 04f7 27520000 		.4byte	.LASF211
 10296 04fb 05       		.byte	0x5
 10297 04fc 00       		.uleb128 0
 10298 04fd F70C0000 		.4byte	.LASF212
 10299 0501 05       		.byte	0x5
 10300 0502 00       		.uleb128 0
 10301 0503 21810000 		.4byte	.LASF213
 10302 0507 05       		.byte	0x5
 10303 0508 00       		.uleb128 0
 10304 0509 EC610000 		.4byte	.LASF214
 10305 050d 05       		.byte	0x5
 10306 050e 00       		.uleb128 0
 10307 050f A95E0000 		.4byte	.LASF215
 10308 0513 05       		.byte	0x5
 10309 0514 00       		.uleb128 0
 10310 0515 356A0000 		.4byte	.LASF216
 10311 0519 05       		.byte	0x5
 10312 051a 00       		.uleb128 0
 10313 051b 597A0000 		.4byte	.LASF217
 10314 051f 05       		.byte	0x5
 10315 0520 00       		.uleb128 0
 10316 0521 B7760000 		.4byte	.LASF218
 10317 0525 05       		.byte	0x5
 10318 0526 00       		.uleb128 0
 10319 0527 7A730000 		.4byte	.LASF219
 10320 052b 05       		.byte	0x5
 10321 052c 00       		.uleb128 0
 10322 052d D6670000 		.4byte	.LASF220
 10323 0531 05       		.byte	0x5
 10324 0532 00       		.uleb128 0
 10325 0533 38640000 		.4byte	.LASF221
 10326 0537 05       		.byte	0x5
 10327 0538 00       		.uleb128 0
 10328 0539 2F0A0000 		.4byte	.LASF222
 10329 053d 05       		.byte	0x5
 10330 053e 00       		.uleb128 0
 10331 053f 19400000 		.4byte	.LASF223
 10332 0543 05       		.byte	0x5
 10333 0544 00       		.uleb128 0
 10334 0545 0D760000 		.4byte	.LASF224
 10335 0549 05       		.byte	0x5
 10336 054a 00       		.uleb128 0
 10337 054b D4160000 		.4byte	.LASF225
 10338 054f 05       		.byte	0x5
 10339 0550 00       		.uleb128 0
 10340 0551 7F710000 		.4byte	.LASF226
 10341 0555 05       		.byte	0x5
 10342 0556 00       		.uleb128 0
 10343 0557 5A5A0000 		.4byte	.LASF227
 10344 055b 05       		.byte	0x5
 10345 055c 00       		.uleb128 0
 10346 055d AC160000 		.4byte	.LASF228
 10347 0561 05       		.byte	0x5
 10348 0562 00       		.uleb128 0
 10349 0563 875E0000 		.4byte	.LASF229
 10350 0567 05       		.byte	0x5
 10351 0568 00       		.uleb128 0
ARM GAS  /tmp/ccGKa4GA.s 			page 213


 10352 0569 2C690000 		.4byte	.LASF230
 10353 056d 05       		.byte	0x5
 10354 056e 00       		.uleb128 0
 10355 056f 89770000 		.4byte	.LASF231
 10356 0573 05       		.byte	0x5
 10357 0574 00       		.uleb128 0
 10358 0575 9D2D0000 		.4byte	.LASF232
 10359 0579 05       		.byte	0x5
 10360 057a 00       		.uleb128 0
 10361 057b 5B4C0000 		.4byte	.LASF233
 10362 057f 05       		.byte	0x5
 10363 0580 00       		.uleb128 0
 10364 0581 6B550000 		.4byte	.LASF234
 10365 0585 05       		.byte	0x5
 10366 0586 00       		.uleb128 0
 10367 0587 CB480000 		.4byte	.LASF235
 10368 058b 05       		.byte	0x5
 10369 058c 00       		.uleb128 0
 10370 058d CE150000 		.4byte	.LASF236
 10371 0591 05       		.byte	0x5
 10372 0592 00       		.uleb128 0
 10373 0593 86130000 		.4byte	.LASF237
 10374 0597 05       		.byte	0x5
 10375 0598 00       		.uleb128 0
 10376 0599 E16B0000 		.4byte	.LASF238
 10377 059d 05       		.byte	0x5
 10378 059e 00       		.uleb128 0
 10379 059f 04040000 		.4byte	.LASF239
 10380 05a3 05       		.byte	0x5
 10381 05a4 00       		.uleb128 0
 10382 05a5 91370000 		.4byte	.LASF240
 10383 05a9 05       		.byte	0x5
 10384 05aa 00       		.uleb128 0
 10385 05ab DA780000 		.4byte	.LASF241
 10386 05af 05       		.byte	0x5
 10387 05b0 00       		.uleb128 0
 10388 05b1 DC410000 		.4byte	.LASF242
 10389 05b5 05       		.byte	0x5
 10390 05b6 00       		.uleb128 0
 10391 05b7 14140000 		.4byte	.LASF243
 10392 05bb 05       		.byte	0x5
 10393 05bc 00       		.uleb128 0
 10394 05bd 582B0000 		.4byte	.LASF244
 10395 05c1 05       		.byte	0x5
 10396 05c2 00       		.uleb128 0
 10397 05c3 B73E0000 		.4byte	.LASF245
 10398 05c7 05       		.byte	0x5
 10399 05c8 00       		.uleb128 0
 10400 05c9 8C2C0000 		.4byte	.LASF246
 10401 05cd 05       		.byte	0x5
 10402 05ce 00       		.uleb128 0
 10403 05cf 612E0000 		.4byte	.LASF247
 10404 05d3 05       		.byte	0x5
 10405 05d4 00       		.uleb128 0
 10406 05d5 236B0000 		.4byte	.LASF248
 10407 05d9 05       		.byte	0x5
 10408 05da 00       		.uleb128 0
ARM GAS  /tmp/ccGKa4GA.s 			page 214


 10409 05db BF730000 		.4byte	.LASF249
 10410 05df 05       		.byte	0x5
 10411 05e0 00       		.uleb128 0
 10412 05e1 9B080000 		.4byte	.LASF250
 10413 05e5 05       		.byte	0x5
 10414 05e6 00       		.uleb128 0
 10415 05e7 39020000 		.4byte	.LASF251
 10416 05eb 05       		.byte	0x5
 10417 05ec 00       		.uleb128 0
 10418 05ed D16F0000 		.4byte	.LASF252
 10419 05f1 05       		.byte	0x5
 10420 05f2 00       		.uleb128 0
 10421 05f3 E65C0000 		.4byte	.LASF253
 10422 05f7 05       		.byte	0x5
 10423 05f8 00       		.uleb128 0
 10424 05f9 80420000 		.4byte	.LASF254
 10425 05fd 05       		.byte	0x5
 10426 05fe 00       		.uleb128 0
 10427 05ff 7F610000 		.4byte	.LASF255
 10428 0603 05       		.byte	0x5
 10429 0604 00       		.uleb128 0
 10430 0605 F5780000 		.4byte	.LASF256
 10431 0609 05       		.byte	0x5
 10432 060a 00       		.uleb128 0
 10433 060b D2650000 		.4byte	.LASF257
 10434 060f 05       		.byte	0x5
 10435 0610 00       		.uleb128 0
 10436 0611 A43A0000 		.4byte	.LASF258
 10437 0615 05       		.byte	0x5
 10438 0616 00       		.uleb128 0
 10439 0617 12020000 		.4byte	.LASF259
 10440 061b 05       		.byte	0x5
 10441 061c 00       		.uleb128 0
 10442 061d AF330000 		.4byte	.LASF260
 10443 0621 05       		.byte	0x5
 10444 0622 00       		.uleb128 0
 10445 0623 3B600000 		.4byte	.LASF261
 10446 0627 05       		.byte	0x5
 10447 0628 00       		.uleb128 0
 10448 0629 0F220000 		.4byte	.LASF262
 10449 062d 05       		.byte	0x5
 10450 062e 00       		.uleb128 0
 10451 062f 8D720000 		.4byte	.LASF263
 10452 0633 05       		.byte	0x5
 10453 0634 00       		.uleb128 0
 10454 0635 2D0F0000 		.4byte	.LASF264
 10455 0639 05       		.byte	0x5
 10456 063a 00       		.uleb128 0
 10457 063b 51050000 		.4byte	.LASF265
 10458 063f 05       		.byte	0x5
 10459 0640 00       		.uleb128 0
 10460 0641 F9290000 		.4byte	.LASF266
 10461 0645 05       		.byte	0x5
 10462 0646 00       		.uleb128 0
 10463 0647 41710000 		.4byte	.LASF267
 10464 064b 05       		.byte	0x5
 10465 064c 00       		.uleb128 0
ARM GAS  /tmp/ccGKa4GA.s 			page 215


 10466 064d 2C650000 		.4byte	.LASF268
 10467 0651 05       		.byte	0x5
 10468 0652 00       		.uleb128 0
 10469 0653 167B0000 		.4byte	.LASF269
 10470 0657 05       		.byte	0x5
 10471 0658 00       		.uleb128 0
 10472 0659 7D2D0000 		.4byte	.LASF270
 10473 065d 05       		.byte	0x5
 10474 065e 00       		.uleb128 0
 10475 065f 4E0E0000 		.4byte	.LASF271
 10476 0663 05       		.byte	0x5
 10477 0664 00       		.uleb128 0
 10478 0665 37060000 		.4byte	.LASF272
 10479 0669 05       		.byte	0x5
 10480 066a 00       		.uleb128 0
 10481 066b CA5D0000 		.4byte	.LASF273
 10482 066f 05       		.byte	0x5
 10483 0670 00       		.uleb128 0
 10484 0671 0D620000 		.4byte	.LASF274
 10485 0675 05       		.byte	0x5
 10486 0676 00       		.uleb128 0
 10487 0677 2E210000 		.4byte	.LASF275
 10488 067b 05       		.byte	0x5
 10489 067c 00       		.uleb128 0
 10490 067d 3C030000 		.4byte	.LASF276
 10491 0681 05       		.byte	0x5
 10492 0682 00       		.uleb128 0
 10493 0683 7A4E0000 		.4byte	.LASF277
 10494 0687 05       		.byte	0x5
 10495 0688 00       		.uleb128 0
 10496 0689 3B420000 		.4byte	.LASF278
 10497 068d 05       		.byte	0x5
 10498 068e 00       		.uleb128 0
 10499 068f CF0E0000 		.4byte	.LASF279
 10500 0693 05       		.byte	0x5
 10501 0694 00       		.uleb128 0
 10502 0695 5B660000 		.4byte	.LASF280
 10503 0699 05       		.byte	0x5
 10504 069a 00       		.uleb128 0
 10505 069b FC0D0000 		.4byte	.LASF281
 10506 069f 05       		.byte	0x5
 10507 06a0 00       		.uleb128 0
 10508 06a1 75570000 		.4byte	.LASF282
 10509 06a5 05       		.byte	0x5
 10510 06a6 00       		.uleb128 0
 10511 06a7 1E4A0000 		.4byte	.LASF283
 10512 06ab 05       		.byte	0x5
 10513 06ac 00       		.uleb128 0
 10514 06ad 97760000 		.4byte	.LASF284
 10515 06b1 05       		.byte	0x5
 10516 06b2 00       		.uleb128 0
 10517 06b3 B85F0000 		.4byte	.LASF285
 10518 06b7 05       		.byte	0x5
 10519 06b8 00       		.uleb128 0
 10520 06b9 1A640000 		.4byte	.LASF286
 10521 06bd 05       		.byte	0x5
 10522 06be 00       		.uleb128 0
ARM GAS  /tmp/ccGKa4GA.s 			page 216


 10523 06bf DC240000 		.4byte	.LASF287
 10524 06c3 05       		.byte	0x5
 10525 06c4 00       		.uleb128 0
 10526 06c5 5D440000 		.4byte	.LASF288
 10527 06c9 05       		.byte	0x5
 10528 06ca 00       		.uleb128 0
 10529 06cb 29640000 		.4byte	.LASF289
 10530 06cf 05       		.byte	0x5
 10531 06d0 00       		.uleb128 0
 10532 06d1 A8380000 		.4byte	.LASF290
 10533 06d5 05       		.byte	0x5
 10534 06d6 00       		.uleb128 0
 10535 06d7 21290000 		.4byte	.LASF291
 10536 06db 05       		.byte	0x5
 10537 06dc 00       		.uleb128 0
 10538 06dd D87E0000 		.4byte	.LASF292
 10539 06e1 05       		.byte	0x5
 10540 06e2 00       		.uleb128 0
 10541 06e3 232F0000 		.4byte	.LASF293
 10542 06e7 05       		.byte	0x5
 10543 06e8 00       		.uleb128 0
 10544 06e9 65010000 		.4byte	.LASF294
 10545 06ed 05       		.byte	0x5
 10546 06ee 00       		.uleb128 0
 10547 06ef FE470000 		.4byte	.LASF295
 10548 06f3 05       		.byte	0x5
 10549 06f4 00       		.uleb128 0
 10550 06f5 B5780000 		.4byte	.LASF296
 10551 06f9 05       		.byte	0x5
 10552 06fa 00       		.uleb128 0
 10553 06fb 4B510000 		.4byte	.LASF297
 10554 06ff 05       		.byte	0x5
 10555 0700 00       		.uleb128 0
 10556 0701 9D230000 		.4byte	.LASF298
 10557 0705 05       		.byte	0x5
 10558 0706 00       		.uleb128 0
 10559 0707 99150000 		.4byte	.LASF299
 10560 070b 05       		.byte	0x5
 10561 070c 00       		.uleb128 0
 10562 070d 086D0000 		.4byte	.LASF300
 10563 0711 05       		.byte	0x5
 10564 0712 00       		.uleb128 0
 10565 0713 6C0E0000 		.4byte	.LASF301
 10566 0717 05       		.byte	0x5
 10567 0718 00       		.uleb128 0
 10568 0719 7D720000 		.4byte	.LASF302
 10569 071d 05       		.byte	0x5
 10570 071e 00       		.uleb128 0
 10571 071f D1690000 		.4byte	.LASF303
 10572 0723 05       		.byte	0x5
 10573 0724 00       		.uleb128 0
 10574 0725 22340000 		.4byte	.LASF304
 10575 0729 05       		.byte	0x5
 10576 072a 00       		.uleb128 0
 10577 072b 7D440000 		.4byte	.LASF305
 10578 072f 05       		.byte	0x5
 10579 0730 00       		.uleb128 0
ARM GAS  /tmp/ccGKa4GA.s 			page 217


 10580 0731 98660000 		.4byte	.LASF306
 10581 0735 05       		.byte	0x5
 10582 0736 00       		.uleb128 0
 10583 0737 3A160000 		.4byte	.LASF307
 10584 073b 05       		.byte	0x5
 10585 073c 00       		.uleb128 0
 10586 073d DA510000 		.4byte	.LASF308
 10587 0741 05       		.byte	0x5
 10588 0742 00       		.uleb128 0
 10589 0743 913D0000 		.4byte	.LASF309
 10590 0747 05       		.byte	0x5
 10591 0748 00       		.uleb128 0
 10592 0749 2B590000 		.4byte	.LASF310
 10593 074d 05       		.byte	0x5
 10594 074e 00       		.uleb128 0
 10595 074f 44010000 		.4byte	.LASF311
 10596 0753 05       		.byte	0x5
 10597 0754 00       		.uleb128 0
 10598 0755 F32C0000 		.4byte	.LASF312
 10599 0759 05       		.byte	0x5
 10600 075a 00       		.uleb128 0
 10601 075b 75660000 		.4byte	.LASF313
 10602 075f 05       		.byte	0x5
 10603 0760 00       		.uleb128 0
 10604 0761 62420000 		.4byte	.LASF314
 10605 0765 05       		.byte	0x5
 10606 0766 00       		.uleb128 0
 10607 0767 75250000 		.4byte	.LASF315
 10608 076b 05       		.byte	0x5
 10609 076c 00       		.uleb128 0
 10610 076d B02D0000 		.4byte	.LASF316
 10611 0771 05       		.byte	0x5
 10612 0772 00       		.uleb128 0
 10613 0773 B2580000 		.4byte	.LASF317
 10614 0777 05       		.byte	0x5
 10615 0778 00       		.uleb128 0
 10616 0779 48380000 		.4byte	.LASF318
 10617 077d 05       		.byte	0x5
 10618 077e 00       		.uleb128 0
 10619 077f 4D230000 		.4byte	.LASF319
 10620 0783 05       		.byte	0x5
 10621 0784 00       		.uleb128 0
 10622 0785 54460000 		.4byte	.LASF320
 10623 0789 05       		.byte	0x5
 10624 078a 00       		.uleb128 0
 10625 078b 2B730000 		.4byte	.LASF321
 10626 078f 05       		.byte	0x5
 10627 0790 00       		.uleb128 0
 10628 0791 574F0000 		.4byte	.LASF322
 10629 0795 06       		.byte	0x6
 10630 0796 00       		.uleb128 0
 10631 0797 6B440000 		.4byte	.LASF323
 10632 079b 06       		.byte	0x6
 10633 079c 00       		.uleb128 0
 10634 079d 25040000 		.4byte	.LASF324
 10635 07a1 06       		.byte	0x6
 10636 07a2 00       		.uleb128 0
ARM GAS  /tmp/ccGKa4GA.s 			page 218


 10637 07a3 D97B0000 		.4byte	.LASF325
 10638 07a7 06       		.byte	0x6
 10639 07a8 00       		.uleb128 0
 10640 07a9 185B0000 		.4byte	.LASF326
 10641 07ad 06       		.byte	0x6
 10642 07ae 00       		.uleb128 0
 10643 07af F03B0000 		.4byte	.LASF327
 10644 07b3 06       		.byte	0x6
 10645 07b4 00       		.uleb128 0
 10646 07b5 A7560000 		.4byte	.LASF328
 10647 07b9 06       		.byte	0x6
 10648 07ba 00       		.uleb128 0
 10649 07bb D4490000 		.4byte	.LASF329
 10650 07bf 06       		.byte	0x6
 10651 07c0 00       		.uleb128 0
 10652 07c1 344E0000 		.4byte	.LASF330
 10653 07c5 06       		.byte	0x6
 10654 07c6 00       		.uleb128 0
 10655 07c7 C00B0000 		.4byte	.LASF331
 10656 07cb 06       		.byte	0x6
 10657 07cc 00       		.uleb128 0
 10658 07cd CD550000 		.4byte	.LASF332
 10659 07d1 05       		.byte	0x5
 10660 07d2 00       		.uleb128 0
 10661 07d3 16080000 		.4byte	.LASF333
 10662 07d7 05       		.byte	0x5
 10663 07d8 00       		.uleb128 0
 10664 07d9 42360000 		.4byte	.LASF334
 10665 07dd 05       		.byte	0x5
 10666 07de 00       		.uleb128 0
 10667 07df F9060000 		.4byte	.LASF335
 10668 07e3 05       		.byte	0x5
 10669 07e4 00       		.uleb128 0
 10670 07e5 C3520000 		.4byte	.LASF336
 10671 07e9 05       		.byte	0x5
 10672 07ea 00       		.uleb128 0
 10673 07eb 53610000 		.4byte	.LASF337
 10674 07ef 05       		.byte	0x5
 10675 07f0 00       		.uleb128 0
 10676 07f1 6D5D0000 		.4byte	.LASF338
 10677 07f5 05       		.byte	0x5
 10678 07f6 00       		.uleb128 0
 10679 07f7 AD7A0000 		.4byte	.LASF339
 10680 07fb 06       		.byte	0x6
 10681 07fc 00       		.uleb128 0
 10682 07fd 1B4E0000 		.4byte	.LASF340
 10683 0801 05       		.byte	0x5
 10684 0802 00       		.uleb128 0
 10685 0803 0E650000 		.4byte	.LASF341
 10686 0807 05       		.byte	0x5
 10687 0808 00       		.uleb128 0
 10688 0809 EA560000 		.4byte	.LASF342
 10689 080d 05       		.byte	0x5
 10690 080e 00       		.uleb128 0
 10691 080f ED7A0000 		.4byte	.LASF343
 10692 0813 05       		.byte	0x5
 10693 0814 00       		.uleb128 0
ARM GAS  /tmp/ccGKa4GA.s 			page 219


 10694 0815 8D390000 		.4byte	.LASF344
 10695 0819 05       		.byte	0x5
 10696 081a 00       		.uleb128 0
 10697 081b A92C0000 		.4byte	.LASF345
 10698 081f 06       		.byte	0x6
 10699 0820 00       		.uleb128 0
 10700 0821 54440000 		.4byte	.LASF346
 10701 0825 06       		.byte	0x6
 10702 0826 00       		.uleb128 0
 10703 0827 DA570000 		.4byte	.LASF347
 10704 082b 06       		.byte	0x6
 10705 082c 00       		.uleb128 0
 10706 082d 81160000 		.4byte	.LASF348
 10707 0831 06       		.byte	0x6
 10708 0832 00       		.uleb128 0
 10709 0833 F1260000 		.4byte	.LASF349
 10710 0837 06       		.byte	0x6
 10711 0838 00       		.uleb128 0
 10712 0839 9E480000 		.4byte	.LASF350
 10713 083d 05       		.byte	0x5
 10714 083e 00       		.uleb128 0
 10715 083f BE160000 		.4byte	.LASF351
 10716 0843 05       		.byte	0x5
 10717 0844 00       		.uleb128 0
 10718 0845 6E6A0000 		.4byte	.LASF352
 10719 0849 05       		.byte	0x5
 10720 084a 00       		.uleb128 0
 10721 084b C12F0000 		.4byte	.LASF353
 10722 084f 05       		.byte	0x5
 10723 0850 00       		.uleb128 0
 10724 0851 97640000 		.4byte	.LASF354
 10725 0855 06       		.byte	0x6
 10726 0856 00       		.uleb128 0
 10727 0857 BD1F0000 		.4byte	.LASF355
 10728 085b 06       		.byte	0x6
 10729 085c 00       		.uleb128 0
 10730 085d 84350000 		.4byte	.LASF356
 10731 0861 06       		.byte	0x6
 10732 0862 00       		.uleb128 0
 10733 0863 5A7E0000 		.4byte	.LASF357
 10734 0867 05       		.byte	0x5
 10735 0868 00       		.uleb128 0
 10736 0869 893B0000 		.4byte	.LASF358
 10737 086d 05       		.byte	0x5
 10738 086e 00       		.uleb128 0
 10739 086f E5640000 		.4byte	.LASF359
 10740 0873 05       		.byte	0x5
 10741 0874 00       		.uleb128 0
 10742 0875 BC210000 		.4byte	.LASF360
 10743 0879 05       		.byte	0x5
 10744 087a 00       		.uleb128 0
 10745 087b 58750000 		.4byte	.LASF361
 10746 087f 00       		.byte	0
 10747              		.section	.debug_macro,"G",%progbits,wm4._newlib_version.h.4.ad342815780c8db09778091a421b5b5b,comda
 10748              	.Ldebug_macro2:
 10749 0000 0400     		.2byte	0x4
 10750 0002 00       		.byte	0
ARM GAS  /tmp/ccGKa4GA.s 			page 220


 10751 0003 05       		.byte	0x5
 10752 0004 04       		.uleb128 0x4
 10753 0005 C4780000 		.4byte	.LASF367
 10754 0009 05       		.byte	0x5
 10755 000a 06       		.uleb128 0x6
 10756 000b 4A420000 		.4byte	.LASF368
 10757 000f 05       		.byte	0x5
 10758 0010 07       		.uleb128 0x7
 10759 0011 5B6D0000 		.4byte	.LASF369
 10760 0015 05       		.byte	0x5
 10761 0016 08       		.uleb128 0x8
 10762 0017 BA3B0000 		.4byte	.LASF370
 10763 001b 05       		.byte	0x5
 10764 001c 09       		.uleb128 0x9
 10765 001d 295C0000 		.4byte	.LASF371
 10766 0021 00       		.byte	0
 10767              		.section	.debug_macro,"G",%progbits,wm4.features.h.33.863f3be0b2e521e624fcc7d6fa31d2ca,comdat
 10768              	.Ldebug_macro3:
 10769 0000 0400     		.2byte	0x4
 10770 0002 00       		.byte	0
 10771 0003 05       		.byte	0x5
 10772 0004 21       		.uleb128 0x21
 10773 0005 98130000 		.4byte	.LASF372
 10774 0009 05       		.byte	0x5
 10775 000a 28       		.uleb128 0x28
 10776 000b 15720000 		.4byte	.LASF373
 10777 000f 06       		.byte	0x6
 10778 0010 8001     		.uleb128 0x80
 10779 0012 9D750000 		.4byte	.LASF374
 10780 0016 05       		.byte	0x5
 10781 0017 8101     		.uleb128 0x81
 10782 0019 083C0000 		.4byte	.LASF375
 10783 001d 06       		.byte	0x6
 10784 001e 8501     		.uleb128 0x85
 10785 0020 264E0000 		.4byte	.LASF376
 10786 0024 05       		.byte	0x5
 10787 0025 8601     		.uleb128 0x86
 10788 0027 32000000 		.4byte	.LASF377
 10789 002b 06       		.byte	0x6
 10790 002c 8701     		.uleb128 0x87
 10791 002e C6800000 		.4byte	.LASF378
 10792 0032 05       		.byte	0x5
 10793 0033 8801     		.uleb128 0x88
 10794 0035 DD170000 		.4byte	.LASF379
 10795 0039 06       		.byte	0x6
 10796 003a 9B01     		.uleb128 0x9b
 10797 003c FC340000 		.4byte	.LASF380
 10798 0040 05       		.byte	0x5
 10799 0041 9C01     		.uleb128 0x9c
 10800 0043 35480000 		.4byte	.LASF381
 10801 0047 05       		.byte	0x5
 10802 0048 F201     		.uleb128 0xf2
 10803 004a F8510000 		.4byte	.LASF382
 10804 004e 05       		.byte	0x5
 10805 004f F801     		.uleb128 0xf8
 10806 0051 8D460000 		.4byte	.LASF383
 10807 0055 05       		.byte	0x5
ARM GAS  /tmp/ccGKa4GA.s 			page 221


 10808 0056 8002     		.uleb128 0x100
 10809 0058 AA5D0000 		.4byte	.LASF384
 10810 005c 05       		.byte	0x5
 10811 005d 8802     		.uleb128 0x108
 10812 005f 271B0000 		.4byte	.LASF385
 10813 0063 05       		.byte	0x5
 10814 0064 9002     		.uleb128 0x110
 10815 0066 4F1A0000 		.4byte	.LASF386
 10816 006a 05       		.byte	0x5
 10817 006b 9402     		.uleb128 0x114
 10818 006d F3590000 		.4byte	.LASF387
 10819 0071 05       		.byte	0x5
 10820 0072 9A02     		.uleb128 0x11a
 10821 0074 654B0000 		.4byte	.LASF388
 10822 0078 05       		.byte	0x5
 10823 0079 AA02     		.uleb128 0x12a
 10824 007b 7B000000 		.4byte	.LASF389
 10825 007f 05       		.byte	0x5
 10826 0080 BA02     		.uleb128 0x13a
 10827 0082 C8070000 		.4byte	.LASF390
 10828 0086 00       		.byte	0
 10829              		.section	.debug_macro,"G",%progbits,wm4._default_types.h.15.247e5cd201eca3442cbf5404108c4935,comda
 10830              	.Ldebug_macro4:
 10831 0000 0400     		.2byte	0x4
 10832 0002 00       		.byte	0
 10833 0003 05       		.byte	0x5
 10834 0004 0F       		.uleb128 0xf
 10835 0005 62480000 		.4byte	.LASF391
 10836 0009 05       		.byte	0x5
 10837 000a 1A       		.uleb128 0x1a
 10838 000b 8F600000 		.4byte	.LASF392
 10839 000f 05       		.byte	0x5
 10840 0010 21       		.uleb128 0x21
 10841 0011 986F0000 		.4byte	.LASF393
 10842 0015 05       		.byte	0x5
 10843 0016 2F       		.uleb128 0x2f
 10844 0017 64380000 		.4byte	.LASF394
 10845 001b 05       		.byte	0x5
 10846 001c 3D       		.uleb128 0x3d
 10847 001d 2D270000 		.4byte	.LASF395
 10848 0021 05       		.byte	0x5
 10849 0022 53       		.uleb128 0x53
 10850 0023 7F1E0000 		.4byte	.LASF396
 10851 0027 05       		.byte	0x5
 10852 0028 6D       		.uleb128 0x6d
 10853 0029 2F5A0000 		.4byte	.LASF397
 10854 002d 05       		.byte	0x5
 10855 002e 8C01     		.uleb128 0x8c
 10856 0030 894F0000 		.4byte	.LASF398
 10857 0034 05       		.byte	0x5
 10858 0035 A601     		.uleb128 0xa6
 10859 0037 ED140000 		.4byte	.LASF399
 10860 003b 05       		.byte	0x5
 10861 003c BC01     		.uleb128 0xbc
 10862 003e 58180000 		.4byte	.LASF400
 10863 0042 05       		.byte	0x5
 10864 0043 CE01     		.uleb128 0xce
ARM GAS  /tmp/ccGKa4GA.s 			page 222


 10865 0045 D6770000 		.4byte	.LASF401
 10866 0049 06       		.byte	0x6
 10867 004a F401     		.uleb128 0xf4
 10868 004c 0E5A0000 		.4byte	.LASF402
 10869 0050 00       		.byte	0
 10870              		.section	.debug_macro,"G",%progbits,wm4._intsup.h.10.cce27fed8484c08a33f522034c30d2b5,comdat
 10871              	.Ldebug_macro5:
 10872 0000 0400     		.2byte	0x4
 10873 0002 00       		.byte	0
 10874 0003 05       		.byte	0x5
 10875 0004 0A       		.uleb128 0xa
 10876 0005 55770000 		.4byte	.LASF403
 10877 0009 05       		.byte	0x5
 10878 000a 10       		.uleb128 0x10
 10879 000b 46480000 		.4byte	.LASF404
 10880 000f 06       		.byte	0x6
 10881 0010 2A       		.uleb128 0x2a
 10882 0011 D9380000 		.4byte	.LASF405
 10883 0015 06       		.byte	0x6
 10884 0016 2B       		.uleb128 0x2b
 10885 0017 5A080000 		.4byte	.LASF406
 10886 001b 06       		.byte	0x6
 10887 001c 2C       		.uleb128 0x2c
 10888 001d 98230000 		.4byte	.LASF407
 10889 0021 06       		.byte	0x6
 10890 0022 2D       		.uleb128 0x2d
 10891 0023 92660000 		.4byte	.LASF408
 10892 0027 02       		.byte	0x2
 10893 0028 2E       		.uleb128 0x2e
 10894 0029 696E7400 		.ascii	"int\000"
 10895 002d 06       		.byte	0x6
 10896 002e 2F       		.uleb128 0x2f
 10897 002f 5D800000 		.4byte	.LASF409
 10898 0033 06       		.byte	0x6
 10899 0034 30       		.uleb128 0x30
 10900 0035 65570000 		.4byte	.LASF410
 10901 0039 05       		.byte	0x5
 10902 003a 31       		.uleb128 0x31
 10903 003b 040B0000 		.4byte	.LASF411
 10904 003f 05       		.byte	0x5
 10905 0040 32       		.uleb128 0x32
 10906 0041 E93D0000 		.4byte	.LASF412
 10907 0045 05       		.byte	0x5
 10908 0046 33       		.uleb128 0x33
 10909 0047 2F4F0000 		.4byte	.LASF413
 10910 004b 05       		.byte	0x5
 10911 004c 34       		.uleb128 0x34
 10912 004d A2590000 		.4byte	.LASF414
 10913 0051 05       		.byte	0x5
 10914 0052 35       		.uleb128 0x35
 10915 0053 3D3F0000 		.4byte	.LASF415
 10916 0057 05       		.byte	0x5
 10917 0058 36       		.uleb128 0x36
 10918 0059 493A0000 		.4byte	.LASF416
 10919 005d 05       		.byte	0x5
 10920 005e 37       		.uleb128 0x37
 10921 005f 007D0000 		.4byte	.LASF417
ARM GAS  /tmp/ccGKa4GA.s 			page 223


 10922 0063 05       		.byte	0x5
 10923 0064 40       		.uleb128 0x40
 10924 0065 32360000 		.4byte	.LASF418
 10925 0069 05       		.byte	0x5
 10926 006a 47       		.uleb128 0x47
 10927 006b 6D7B0000 		.4byte	.LASF419
 10928 006f 05       		.byte	0x5
 10929 0070 4F       		.uleb128 0x4f
 10930 0071 60610000 		.4byte	.LASF420
 10931 0075 05       		.byte	0x5
 10932 0076 5A       		.uleb128 0x5a
 10933 0077 0F4E0000 		.4byte	.LASF421
 10934 007b 05       		.byte	0x5
 10935 007c 65       		.uleb128 0x65
 10936 007d A5740000 		.4byte	.LASF422
 10937 0081 05       		.byte	0x5
 10938 0082 6E       		.uleb128 0x6e
 10939 0083 C4100000 		.4byte	.LASF423
 10940 0087 05       		.byte	0x5
 10941 0088 75       		.uleb128 0x75
 10942 0089 FE700000 		.4byte	.LASF424
 10943 008d 05       		.byte	0x5
 10944 008e 7E       		.uleb128 0x7e
 10945 008f ED190000 		.4byte	.LASF425
 10946 0093 05       		.byte	0x5
 10947 0094 8501     		.uleb128 0x85
 10948 0096 333F0000 		.4byte	.LASF426
 10949 009a 05       		.byte	0x5
 10950 009b 9001     		.uleb128 0x90
 10951 009d C83D0000 		.4byte	.LASF427
 10952 00a1 05       		.byte	0x5
 10953 00a2 9401     		.uleb128 0x94
 10954 00a4 D1290000 		.4byte	.LASF428
 10955 00a8 05       		.byte	0x5
 10956 00a9 9F01     		.uleb128 0x9f
 10957 00ab C0790000 		.4byte	.LASF429
 10958 00af 05       		.byte	0x5
 10959 00b0 AA01     		.uleb128 0xaa
 10960 00b2 B6100000 		.4byte	.LASF430
 10961 00b6 05       		.byte	0x5
 10962 00b7 B301     		.uleb128 0xb3
 10963 00b9 F3550000 		.4byte	.LASF431
 10964 00bd 06       		.byte	0x6
 10965 00be B501     		.uleb128 0xb5
 10966 00c0 D9380000 		.4byte	.LASF405
 10967 00c4 06       		.byte	0x6
 10968 00c5 B601     		.uleb128 0xb6
 10969 00c7 5A080000 		.4byte	.LASF406
 10970 00cb 06       		.byte	0x6
 10971 00cc B701     		.uleb128 0xb7
 10972 00ce 98230000 		.4byte	.LASF407
 10973 00d2 06       		.byte	0x6
 10974 00d3 B801     		.uleb128 0xb8
 10975 00d5 92660000 		.4byte	.LASF408
 10976 00d9 02       		.byte	0x2
 10977 00da B901     		.uleb128 0xb9
 10978 00dc 696E7400 		.ascii	"int\000"
ARM GAS  /tmp/ccGKa4GA.s 			page 224


 10979 00e0 06       		.byte	0x6
 10980 00e1 BA01     		.uleb128 0xba
 10981 00e3 65570000 		.4byte	.LASF410
 10982 00e7 06       		.byte	0x6
 10983 00e8 BF01     		.uleb128 0xbf
 10984 00ea 5D800000 		.4byte	.LASF409
 10985 00ee 00       		.byte	0
 10986              		.section	.debug_macro,"G",%progbits,wm4._stdint.h.10.c24fa3af3bc1706662bb5593a907e841,comdat
 10987              	.Ldebug_macro6:
 10988 0000 0400     		.2byte	0x4
 10989 0002 00       		.byte	0
 10990 0003 05       		.byte	0x5
 10991 0004 0A       		.uleb128 0xa
 10992 0005 C2650000 		.4byte	.LASF432
 10993 0009 05       		.byte	0x5
 10994 000a 15       		.uleb128 0x15
 10995 000b 69740000 		.4byte	.LASF433
 10996 000f 05       		.byte	0x5
 10997 0010 19       		.uleb128 0x19
 10998 0011 951B0000 		.4byte	.LASF434
 10999 0015 05       		.byte	0x5
 11000 0016 1B       		.uleb128 0x1b
 11001 0017 B3270000 		.4byte	.LASF435
 11002 001b 05       		.byte	0x5
 11003 001c 21       		.uleb128 0x21
 11004 001d CF310000 		.4byte	.LASF436
 11005 0021 05       		.byte	0x5
 11006 0022 25       		.uleb128 0x25
 11007 0023 980E0000 		.4byte	.LASF437
 11008 0027 05       		.byte	0x5
 11009 0028 27       		.uleb128 0x27
 11010 0029 05400000 		.4byte	.LASF438
 11011 002d 05       		.byte	0x5
 11012 002e 2D       		.uleb128 0x2d
 11013 002f D73E0000 		.4byte	.LASF439
 11014 0033 05       		.byte	0x5
 11015 0034 31       		.uleb128 0x31
 11016 0035 DD020000 		.4byte	.LASF440
 11017 0039 05       		.byte	0x5
 11018 003a 33       		.uleb128 0x33
 11019 003b 9A390000 		.4byte	.LASF441
 11020 003f 05       		.byte	0x5
 11021 0040 39       		.uleb128 0x39
 11022 0041 FE620000 		.4byte	.LASF442
 11023 0045 05       		.byte	0x5
 11024 0046 3D       		.uleb128 0x3d
 11025 0047 6C170000 		.4byte	.LASF443
 11026 004b 05       		.byte	0x5
 11027 004c 3F       		.uleb128 0x3f
 11028 004d 7D700000 		.4byte	.LASF444
 11029 0051 05       		.byte	0x5
 11030 0052 44       		.uleb128 0x44
 11031 0053 C62B0000 		.4byte	.LASF445
 11032 0057 05       		.byte	0x5
 11033 0058 49       		.uleb128 0x49
 11034 0059 565E0000 		.4byte	.LASF446
 11035 005d 05       		.byte	0x5
ARM GAS  /tmp/ccGKa4GA.s 			page 225


 11036 005e 4E       		.uleb128 0x4e
 11037 005f A8120000 		.4byte	.LASF447
 11038 0063 05       		.byte	0x5
 11039 0064 53       		.uleb128 0x53
 11040 0065 3E610000 		.4byte	.LASF448
 11041 0069 00       		.byte	0
 11042              		.section	.debug_macro,"G",%progbits,wm4.stdint.h.23.d53047a68f4a85177f80b422d52785ed,comdat
 11043              	.Ldebug_macro7:
 11044 0000 0400     		.2byte	0x4
 11045 0002 00       		.byte	0
 11046 0003 05       		.byte	0x5
 11047 0004 17       		.uleb128 0x17
 11048 0005 C97C0000 		.4byte	.LASF449
 11049 0009 05       		.byte	0x5
 11050 000a 1D       		.uleb128 0x1d
 11051 000b 722C0000 		.4byte	.LASF450
 11052 000f 05       		.byte	0x5
 11053 0010 23       		.uleb128 0x23
 11054 0011 08340000 		.4byte	.LASF451
 11055 0015 05       		.byte	0x5
 11056 0016 29       		.uleb128 0x29
 11057 0017 61320000 		.4byte	.LASF452
 11058 001b 05       		.byte	0x5
 11059 001c 35       		.uleb128 0x35
 11060 001d 4F500000 		.4byte	.LASF453
 11061 0021 05       		.byte	0x5
 11062 0022 3F       		.uleb128 0x3f
 11063 0023 3E4A0000 		.4byte	.LASF454
 11064 0027 05       		.byte	0x5
 11065 0028 49       		.uleb128 0x49
 11066 0029 5E0D0000 		.4byte	.LASF455
 11067 002d 05       		.byte	0x5
 11068 002e 53       		.uleb128 0x53
 11069 002f 83210000 		.4byte	.LASF456
 11070 0033 05       		.byte	0x5
 11071 0034 8001     		.uleb128 0x80
 11072 0036 6C2F0000 		.4byte	.LASF457
 11073 003a 05       		.byte	0x5
 11074 003b 8101     		.uleb128 0x81
 11075 003d 00510000 		.4byte	.LASF458
 11076 0041 05       		.byte	0x5
 11077 0042 8201     		.uleb128 0x82
 11078 0044 8E160000 		.4byte	.LASF459
 11079 0048 05       		.byte	0x5
 11080 0049 9801     		.uleb128 0x98
 11081 004b 0B350000 		.4byte	.LASF460
 11082 004f 05       		.byte	0x5
 11083 0050 9901     		.uleb128 0x99
 11084 0052 C80A0000 		.4byte	.LASF461
 11085 0056 05       		.byte	0x5
 11086 0057 9A01     		.uleb128 0x9a
 11087 0059 7E7C0000 		.4byte	.LASF462
 11088 005d 05       		.byte	0x5
 11089 005e A201     		.uleb128 0xa2
 11090 0060 A86F0000 		.4byte	.LASF463
 11091 0064 05       		.byte	0x5
 11092 0065 A301     		.uleb128 0xa3
ARM GAS  /tmp/ccGKa4GA.s 			page 226


 11093 0067 C50F0000 		.4byte	.LASF464
 11094 006b 05       		.byte	0x5
 11095 006c A401     		.uleb128 0xa4
 11096 006e FC650000 		.4byte	.LASF465
 11097 0072 05       		.byte	0x5
 11098 0073 AE01     		.uleb128 0xae
 11099 0075 CB530000 		.4byte	.LASF466
 11100 0079 05       		.byte	0x5
 11101 007a AF01     		.uleb128 0xaf
 11102 007c C00C0000 		.4byte	.LASF467
 11103 0080 05       		.byte	0x5
 11104 0081 B001     		.uleb128 0xb0
 11105 0083 59360000 		.4byte	.LASF468
 11106 0087 05       		.byte	0x5
 11107 0088 B801     		.uleb128 0xb8
 11108 008a 9D460000 		.4byte	.LASF469
 11109 008e 05       		.byte	0x5
 11110 008f B901     		.uleb128 0xb9
 11111 0091 DF090000 		.4byte	.LASF470
 11112 0095 05       		.byte	0x5
 11113 0096 BA01     		.uleb128 0xba
 11114 0098 AD2A0000 		.4byte	.LASF471
 11115 009c 05       		.byte	0x5
 11116 009d C401     		.uleb128 0xc4
 11117 009f EF640000 		.4byte	.LASF472
 11118 00a3 05       		.byte	0x5
 11119 00a4 C501     		.uleb128 0xc5
 11120 00a6 B0280000 		.4byte	.LASF473
 11121 00aa 05       		.byte	0x5
 11122 00ab C601     		.uleb128 0xc6
 11123 00ad 11430000 		.4byte	.LASF474
 11124 00b1 05       		.byte	0x5
 11125 00b2 D401     		.uleb128 0xd4
 11126 00b4 3F6B0000 		.4byte	.LASF475
 11127 00b8 05       		.byte	0x5
 11128 00b9 D501     		.uleb128 0xd5
 11129 00bb B62C0000 		.4byte	.LASF476
 11130 00bf 05       		.byte	0x5
 11131 00c0 D601     		.uleb128 0xd6
 11132 00c2 40680000 		.4byte	.LASF477
 11133 00c6 05       		.byte	0x5
 11134 00c7 E601     		.uleb128 0xe6
 11135 00c9 686D0000 		.4byte	.LASF478
 11136 00cd 05       		.byte	0x5
 11137 00ce E701     		.uleb128 0xe7
 11138 00d0 C44A0000 		.4byte	.LASF479
 11139 00d4 05       		.byte	0x5
 11140 00d5 E801     		.uleb128 0xe8
 11141 00d7 276E0000 		.4byte	.LASF480
 11142 00db 05       		.byte	0x5
 11143 00dc F601     		.uleb128 0xf6
 11144 00de 68110000 		.4byte	.LASF481
 11145 00e2 05       		.byte	0x5
 11146 00e3 F701     		.uleb128 0xf7
 11147 00e5 DF0E0000 		.4byte	.LASF482
 11148 00e9 05       		.byte	0x5
 11149 00ea F801     		.uleb128 0xf8
ARM GAS  /tmp/ccGKa4GA.s 			page 227


 11150 00ec BE5C0000 		.4byte	.LASF483
 11151 00f0 05       		.byte	0x5
 11152 00f1 8602     		.uleb128 0x106
 11153 00f3 9E4C0000 		.4byte	.LASF484
 11154 00f7 05       		.byte	0x5
 11155 00f8 8702     		.uleb128 0x107
 11156 00fa AF200000 		.4byte	.LASF485
 11157 00fe 05       		.byte	0x5
 11158 00ff 8802     		.uleb128 0x108
 11159 0101 0E5D0000 		.4byte	.LASF486
 11160 0105 05       		.byte	0x5
 11161 0106 9602     		.uleb128 0x116
 11162 0108 ED070000 		.4byte	.LASF487
 11163 010c 05       		.byte	0x5
 11164 010d 9702     		.uleb128 0x117
 11165 010f 680A0000 		.4byte	.LASF488
 11166 0113 05       		.byte	0x5
 11167 0114 9802     		.uleb128 0x118
 11168 0116 B0670000 		.4byte	.LASF489
 11169 011a 05       		.byte	0x5
 11170 011b A602     		.uleb128 0x126
 11171 011d DB120000 		.4byte	.LASF490
 11172 0121 05       		.byte	0x5
 11173 0122 A702     		.uleb128 0x127
 11174 0124 7B800000 		.4byte	.LASF491
 11175 0128 05       		.byte	0x5
 11176 0129 A802     		.uleb128 0x128
 11177 012b D8250000 		.4byte	.LASF492
 11178 012f 05       		.byte	0x5
 11179 0130 B602     		.uleb128 0x136
 11180 0132 B4540000 		.4byte	.LASF493
 11181 0136 05       		.byte	0x5
 11182 0137 B702     		.uleb128 0x137
 11183 0139 F1770000 		.4byte	.LASF494
 11184 013d 05       		.byte	0x5
 11185 013e B802     		.uleb128 0x138
 11186 0140 2E440000 		.4byte	.LASF495
 11187 0144 05       		.byte	0x5
 11188 0145 C602     		.uleb128 0x146
 11189 0147 94280000 		.4byte	.LASF496
 11190 014b 05       		.byte	0x5
 11191 014c C702     		.uleb128 0x147
 11192 014e D74F0000 		.4byte	.LASF497
 11193 0152 05       		.byte	0x5
 11194 0153 CF02     		.uleb128 0x14f
 11195 0155 6A3E0000 		.4byte	.LASF498
 11196 0159 05       		.byte	0x5
 11197 015a D702     		.uleb128 0x157
 11198 015c AE390000 		.4byte	.LASF499
 11199 0160 05       		.byte	0x5
 11200 0161 DD02     		.uleb128 0x15d
 11201 0163 72310000 		.4byte	.LASF500
 11202 0167 05       		.byte	0x5
 11203 0168 DE02     		.uleb128 0x15e
 11204 016a 94250000 		.4byte	.LASF501
 11205 016e 05       		.byte	0x5
 11206 016f E202     		.uleb128 0x162
ARM GAS  /tmp/ccGKa4GA.s 			page 228


 11207 0171 0E0B0000 		.4byte	.LASF502
 11208 0175 05       		.byte	0x5
 11209 0176 E602     		.uleb128 0x166
 11210 0178 C7230000 		.4byte	.LASF503
 11211 017c 05       		.byte	0x5
 11212 017d EB02     		.uleb128 0x16b
 11213 017f 6E1C0000 		.4byte	.LASF504
 11214 0183 05       		.byte	0x5
 11215 0184 F602     		.uleb128 0x176
 11216 0186 7E0F0000 		.4byte	.LASF505
 11217 018a 05       		.byte	0x5
 11218 018b 8003     		.uleb128 0x180
 11219 018d BB430000 		.4byte	.LASF506
 11220 0191 05       		.byte	0x5
 11221 0192 8503     		.uleb128 0x185
 11222 0194 1A000000 		.4byte	.LASF507
 11223 0198 05       		.byte	0x5
 11224 0199 8C03     		.uleb128 0x18c
 11225 019b 6D3A0000 		.4byte	.LASF508
 11226 019f 05       		.byte	0x5
 11227 01a0 8D03     		.uleb128 0x18d
 11228 01a2 E76E0000 		.4byte	.LASF509
 11229 01a6 05       		.byte	0x5
 11230 01a7 9803     		.uleb128 0x198
 11231 01a9 566C0000 		.4byte	.LASF510
 11232 01ad 05       		.byte	0x5
 11233 01ae 9903     		.uleb128 0x199
 11234 01b0 CA760000 		.4byte	.LASF511
 11235 01b4 05       		.byte	0x5
 11236 01b5 A403     		.uleb128 0x1a4
 11237 01b7 98670000 		.4byte	.LASF512
 11238 01bb 05       		.byte	0x5
 11239 01bc A503     		.uleb128 0x1a5
 11240 01be D04B0000 		.4byte	.LASF513
 11241 01c2 05       		.byte	0x5
 11242 01c3 B103     		.uleb128 0x1b1
 11243 01c5 E4340000 		.4byte	.LASF514
 11244 01c9 05       		.byte	0x5
 11245 01ca B203     		.uleb128 0x1b2
 11246 01cc 63700000 		.4byte	.LASF515
 11247 01d0 05       		.byte	0x5
 11248 01d1 C103     		.uleb128 0x1c1
 11249 01d3 AD230000 		.4byte	.LASF516
 11250 01d7 05       		.byte	0x5
 11251 01d8 C203     		.uleb128 0x1c2
 11252 01da D7590000 		.4byte	.LASF517
 11253 01de 00       		.byte	0
 11254              		.section	.debug_macro,"G",%progbits,wm4.stdbool.h.29.07dce69c3b78884144b7f7bd19483461,comdat
 11255              	.Ldebug_macro8:
 11256 0000 0400     		.2byte	0x4
 11257 0002 00       		.byte	0
 11258 0003 05       		.byte	0x5
 11259 0004 1D       		.uleb128 0x1d
 11260 0005 EF1D0000 		.4byte	.LASF519
 11261 0009 05       		.byte	0x5
 11262 000a 21       		.uleb128 0x21
 11263 000b CD2F0000 		.4byte	.LASF520
ARM GAS  /tmp/ccGKa4GA.s 			page 229


 11264 000f 05       		.byte	0x5
 11265 0010 22       		.uleb128 0x22
 11266 0011 34510000 		.4byte	.LASF521
 11267 0015 05       		.byte	0x5
 11268 0016 23       		.uleb128 0x23
 11269 0017 122D0000 		.4byte	.LASF522
 11270 001b 05       		.byte	0x5
 11271 001c 34       		.uleb128 0x34
 11272 001d 257B0000 		.4byte	.LASF523
 11273 0021 00       		.byte	0
 11274              		.section	.debug_macro,"G",%progbits,wm4.lpc_types.h.63.860ba57581a002825766a7c2ac00d549,comdat
 11275              	.Ldebug_macro9:
 11276 0000 0400     		.2byte	0x4
 11277 0002 00       		.byte	0
 11278 0003 05       		.byte	0x5
 11279 0004 3F       		.uleb128 0x3f
 11280 0005 A2170000 		.4byte	.LASF524
 11281 0009 05       		.byte	0x5
 11282 000a 45       		.uleb128 0x45
 11283 000b 00090000 		.4byte	.LASF525
 11284 000f 06       		.byte	0x6
 11285 0010 66       		.uleb128 0x66
 11286 0011 EA000000 		.4byte	.LASF526
 11287 0015 05       		.byte	0x5
 11288 0016 68       		.uleb128 0x68
 11289 0017 63260000 		.4byte	.LASF527
 11290 001b 06       		.byte	0x6
 11291 001c 6E       		.uleb128 0x6e
 11292 001d 532B0000 		.4byte	.LASF528
 11293 0021 05       		.byte	0x5
 11294 0022 70       		.uleb128 0x70
 11295 0023 CD1C0000 		.4byte	.LASF529
 11296 0027 06       		.byte	0x6
 11297 0028 7F       		.uleb128 0x7f
 11298 0029 57330000 		.4byte	.LASF530
 11299 002d 05       		.byte	0x5
 11300 002e 8101     		.uleb128 0x81
 11301 0030 CA740000 		.4byte	.LASF531
 11302 0034 05       		.byte	0x5
 11303 0035 8501     		.uleb128 0x85
 11304 0037 04590000 		.4byte	.LASF532
 11305 003b 05       		.byte	0x5
 11306 003c 8901     		.uleb128 0x89
 11307 003e AF720000 		.4byte	.LASF533
 11308 0042 05       		.byte	0x5
 11309 0043 8C01     		.uleb128 0x8c
 11310 0045 E2220000 		.4byte	.LASF534
 11311 0049 05       		.byte	0x5
 11312 004a 8E01     		.uleb128 0x8e
 11313 004c 103B0000 		.4byte	.LASF535
 11314 0050 05       		.byte	0x5
 11315 0051 9101     		.uleb128 0x91
 11316 0053 910B0000 		.4byte	.LASF536
 11317 0057 05       		.byte	0x5
 11318 0058 9401     		.uleb128 0x94
 11319 005a CB6C0000 		.4byte	.LASF537
 11320 005e 05       		.byte	0x5
ARM GAS  /tmp/ccGKa4GA.s 			page 230


 11321 005f 9701     		.uleb128 0x97
 11322 0061 9F220000 		.4byte	.LASF538
 11323 0065 05       		.byte	0x5
 11324 0066 D001     		.uleb128 0xd0
 11325 0068 A0710000 		.4byte	.LASF539
 11326 006c 00       		.byte	0
 11327              		.section	.debug_macro,"G",%progbits,wm4.sys_config.h.31.9f234e9c90333d233c7e647ebe63e928,comdat
 11328              	.Ldebug_macro10:
 11329 0000 0400     		.2byte	0x4
 11330 0002 00       		.byte	0
 11331 0003 05       		.byte	0x5
 11332 0004 1F       		.uleb128 0x1f
 11333 0005 E2600000 		.4byte	.LASF540
 11334 0009 05       		.byte	0x5
 11335 000a 26       		.uleb128 0x26
 11336 000b 191C0000 		.4byte	.LASF541
 11337 000f 00       		.byte	0
 11338              		.section	.debug_macro,"G",%progbits,wm4.cmsis_11cxx.h.33.407e9bbb5d170cd1552d3f7dc3fd5c42,comdat
 11339              	.Ldebug_macro11:
 11340 0000 0400     		.2byte	0x4
 11341 0002 00       		.byte	0
 11342 0003 05       		.byte	0x5
 11343 0004 21       		.uleb128 0x21
 11344 0005 DA2B0000 		.4byte	.LASF543
 11345 0009 05       		.byte	0x5
 11346 000a 8801     		.uleb128 0x88
 11347 000c AA3B0000 		.4byte	.LASF544
 11348 0010 05       		.byte	0x5
 11349 0011 8901     		.uleb128 0x89
 11350 0013 4D780000 		.4byte	.LASF545
 11351 0017 05       		.byte	0x5
 11352 0018 8A01     		.uleb128 0x8a
 11353 001a 3E580000 		.4byte	.LASF546
 11354 001e 00       		.byte	0
 11355              		.section	.debug_macro,"G",%progbits,wm4.core_cm0.h.32.192d13cfa8b31e63c86621de62eb153f,comdat
 11356              	.Ldebug_macro12:
 11357 0000 0400     		.2byte	0x4
 11358 0002 00       		.byte	0
 11359 0003 05       		.byte	0x5
 11360 0004 20       		.uleb128 0x20
 11361 0005 1F130000 		.4byte	.LASF547
 11362 0009 05       		.byte	0x5
 11363 000a 38       		.uleb128 0x38
 11364 000b 01570000 		.4byte	.LASF548
 11365 000f 05       		.byte	0x5
 11366 0010 39       		.uleb128 0x39
 11367 0011 25300000 		.4byte	.LASF549
 11368 0015 05       		.byte	0x5
 11369 0016 3A       		.uleb128 0x3a
 11370 0017 88680000 		.4byte	.LASF550
 11371 001b 05       		.byte	0x5
 11372 001c 3D       		.uleb128 0x3d
 11373 001d 8B2D0000 		.4byte	.LASF551
 11374 0021 05       		.byte	0x5
 11375 0022 4B       		.uleb128 0x4b
 11376 0023 E90F0000 		.4byte	.LASF552
 11377 0027 05       		.byte	0x5
ARM GAS  /tmp/ccGKa4GA.s 			page 231


 11378 0028 4C       		.uleb128 0x4c
 11379 0029 2E4A0000 		.4byte	.LASF553
 11380 002d 05       		.byte	0x5
 11381 002e 4D       		.uleb128 0x4d
 11382 002f 1A410000 		.4byte	.LASF554
 11383 0033 05       		.byte	0x5
 11384 0034 58       		.uleb128 0x58
 11385 0035 A2720000 		.4byte	.LASF555
 11386 0039 00       		.byte	0
 11387              		.section	.debug_macro,"G",%progbits,wm4.core_cm0.h.120.f4257ea7d0bce0cbabffe223e23b2fd4,comdat
 11388              	.Ldebug_macro13:
 11389 0000 0400     		.2byte	0x4
 11390 0002 00       		.byte	0
 11391 0003 05       		.byte	0x5
 11392 0004 78       		.uleb128 0x78
 11393 0005 B17C0000 		.4byte	.LASF558
 11394 0009 05       		.byte	0x5
 11395 000a 9701     		.uleb128 0x97
 11396 000c D3700000 		.4byte	.LASF559
 11397 0010 05       		.byte	0x5
 11398 0011 9901     		.uleb128 0x99
 11399 0013 C7300000 		.4byte	.LASF560
 11400 0017 05       		.byte	0x5
 11401 0018 9A01     		.uleb128 0x9a
 11402 001a 8B6E0000 		.4byte	.LASF561
 11403 001e 05       		.byte	0x5
 11404 001f B002     		.uleb128 0x130
 11405 0021 A3600000 		.4byte	.LASF562
 11406 0025 05       		.byte	0x5
 11407 0026 B102     		.uleb128 0x131
 11408 0028 6D7A0000 		.4byte	.LASF563
 11409 002c 05       		.byte	0x5
 11410 002d B302     		.uleb128 0x133
 11411 002f 6D620000 		.4byte	.LASF564
 11412 0033 05       		.byte	0x5
 11413 0034 B402     		.uleb128 0x134
 11414 0036 EA4B0000 		.4byte	.LASF565
 11415 003a 05       		.byte	0x5
 11416 003b B602     		.uleb128 0x136
 11417 003d D0210000 		.4byte	.LASF566
 11418 0041 05       		.byte	0x5
 11419 0042 B702     		.uleb128 0x137
 11420 0044 C3030000 		.4byte	.LASF567
 11421 0048 05       		.byte	0x5
 11422 0049 B902     		.uleb128 0x139
 11423 004b EB2A0000 		.4byte	.LASF568
 11424 004f 05       		.byte	0x5
 11425 0050 BA02     		.uleb128 0x13a
 11426 0052 8C040000 		.4byte	.LASF569
 11427 0056 05       		.byte	0x5
 11428 0057 BC02     		.uleb128 0x13c
 11429 0059 01410000 		.4byte	.LASF570
 11430 005d 05       		.byte	0x5
 11431 005e BD02     		.uleb128 0x13d
 11432 0060 79580000 		.4byte	.LASF571
 11433 0064 05       		.byte	0x5
 11434 0065 C002     		.uleb128 0x140
ARM GAS  /tmp/ccGKa4GA.s 			page 232


 11435 0067 E2050000 		.4byte	.LASF572
 11436 006b 05       		.byte	0x5
 11437 006c C102     		.uleb128 0x141
 11438 006e 022B0000 		.4byte	.LASF573
 11439 0072 05       		.byte	0x5
 11440 0073 C302     		.uleb128 0x143
 11441 0075 8A300000 		.4byte	.LASF574
 11442 0079 05       		.byte	0x5
 11443 007a C402     		.uleb128 0x144
 11444 007c DA680000 		.4byte	.LASF575
 11445 0080 05       		.byte	0x5
 11446 0081 C602     		.uleb128 0x146
 11447 0083 566F0000 		.4byte	.LASF576
 11448 0087 05       		.byte	0x5
 11449 0088 C702     		.uleb128 0x147
 11450 008a 6F290000 		.4byte	.LASF577
 11451 008e 05       		.byte	0x5
 11452 008f C902     		.uleb128 0x149
 11453 0091 AE0A0000 		.4byte	.LASF578
 11454 0095 05       		.byte	0x5
 11455 0096 CA02     		.uleb128 0x14a
 11456 0098 27070000 		.4byte	.LASF579
 11457 009c 05       		.byte	0x5
 11458 009d CC02     		.uleb128 0x14c
 11459 009f 234B0000 		.4byte	.LASF580
 11460 00a3 05       		.byte	0x5
 11461 00a4 CD02     		.uleb128 0x14d
 11462 00a6 56490000 		.4byte	.LASF581
 11463 00aa 05       		.byte	0x5
 11464 00ab CF02     		.uleb128 0x14f
 11465 00ad 84560000 		.4byte	.LASF582
 11466 00b1 05       		.byte	0x5
 11467 00b2 D002     		.uleb128 0x150
 11468 00b4 1E3B0000 		.4byte	.LASF583
 11469 00b8 05       		.byte	0x5
 11470 00b9 D202     		.uleb128 0x152
 11471 00bb 81260000 		.4byte	.LASF584
 11472 00bf 05       		.byte	0x5
 11473 00c0 D302     		.uleb128 0x153
 11474 00c2 AF370000 		.4byte	.LASF585
 11475 00c6 05       		.byte	0x5
 11476 00c7 D502     		.uleb128 0x155
 11477 00c9 37470000 		.4byte	.LASF586
 11478 00cd 05       		.byte	0x5
 11479 00ce D602     		.uleb128 0x156
 11480 00d0 F62D0000 		.4byte	.LASF587
 11481 00d4 05       		.byte	0x5
 11482 00d5 D802     		.uleb128 0x158
 11483 00d7 840C0000 		.4byte	.LASF588
 11484 00db 05       		.byte	0x5
 11485 00dc D902     		.uleb128 0x159
 11486 00de B21D0000 		.4byte	.LASF589
 11487 00e2 05       		.byte	0x5
 11488 00e3 DC02     		.uleb128 0x15c
 11489 00e5 B1740000 		.4byte	.LASF590
 11490 00e9 05       		.byte	0x5
 11491 00ea DD02     		.uleb128 0x15d
ARM GAS  /tmp/ccGKa4GA.s 			page 233


 11492 00ec 8C3C0000 		.4byte	.LASF591
 11493 00f0 05       		.byte	0x5
 11494 00f1 DF02     		.uleb128 0x15f
 11495 00f3 350C0000 		.4byte	.LASF592
 11496 00f7 05       		.byte	0x5
 11497 00f8 E002     		.uleb128 0x160
 11498 00fa E77F0000 		.4byte	.LASF593
 11499 00fe 05       		.byte	0x5
 11500 00ff E202     		.uleb128 0x162
 11501 0101 E56F0000 		.4byte	.LASF594
 11502 0105 05       		.byte	0x5
 11503 0106 E302     		.uleb128 0x163
 11504 0108 FA1C0000 		.4byte	.LASF595
 11505 010c 05       		.byte	0x5
 11506 010d E502     		.uleb128 0x165
 11507 010f AB300000 		.4byte	.LASF596
 11508 0113 05       		.byte	0x5
 11509 0114 E602     		.uleb128 0x166
 11510 0116 B83A0000 		.4byte	.LASF597
 11511 011a 05       		.byte	0x5
 11512 011b E802     		.uleb128 0x168
 11513 011d 7D7B0000 		.4byte	.LASF598
 11514 0121 05       		.byte	0x5
 11515 0122 E902     		.uleb128 0x169
 11516 0124 22700000 		.4byte	.LASF599
 11517 0128 05       		.byte	0x5
 11518 0129 EC02     		.uleb128 0x16c
 11519 012b 82550000 		.4byte	.LASF600
 11520 012f 05       		.byte	0x5
 11521 0130 ED02     		.uleb128 0x16d
 11522 0132 257F0000 		.4byte	.LASF601
 11523 0136 05       		.byte	0x5
 11524 0137 EF02     		.uleb128 0x16f
 11525 0139 82270000 		.4byte	.LASF602
 11526 013d 05       		.byte	0x5
 11527 013e F002     		.uleb128 0x170
 11528 0140 9C1A0000 		.4byte	.LASF603
 11529 0144 05       		.byte	0x5
 11530 0145 F202     		.uleb128 0x172
 11531 0147 68270000 		.4byte	.LASF604
 11532 014b 05       		.byte	0x5
 11533 014c F302     		.uleb128 0x173
 11534 014e 841F0000 		.4byte	.LASF605
 11535 0152 05       		.byte	0x5
 11536 0153 F602     		.uleb128 0x176
 11537 0155 D8710000 		.4byte	.LASF606
 11538 0159 05       		.byte	0x5
 11539 015a F702     		.uleb128 0x177
 11540 015c 08150000 		.4byte	.LASF607
 11541 0160 05       		.byte	0x5
 11542 0161 F902     		.uleb128 0x179
 11543 0163 44520000 		.4byte	.LASF608
 11544 0167 05       		.byte	0x5
 11545 0168 FA02     		.uleb128 0x17a
 11546 016a 91060000 		.4byte	.LASF609
 11547 016e 05       		.byte	0x5
 11548 016f FD02     		.uleb128 0x17d
ARM GAS  /tmp/ccGKa4GA.s 			page 234


 11549 0171 3D6D0000 		.4byte	.LASF610
 11550 0175 05       		.byte	0x5
 11551 0176 FE02     		.uleb128 0x17e
 11552 0178 84520000 		.4byte	.LASF611
 11553 017c 05       		.byte	0x5
 11554 017d 9403     		.uleb128 0x194
 11555 017f 542C0000 		.4byte	.LASF612
 11556 0183 05       		.byte	0x5
 11557 0184 9503     		.uleb128 0x195
 11558 0186 101A0000 		.4byte	.LASF613
 11559 018a 05       		.byte	0x5
 11560 018b 9703     		.uleb128 0x197
 11561 018d A42F0000 		.4byte	.LASF614
 11562 0191 05       		.byte	0x5
 11563 0192 9803     		.uleb128 0x198
 11564 0194 7D050000 		.4byte	.LASF615
 11565 0198 05       		.byte	0x5
 11566 0199 9A03     		.uleb128 0x19a
 11567 019b 04130000 		.4byte	.LASF616
 11568 019f 05       		.byte	0x5
 11569 01a0 9B03     		.uleb128 0x19b
 11570 01a2 9B630000 		.4byte	.LASF617
 11571 01a6 05       		.byte	0x5
 11572 01a7 9D03     		.uleb128 0x19d
 11573 01a9 5F280000 		.4byte	.LASF618
 11574 01ad 05       		.byte	0x5
 11575 01ae 9E03     		.uleb128 0x19e
 11576 01b0 98690000 		.4byte	.LASF619
 11577 01b4 05       		.byte	0x5
 11578 01b5 A103     		.uleb128 0x1a1
 11579 01b7 6F770000 		.4byte	.LASF620
 11580 01bb 05       		.byte	0x5
 11581 01bc A203     		.uleb128 0x1a2
 11582 01be 00680000 		.4byte	.LASF621
 11583 01c2 05       		.byte	0x5
 11584 01c3 A503     		.uleb128 0x1a5
 11585 01c5 CB5E0000 		.4byte	.LASF622
 11586 01c9 05       		.byte	0x5
 11587 01ca A603     		.uleb128 0x1a6
 11588 01cc 894E0000 		.4byte	.LASF623
 11589 01d0 05       		.byte	0x5
 11590 01d1 A903     		.uleb128 0x1a9
 11591 01d3 11690000 		.4byte	.LASF624
 11592 01d7 05       		.byte	0x5
 11593 01d8 AA03     		.uleb128 0x1aa
 11594 01da 6C200000 		.4byte	.LASF625
 11595 01de 05       		.byte	0x5
 11596 01df AC03     		.uleb128 0x1ac
 11597 01e1 DF290000 		.4byte	.LASF626
 11598 01e5 05       		.byte	0x5
 11599 01e6 AD03     		.uleb128 0x1ad
 11600 01e8 7E780000 		.4byte	.LASF627
 11601 01ec 05       		.byte	0x5
 11602 01ed AF03     		.uleb128 0x1af
 11603 01ef DB390000 		.4byte	.LASF628
 11604 01f3 05       		.byte	0x5
 11605 01f4 B003     		.uleb128 0x1b0
ARM GAS  /tmp/ccGKa4GA.s 			page 235


 11606 01f6 D85A0000 		.4byte	.LASF629
 11607 01fa 05       		.byte	0x5
 11608 01fb C603     		.uleb128 0x1c6
 11609 01fd EC570000 		.4byte	.LASF630
 11610 0201 05       		.byte	0x5
 11611 0202 C703     		.uleb128 0x1c7
 11612 0204 60510000 		.4byte	.LASF631
 11613 0208 05       		.byte	0x5
 11614 0209 C803     		.uleb128 0x1c8
 11615 020b 24010000 		.4byte	.LASF632
 11616 020f 05       		.byte	0x5
 11617 0210 C903     		.uleb128 0x1c9
 11618 0212 42220000 		.4byte	.LASF633
 11619 0216 05       		.byte	0x5
 11620 0217 CB03     		.uleb128 0x1cb
 11621 0219 0D7C0000 		.4byte	.LASF634
 11622 021d 05       		.byte	0x5
 11623 021e CC03     		.uleb128 0x1cc
 11624 0220 166F0000 		.4byte	.LASF635
 11625 0224 05       		.byte	0x5
 11626 0225 CD03     		.uleb128 0x1cd
 11627 0227 A44A0000 		.4byte	.LASF636
 11628 022b 05       		.byte	0x5
 11629 022c E903     		.uleb128 0x1e9
 11630 022e AA440000 		.4byte	.LASF637
 11631 0232 05       		.byte	0x5
 11632 0233 EA03     		.uleb128 0x1ea
 11633 0235 3B630000 		.4byte	.LASF638
 11634 0239 05       		.byte	0x5
 11635 023a EB03     		.uleb128 0x1eb
 11636 023c BC180000 		.4byte	.LASF639
 11637 0240 00       		.byte	0
 11638              		.section	.debug_macro,"G",%progbits,wm4.chip.h.116.857da603c399e979152c31968de4baae,comdat
 11639              	.Ldebug_macro14:
 11640 0000 0400     		.2byte	0x4
 11641 0002 00       		.byte	0
 11642 0003 05       		.byte	0x5
 11643 0004 74       		.uleb128 0x74
 11644 0005 AE2B0000 		.4byte	.LASF640
 11645 0009 05       		.byte	0x5
 11646 000a 75       		.uleb128 0x75
 11647 000b F0010000 		.4byte	.LASF641
 11648 000f 05       		.byte	0x5
 11649 0010 76       		.uleb128 0x76
 11650 0011 42720000 		.4byte	.LASF642
 11651 0015 05       		.byte	0x5
 11652 0016 77       		.uleb128 0x77
 11653 0017 7B650000 		.4byte	.LASF643
 11654 001b 05       		.byte	0x5
 11655 001c 78       		.uleb128 0x78
 11656 001d 127D0000 		.4byte	.LASF644
 11657 0021 05       		.byte	0x5
 11658 0022 79       		.uleb128 0x79
 11659 0023 C3080000 		.4byte	.LASF645
 11660 0027 05       		.byte	0x5
 11661 0028 7A       		.uleb128 0x7a
 11662 0029 19060000 		.4byte	.LASF646
ARM GAS  /tmp/ccGKa4GA.s 			page 236


 11663 002d 05       		.byte	0x5
 11664 002e 7B       		.uleb128 0x7b
 11665 002f FE250000 		.4byte	.LASF647
 11666 0033 05       		.byte	0x5
 11667 0034 7C       		.uleb128 0x7c
 11668 0035 8D740000 		.4byte	.LASF648
 11669 0039 05       		.byte	0x5
 11670 003a 7D       		.uleb128 0x7d
 11671 003b 68160000 		.4byte	.LASF649
 11672 003f 05       		.byte	0x5
 11673 0040 7E       		.uleb128 0x7e
 11674 0041 3F410000 		.4byte	.LASF650
 11675 0045 05       		.byte	0x5
 11676 0046 7F       		.uleb128 0x7f
 11677 0047 60330000 		.4byte	.LASF651
 11678 004b 05       		.byte	0x5
 11679 004c 8001     		.uleb128 0x80
 11680 004e 18530000 		.4byte	.LASF652
 11681 0052 05       		.byte	0x5
 11682 0053 8101     		.uleb128 0x81
 11683 0055 0A010000 		.4byte	.LASF653
 11684 0059 05       		.byte	0x5
 11685 005a 8201     		.uleb128 0x82
 11686 005c 69520000 		.4byte	.LASF654
 11687 0060 05       		.byte	0x5
 11688 0061 8301     		.uleb128 0x83
 11689 0063 B1610000 		.4byte	.LASF655
 11690 0067 05       		.byte	0x5
 11691 0068 8401     		.uleb128 0x84
 11692 006a 2D5B0000 		.4byte	.LASF656
 11693 006e 05       		.byte	0x5
 11694 006f 8501     		.uleb128 0x85
 11695 0071 2F540000 		.4byte	.LASF657
 11696 0075 05       		.byte	0x5
 11697 0076 9001     		.uleb128 0x90
 11698 0078 BC120000 		.4byte	.LASF658
 11699 007c 05       		.byte	0x5
 11700 007d 9101     		.uleb128 0x91
 11701 007f 10540000 		.4byte	.LASF659
 11702 0083 05       		.byte	0x5
 11703 0084 9301     		.uleb128 0x93
 11704 0086 AC480000 		.4byte	.LASF660
 11705 008a 05       		.byte	0x5
 11706 008b 9401     		.uleb128 0x94
 11707 008d 5E340000 		.4byte	.LASF661
 11708 0091 05       		.byte	0x5
 11709 0092 9701     		.uleb128 0x97
 11710 0094 E3730000 		.4byte	.LASF662
 11711 0098 05       		.byte	0x5
 11712 0099 9801     		.uleb128 0x98
 11713 009b 9C210000 		.4byte	.LASF663
 11714 009f 05       		.byte	0x5
 11715 00a0 9B01     		.uleb128 0x9b
 11716 00a2 97180000 		.4byte	.LASF664
 11717 00a6 05       		.byte	0x5
 11718 00a7 9E01     		.uleb128 0x9e
 11719 00a9 73630000 		.4byte	.LASF665
ARM GAS  /tmp/ccGKa4GA.s 			page 237


 11720 00ad 05       		.byte	0x5
 11721 00ae 9F01     		.uleb128 0x9f
 11722 00b0 6C760000 		.4byte	.LASF666
 11723 00b4 05       		.byte	0x5
 11724 00b5 A001     		.uleb128 0xa0
 11725 00b7 15380000 		.4byte	.LASF667
 11726 00bb 05       		.byte	0x5
 11727 00bc A101     		.uleb128 0xa1
 11728 00be 0E710000 		.4byte	.LASF668
 11729 00c2 05       		.byte	0x5
 11730 00c3 A201     		.uleb128 0xa2
 11731 00c5 39170000 		.4byte	.LASF669
 11732 00c9 05       		.byte	0x5
 11733 00ca A301     		.uleb128 0xa3
 11734 00cc 331E0000 		.4byte	.LASF670
 11735 00d0 05       		.byte	0x5
 11736 00d1 A401     		.uleb128 0xa4
 11737 00d3 47200000 		.4byte	.LASF671
 11738 00d7 05       		.byte	0x5
 11739 00d8 B101     		.uleb128 0xb1
 11740 00da 09440000 		.4byte	.LASF672
 11741 00de 05       		.byte	0x5
 11742 00df B201     		.uleb128 0xb2
 11743 00e1 F3600000 		.4byte	.LASF673
 11744 00e5 05       		.byte	0x5
 11745 00e6 B301     		.uleb128 0xb3
 11746 00e8 7A330000 		.4byte	.LASF674
 11747 00ec 05       		.byte	0x5
 11748 00ed B401     		.uleb128 0xb4
 11749 00ef EB100000 		.4byte	.LASF675
 11750 00f3 05       		.byte	0x5
 11751 00f4 B501     		.uleb128 0xb5
 11752 00f6 23250000 		.4byte	.LASF676
 11753 00fa 05       		.byte	0x5
 11754 00fb B701     		.uleb128 0xb7
 11755 00fd A6400000 		.4byte	.LASF677
 11756 0101 05       		.byte	0x5
 11757 0102 B801     		.uleb128 0xb8
 11758 0104 EC130000 		.4byte	.LASF678
 11759 0108 05       		.byte	0x5
 11760 0109 BA01     		.uleb128 0xba
 11761 010b EA530000 		.4byte	.LASF679
 11762 010f 05       		.byte	0x5
 11763 0110 C101     		.uleb128 0xc1
 11764 0112 61220000 		.4byte	.LASF680
 11765 0116 05       		.byte	0x5
 11766 0117 C401     		.uleb128 0xc4
 11767 0119 EA3E0000 		.4byte	.LASF681
 11768 011d 00       		.byte	0
 11769              		.section	.debug_macro,"G",%progbits,wm4.pmu_11xx.h.33.1d6b708881441cb98d19b8bab3caa180,comdat
 11770              	.Ldebug_macro15:
 11771 0000 0400     		.2byte	0x4
 11772 0002 00       		.byte	0
 11773 0003 05       		.byte	0x5
 11774 0004 21       		.uleb128 0x21
 11775 0005 18520000 		.4byte	.LASF682
 11776 0009 05       		.byte	0x5
ARM GAS  /tmp/ccGKa4GA.s 			page 238


 11777 000a 4D       		.uleb128 0x4d
 11778 000b F16D0000 		.4byte	.LASF683
 11779 000f 05       		.byte	0x5
 11780 0010 53       		.uleb128 0x53
 11781 0011 E4350000 		.4byte	.LASF684
 11782 0015 05       		.byte	0x5
 11783 0016 55       		.uleb128 0x55
 11784 0017 BA770000 		.4byte	.LASF685
 11785 001b 05       		.byte	0x5
 11786 001c 56       		.uleb128 0x56
 11787 001d 3F730000 		.4byte	.LASF686
 11788 0021 00       		.byte	0
 11789              		.section	.debug_macro,"G",%progbits,wm4.sysctl_11xx.h.33.ae61a1181e608f8409883008e291930c,comdat
 11790              	.Ldebug_macro16:
 11791 0000 0400     		.2byte	0x4
 11792 0002 00       		.byte	0
 11793 0003 05       		.byte	0x5
 11794 0004 21       		.uleb128 0x21
 11795 0005 46750000 		.4byte	.LASF688
 11796 0009 05       		.byte	0x5
 11797 000a BC01     		.uleb128 0xbc
 11798 000c 56020000 		.4byte	.LASF689
 11799 0010 05       		.byte	0x5
 11800 0011 BD01     		.uleb128 0xbd
 11801 0013 F22F0000 		.4byte	.LASF690
 11802 0017 05       		.byte	0x5
 11803 0018 BE01     		.uleb128 0xbe
 11804 001a 0D300000 		.4byte	.LASF691
 11805 001e 05       		.byte	0x5
 11806 001f BF01     		.uleb128 0xbf
 11807 0021 F9740000 		.4byte	.LASF692
 11808 0025 05       		.byte	0x5
 11809 0026 C001     		.uleb128 0xc0
 11810 0028 2F760000 		.4byte	.LASF693
 11811 002c 05       		.byte	0x5
 11812 002d C501     		.uleb128 0xc5
 11813 002f 29800000 		.4byte	.LASF694
 11814 0033 05       		.byte	0x5
 11815 0034 A904     		.uleb128 0x229
 11816 0036 40280000 		.4byte	.LASF695
 11817 003a 05       		.byte	0x5
 11818 003b AA04     		.uleb128 0x22a
 11819 003d C0620000 		.4byte	.LASF696
 11820 0041 05       		.byte	0x5
 11821 0042 C904     		.uleb128 0x249
 11822 0044 4A760000 		.4byte	.LASF697
 11823 0048 05       		.byte	0x5
 11824 0049 CA04     		.uleb128 0x24a
 11825 004b F8790000 		.4byte	.LASF698
 11826 004f 05       		.byte	0x5
 11827 0050 CB04     		.uleb128 0x24b
 11828 0052 283A0000 		.4byte	.LASF699
 11829 0056 05       		.byte	0x5
 11830 0057 CC04     		.uleb128 0x24c
 11831 0059 17100000 		.4byte	.LASF700
 11832 005d 05       		.byte	0x5
 11833 005e CD04     		.uleb128 0x24d
ARM GAS  /tmp/ccGKa4GA.s 			page 239


 11834 0060 375E0000 		.4byte	.LASF701
 11835 0064 05       		.byte	0x5
 11836 0065 CE04     		.uleb128 0x24e
 11837 0067 99430000 		.4byte	.LASF702
 11838 006b 05       		.byte	0x5
 11839 006c CF04     		.uleb128 0x24f
 11840 006e 00700000 		.4byte	.LASF703
 11841 0072 05       		.byte	0x5
 11842 0073 D004     		.uleb128 0x250
 11843 0075 2F620000 		.4byte	.LASF704
 11844 0079 05       		.byte	0x5
 11845 007a F104     		.uleb128 0x271
 11846 007c 214C0000 		.4byte	.LASF705
 11847 0080 05       		.byte	0x5
 11848 0081 F204     		.uleb128 0x272
 11849 0083 5C720000 		.4byte	.LASF706
 11850 0087 05       		.byte	0x5
 11851 0088 F304     		.uleb128 0x273
 11852 008a E91B0000 		.4byte	.LASF707
 11853 008e 05       		.byte	0x5
 11854 008f F504     		.uleb128 0x275
 11855 0091 B3490000 		.4byte	.LASF708
 11856 0095 05       		.byte	0x5
 11857 0096 F704     		.uleb128 0x277
 11858 0098 7D4C0000 		.4byte	.LASF709
 11859 009c 05       		.byte	0x5
 11860 009d F804     		.uleb128 0x278
 11861 009f E00A0000 		.4byte	.LASF710
 11862 00a3 05       		.byte	0x5
 11863 00a4 F904     		.uleb128 0x279
 11864 00a6 FD280000 		.4byte	.LASF711
 11865 00aa 05       		.byte	0x5
 11866 00ab FA04     		.uleb128 0x27a
 11867 00ad BA500000 		.4byte	.LASF712
 11868 00b1 00       		.byte	0
 11869              		.section	.debug_macro,"G",%progbits,wm4.clock_11xx.h.33.23290a9e2ed919e3a6958d25130bc848,comdat
 11870              	.Ldebug_macro17:
 11871 0000 0400     		.2byte	0x4
 11872 0002 00       		.byte	0
 11873 0003 05       		.byte	0x5
 11874 0004 21       		.uleb128 0x21
 11875 0005 CB410000 		.4byte	.LASF713
 11876 0009 05       		.byte	0x5
 11877 000a 2D       		.uleb128 0x2d
 11878 000b 6D680000 		.4byte	.LASF714
 11879 000f 00       		.byte	0
 11880              		.section	.debug_macro,"G",%progbits,wm4.iocon_11xx.h.33.25e2b3cde122df23fb07b984cb4f3a93,comdat
 11881              	.Ldebug_macro18:
 11882 0000 0400     		.2byte	0x4
 11883 0002 00       		.byte	0
 11884 0003 05       		.byte	0x5
 11885 0004 21       		.uleb128 0x21
 11886 0005 742E0000 		.4byte	.LASF715
 11887 0009 05       		.byte	0x5
 11888 000a A601     		.uleb128 0xa6
 11889 000c F07C0000 		.4byte	.LASF716
 11890 0010 05       		.byte	0x5
ARM GAS  /tmp/ccGKa4GA.s 			page 240


 11891 0011 A701     		.uleb128 0xa7
 11892 0013 C7090000 		.4byte	.LASF717
 11893 0017 05       		.byte	0x5
 11894 0018 A801     		.uleb128 0xa8
 11895 001a DD190000 		.4byte	.LASF718
 11896 001e 05       		.byte	0x5
 11897 001f A901     		.uleb128 0xa9
 11898 0021 1C650000 		.4byte	.LASF719
 11899 0025 05       		.byte	0x5
 11900 0026 AA01     		.uleb128 0xaa
 11901 0028 3B510000 		.4byte	.LASF720
 11902 002c 05       		.byte	0x5
 11903 002d AB01     		.uleb128 0xab
 11904 002f C4140000 		.4byte	.LASF721
 11905 0033 05       		.byte	0x5
 11906 0034 AC01     		.uleb128 0xac
 11907 0036 58270000 		.4byte	.LASF722
 11908 003a 05       		.byte	0x5
 11909 003b AD01     		.uleb128 0xad
 11910 003d 58160000 		.4byte	.LASF723
 11911 0041 05       		.byte	0x5
 11912 0042 AE01     		.uleb128 0xae
 11913 0044 6E6C0000 		.4byte	.LASF724
 11914 0048 05       		.byte	0x5
 11915 0049 AF01     		.uleb128 0xaf
 11916 004b CD520000 		.4byte	.LASF725
 11917 004f 05       		.byte	0x5
 11918 0050 B001     		.uleb128 0xb0
 11919 0052 DD660000 		.4byte	.LASF726
 11920 0056 05       		.byte	0x5
 11921 0057 B101     		.uleb128 0xb1
 11922 0059 2D1C0000 		.4byte	.LASF727
 11923 005d 05       		.byte	0x5
 11924 005e B201     		.uleb128 0xb2
 11925 0060 9A550000 		.4byte	.LASF728
 11926 0064 05       		.byte	0x5
 11927 0065 B301     		.uleb128 0xb3
 11928 0067 053D0000 		.4byte	.LASF729
 11929 006b 05       		.byte	0x5
 11930 006c B401     		.uleb128 0xb4
 11931 006e 145A0000 		.4byte	.LASF730
 11932 0072 05       		.byte	0x5
 11933 0073 B501     		.uleb128 0xb5
 11934 0075 51620000 		.4byte	.LASF731
 11935 0079 05       		.byte	0x5
 11936 007a B601     		.uleb128 0xb6
 11937 007c D3430000 		.4byte	.LASF732
 11938 0080 05       		.byte	0x5
 11939 0081 B701     		.uleb128 0xb7
 11940 0083 6A6B0000 		.4byte	.LASF733
 11941 0087 05       		.byte	0x5
 11942 0088 B801     		.uleb128 0xb8
 11943 008a 3A6C0000 		.4byte	.LASF734
 11944 008e 05       		.byte	0x5
 11945 008f B901     		.uleb128 0xb9
 11946 0091 EE6C0000 		.4byte	.LASF735
 11947 0095 05       		.byte	0x5
ARM GAS  /tmp/ccGKa4GA.s 			page 241


 11948 0096 BA01     		.uleb128 0xba
 11949 0098 56150000 		.4byte	.LASF736
 11950 009c 05       		.byte	0x5
 11951 009d C001     		.uleb128 0xc0
 11952 009f F40B0000 		.4byte	.LASF737
 11953 00a3 05       		.byte	0x5
 11954 00a4 C101     		.uleb128 0xc1
 11955 00a6 996E0000 		.4byte	.LASF738
 11956 00aa 05       		.byte	0x5
 11957 00ab C201     		.uleb128 0xc2
 11958 00ad 30290000 		.4byte	.LASF739
 11959 00b1 05       		.byte	0x5
 11960 00b2 C301     		.uleb128 0xc3
 11961 00b4 45330000 		.4byte	.LASF740
 11962 00b8 05       		.byte	0x5
 11963 00b9 C401     		.uleb128 0xc4
 11964 00bb D31F0000 		.4byte	.LASF741
 11965 00bf 05       		.byte	0x5
 11966 00c0 C501     		.uleb128 0xc5
 11967 00c2 C63C0000 		.4byte	.LASF742
 11968 00c6 05       		.byte	0x5
 11969 00c7 C601     		.uleb128 0xc6
 11970 00c9 A5770000 		.4byte	.LASF743
 11971 00cd 05       		.byte	0x5
 11972 00ce C701     		.uleb128 0xc7
 11973 00d0 454C0000 		.4byte	.LASF744
 11974 00d4 05       		.byte	0x5
 11975 00d5 C801     		.uleb128 0xc8
 11976 00d7 16590000 		.4byte	.LASF745
 11977 00db 05       		.byte	0x5
 11978 00dc C901     		.uleb128 0xc9
 11979 00de 575B0000 		.4byte	.LASF746
 11980 00e2 05       		.byte	0x5
 11981 00e3 CA01     		.uleb128 0xca
 11982 00e5 C54C0000 		.4byte	.LASF747
 11983 00e9 05       		.byte	0x5
 11984 00ea CB01     		.uleb128 0xcb
 11985 00ec E6230000 		.4byte	.LASF748
 11986 00f0 05       		.byte	0x5
 11987 00f1 CC01     		.uleb128 0xcc
 11988 00f3 04490000 		.4byte	.LASF749
 11989 00f7 05       		.byte	0x5
 11990 00f8 CD01     		.uleb128 0xcd
 11991 00fa EB580000 		.4byte	.LASF750
 11992 00fe 05       		.byte	0x5
 11993 00ff CE01     		.uleb128 0xce
 11994 0101 C5750000 		.4byte	.LASF751
 11995 0105 05       		.byte	0x5
 11996 0106 CF01     		.uleb128 0xcf
 11997 0108 CD590000 		.4byte	.LASF752
 11998 010c 05       		.byte	0x5
 11999 010d D001     		.uleb128 0xd0
 12000 010f 83640000 		.4byte	.LASF753
 12001 0113 05       		.byte	0x5
 12002 0114 D101     		.uleb128 0xd1
 12003 0116 A9500000 		.4byte	.LASF754
 12004 011a 05       		.byte	0x5
ARM GAS  /tmp/ccGKa4GA.s 			page 242


 12005 011b D201     		.uleb128 0xd2
 12006 011d 07430000 		.4byte	.LASF755
 12007 0121 05       		.byte	0x5
 12008 0122 D301     		.uleb128 0xd3
 12009 0124 E7260000 		.4byte	.LASF756
 12010 0128 05       		.byte	0x5
 12011 0129 D401     		.uleb128 0xd4
 12012 012b F3330000 		.4byte	.LASF757
 12013 012f 05       		.byte	0x5
 12014 0130 D501     		.uleb128 0xd5
 12015 0132 53800000 		.4byte	.LASF758
 12016 0136 00       		.byte	0
 12017              		.section	.debug_macro,"G",%progbits,wm4.timer_11xx.h.33.c92f50a9325789ee6a8ffd6248980d70,comdat
 12018              	.Ldebug_macro19:
 12019 0000 0400     		.2byte	0x4
 12020 0002 00       		.byte	0
 12021 0003 05       		.byte	0x5
 12022 0004 21       		.uleb128 0x21
 12023 0005 8C750000 		.4byte	.LASF759
 12024 0009 05       		.byte	0x5
 12025 000a 40       		.uleb128 0x40
 12026 000b F05B0000 		.4byte	.LASF760
 12027 000f 05       		.byte	0x5
 12028 0010 43       		.uleb128 0x43
 12029 0011 26390000 		.4byte	.LASF761
 12030 0015 05       		.byte	0x5
 12031 0016 45       		.uleb128 0x45
 12032 0017 BC2E0000 		.4byte	.LASF762
 12033 001b 05       		.byte	0x5
 12034 001c 48       		.uleb128 0x48
 12035 001d 7F100000 		.4byte	.LASF763
 12036 0021 05       		.byte	0x5
 12037 0022 4A       		.uleb128 0x4a
 12038 0023 6A810000 		.4byte	.LASF764
 12039 0027 05       		.byte	0x5
 12040 0028 4D       		.uleb128 0x4d
 12041 0029 8C000000 		.4byte	.LASF765
 12042 002d 05       		.byte	0x5
 12043 002e 4F       		.uleb128 0x4f
 12044 002f 3E2D0000 		.4byte	.LASF766
 12045 0033 05       		.byte	0x5
 12046 0034 51       		.uleb128 0x51
 12047 0035 DB5F0000 		.4byte	.LASF767
 12048 0039 05       		.byte	0x5
 12049 003a 54       		.uleb128 0x54
 12050 003b 1A490000 		.4byte	.LASF768
 12051 003f 05       		.byte	0x5
 12052 0040 56       		.uleb128 0x56
 12053 0041 D1470000 		.4byte	.LASF769
 12054 0045 05       		.byte	0x5
 12055 0046 58       		.uleb128 0x58
 12056 0047 2E7E0000 		.4byte	.LASF770
 12057 004b 00       		.byte	0
 12058              		.section	.debug_macro,"G",%progbits,wm4.ring_buffer.h.33.2f271415f1f27d60350fb4738c5cbee6,comdat
 12059              	.Ldebug_macro20:
 12060 0000 0400     		.2byte	0x4
 12061 0002 00       		.byte	0
ARM GAS  /tmp/ccGKa4GA.s 			page 243


 12062 0003 05       		.byte	0x5
 12063 0004 21       		.uleb128 0x21
 12064 0005 D8560000 		.4byte	.LASF772
 12065 0009 05       		.byte	0x5
 12066 000a 3A       		.uleb128 0x3a
 12067 000b A6700000 		.4byte	.LASF773
 12068 000f 05       		.byte	0x5
 12069 0010 41       		.uleb128 0x41
 12070 0011 92320000 		.4byte	.LASF774
 12071 0015 00       		.byte	0
 12072              		.section	.debug_macro,"G",%progbits,wm4.uart_11xx.h.98.fe68b709973730a4fba3f3ce60c5c312,comdat
 12073              	.Ldebug_macro21:
 12074 0000 0400     		.2byte	0x4
 12075 0002 00       		.byte	0
 12076 0003 05       		.byte	0x5
 12077 0004 62       		.uleb128 0x62
 12078 0005 31530000 		.4byte	.LASF775
 12079 0009 05       		.byte	0x5
 12080 000a 67       		.uleb128 0x67
 12081 000b 57580000 		.4byte	.LASF776
 12082 000f 05       		.byte	0x5
 12083 0010 68       		.uleb128 0x68
 12084 0011 30780000 		.4byte	.LASF777
 12085 0015 05       		.byte	0x5
 12086 0016 6D       		.uleb128 0x6d
 12087 0017 7F5A0000 		.4byte	.LASF778
 12088 001b 05       		.byte	0x5
 12089 001c 6E       		.uleb128 0x6e
 12090 001d AB6E0000 		.4byte	.LASF779
 12091 0021 05       		.byte	0x5
 12092 0022 73       		.uleb128 0x73
 12093 0023 A85A0000 		.4byte	.LASF780
 12094 0027 05       		.byte	0x5
 12095 0028 74       		.uleb128 0x74
 12096 0029 154F0000 		.4byte	.LASF781
 12097 002d 05       		.byte	0x5
 12098 002e 75       		.uleb128 0x75
 12099 002f 574A0000 		.4byte	.LASF782
 12100 0033 05       		.byte	0x5
 12101 0034 76       		.uleb128 0x76
 12102 0035 322F0000 		.4byte	.LASF783
 12103 0039 05       		.byte	0x5
 12104 003a 77       		.uleb128 0x77
 12105 003b C16D0000 		.4byte	.LASF784
 12106 003f 05       		.byte	0x5
 12107 0040 78       		.uleb128 0x78
 12108 0041 6D2B0000 		.4byte	.LASF785
 12109 0045 05       		.byte	0x5
 12110 0046 79       		.uleb128 0x79
 12111 0047 CD400000 		.4byte	.LASF786
 12112 004b 05       		.byte	0x5
 12113 004c 7A       		.uleb128 0x7a
 12114 004d 66100000 		.4byte	.LASF787
 12115 0051 05       		.byte	0x5
 12116 0052 7B       		.uleb128 0x7b
 12117 0053 3C1B0000 		.4byte	.LASF788
 12118 0057 05       		.byte	0x5
ARM GAS  /tmp/ccGKa4GA.s 			page 244


 12119 0058 7C       		.uleb128 0x7c
 12120 0059 440A0000 		.4byte	.LASF789
 12121 005d 05       		.byte	0x5
 12122 005e 8101     		.uleb128 0x81
 12123 0060 18470000 		.4byte	.LASF790
 12124 0064 05       		.byte	0x5
 12125 0065 8201     		.uleb128 0x82
 12126 0067 D9330000 		.4byte	.LASF791
 12127 006b 05       		.byte	0x5
 12128 006c 8301     		.uleb128 0x83
 12129 006e 4C450000 		.4byte	.LASF792
 12130 0072 05       		.byte	0x5
 12131 0073 8401     		.uleb128 0x84
 12132 0075 E1810000 		.4byte	.LASF793
 12133 0079 05       		.byte	0x5
 12134 007a 8501     		.uleb128 0x85
 12135 007c 9A270000 		.4byte	.LASF794
 12136 0080 05       		.byte	0x5
 12137 0081 8801     		.uleb128 0x88
 12138 0083 5A7F0000 		.4byte	.LASF795
 12139 0087 05       		.byte	0x5
 12140 0088 8901     		.uleb128 0x89
 12141 008a E2620000 		.4byte	.LASF796
 12142 008e 05       		.byte	0x5
 12143 008f 8A01     		.uleb128 0x8a
 12144 0091 C1190000 		.4byte	.LASF797
 12145 0095 05       		.byte	0x5
 12146 0096 8B01     		.uleb128 0x8b
 12147 0098 1D3D0000 		.4byte	.LASF798
 12148 009c 05       		.byte	0x5
 12149 009d 8C01     		.uleb128 0x8c
 12150 009f F5170000 		.4byte	.LASF799
 12151 00a3 05       		.byte	0x5
 12152 00a4 8D01     		.uleb128 0x8d
 12153 00a6 060C0000 		.4byte	.LASF800
 12154 00aa 05       		.byte	0x5
 12155 00ab 9201     		.uleb128 0x92
 12156 00ad 884D0000 		.4byte	.LASF801
 12157 00b1 05       		.byte	0x5
 12158 00b2 9301     		.uleb128 0x93
 12159 00b4 9A6D0000 		.4byte	.LASF802
 12160 00b8 05       		.byte	0x5
 12161 00b9 9401     		.uleb128 0x94
 12162 00bb 03370000 		.4byte	.LASF803
 12163 00bf 05       		.byte	0x5
 12164 00c0 9501     		.uleb128 0x95
 12165 00c2 8A6C0000 		.4byte	.LASF804
 12166 00c6 05       		.byte	0x5
 12167 00c7 9601     		.uleb128 0x96
 12168 00c9 2A220000 		.4byte	.LASF805
 12169 00cd 05       		.byte	0x5
 12170 00ce 9801     		.uleb128 0x98
 12171 00d0 B80E0000 		.4byte	.LASF806
 12172 00d4 05       		.byte	0x5
 12173 00d5 9B01     		.uleb128 0x9b
 12174 00d7 520C0000 		.4byte	.LASF807
 12175 00db 05       		.byte	0x5
ARM GAS  /tmp/ccGKa4GA.s 			page 245


 12176 00dc 9C01     		.uleb128 0x9c
 12177 00de DE110000 		.4byte	.LASF808
 12178 00e2 05       		.byte	0x5
 12179 00e3 9D01     		.uleb128 0x9d
 12180 00e5 172C0000 		.4byte	.LASF809
 12181 00e9 05       		.byte	0x5
 12182 00ea 9E01     		.uleb128 0x9e
 12183 00ec 68400000 		.4byte	.LASF810
 12184 00f0 05       		.byte	0x5
 12185 00f1 A401     		.uleb128 0xa4
 12186 00f3 CA280000 		.4byte	.LASF811
 12187 00f7 05       		.byte	0x5
 12188 00f8 A501     		.uleb128 0xa5
 12189 00fa FA660000 		.4byte	.LASF812
 12190 00fe 05       		.byte	0x5
 12191 00ff A601     		.uleb128 0xa6
 12192 0101 84570000 		.4byte	.LASF813
 12193 0105 05       		.byte	0x5
 12194 0106 A701     		.uleb128 0xa7
 12195 0108 3B2B0000 		.4byte	.LASF814
 12196 010c 05       		.byte	0x5
 12197 010d A801     		.uleb128 0xa8
 12198 010f 98340000 		.4byte	.LASF815
 12199 0113 05       		.byte	0x5
 12200 0114 AB01     		.uleb128 0xab
 12201 0116 32230000 		.4byte	.LASF816
 12202 011a 05       		.byte	0x5
 12203 011b AC01     		.uleb128 0xac
 12204 011d 8C810000 		.4byte	.LASF817
 12205 0121 05       		.byte	0x5
 12206 0122 AD01     		.uleb128 0xad
 12207 0124 5E430000 		.4byte	.LASF818
 12208 0128 05       		.byte	0x5
 12209 0129 B001     		.uleb128 0xb0
 12210 012b 7C0E0000 		.4byte	.LASF819
 12211 012f 05       		.byte	0x5
 12212 0130 B101     		.uleb128 0xb1
 12213 0132 83510000 		.4byte	.LASF820
 12214 0136 05       		.byte	0x5
 12215 0137 B201     		.uleb128 0xb2
 12216 0139 014A0000 		.4byte	.LASF821
 12217 013d 05       		.byte	0x5
 12218 013e B301     		.uleb128 0xb3
 12219 0140 596E0000 		.4byte	.LASF822
 12220 0144 05       		.byte	0x5
 12221 0145 B401     		.uleb128 0xb4
 12222 0147 E9450000 		.4byte	.LASF823
 12223 014b 05       		.byte	0x5
 12224 014c B501     		.uleb128 0xb5
 12225 014e 2A200000 		.4byte	.LASF824
 12226 0152 05       		.byte	0x5
 12227 0153 B601     		.uleb128 0xb6
 12228 0155 56030000 		.4byte	.LASF825
 12229 0159 05       		.byte	0x5
 12230 015a B701     		.uleb128 0xb7
 12231 015c FB1D0000 		.4byte	.LASF826
 12232 0160 05       		.byte	0x5
ARM GAS  /tmp/ccGKa4GA.s 			page 246


 12233 0161 B801     		.uleb128 0xb8
 12234 0163 2D430000 		.4byte	.LASF827
 12235 0167 05       		.byte	0x5
 12236 0168 BD01     		.uleb128 0xbd
 12237 016a 1B050000 		.4byte	.LASF828
 12238 016e 05       		.byte	0x5
 12239 016f BE01     		.uleb128 0xbe
 12240 0171 B3150000 		.4byte	.LASF829
 12241 0175 05       		.byte	0x5
 12242 0176 BF01     		.uleb128 0xbf
 12243 0178 1A190000 		.4byte	.LASF830
 12244 017c 05       		.byte	0x5
 12245 017d C001     		.uleb128 0xc0
 12246 017f 0C120000 		.4byte	.LASF831
 12247 0183 05       		.byte	0x5
 12248 0184 C101     		.uleb128 0xc1
 12249 0186 38040000 		.4byte	.LASF832
 12250 018a 05       		.byte	0x5
 12251 018b C201     		.uleb128 0xc2
 12252 018d 610B0000 		.4byte	.LASF833
 12253 0191 05       		.byte	0x5
 12254 0192 C701     		.uleb128 0xc7
 12255 0194 724D0000 		.4byte	.LASF834
 12256 0198 05       		.byte	0x5
 12257 0199 C801     		.uleb128 0xc8
 12258 019b 2F790000 		.4byte	.LASF835
 12259 019f 05       		.byte	0x5
 12260 01a0 C901     		.uleb128 0xc9
 12261 01a2 761D0000 		.4byte	.LASF836
 12262 01a6 05       		.byte	0x5
 12263 01a7 CA01     		.uleb128 0xca
 12264 01a9 946A0000 		.4byte	.LASF837
 12265 01ad 05       		.byte	0x5
 12266 01ae CB01     		.uleb128 0xcb
 12267 01b0 1D230000 		.4byte	.LASF838
 12268 01b4 05       		.byte	0x5
 12269 01b5 CC01     		.uleb128 0xcc
 12270 01b7 6F190000 		.4byte	.LASF839
 12271 01bb 05       		.byte	0x5
 12272 01bc CD01     		.uleb128 0xcd
 12273 01be 9C490000 		.4byte	.LASF840
 12274 01c2 05       		.byte	0x5
 12275 01c3 CE01     		.uleb128 0xce
 12276 01c5 FE710000 		.4byte	.LASF841
 12277 01c9 05       		.byte	0x5
 12278 01ca CF01     		.uleb128 0xcf
 12279 01cc 98070000 		.4byte	.LASF842
 12280 01d0 05       		.byte	0x5
 12281 01d1 D001     		.uleb128 0xd0
 12282 01d3 9A0D0000 		.4byte	.LASF843
 12283 01d7 05       		.byte	0x5
 12284 01d8 D101     		.uleb128 0xd1
 12285 01da 4E400000 		.4byte	.LASF844
 12286 01de 05       		.byte	0x5
 12287 01df D601     		.uleb128 0xd6
 12288 01e1 E8480000 		.4byte	.LASF845
 12289 01e5 05       		.byte	0x5
ARM GAS  /tmp/ccGKa4GA.s 			page 247


 12290 01e6 D701     		.uleb128 0xd7
 12291 01e8 F1750000 		.4byte	.LASF846
 12292 01ec 05       		.byte	0x5
 12293 01ed D801     		.uleb128 0xd8
 12294 01ef 525D0000 		.4byte	.LASF847
 12295 01f3 05       		.byte	0x5
 12296 01f4 D901     		.uleb128 0xd9
 12297 01f6 14450000 		.4byte	.LASF848
 12298 01fa 05       		.byte	0x5
 12299 01fb DA01     		.uleb128 0xda
 12300 01fd 45820000 		.4byte	.LASF849
 12301 0201 05       		.byte	0x5
 12302 0202 DB01     		.uleb128 0xdb
 12303 0204 AB590000 		.4byte	.LASF850
 12304 0208 05       		.byte	0x5
 12305 0209 DC01     		.uleb128 0xdc
 12306 020b D6630000 		.4byte	.LASF851
 12307 020f 05       		.byte	0x5
 12308 0210 DD01     		.uleb128 0xdd
 12309 0212 9F800000 		.4byte	.LASF852
 12310 0216 05       		.byte	0x5
 12311 0217 DE01     		.uleb128 0xde
 12312 0219 E0440000 		.4byte	.LASF853
 12313 021d 05       		.byte	0x5
 12314 021e E301     		.uleb128 0xe3
 12315 0220 28320000 		.4byte	.LASF854
 12316 0224 05       		.byte	0x5
 12317 0225 E401     		.uleb128 0xe4
 12318 0227 C8460000 		.4byte	.LASF855
 12319 022b 05       		.byte	0x5
 12320 022c E501     		.uleb128 0xe5
 12321 022e C6640000 		.4byte	.LASF856
 12322 0232 05       		.byte	0x5
 12323 0233 E601     		.uleb128 0xe6
 12324 0235 F14D0000 		.4byte	.LASF857
 12325 0239 05       		.byte	0x5
 12326 023a E701     		.uleb128 0xe7
 12327 023c FC260000 		.4byte	.LASF858
 12328 0240 05       		.byte	0x5
 12329 0241 E801     		.uleb128 0xe8
 12330 0243 02050000 		.4byte	.LASF859
 12331 0247 05       		.byte	0x5
 12332 0248 ED01     		.uleb128 0xed
 12333 024a E1080000 		.4byte	.LASF860
 12334 024e 05       		.byte	0x5
 12335 024f EE01     		.uleb128 0xee
 12336 0251 63120000 		.4byte	.LASF861
 12337 0255 05       		.byte	0x5
 12338 0256 EF01     		.uleb128 0xef
 12339 0258 3B100000 		.4byte	.LASF862
 12340 025c 05       		.byte	0x5
 12341 025d F001     		.uleb128 0xf0
 12342 025f E6180000 		.4byte	.LASF863
 12343 0263 05       		.byte	0x5
 12344 0264 F201     		.uleb128 0xf2
 12345 0266 0F4D0000 		.4byte	.LASF864
 12346 026a 05       		.byte	0x5
ARM GAS  /tmp/ccGKa4GA.s 			page 248


 12347 026b F301     		.uleb128 0xf3
 12348 026d BB510000 		.4byte	.LASF865
 12349 0271 05       		.byte	0x5
 12350 0272 F601     		.uleb128 0xf6
 12351 0274 1A2A0000 		.4byte	.LASF866
 12352 0278 05       		.byte	0x5
 12353 0279 FB01     		.uleb128 0xfb
 12354 027b 661E0000 		.4byte	.LASF867
 12355 027f 05       		.byte	0x5
 12356 0280 FC01     		.uleb128 0xfc
 12357 0282 B20D0000 		.4byte	.LASF868
 12358 0286 05       		.byte	0x5
 12359 0287 FD01     		.uleb128 0xfd
 12360 0289 487C0000 		.4byte	.LASF869
 12361 028d 05       		.byte	0x5
 12362 028e FE01     		.uleb128 0xfe
 12363 0290 4F1D0000 		.4byte	.LASF870
 12364 0294 05       		.byte	0x5
 12365 0295 FF01     		.uleb128 0xff
 12366 0297 DC0B0000 		.4byte	.LASF871
 12367 029b 05       		.byte	0x5
 12368 029c 8402     		.uleb128 0x104
 12369 029e E7400000 		.4byte	.LASF872
 12370 02a2 05       		.byte	0x5
 12371 02a3 8902     		.uleb128 0x109
 12372 02a5 30450000 		.4byte	.LASF873
 12373 02a9 05       		.byte	0x5
 12374 02aa 8A02     		.uleb128 0x10a
 12375 02ac 37770000 		.4byte	.LASF874
 12376 02b0 05       		.byte	0x5
 12377 02b1 8B02     		.uleb128 0x10b
 12378 02b3 40320000 		.4byte	.LASF875
 12379 02b7 05       		.byte	0x5
 12380 02b8 8C02     		.uleb128 0x10c
 12381 02ba 11630000 		.4byte	.LASF876
 12382 02be 05       		.byte	0x5
 12383 02bf 8D02     		.uleb128 0x10d
 12384 02c1 BF320000 		.4byte	.LASF877
 12385 02c5 05       		.byte	0x5
 12386 02c6 9202     		.uleb128 0x112
 12387 02c8 65540000 		.4byte	.LASF878
 12388 02cc 05       		.byte	0x5
 12389 02cd 9302     		.uleb128 0x113
 12390 02cf 57640000 		.4byte	.LASF879
 12391 02d3 05       		.byte	0x5
 12392 02d4 9402     		.uleb128 0x114
 12393 02d6 050A0000 		.4byte	.LASF880
 12394 02da 05       		.byte	0x5
 12395 02db 9902     		.uleb128 0x119
 12396 02dd FF0F0000 		.4byte	.LASF881
 12397 02e1 05       		.byte	0x5
 12398 02e2 9A02     		.uleb128 0x11a
 12399 02e4 0F070000 		.4byte	.LASF882
 12400 02e8 05       		.byte	0x5
 12401 02e9 9F02     		.uleb128 0x11f
 12402 02eb 22610000 		.4byte	.LASF883
 12403 02ef 05       		.byte	0x5
ARM GAS  /tmp/ccGKa4GA.s 			page 249


 12404 02f0 A002     		.uleb128 0x120
 12405 02f2 F5390000 		.4byte	.LASF884
 12406 02f6 05       		.byte	0x5
 12407 02f7 A102     		.uleb128 0x121
 12408 02f9 D27A0000 		.4byte	.LASF885
 12409 02fd 05       		.byte	0x5
 12410 02fe A202     		.uleb128 0x122
 12411 0300 1D6D0000 		.4byte	.LASF886
 12412 0304 05       		.byte	0x5
 12413 0305 A302     		.uleb128 0x123
 12414 0307 48570000 		.4byte	.LASF887
 12415 030b 05       		.byte	0x5
 12416 030c A402     		.uleb128 0x124
 12417 030e C37D0000 		.4byte	.LASF888
 12418 0312 05       		.byte	0x5
 12419 0313 A502     		.uleb128 0x125
 12420 0315 F97A0000 		.4byte	.LASF889
 12421 0319 00       		.byte	0
 12422              		.section	.debug_macro,"G",%progbits,wm4.wwdt_11xx.h.33.5768344983cb842df69cc91ea86cabb0,comdat
 12423              	.Ldebug_macro22:
 12424 0000 0400     		.2byte	0x4
 12425 0002 00       		.byte	0
 12426 0003 05       		.byte	0x5
 12427 0004 21       		.uleb128 0x21
 12428 0005 16110000 		.4byte	.LASF890
 12429 0009 05       		.byte	0x5
 12430 000a 4B       		.uleb128 0x4b
 12431 000b A96A0000 		.4byte	.LASF891
 12432 000f 05       		.byte	0x5
 12433 0010 4D       		.uleb128 0x4d
 12434 0011 93110000 		.4byte	.LASF892
 12435 0015 05       		.byte	0x5
 12436 0016 4F       		.uleb128 0x4f
 12437 0017 415C0000 		.4byte	.LASF893
 12438 001b 05       		.byte	0x5
 12439 001c 51       		.uleb128 0x51
 12440 001d 483F0000 		.4byte	.LASF894
 12441 0021 05       		.byte	0x5
 12442 0022 53       		.uleb128 0x53
 12443 0023 28350000 		.4byte	.LASF895
 12444 0027 05       		.byte	0x5
 12445 0028 55       		.uleb128 0x55
 12446 0029 9B450000 		.4byte	.LASF896
 12447 002d 00       		.byte	0
 12448              		.section	.debug_macro,"G",%progbits,wm4.ssp_11xx.h.33.af054d3d65f4cb0c078be40bb872ec37,comdat
 12449              	.Ldebug_macro23:
 12450 0000 0400     		.2byte	0x4
 12451 0002 00       		.byte	0
 12452 0003 05       		.byte	0x5
 12453 0004 21       		.uleb128 0x21
 12454 0005 6E2D0000 		.4byte	.LASF897
 12455 0009 05       		.byte	0x5
 12456 000a 40       		.uleb128 0x40
 12457 000b 27500000 		.4byte	.LASF898
 12458 000f 05       		.byte	0x5
 12459 0010 42       		.uleb128 0x42
 12460 0011 72070000 		.4byte	.LASF899
ARM GAS  /tmp/ccGKa4GA.s 			page 250


 12461 0015 05       		.byte	0x5
 12462 0016 44       		.uleb128 0x44
 12463 0017 882A0000 		.4byte	.LASF900
 12464 001b 05       		.byte	0x5
 12465 001c 46       		.uleb128 0x46
 12466 001d EC520000 		.4byte	.LASF901
 12467 0021 05       		.byte	0x5
 12468 0022 49       		.uleb128 0x49
 12469 0023 D8420000 		.4byte	.LASF902
 12470 0027 05       		.byte	0x5
 12471 0028 4A       		.uleb128 0x4a
 12472 0029 7B090000 		.4byte	.LASF903
 12473 002d 05       		.byte	0x5
 12474 002e 4D       		.uleb128 0x4d
 12475 002f 74670000 		.4byte	.LASF904
 12476 0033 05       		.byte	0x5
 12477 0034 4E       		.uleb128 0x4e
 12478 0035 62750000 		.4byte	.LASF905
 12479 0039 05       		.byte	0x5
 12480 003a 51       		.uleb128 0x51
 12481 003b BF360000 		.4byte	.LASF906
 12482 003f 05       		.byte	0x5
 12483 0040 53       		.uleb128 0x53
 12484 0041 82120000 		.4byte	.LASF907
 12485 0045 05       		.byte	0x5
 12486 0046 55       		.uleb128 0x55
 12487 0047 82120000 		.4byte	.LASF907
 12488 004b 05       		.byte	0x5
 12489 004c 58       		.uleb128 0x58
 12490 004d BF360000 		.4byte	.LASF906
 12491 0051 05       		.byte	0x5
 12492 0052 5F       		.uleb128 0x5f
 12493 0053 5F560000 		.4byte	.LASF908
 12494 0057 05       		.byte	0x5
 12495 0058 61       		.uleb128 0x61
 12496 0059 C5000000 		.4byte	.LASF909
 12497 005d 05       		.byte	0x5
 12498 005e 63       		.uleb128 0x63
 12499 005f 7B240000 		.4byte	.LASF910
 12500 0063 05       		.byte	0x5
 12501 0064 64       		.uleb128 0x64
 12502 0065 04360000 		.4byte	.LASF911
 12503 0069 05       		.byte	0x5
 12504 006a 67       		.uleb128 0x67
 12505 006b EB630000 		.4byte	.LASF912
 12506 006f 05       		.byte	0x5
 12507 0070 69       		.uleb128 0x69
 12508 0071 7A7E0000 		.4byte	.LASF913
 12509 0075 05       		.byte	0x5
 12510 0076 6C       		.uleb128 0x6c
 12511 0077 657D0000 		.4byte	.LASF914
 12512 007b 05       		.byte	0x5
 12513 007c 72       		.uleb128 0x72
 12514 007d E51F0000 		.4byte	.LASF915
 12515 0081 05       		.byte	0x5
 12516 0082 79       		.uleb128 0x79
 12517 0083 F8380000 		.4byte	.LASF916
ARM GAS  /tmp/ccGKa4GA.s 			page 251


 12518 0087 05       		.byte	0x5
 12519 0088 7C       		.uleb128 0x7c
 12520 0089 69460000 		.4byte	.LASF917
 12521 008d 05       		.byte	0x5
 12522 008e C503     		.uleb128 0x1c5
 12523 0090 E33F0000 		.4byte	.LASF918
 12524 0094 05       		.byte	0x5
 12525 0095 C603     		.uleb128 0x1c6
 12526 0097 06200000 		.4byte	.LASF919
 12527 009b 05       		.byte	0x5
 12528 009c CF03     		.uleb128 0x1cf
 12529 009e F21A0000 		.4byte	.LASF920
 12530 00a2 05       		.byte	0x5
 12531 00a3 D003     		.uleb128 0x1d0
 12532 00a5 8B1D0000 		.4byte	.LASF921
 12533 00a9 05       		.byte	0x5
 12534 00aa D303     		.uleb128 0x1d3
 12535 00ac C77F0000 		.4byte	.LASF922
 12536 00b0 05       		.byte	0x5
 12537 00b1 D403     		.uleb128 0x1d4
 12538 00b3 9E0C0000 		.4byte	.LASF923
 12539 00b7 00       		.byte	0
 12540              		.section	.debug_macro,"G",%progbits,wm4.error.h.38.ae74fe1dd9d19c80c505f1fda144fce8,comdat
 12541              	.Ldebug_macro24:
 12542 0000 0400     		.2byte	0x4
 12543 0002 00       		.byte	0
 12544 0003 05       		.byte	0x5
 12545 0004 26       		.uleb128 0x26
 12546 0005 E2550000 		.4byte	.LASF925
 12547 0009 05       		.byte	0x5
 12548 000a 8401     		.uleb128 0x84
 12549 000c 63080000 		.4byte	.LASF926
 12550 0010 00       		.byte	0
 12551              		.section	.debug_macro,"G",%progbits,wm4.adc_11xx.h.33.6ce7433ac6b30df70a6993d01dbd513f,comdat
 12552              	.Ldebug_macro25:
 12553 0000 0400     		.2byte	0x4
 12554 0002 00       		.byte	0
 12555 0003 05       		.byte	0x5
 12556 0004 21       		.uleb128 0x21
 12557 0005 D21B0000 		.4byte	.LASF927
 12558 0009 05       		.byte	0x5
 12559 000a 2F       		.uleb128 0x2f
 12560 000b AC090000 		.4byte	.LASF928
 12561 000f 05       		.byte	0x5
 12562 0010 40       		.uleb128 0x40
 12563 0011 706F0000 		.4byte	.LASF929
 12564 0015 05       		.byte	0x5
 12565 0016 41       		.uleb128 0x41
 12566 0017 484E0000 		.4byte	.LASF930
 12567 001b 05       		.byte	0x5
 12568 001c 43       		.uleb128 0x43
 12569 001d 67500000 		.4byte	.LASF931
 12570 0021 05       		.byte	0x5
 12571 0022 44       		.uleb128 0x44
 12572 0023 AE710000 		.4byte	.LASF932
 12573 0027 05       		.byte	0x5
 12574 0028 45       		.uleb128 0x45
ARM GAS  /tmp/ccGKa4GA.s 			page 252


 12575 0029 883E0000 		.4byte	.LASF933
 12576 002d 05       		.byte	0x5
 12577 002e 46       		.uleb128 0x46
 12578 002f 43810000 		.4byte	.LASF934
 12579 0033 05       		.byte	0x5
 12580 0034 47       		.uleb128 0x47
 12581 0035 B9110000 		.4byte	.LASF935
 12582 0039 05       		.byte	0x5
 12583 003a 48       		.uleb128 0x48
 12584 003b B97A0000 		.4byte	.LASF936
 12585 003f 05       		.byte	0x5
 12586 0040 49       		.uleb128 0x49
 12587 0041 5B650000 		.4byte	.LASF937
 12588 0045 05       		.byte	0x5
 12589 0046 4A       		.uleb128 0x4a
 12590 0047 561B0000 		.4byte	.LASF938
 12591 004b 05       		.byte	0x5
 12592 004c 4B       		.uleb128 0x4b
 12593 004d 47210000 		.4byte	.LASF939
 12594 0051 05       		.byte	0x5
 12595 0052 4C       		.uleb128 0x4c
 12596 0053 53470000 		.4byte	.LASF940
 12597 0057 05       		.byte	0x5
 12598 0058 4D       		.uleb128 0x4d
 12599 0059 CA610000 		.4byte	.LASF941
 12600 005d 05       		.byte	0x5
 12601 005e 4E       		.uleb128 0x4e
 12602 005f 1A2D0000 		.4byte	.LASF942
 12603 0063 05       		.byte	0x5
 12604 0064 4F       		.uleb128 0x4f
 12605 0065 6F3F0000 		.4byte	.LASF943
 12606 0069 05       		.byte	0x5
 12607 006a 50       		.uleb128 0x50
 12608 006b 3A650000 		.4byte	.LASF944
 12609 006f 05       		.byte	0x5
 12610 0070 51       		.uleb128 0x51
 12611 0071 24580000 		.4byte	.LASF945
 12612 0075 05       		.byte	0x5
 12613 0076 52       		.uleb128 0x52
 12614 0077 0E5F0000 		.4byte	.LASF946
 12615 007b 00       		.byte	0
 12616              		.section	.debug_macro,"G",%progbits,wm4.i2c_11xx.h.33.2b506d1350e00a8c26e8bf006a5f9390,comdat
 12617              	.Ldebug_macro26:
 12618 0000 0400     		.2byte	0x4
 12619 0002 00       		.byte	0
 12620 0003 05       		.byte	0x5
 12621 0004 21       		.uleb128 0x21
 12622 0005 EF710000 		.4byte	.LASF948
 12623 0009 05       		.byte	0x5
 12624 000a 46       		.uleb128 0x46
 12625 000b 5D0E0000 		.4byte	.LASF949
 12626 000f 05       		.byte	0x5
 12627 0010 47       		.uleb128 0x47
 12628 0011 E15B0000 		.4byte	.LASF950
 12629 0015 05       		.byte	0x5
 12630 0016 48       		.uleb128 0x48
 12631 0017 881C0000 		.4byte	.LASF951
ARM GAS  /tmp/ccGKa4GA.s 			page 253


 12632 001b 05       		.byte	0x5
 12633 001c 49       		.uleb128 0x49
 12634 001d C36E0000 		.4byte	.LASF952
 12635 0021 05       		.byte	0x5
 12636 0022 4E       		.uleb128 0x4e
 12637 0023 436E0000 		.4byte	.LASF953
 12638 0027 05       		.byte	0x5
 12639 0028 53       		.uleb128 0x53
 12640 0029 F7190000 		.4byte	.LASF954
 12641 002d 05       		.byte	0x5
 12642 002e 54       		.uleb128 0x54
 12643 002f 2C0B0000 		.4byte	.LASF955
 12644 0033 05       		.byte	0x5
 12645 0034 55       		.uleb128 0x55
 12646 0035 00000000 		.4byte	.LASF956
 12647 0039 05       		.byte	0x5
 12648 003a 56       		.uleb128 0x56
 12649 003b D82F0000 		.4byte	.LASF957
 12650 003f 05       		.byte	0x5
 12651 0040 57       		.uleb128 0x57
 12652 0041 120F0000 		.4byte	.LASF958
 12653 0045 05       		.byte	0x5
 12654 0046 5C       		.uleb128 0x5c
 12655 0047 884A0000 		.4byte	.LASF959
 12656 004b 05       		.byte	0x5
 12657 004c 5D       		.uleb128 0x5d
 12658 004d 680C0000 		.4byte	.LASF960
 12659 0051 05       		.byte	0x5
 12660 0052 5E       		.uleb128 0x5e
 12661 0053 9B7B0000 		.4byte	.LASF961
 12662 0057 05       		.byte	0x5
 12663 0058 5F       		.uleb128 0x5f
 12664 0059 DA0C0000 		.4byte	.LASF962
 12665 005d 05       		.byte	0x5
 12666 005e 60       		.uleb128 0x60
 12667 005f 382A0000 		.4byte	.LASF963
 12668 0063 05       		.byte	0x5
 12669 0064 65       		.uleb128 0x65
 12670 0065 11500000 		.4byte	.LASF964
 12671 0069 05       		.byte	0x5
 12672 006a 66       		.uleb128 0x66
 12673 006b B2570000 		.4byte	.LASF965
 12674 006f 05       		.byte	0x5
 12675 0070 67       		.uleb128 0x67
 12676 0071 93440000 		.4byte	.LASF966
 12677 0075 05       		.byte	0x5
 12678 0076 68       		.uleb128 0x68
 12679 0077 17210000 		.4byte	.LASF967
 12680 007b 05       		.byte	0x5
 12681 007c 69       		.uleb128 0x69
 12682 007d 1C510000 		.4byte	.LASF968
 12683 0081 05       		.byte	0x5
 12684 0082 6E       		.uleb128 0x6e
 12685 0083 72410000 		.4byte	.LASF969
 12686 0087 05       		.byte	0x5
 12687 0088 6F       		.uleb128 0x6f
 12688 0089 48540000 		.4byte	.LASF970
ARM GAS  /tmp/ccGKa4GA.s 			page 254


 12689 008d 05       		.byte	0x5
 12690 008e 74       		.uleb128 0x74
 12691 008f 08250000 		.4byte	.LASF971
 12692 0093 05       		.byte	0x5
 12693 0094 75       		.uleb128 0x75
 12694 0095 5D090000 		.4byte	.LASF972
 12695 0099 05       		.byte	0x5
 12696 009a 7A       		.uleb128 0x7a
 12697 009b F64E0000 		.4byte	.LASF973
 12698 009f 05       		.byte	0x5
 12699 00a0 7B       		.uleb128 0x7b
 12700 00a1 D11A0000 		.4byte	.LASF974
 12701 00a5 05       		.byte	0x5
 12702 00a6 7C       		.uleb128 0x7c
 12703 00a7 16260000 		.4byte	.LASF975
 12704 00ab 05       		.byte	0x5
 12705 00ac 7D       		.uleb128 0x7d
 12706 00ad C6450000 		.4byte	.LASF976
 12707 00b1 05       		.byte	0x5
 12708 00b2 7E       		.uleb128 0x7e
 12709 00b3 9E310000 		.4byte	.LASF977
 12710 00b7 05       		.byte	0x5
 12711 00b8 7F       		.uleb128 0x7f
 12712 00b9 3D560000 		.4byte	.LASF978
 12713 00bd 05       		.byte	0x5
 12714 00be 8001     		.uleb128 0x80
 12715 00c0 4C1C0000 		.4byte	.LASF979
 12716 00c4 05       		.byte	0x5
 12717 00c5 8501     		.uleb128 0x85
 12718 00c7 89020000 		.4byte	.LASF980
 12719 00cb 05       		.byte	0x5
 12720 00cc 8601     		.uleb128 0x86
 12721 00ce 87010000 		.4byte	.LASF981
 12722 00d2 05       		.byte	0x5
 12723 00d3 8701     		.uleb128 0x87
 12724 00d5 D42D0000 		.4byte	.LASF982
 12725 00d9 05       		.byte	0x5
 12726 00da 8801     		.uleb128 0x88
 12727 00dc BB660000 		.4byte	.LASF983
 12728 00e0 05       		.byte	0x5
 12729 00e1 8901     		.uleb128 0x89
 12730 00e3 83400000 		.4byte	.LASF984
 12731 00e7 05       		.byte	0x5
 12732 00e8 8A01     		.uleb128 0x8a
 12733 00ea 350D0000 		.4byte	.LASF985
 12734 00ee 05       		.byte	0x5
 12735 00ef 8B01     		.uleb128 0x8b
 12736 00f1 26110000 		.4byte	.LASF986
 12737 00f5 05       		.byte	0x5
 12738 00f6 9001     		.uleb128 0x90
 12739 00f8 4A2F0000 		.4byte	.LASF987
 12740 00fc 05       		.byte	0x5
 12741 00fd 9101     		.uleb128 0x91
 12742 00ff 457B0000 		.4byte	.LASF988
 12743 0103 05       		.byte	0x5
 12744 0104 9301     		.uleb128 0x93
 12745 0106 84500000 		.4byte	.LASF989
ARM GAS  /tmp/ccGKa4GA.s 			page 255


 12746 010a 05       		.byte	0x5
 12747 010b 9401     		.uleb128 0x94
 12748 010d 71530000 		.4byte	.LASF990
 12749 0111 05       		.byte	0x5
 12750 0112 9601     		.uleb128 0x96
 12751 0114 99650000 		.4byte	.LASF991
 12752 0118 05       		.byte	0x5
 12753 0119 9701     		.uleb128 0x97
 12754 011b 0B0D0000 		.4byte	.LASF992
 12755 011f 05       		.byte	0x5
 12756 0120 9801     		.uleb128 0x98
 12757 0122 30140000 		.4byte	.LASF993
 12758 0126 05       		.byte	0x5
 12759 0127 9901     		.uleb128 0x99
 12760 0129 58130000 		.4byte	.LASF994
 12761 012d 05       		.byte	0x5
 12762 012e 9A01     		.uleb128 0x9a
 12763 0130 E9460000 		.4byte	.LASF995
 12764 0134 05       		.byte	0x5
 12765 0135 A001     		.uleb128 0xa0
 12766 0137 397D0000 		.4byte	.LASF996
 12767 013b 05       		.byte	0x5
 12768 013c A101     		.uleb128 0xa1
 12769 013e 49530000 		.4byte	.LASF997
 12770 0142 05       		.byte	0x5
 12771 0143 A301     		.uleb128 0xa3
 12772 0145 35190000 		.4byte	.LASF998
 12773 0149 05       		.byte	0x5
 12774 014a A401     		.uleb128 0xa4
 12775 014c 49550000 		.4byte	.LASF999
 12776 0150 05       		.byte	0x5
 12777 0151 A501     		.uleb128 0xa5
 12778 0153 E4760000 		.4byte	.LASF1000
 12779 0157 05       		.byte	0x5
 12780 0158 A601     		.uleb128 0xa6
 12781 015a 08320000 		.4byte	.LASF1001
 12782 015e 05       		.byte	0x5
 12783 015f AB01     		.uleb128 0xab
 12784 0161 7D340000 		.4byte	.LASF1002
 12785 0165 05       		.byte	0x5
 12786 0166 AC01     		.uleb128 0xac
 12787 0168 64710000 		.4byte	.LASF1003
 12788 016c 05       		.byte	0x5
 12789 016d B201     		.uleb128 0xb2
 12790 016f 55000000 		.4byte	.LASF1004
 12791 0173 05       		.byte	0x5
 12792 0174 B301     		.uleb128 0xb3
 12793 0176 44790000 		.4byte	.LASF1005
 12794 017a 05       		.byte	0x5
 12795 017b B401     		.uleb128 0xb4
 12796 017d AF470000 		.4byte	.LASF1006
 12797 0181 05       		.byte	0x5
 12798 0182 B501     		.uleb128 0xb5
 12799 0184 9E2E0000 		.4byte	.LASF1007
 12800 0188 05       		.byte	0x5
 12801 0189 BA01     		.uleb128 0xba
 12802 018b A8020000 		.4byte	.LASF1008
ARM GAS  /tmp/ccGKa4GA.s 			page 256


 12803 018f 05       		.byte	0x5
 12804 0190 BF01     		.uleb128 0xbf
 12805 0192 996B0000 		.4byte	.LASF1009
 12806 0196 05       		.byte	0x5
 12807 0197 C001     		.uleb128 0xc0
 12808 0199 57410000 		.4byte	.LASF1010
 12809 019d 05       		.byte	0x5
 12810 019e C501     		.uleb128 0xc5
 12811 01a0 875C0000 		.4byte	.LASF1011
 12812 01a4 05       		.byte	0x5
 12813 01a5 CA01     		.uleb128 0xca
 12814 01a7 EF410000 		.4byte	.LASF1012
 12815 01ab 05       		.byte	0x5
 12816 01ac CF01     		.uleb128 0xcf
 12817 01ae 86620000 		.4byte	.LASF1013
 12818 01b2 05       		.byte	0x5
 12819 01b3 D401     		.uleb128 0xd4
 12820 01b5 1C600000 		.4byte	.LASF1014
 12821 01b9 05       		.byte	0x5
 12822 01ba D501     		.uleb128 0xd5
 12823 01bc 5B820000 		.4byte	.LASF1015
 12824 01c0 05       		.byte	0x5
 12825 01c1 D601     		.uleb128 0xd6
 12826 01c3 79430000 		.4byte	.LASF1016
 12827 01c7 05       		.byte	0x5
 12828 01c8 DB01     		.uleb128 0xdb
 12829 01ca C1590000 		.4byte	.LASF1017
 12830 01ce 05       		.byte	0x5
 12831 01cf DC01     		.uleb128 0xdc
 12832 01d1 6C610000 		.4byte	.LASF1018
 12833 01d5 05       		.byte	0x5
 12834 01d6 DD01     		.uleb128 0xdd
 12835 01d8 74010000 		.4byte	.LASF1019
 12836 01dc 05       		.byte	0x5
 12837 01dd DE01     		.uleb128 0xde
 12838 01df 713B0000 		.4byte	.LASF1020
 12839 01e3 05       		.byte	0x5
 12840 01e4 DF01     		.uleb128 0xdf
 12841 01e6 0A600000 		.4byte	.LASF1021
 12842 01ea 05       		.byte	0x5
 12843 01eb E001     		.uleb128 0xe0
 12844 01ed 42290000 		.4byte	.LASF1022
 12845 01f1 05       		.byte	0x5
 12846 01f2 E101     		.uleb128 0xe1
 12847 01f4 436E0000 		.4byte	.LASF953
 12848 01f8 05       		.byte	0x5
 12849 01f9 E301     		.uleb128 0xe3
 12850 01fb 4F710000 		.4byte	.LASF1023
 12851 01ff 05       		.byte	0x5
 12852 0200 E401     		.uleb128 0xe4
 12853 0202 00170000 		.4byte	.LASF1024
 12854 0206 05       		.byte	0x5
 12855 0207 E601     		.uleb128 0xe6
 12856 0209 91410000 		.4byte	.LASF1025
 12857 020d 05       		.byte	0x5
 12858 020e EB01     		.uleb128 0xeb
 12859 0210 0D560000 		.4byte	.LASF1026
ARM GAS  /tmp/ccGKa4GA.s 			page 257


 12860 0214 05       		.byte	0x5
 12861 0215 EC01     		.uleb128 0xec
 12862 0217 D1200000 		.4byte	.LASF1027
 12863 021b 00       		.byte	0
 12864              		.section	.debug_macro,"G",%progbits,wm4.ccand_11xx.h.33.99627f4b529fecdc77b0877ab6fe5266,comdat
 12865              	.Ldebug_macro27:
 12866 0000 0400     		.2byte	0x4
 12867 0002 00       		.byte	0
 12868 0003 05       		.byte	0x5
 12869 0004 21       		.uleb128 0x21
 12870 0005 B5800000 		.4byte	.LASF1028
 12871 0009 05       		.byte	0x5
 12872 000a 6E       		.uleb128 0x6e
 12873 000b 70590000 		.4byte	.LASF1029
 12874 000f 05       		.byte	0x5
 12875 0010 6F       		.uleb128 0x6f
 12876 0011 D4010000 		.4byte	.LASF1030
 12877 0015 05       		.byte	0x5
 12878 0016 70       		.uleb128 0x70
 12879 0017 ED430000 		.4byte	.LASF1031
 12880 001b 05       		.byte	0x5
 12881 001c 71       		.uleb128 0x71
 12882 001d 450B0000 		.4byte	.LASF1032
 12883 0021 05       		.byte	0x5
 12884 0022 72       		.uleb128 0x72
 12885 0023 A5190000 		.4byte	.LASF1033
 12886 0027 05       		.byte	0x5
 12887 0028 73       		.uleb128 0x73
 12888 0029 980F0000 		.4byte	.LASF1034
 12889 002d 05       		.byte	0x5
 12890 002e 74       		.uleb128 0x74
 12891 002f E77E0000 		.4byte	.LASF1035
 12892 0033 05       		.byte	0x5
 12893 0034 75       		.uleb128 0x75
 12894 0035 A4620000 		.4byte	.LASF1036
 12895 0039 05       		.byte	0x5
 12896 003a 76       		.uleb128 0x76
 12897 003b F36B0000 		.4byte	.LASF1037
 12898 003f 05       		.byte	0x5
 12899 0040 77       		.uleb128 0x77
 12900 0041 BD7E0000 		.4byte	.LASF1038
 12901 0045 05       		.byte	0x5
 12902 0046 7C       		.uleb128 0x7c
 12903 0047 FD050000 		.4byte	.LASF1039
 12904 004b 05       		.byte	0x5
 12905 004c 7D       		.uleb128 0x7d
 12906 004d C6270000 		.4byte	.LASF1040
 12907 0051 05       		.byte	0x5
 12908 0052 7E       		.uleb128 0x7e
 12909 0053 EC310000 		.4byte	.LASF1041
 12910 0057 05       		.byte	0x5
 12911 0058 7F       		.uleb128 0x7f
 12912 0059 703C0000 		.4byte	.LASF1042
 12913 005d 05       		.byte	0x5
 12914 005e 9101     		.uleb128 0x91
 12915 0060 EA240000 		.4byte	.LASF1043
 12916 0064 05       		.byte	0x5
ARM GAS  /tmp/ccGKa4GA.s 			page 258


 12917 0065 9201     		.uleb128 0x92
 12918 0067 CF750000 		.4byte	.LASF1044
 12919 006b 05       		.byte	0x5
 12920 006c 9301     		.uleb128 0x93
 12921 006e 65040000 		.4byte	.LASF1045
 12922 0072 05       		.byte	0x5
 12923 0073 9401     		.uleb128 0x94
 12924 0075 770D0000 		.4byte	.LASF1046
 12925 0079 05       		.byte	0x5
 12926 007a 9501     		.uleb128 0x95
 12927 007c 085C0000 		.4byte	.LASF1047
 12928 0080 05       		.byte	0x5
 12929 0081 9601     		.uleb128 0x96
 12930 0083 A6640000 		.4byte	.LASF1048
 12931 0087 05       		.byte	0x5
 12932 0088 9701     		.uleb128 0x97
 12933 008a EB7B0000 		.4byte	.LASF1049
 12934 008e 05       		.byte	0x5
 12935 008f 9801     		.uleb128 0x98
 12936 0091 322C0000 		.4byte	.LASF1050
 12937 0095 05       		.byte	0x5
 12938 0096 9901     		.uleb128 0x99
 12939 0098 6B5B0000 		.4byte	.LASF1051
 12940 009c 05       		.byte	0x5
 12941 009d 9A01     		.uleb128 0x9a
 12942 009f 07240000 		.4byte	.LASF1052
 12943 00a3 05       		.byte	0x5
 12944 00a4 9B01     		.uleb128 0x9b
 12945 00a6 9D360000 		.4byte	.LASF1053
 12946 00aa 05       		.byte	0x5
 12947 00ab 9C01     		.uleb128 0x9c
 12948 00ad 301F0000 		.4byte	.LASF1054
 12949 00b1 05       		.byte	0x5
 12950 00b2 9D01     		.uleb128 0x9d
 12951 00b4 F57D0000 		.4byte	.LASF1055
 12952 00b8 05       		.byte	0x5
 12953 00b9 9E01     		.uleb128 0x9e
 12954 00bb BB560000 		.4byte	.LASF1056
 12955 00bf 05       		.byte	0x5
 12956 00c0 9F01     		.uleb128 0x9f
 12957 00c2 86190000 		.4byte	.LASF1057
 12958 00c6 05       		.byte	0x5
 12959 00c7 A901     		.uleb128 0xa9
 12960 00c9 CB250000 		.4byte	.LASF1058
 12961 00cd 05       		.byte	0x5
 12962 00ce AA01     		.uleb128 0xaa
 12963 00d0 D4140000 		.4byte	.LASF1059
 12964 00d4 05       		.byte	0x5
 12965 00d5 AB01     		.uleb128 0xab
 12966 00d7 D3220000 		.4byte	.LASF1060
 12967 00db 05       		.byte	0x5
 12968 00dc AC01     		.uleb128 0xac
 12969 00de BC530000 		.4byte	.LASF1061
 12970 00e2 05       		.byte	0x5
 12971 00e3 AD01     		.uleb128 0xad
 12972 00e5 243F0000 		.4byte	.LASF1062
 12973 00e9 05       		.byte	0x5
ARM GAS  /tmp/ccGKa4GA.s 			page 259


 12974 00ea AE01     		.uleb128 0xae
 12975 00ec 753D0000 		.4byte	.LASF1063
 12976 00f0 05       		.byte	0x5
 12977 00f1 AF01     		.uleb128 0xaf
 12978 00f3 6E4C0000 		.4byte	.LASF1064
 12979 00f7 05       		.byte	0x5
 12980 00f8 C401     		.uleb128 0xc4
 12981 00fa 667C0000 		.4byte	.LASF1065
 12982 00fe 05       		.byte	0x5
 12983 00ff C501     		.uleb128 0xc5
 12984 0101 546A0000 		.4byte	.LASF1066
 12985 0105 05       		.byte	0x5
 12986 0106 C601     		.uleb128 0xc6
 12987 0108 6B5E0000 		.4byte	.LASF1067
 12988 010c 05       		.byte	0x5
 12989 010d C901     		.uleb128 0xc9
 12990 010f 20480000 		.4byte	.LASF1068
 12991 0113 05       		.byte	0x5
 12992 0114 CA01     		.uleb128 0xca
 12993 0116 F94A0000 		.4byte	.LASF1069
 12994 011a 05       		.byte	0x5
 12995 011b CB01     		.uleb128 0xcb
 12996 011d F9110000 		.4byte	.LASF1070
 12997 0121 05       		.byte	0x5
 12998 0122 E501     		.uleb128 0xe5
 12999 0124 F7270000 		.4byte	.LASF1071
 13000 0128 00       		.byte	0
 13001              		.section	.debug_line,"",%progbits
 13002              	.Ldebug_line0:
 13003 0000 220A0000 		.section	.debug_str,"MS",%progbits,1
 13003      0200E202 
 13003      00000201 
 13003      FB0E0D00 
 13003      01010101 
 13004              	.LASF956:
 13005 0000 4932435F 		.ascii	"I2C_I2CONSET_STO ((0x10))\000"
 13005      4932434F 
 13005      4E534554 
 13005      5F53544F 
 13005      20282830 
 13006              	.LASF507:
 13007 001a 57494E54 		.ascii	"WINT_MIN (__WINT_MIN__)\000"
 13007      5F4D494E 
 13007      20285F5F 
 13007      57494E54 
 13007      5F4D494E 
 13008              	.LASF377:
 13009 0032 5F504F53 		.ascii	"_POSIX_SOURCE 1\000"
 13009      49585F53 
 13009      4F555243 
 13009      45203100 
 13010              	.LASF158:
 13011 0042 5F5F4445 		.ascii	"__DECIMAL_DIG__ 17\000"
 13011      43494D41 
 13011      4C5F4449 
 13011      475F5F20 
 13011      313700
ARM GAS  /tmp/ccGKa4GA.s 			page 260


 13012              	.LASF1004:
 13013 0055 4932435F 		.ascii	"I2C_I2MMCTRL_MM_ENA ((1 << 0))\000"
 13013      49324D4D 
 13013      4354524C 
 13013      5F4D4D5F 
 13013      454E4120 
 13014              	.LASF1275:
 13015 0074 77646174 		.ascii	"wdata8\000"
 13015      613800
 13016              	.LASF389:
 13017 007b 5F5F5356 		.ascii	"__SVID_VISIBLE 1\000"
 13017      49445F56 
 13017      49534942 
 13017      4C452031 
 13017      00
 13018              	.LASF765:
 13019 008c 54494D45 		.ascii	"TIMER_INT_ON_MATCH(n) (_BIT(((n) * 3)))\000"
 13019      525F494E 
 13019      545F4F4E 
 13019      5F4D4154 
 13019      4348286E 
 13020              	.LASF1174:
 13021 00b4 53595343 		.ascii	"SYSCTL_CLOCK_SYS\000"
 13021      544C5F43 
 13021      4C4F434B 
 13021      5F535953 
 13021      00
 13022              	.LASF909:
 13023 00c5 5353505F 		.ascii	"SSP_CR1_SSP_EN ((uint32_t) (1 << 1))\000"
 13023      4352315F 
 13023      5353505F 
 13023      454E2028 
 13023      2875696E 
 13024              	.LASF526:
 13025 00ea 5F424954 		.ascii	"_BIT\000"
 13025      00
 13026              	.LASF185:
 13027 00ef 5F5F4445 		.ascii	"__DEC128_EPSILON__ 1E-33DL\000"
 13027      43313238 
 13027      5F455053 
 13027      494C4F4E 
 13027      5F5F2031 
 13028              	.LASF653:
 13029 010a 4C50435F 		.ascii	"LPC_IOCON_BASE 0x40044000\000"
 13029      494F434F 
 13029      4E5F4241 
 13029      53452030 
 13029      78343030 
 13030              	.LASF632:
 13031 0124 4E564943 		.ascii	"NVIC_BASE (SCS_BASE + 0x0100UL)\000"
 13031      5F424153 
 13031      45202853 
 13031      43535F42 
 13031      41534520 
 13032              	.LASF311:
 13033 0144 5F5F4743 		.ascii	"__GCC_ATOMIC_WCHAR_T_LOCK_FREE 1\000"
 13033      435F4154 
ARM GAS  /tmp/ccGKa4GA.s 			page 261


 13033      4F4D4943 
 13033      5F574348 
 13033      41525F54 
 13034              	.LASF294:
 13035 0165 5F5F5441 		.ascii	"__TA_IBIT__ 64\000"
 13035      5F494249 
 13035      545F5F20 
 13035      363400
 13036              	.LASF1019:
 13037 0174 4932435F 		.ascii	"I2C_BYTE_RECV 0x02\000"
 13037      42595445 
 13037      5F524543 
 13037      56203078 
 13037      303200
 13038              	.LASF981:
 13039 0187 4932435F 		.ascii	"I2C_I2STAT_M_RX_RESTART ((0x10))\000"
 13039      49325354 
 13039      41545F4D 
 13039      5F52585F 
 13039      52455354 
 13040              	.LASF1176:
 13041 01a8 53595343 		.ascii	"SYSCTL_CLOCK_RAM\000"
 13041      544C5F43 
 13041      4C4F434B 
 13041      5F52414D 
 13041      00
 13042              	.LASF187:
 13043 01b9 5F5F5346 		.ascii	"__SFRACT_FBIT__ 7\000"
 13043      52414354 
 13043      5F464249 
 13043      545F5F20 
 13043      3700
 13044              	.LASF1094:
 13045 01cb 73697A65 		.ascii	"sizetype\000"
 13045      74797065 
 13045      00
 13046              	.LASF1030:
 13047 01d4 43414E5F 		.ascii	"CAN_ERROR_PASS 0x00000001UL\000"
 13047      4552524F 
 13047      525F5041 
 13047      53532030 
 13047      78303030 
 13048              	.LASF641:
 13049 01f0 4C50435F 		.ascii	"LPC_WWDT_BASE 0x40004000\000"
 13049      57574454 
 13049      5F424153 
 13049      45203078 
 13049      34303030 
 13050              	.LASF1277:
 13051 0209 636C6B5F 		.ascii	"clk_rate\000"
 13051      72617465 
 13051      00
 13052              	.LASF259:
 13053 0212 5F5F4C4C 		.ascii	"__LLACCUM_MIN__ (-0X1P31LLK-0X1P31LLK)\000"
 13053      41434355 
 13053      4D5F4D49 
 13053      4E5F5F20 
ARM GAS  /tmp/ccGKa4GA.s 			page 262


 13053      282D3058 
 13054              	.LASF251:
 13055 0239 5F5F4C41 		.ascii	"__LACCUM_EPSILON__ 0x1P-31LK\000"
 13055      4343554D 
 13055      5F455053 
 13055      494C4F4E 
 13055      5F5F2030 
 13056              	.LASF689:
 13057 0256 53595343 		.ascii	"SYSCTL_RST_POR (1 << 0)\000"
 13057      544C5F52 
 13057      53545F50 
 13057      4F522028 
 13057      31203C3C 
 13058              	.LASF77:
 13059 026e 5F5F5054 		.ascii	"__PTRDIFF_MAX__ 0x7fffffff\000"
 13059      52444946 
 13059      465F4D41 
 13059      585F5F20 
 13059      30783766 
 13060              	.LASF980:
 13061 0289 4932435F 		.ascii	"I2C_I2STAT_M_RX_START ((0x08))\000"
 13061      49325354 
 13061      41545F4D 
 13061      5F52585F 
 13061      53544152 
 13062              	.LASF1008:
 13063 02a8 49324441 		.ascii	"I2DATA_BUFFER_BITMASK ((0xFF))\000"
 13063      54415F42 
 13063      55464645 
 13063      525F4249 
 13063      544D4153 
 13064              	.LASF80:
 13065 02c7 5F5F494E 		.ascii	"__INTMAX_C(c) c ## LL\000"
 13065      544D4158 
 13065      5F432863 
 13065      29206320 
 13065      2323204C 
 13066              	.LASF440:
 13067 02dd 5F55494E 		.ascii	"_UINT32_T_DECLARED \000"
 13067      5433325F 
 13067      545F4445 
 13067      434C4152 
 13067      45442000 
 13068              	.LASF79:
 13069 02f1 5F5F494E 		.ascii	"__INTMAX_MAX__ 0x7fffffffffffffffLL\000"
 13069      544D4158 
 13069      5F4D4158 
 13069      5F5F2030 
 13069      78376666 
 13070              	.LASF172:
 13071 0315 5F5F4445 		.ascii	"__DEC32_SUBNORMAL_MIN__ 0.000001E-95DF\000"
 13071      4333325F 
 13071      5355424E 
 13071      4F524D41 
 13071      4C5F4D49 
 13072              	.LASF276:
 13073 033c 5F5F5451 		.ascii	"__TQ_IBIT__ 0\000"
ARM GAS  /tmp/ccGKa4GA.s 			page 263


 13073      5F494249 
 13073      545F5F20 
 13073      3000
 13074              	.LASF1239:
 13075 034a 5353505F 		.ascii	"SSP_BITS_12\000"
 13075      42495453 
 13075      5F313200 
 13076              	.LASF825:
 13077 0356 55415254 		.ascii	"UART_LCR_BREAK_EN (1 << 6)\000"
 13077      5F4C4352 
 13077      5F425245 
 13077      414B5F45 
 13077      4E202831 
 13078              	.LASF1304:
 13079 0371 52617749 		.ascii	"RawInt\000"
 13079      6E7400
 13080              	.LASF11:
 13081 0378 5F5F4154 		.ascii	"__ATOMIC_CONSUME 1\000"
 13081      4F4D4943 
 13081      5F434F4E 
 13081      53554D45 
 13081      203100
 13082              	.LASF209:
 13083 038b 5F5F4C46 		.ascii	"__LFRACT_MIN__ (-0.5LR-0.5LR)\000"
 13083      52414354 
 13083      5F4D494E 
 13083      5F5F2028 
 13083      2D302E35 
 13084              	.LASF73:
 13085 03a9 5F5F5743 		.ascii	"__WCHAR_MAX__ 0xffffffffU\000"
 13085      4841525F 
 13085      4D41585F 
 13085      5F203078 
 13085      66666666 
 13086              	.LASF567:
 13087 03c3 5343425F 		.ascii	"SCB_CPUID_ARCHITECTURE_Msk (0xFUL << SCB_CPUID_ARCH"
 13087      43505549 
 13087      445F4152 
 13087      43484954 
 13087      45435455 
 13088 03f6 49544543 		.ascii	"ITECTURE_Pos)\000"
 13088      54555245 
 13088      5F506F73 
 13088      2900
 13089              	.LASF239:
 13090 0404 5F5F4143 		.ascii	"__ACCUM_MIN__ (-0X1P15K-0X1P15K)\000"
 13090      43554D5F 
 13090      4D494E5F 
 13090      5F20282D 
 13090      30583150 
 13091              	.LASF324:
 13092 0425 5F5F4152 		.ascii	"__ARM_FEATURE_QBIT\000"
 13092      4D5F4645 
 13092      41545552 
 13092      455F5142 
 13092      495400
 13093              	.LASF832:
ARM GAS  /tmp/ccGKa4GA.s 			page 264


 13094 0438 55415254 		.ascii	"UART_MCR_AUTO_CTS_EN (1 << 7)\000"
 13094      5F4D4352 
 13094      5F415554 
 13094      4F5F4354 
 13094      535F454E 
 13095              	.LASF139:
 13096 0456 5F5F4442 		.ascii	"__DBL_DIG__ 15\000"
 13096      4C5F4449 
 13096      475F5F20 
 13096      313500
 13097              	.LASF1045:
 13098 0465 53444F5F 		.ascii	"SDO_ABORT_UNKNOWN_COMMAND 0x05040001UL\000"
 13098      41424F52 
 13098      545F554E 
 13098      4B4E4F57 
 13098      4E5F434F 
 13099              	.LASF569:
 13100 048c 5343425F 		.ascii	"SCB_CPUID_PARTNO_Msk (0xFFFUL << SCB_CPUID_PARTNO_P"
 13100      43505549 
 13100      445F5041 
 13100      52544E4F 
 13100      5F4D736B 
 13101 04bf 6F732900 		.ascii	"os)\000"
 13102              	.LASF1307:
 13103 04c3 43686970 		.ascii	"Chip_SSP_Disable\000"
 13103      5F535350 
 13103      5F446973 
 13103      61626C65 
 13103      00
 13104              	.LASF16:
 13105 04d4 5F5F5349 		.ascii	"__SIZEOF_LONG_LONG__ 8\000"
 13105      5A454F46 
 13105      5F4C4F4E 
 13105      475F4C4F 
 13105      4E475F5F 
 13106              	.LASF143:
 13107 04eb 5F5F4442 		.ascii	"__DBL_MAX_10_EXP__ 308\000"
 13107      4C5F4D41 
 13107      585F3130 
 13107      5F455850 
 13107      5F5F2033 
 13108              	.LASF859:
 13109 0502 55415254 		.ascii	"UART_ACR_BITMASK (0x307)\000"
 13109      5F414352 
 13109      5F424954 
 13109      4D41534B 
 13109      20283078 
 13110              	.LASF828:
 13111 051b 55415254 		.ascii	"UART_MCR_DTR_CTRL (1 << 0)\000"
 13111      5F4D4352 
 13111      5F445452 
 13111      5F435452 
 13111      4C202831 
 13112              	.LASF199:
 13113 0536 5F5F4652 		.ascii	"__FRACT_MIN__ (-0.5R-0.5R)\000"
 13113      4143545F 
 13113      4D494E5F 
ARM GAS  /tmp/ccGKa4GA.s 			page 265


 13113      5F20282D 
 13113      302E3552 
 13114              	.LASF265:
 13115 0551 5F5F554C 		.ascii	"__ULLACCUM_MAX__ 0XFFFFFFFFFFFFFFFFP-32ULLK\000"
 13115      4C414343 
 13115      554D5F4D 
 13115      41585F5F 
 13115      20305846 
 13116              	.LASF615:
 13117 057d 53797354 		.ascii	"SysTick_CTRL_CLKSOURCE_Msk (1UL << SysTick_CTRL_CLK"
 13117      69636B5F 
 13117      4354524C 
 13117      5F434C4B 
 13117      534F5552 
 13118 05b0 534F5552 		.ascii	"SOURCE_Pos)\000"
 13118      43455F50 
 13118      6F732900 
 13119              	.LASF1224:
 13120 05bc 5353505F 		.ascii	"SSP_CLOCK_MODE2\000"
 13120      434C4F43 
 13120      4B5F4D4F 
 13120      44453200 
 13121              	.LASF169:
 13122 05cc 5F5F4445 		.ascii	"__DEC32_MIN__ 1E-95DF\000"
 13122      4333325F 
 13122      4D494E5F 
 13122      5F203145 
 13122      2D393544 
 13123              	.LASF572:
 13124 05e2 5343425F 		.ascii	"SCB_ICSR_NMIPENDSET_Pos 31\000"
 13124      49435352 
 13124      5F4E4D49 
 13124      50454E44 
 13124      5345545F 
 13125              	.LASF1039:
 13126 05fd 43414E5F 		.ascii	"CAN_MSGOBJ_STD 0x00000000UL\000"
 13126      4D53474F 
 13126      424A5F53 
 13126      54442030 
 13126      78303030 
 13127              	.LASF646:
 13128 0619 4C50435F 		.ascii	"LPC_TIMER32_1_BASE 0x40018000\000"
 13128      54494D45 
 13128      5233325F 
 13128      315F4241 
 13128      53452030 
 13129              	.LASF272:
 13130 0637 5F5F5351 		.ascii	"__SQ_IBIT__ 0\000"
 13130      5F494249 
 13130      545F5F20 
 13130      3000
 13131              	.LASF26:
 13132 0645 5F5F4F52 		.ascii	"__ORDER_PDP_ENDIAN__ 3412\000"
 13132      4445525F 
 13132      5044505F 
 13132      454E4449 
 13132      414E5F5F 
ARM GAS  /tmp/ccGKa4GA.s 			page 266


 13133              	.LASF1193:
 13134 065f 43484950 		.ascii	"CHIP_SYSCTL_CLOCK_T\000"
 13134      5F535953 
 13134      43544C5F 
 13134      434C4F43 
 13134      4B5F5400 
 13135              	.LASF175:
 13136 0673 5F5F4445 		.ascii	"__DEC64_MAX_EXP__ 385\000"
 13136      4336345F 
 13136      4D41585F 
 13136      4558505F 
 13136      5F203338 
 13137              	.LASF1139:
 13138 0689 424F4443 		.ascii	"BODCTRL\000"
 13138      54524C00 
 13139              	.LASF609:
 13140 0691 5343425F 		.ascii	"SCB_CCR_UNALIGN_TRP_Msk (1UL << SCB_CCR_UNALIGN_TRP"
 13140      4343525F 
 13140      554E414C 
 13140      49474E5F 
 13140      5452505F 
 13141 06c4 5F506F73 		.ascii	"_Pos)\000"
 13141      2900
 13142              	.LASF135:
 13143 06ca 5F5F464C 		.ascii	"__FLT_HAS_DENORM__ 1\000"
 13143      545F4841 
 13143      535F4445 
 13143      4E4F524D 
 13143      5F5F2031 
 13144              	.LASF39:
 13145 06df 5F5F494E 		.ascii	"__INT8_TYPE__ signed char\000"
 13145      54385F54 
 13145      5950455F 
 13145      5F207369 
 13145      676E6564 
 13146              	.LASF335:
 13147 06f9 5F5F4152 		.ascii	"__ARM_ARCH_PROFILE 77\000"
 13147      4D5F4152 
 13147      43485F50 
 13147      524F4649 
 13147      4C452037 
 13148              	.LASF882:
 13149 070f 55415254 		.ascii	"UART_TER2_TXEN (1 << 0)\000"
 13149      5F544552 
 13149      325F5458 
 13149      454E2028 
 13149      31203C3C 
 13150              	.LASF579:
 13151 0727 5343425F 		.ascii	"SCB_ICSR_PENDSTSET_Msk (1UL << SCB_ICSR_PENDSTSET_P"
 13151      49435352 
 13151      5F50454E 
 13151      44535453 
 13151      45545F4D 
 13152 075a 6F732900 		.ascii	"os)\000"
 13153              	.LASF1182:
 13154 075e 53595343 		.ascii	"SYSCTL_CLOCK_CT16B1\000"
 13154      544C5F43 
ARM GAS  /tmp/ccGKa4GA.s 			page 267


 13154      4C4F434B 
 13154      5F435431 
 13154      36423100 
 13155              	.LASF899:
 13156 0772 5353505F 		.ascii	"SSP_CR0_FRF_SPI ((uint32_t) (0 << 4))\000"
 13156      4352305F 
 13156      4652465F 
 13156      53504920 
 13156      28287569 
 13157              	.LASF842:
 13158 0798 55415254 		.ascii	"UART_LSR_TXFE (1 << 8)\000"
 13158      5F4C5352 
 13158      5F545846 
 13158      45202831 
 13158      203C3C20 
 13159              	.LASF154:
 13160 07af 5F5F4C44 		.ascii	"__LDBL_MIN_EXP__ (-1021)\000"
 13160      424C5F4D 
 13160      494E5F45 
 13160      58505F5F 
 13160      20282D31 
 13161              	.LASF390:
 13162 07c8 5F5F5853 		.ascii	"__XSI_VISIBLE 0\000"
 13162      495F5649 
 13162      5349424C 
 13162      45203000 
 13163              	.LASF152:
 13164 07d8 5F5F4C44 		.ascii	"__LDBL_MANT_DIG__ 53\000"
 13164      424C5F4D 
 13164      414E545F 
 13164      4449475F 
 13164      5F203533 
 13165              	.LASF487:
 13166 07ed 494E545F 		.ascii	"INT_FAST16_MIN (-__INT_FAST16_MAX__ - 1)\000"
 13166      46415354 
 13166      31365F4D 
 13166      494E2028 
 13166      2D5F5F49 
 13167              	.LASF333:
 13168 0816 5F5F4152 		.ascii	"__ARM_SIZEOF_MINIMAL_ENUM 1\000"
 13168      4D5F5349 
 13168      5A454F46 
 13168      5F4D494E 
 13168      494D414C 
 13169              	.LASF102:
 13170 0832 5F5F5549 		.ascii	"__UINT8_C(c) c\000"
 13170      4E54385F 
 13170      43286329 
 13170      206300
 13171              	.LASF40:
 13172 0841 5F5F494E 		.ascii	"__INT16_TYPE__ short int\000"
 13172      5431365F 
 13172      54595045 
 13172      5F5F2073 
 13172      686F7274 
 13173              	.LASF406:
 13174 085a 756E7369 		.ascii	"unsigned\000"
ARM GAS  /tmp/ccGKa4GA.s 			page 268


 13174      676E6564 
 13174      00
 13175              	.LASF926:
 13176 0863 434F4D50 		.ascii	"COMPILE_TIME_ASSERT(pred) switch(0){case 0:case pre"
 13176      494C455F 
 13176      54494D45 
 13176      5F415353 
 13176      45525428 
 13177 0896 643A3B7D 		.ascii	"d:;}\000"
 13177      00
 13178              	.LASF250:
 13179 089b 5F5F4C41 		.ascii	"__LACCUM_MAX__ 0X7FFFFFFFFFFFFFFFP-31LK\000"
 13179      4343554D 
 13179      5F4D4158 
 13179      5F5F2030 
 13179      58374646 
 13180              	.LASF645:
 13181 08c3 4C50435F 		.ascii	"LPC_TIMER32_0_BASE 0x40014000\000"
 13181      54494D45 
 13181      5233325F 
 13181      305F4241 
 13181      53452030 
 13182              	.LASF860:
 13183 08e1 55415254 		.ascii	"UART_RS485CTRL_NMM_EN (1 << 0)\000"
 13183      5F525334 
 13183      38354354 
 13183      524C5F4E 
 13183      4D4D5F45 
 13184              	.LASF525:
 13185 0900 50415241 		.ascii	"PARAM_FUNCTIONALSTATE(State) ((State == DISABLE) ||"
 13185      4D5F4655 
 13185      4E435449 
 13185      4F4E414C 
 13185      53544154 
 13186 0933 20285374 		.ascii	" (State == ENABLE))\000"
 13186      61746520 
 13186      3D3D2045 
 13186      4E41424C 
 13186      45292900 
 13187              	.LASF1226:
 13188 0947 43484950 		.ascii	"CHIP_SSP_FRAME_FORMAT\000"
 13188      5F535350 
 13188      5F465241 
 13188      4D455F46 
 13188      4F524D41 
 13189              	.LASF972:
 13190 095d 4932435F 		.ascii	"I2C_I2STAT_BUS_ERROR ((0x00))\000"
 13190      49325354 
 13190      41545F42 
 13190      55535F45 
 13190      52524F52 
 13191              	.LASF903:
 13192 097b 5353505F 		.ascii	"SSP_CR0_CPOL_HI ((uint32_t) (1 << 6))\000"
 13192      4352305F 
 13192      43504F4C 
 13192      5F484920 
 13192      28287569 
ARM GAS  /tmp/ccGKa4GA.s 			page 269


 13193              	.LASF1164:
 13194 09a1 52455345 		.ascii	"RESET_CAN0\000"
 13194      545F4341 
 13194      4E3000
 13195              	.LASF928:
 13196 09ac 4144435F 		.ascii	"ADC_MAX_SAMPLE_RATE 400000\000"
 13196      4D41585F 
 13196      53414D50 
 13196      4C455F52 
 13196      41544520 
 13197              	.LASF717:
 13198 09c7 494F434F 		.ascii	"IOCON_FUNC1 0x1\000"
 13198      4E5F4655 
 13198      4E433120 
 13198      30783100 
 13199              	.LASF1271:
 13200 09d7 72646174 		.ascii	"rdata16\000"
 13200      61313600 
 13201              	.LASF470:
 13202 09df 494E545F 		.ascii	"INT_LEAST16_MAX (__INT_LEAST16_MAX__)\000"
 13202      4C454153 
 13202      5431365F 
 13202      4D415820 
 13202      285F5F49 
 13203              	.LASF880:
 13204 0a05 55415254 		.ascii	"UART_FDR_BITMASK (0xFF)\000"
 13204      5F464452 
 13204      5F424954 
 13204      4D41534B 
 13204      20283078 
 13205              	.LASF1:
 13206 0a1d 5F5F5354 		.ascii	"__STDC_HOSTED__ 1\000"
 13206      44435F48 
 13206      4F535445 
 13206      445F5F20 
 13206      3100
 13207              	.LASF222:
 13208 0a2f 5F5F554C 		.ascii	"__ULLFRACT_FBIT__ 64\000"
 13208      4C465241 
 13208      43545F46 
 13208      4249545F 
 13208      5F203634 
 13209              	.LASF789:
 13210 0a44 55415254 		.ascii	"UART2_IER_BITMASK (0x38F)\000"
 13210      325F4945 
 13210      525F4249 
 13210      544D4153 
 13210      4B202830 
 13211              	.LASF1127:
 13212 0a5e 55534243 		.ascii	"USBCLKDIV\000"
 13212      4C4B4449 
 13212      5600
 13213              	.LASF488:
 13214 0a68 494E545F 		.ascii	"INT_FAST16_MAX (__INT_FAST16_MAX__)\000"
 13214      46415354 
 13214      31365F4D 
 13214      41582028 
ARM GAS  /tmp/ccGKa4GA.s 			page 270


 13214      5F5F494E 
 13215              	.LASF58:
 13216 0a8c 5F5F494E 		.ascii	"__INT_FAST64_TYPE__ long long int\000"
 13216      545F4641 
 13216      53543634 
 13216      5F545950 
 13216      455F5F20 
 13217              	.LASF578:
 13218 0aae 5343425F 		.ascii	"SCB_ICSR_PENDSTSET_Pos 26\000"
 13218      49435352 
 13218      5F50454E 
 13218      44535453 
 13218      45545F50 
 13219              	.LASF461:
 13220 0ac8 494E5438 		.ascii	"INT8_MAX (__INT8_MAX__)\000"
 13220      5F4D4158 
 13220      20285F5F 
 13220      494E5438 
 13220      5F4D4158 
 13221              	.LASF710:
 13222 0ae0 53595343 		.ascii	"SYSCTL_POWERDOWN_SYSOSC_PD (1 << 5)\000"
 13222      544C5F50 
 13222      4F574552 
 13222      444F574E 
 13222      5F535953 
 13223              	.LASF411:
 13224 0b04 7369676E 		.ascii	"signed +0\000"
 13224      6564202B 
 13224      3000
 13225              	.LASF502:
 13226 0b0e 50545244 		.ascii	"PTRDIFF_MAX (__PTRDIFF_MAX__)\000"
 13226      4946465F 
 13226      4D415820 
 13226      285F5F50 
 13226      54524449 
 13227              	.LASF955:
 13228 0b2c 4932435F 		.ascii	"I2C_I2CONSET_SI ((0x08))\000"
 13228      4932434F 
 13228      4E534554 
 13228      5F534920 
 13228      28283078 
 13229              	.LASF1032:
 13230 0b45 43414E5F 		.ascii	"CAN_ERROR_BOFF 0x00000004UL\000"
 13230      4552524F 
 13230      525F424F 
 13230      46462030 
 13230      78303030 
 13231              	.LASF833:
 13232 0b61 55415254 		.ascii	"UART_MCR_BITMASK (0xD3)\000"
 13232      5F4D4352 
 13232      5F424954 
 13232      4D41534B 
 13232      20283078 
 13233              	.LASF82:
 13234 0b79 5F5F5549 		.ascii	"__UINTMAX_C(c) c ## ULL\000"
 13234      4E544D41 
 13234      585F4328 
ARM GAS  /tmp/ccGKa4GA.s 			page 271


 13234      63292063 
 13234      20232320 
 13235              	.LASF536:
 13236 0b91 554E5553 		.ascii	"UNUSED(x) (void)(x)\000"
 13236      45442878 
 13236      29202876 
 13236      6F696429 
 13236      28782900 
 13237              	.LASF195:
 13238 0ba5 5F5F5553 		.ascii	"__USFRACT_MAX__ 0XFFP-8UHR\000"
 13238      46524143 
 13238      545F4D41 
 13238      585F5F20 
 13238      30584646 
 13239              	.LASF331:
 13240 0bc0 5F5F4152 		.ascii	"__ARM_FEATURE_CLZ\000"
 13240      4D5F4645 
 13240      41545552 
 13240      455F434C 
 13240      5A00
 13241              	.LASF1196:
 13242 0bd2 4C50435F 		.ascii	"LPC_SSP_T\000"
 13242      5353505F 
 13242      5400
 13243              	.LASF871:
 13244 0bdc 55415254 		.ascii	"UART_ICR_BITMASK (0x3F)\000"
 13244      5F494352 
 13244      5F424954 
 13244      4D41534B 
 13244      20283078 
 13245              	.LASF737:
 13246 0bf4 4D445F50 		.ascii	"MD_PLN (0x0 << 3)\000"
 13246      4C4E2028 
 13246      30783020 
 13246      3C3C2033 
 13246      2900
 13247              	.LASF800:
 13248 0c06 55415254 		.ascii	"UART_IIR_INTID_MODEM (0 << 1)\000"
 13248      5F494952 
 13248      5F494E54 
 13248      49445F4D 
 13248      4F44454D 
 13249              	.LASF557:
 13250 0c24 5F5F434F 		.ascii	"__CORE_CMFUNC_H \000"
 13250      52455F43 
 13250      4D46554E 
 13250      435F4820 
 13250      00
 13251              	.LASF592:
 13252 0c35 5343425F 		.ascii	"SCB_AIRCR_VECTKEYSTAT_Pos 16\000"
 13252      41495243 
 13252      525F5645 
 13252      43544B45 
 13252      59535441 
 13253              	.LASF807:
 13254 0c52 55415254 		.ascii	"UART_FCR_TRG_LEV0 (0)\000"
 13254      5F464352 
ARM GAS  /tmp/ccGKa4GA.s 			page 272


 13254      5F545247 
 13254      5F4C4556 
 13254      30202830 
 13255              	.LASF960:
 13256 0c68 4932435F 		.ascii	"I2C_I2CONCLR_SIC ((1 << 3))\000"
 13256      4932434F 
 13256      4E434C52 
 13256      5F534943 
 13256      20282831 
 13257              	.LASF588:
 13258 0c84 5343425F 		.ascii	"SCB_ICSR_VECTACTIVE_Pos 0\000"
 13258      49435352 
 13258      5F564543 
 13258      54414354 
 13258      4956455F 
 13259              	.LASF923:
 13260 0c9e 5353505F 		.ascii	"SSP_MASTER_MODE SSP_CR1_MASTER_EN\000"
 13260      4D415354 
 13260      45525F4D 
 13260      4F444520 
 13260      5353505F 
 13261              	.LASF467:
 13262 0cc0 494E5431 		.ascii	"INT16_MAX (__INT16_MAX__)\000"
 13262      365F4D41 
 13262      5820285F 
 13262      5F494E54 
 13262      31365F4D 
 13263              	.LASF962:
 13264 0cda 4932435F 		.ascii	"I2C_I2CONCLR_STAC ((1 << 5))\000"
 13264      4932434F 
 13264      4E434C52 
 13264      5F535441 
 13264      43202828 
 13265              	.LASF212:
 13266 0cf7 5F5F554C 		.ascii	"__ULFRACT_FBIT__ 32\000"
 13266      46524143 
 13266      545F4642 
 13266      49545F5F 
 13266      20333200 
 13267              	.LASF992:
 13268 0d0b 4932435F 		.ascii	"I2C_I2STAT_S_RX_PRE_SLA_DAT_NACK ((0x88))\000"
 13268      49325354 
 13268      41545F53 
 13268      5F52585F 
 13268      5052455F 
 13269              	.LASF985:
 13270 0d35 4932435F 		.ascii	"I2C_I2STAT_M_RX_DAT_ACK ((0x50))\000"
 13270      49325354 
 13270      41545F4D 
 13270      5F52585F 
 13270      4441545F 
 13271              	.LASF1249:
 13272 0d56 72785F64 		.ascii	"rx_data\000"
 13272      61746100 
 13273              	.LASF455:
 13274 0d5e 5F5F696E 		.ascii	"__int_fast32_t_defined 1\000"
 13274      745F6661 
ARM GAS  /tmp/ccGKa4GA.s 			page 273


 13274      73743332 
 13274      5F745F64 
 13274      6566696E 
 13275              	.LASF1046:
 13276 0d77 53444F5F 		.ascii	"SDO_ABORT_UNSUPPORTED 0x06010000UL\000"
 13276      41424F52 
 13276      545F554E 
 13276      53555050 
 13276      4F525445 
 13277              	.LASF843:
 13278 0d9a 55415254 		.ascii	"UART_LSR_BITMASK (0xFF)\000"
 13278      5F4C5352 
 13278      5F424954 
 13278      4D41534B 
 13278      20283078 
 13279              	.LASF868:
 13280 0db2 55415254 		.ascii	"UART_ICR_IRDAINV (1 << 1)\000"
 13280      5F494352 
 13280      5F495244 
 13280      41494E56 
 13280      20283120 
 13281              	.LASF191:
 13282 0dcc 5F5F5346 		.ascii	"__SFRACT_EPSILON__ 0x1P-7HR\000"
 13282      52414354 
 13282      5F455053 
 13282      494C4F4E 
 13282      5F5F2030 
 13283              	.LASF98:
 13284 0de8 5F5F494E 		.ascii	"__INT32_C(c) c ## L\000"
 13284      5433325F 
 13284      43286329 
 13284      20632023 
 13284      23204C00 
 13285              	.LASF281:
 13286 0dfc 5F5F5553 		.ascii	"__USQ_FBIT__ 32\000"
 13286      515F4642 
 13286      49545F5F 
 13286      20333200 
 13287              	.LASF25:
 13288 0e0c 5F5F4F52 		.ascii	"__ORDER_BIG_ENDIAN__ 4321\000"
 13288      4445525F 
 13288      4249475F 
 13288      454E4449 
 13288      414E5F5F 
 13289              	.LASF1183:
 13290 0e26 53595343 		.ascii	"SYSCTL_CLOCK_CT32B0\000"
 13290      544C5F43 
 13290      4C4F434B 
 13290      5F435433 
 13290      32423000 
 13291              	.LASF1184:
 13292 0e3a 53595343 		.ascii	"SYSCTL_CLOCK_CT32B1\000"
 13292      544C5F43 
 13292      4C4F434B 
 13292      5F435433 
 13292      32423100 
 13293              	.LASF271:
ARM GAS  /tmp/ccGKa4GA.s 			page 274


 13294 0e4e 5F5F5351 		.ascii	"__SQ_FBIT__ 31\000"
 13294      5F464249 
 13294      545F5F20 
 13294      333100
 13295              	.LASF949:
 13296 0e5d 5245545F 		.ascii	"RET_SLAVE_TX 6\000"
 13296      534C4156 
 13296      455F5458 
 13296      203600
 13297              	.LASF301:
 13298 0e6c 5F5F5554 		.ascii	"__UTA_FBIT__ 64\000"
 13298      415F4642 
 13298      49545F5F 
 13298      20363400 
 13299              	.LASF819:
 13300 0e7c 55415254 		.ascii	"UART_LCR_PARITY_EN (1 << 3)\000"
 13300      5F4C4352 
 13300      5F504152 
 13300      4954595F 
 13300      454E2028 
 13301              	.LASF437:
 13302 0e98 5F55494E 		.ascii	"_UINT16_T_DECLARED \000"
 13302      5431365F 
 13302      545F4445 
 13302      434C4152 
 13302      45442000 
 13303              	.LASF1165:
 13304 0eac 52455345 		.ascii	"RESET_UART0\000"
 13304      545F5541 
 13304      52543000 
 13305              	.LASF806:
 13306 0eb8 55415254 		.ascii	"UART_TX_FIFO_SIZE (16)\000"
 13306      5F54585F 
 13306      4649464F 
 13306      5F53495A 
 13306      45202831 
 13307              	.LASF279:
 13308 0ecf 5F5F5548 		.ascii	"__UHQ_FBIT__ 16\000"
 13308      515F4642 
 13308      49545F5F 
 13308      20313600 
 13309              	.LASF482:
 13310 0edf 494E545F 		.ascii	"INT_LEAST64_MAX (__INT_LEAST64_MAX__)\000"
 13310      4C454153 
 13310      5436345F 
 13310      4D415820 
 13310      285F5F49 
 13311              	.LASF1200:
 13312 0f05 5353505F 		.ascii	"SSP_STAT_TNF\000"
 13312      53544154 
 13312      5F544E46 
 13312      00
 13313              	.LASF958:
 13314 0f12 4932435F 		.ascii	"I2C_I2CONSET_I2EN ((0x40))\000"
 13314      4932434F 
 13314      4E534554 
 13314      5F493245 
ARM GAS  /tmp/ccGKa4GA.s 			page 275


 13314      4E202828 
 13315              	.LASF264:
 13316 0f2d 5F5F554C 		.ascii	"__ULLACCUM_MIN__ 0.0ULLK\000"
 13316      4C414343 
 13316      554D5F4D 
 13316      494E5F5F 
 13316      20302E30 
 13317              	.LASF113:
 13318 0f46 5F5F5549 		.ascii	"__UINT_FAST8_MAX__ 0xffffffffU\000"
 13318      4E545F46 
 13318      41535438 
 13318      5F4D4158 
 13318      5F5F2030 
 13319              	.LASF171:
 13320 0f65 5F5F4445 		.ascii	"__DEC32_EPSILON__ 1E-6DF\000"
 13320      4333325F 
 13320      45505349 
 13320      4C4F4E5F 
 13320      5F203145 
 13321              	.LASF505:
 13322 0f7e 57434841 		.ascii	"WCHAR_MAX (__WCHAR_MAX__)\000"
 13322      525F4D41 
 13322      5820285F 
 13322      5F574348 
 13322      41525F4D 
 13323              	.LASF1034:
 13324 0f98 43414E5F 		.ascii	"CAN_ERROR_FORM 0x00000010UL\000"
 13324      4552524F 
 13324      525F464F 
 13324      524D2030 
 13324      78303030 
 13325              	.LASF1189:
 13326 0fb4 53595343 		.ascii	"SYSCTL_CLOCK_WDT\000"
 13326      544C5F43 
 13326      4C4F434B 
 13326      5F574454 
 13326      00
 13327              	.LASF464:
 13328 0fc5 494E545F 		.ascii	"INT_LEAST8_MAX (__INT_LEAST8_MAX__)\000"
 13328      4C454153 
 13328      54385F4D 
 13328      41582028 
 13328      5F5F494E 
 13329              	.LASF552:
 13330 0fe9 5F5F4153 		.ascii	"__ASM __asm\000"
 13330      4D205F5F 
 13330      61736D00 
 13331              	.LASF1076:
 13332 0ff5 5F5F7569 		.ascii	"__uint8_t\000"
 13332      6E74385F 
 13332      7400
 13333              	.LASF881:
 13334 0fff 55415254 		.ascii	"UART_TER1_TXEN (1 << 7)\000"
 13334      5F544552 
 13334      315F5458 
 13334      454E2028 
 13334      31203C3C 
ARM GAS  /tmp/ccGKa4GA.s 			page 276


 13335              	.LASF700:
 13336 1017 53595343 		.ascii	"SYSCTL_SLPWAKE_BOD_PD (1 << 3)\000"
 13336      544C5F53 
 13336      4C505741 
 13336      4B455F42 
 13336      4F445F50 
 13337              	.LASF1256:
 13338 1036 70535350 		.ascii	"pSSP\000"
 13338      00
 13339              	.LASF862:
 13340 103b 55415254 		.ascii	"UART_RS485CTRL_AADEN (1 << 2)\000"
 13340      5F525334 
 13340      38354354 
 13340      524C5F41 
 13340      4144454E 
 13341              	.LASF1160:
 13342 1059 4C50435F 		.ascii	"LPC_SYSCTL_T\000"
 13342      53595343 
 13342      544C5F54 
 13342      00
 13343              	.LASF787:
 13344 1066 55415254 		.ascii	"UART_IER_BITMASK (0x307)\000"
 13344      5F494552 
 13344      5F424954 
 13344      4D41534B 
 13344      20283078 
 13345              	.LASF763:
 13346 107f 54494D45 		.ascii	"TIMER_ENABLE ((uint32_t) (1 << 0))\000"
 13346      525F454E 
 13346      41424C45 
 13346      20282875 
 13346      696E7433 
 13347              	.LASF1257:
 13348 10a2 43686970 		.ascii	"Chip_SSP_SetBitRate\000"
 13348      5F535350 
 13348      5F536574 
 13348      42697452 
 13348      61746500 
 13349              	.LASF430:
 13350 10b6 5F5F4C45 		.ascii	"__LEAST32 \"l\"\000"
 13350      41535433 
 13350      3220226C 
 13350      2200
 13351              	.LASF423:
 13352 10c4 5F5F494E 		.ascii	"__INT64 \"ll\"\000"
 13352      54363420 
 13352      226C6C22 
 13352      00
 13353              	.LASF117:
 13354 10d1 5F5F494E 		.ascii	"__INTPTR_MAX__ 0x7fffffff\000"
 13354      54505452 
 13354      5F4D4158 
 13354      5F5F2030 
 13354      78376666 
 13355              	.LASF675:
 13356 10eb 4C50435F 		.ascii	"LPC_IOCON ((LPC_IOCON_T *) LPC_IOCON_BASE)\000"
 13356      494F434F 
ARM GAS  /tmp/ccGKa4GA.s 			page 277


 13356      4E202828 
 13356      4C50435F 
 13356      494F434F 
 13357              	.LASF890:
 13358 1116 5F5F5757 		.ascii	"__WWDT_11XX_H_ \000"
 13358      44545F31 
 13358      3158585F 
 13358      485F2000 
 13359              	.LASF986:
 13360 1126 4932435F 		.ascii	"I2C_I2STAT_M_RX_DAT_NACK ((0x58))\000"
 13360      49325354 
 13360      41545F4D 
 13360      5F52585F 
 13360      4441545F 
 13361              	.LASF114:
 13362 1148 5F5F5549 		.ascii	"__UINT_FAST16_MAX__ 0xffffffffU\000"
 13362      4E545F46 
 13362      41535431 
 13362      365F4D41 
 13362      585F5F20 
 13363              	.LASF481:
 13364 1168 494E545F 		.ascii	"INT_LEAST64_MIN (-__INT_LEAST64_MAX__ - 1)\000"
 13364      4C454153 
 13364      5436345F 
 13364      4D494E20 
 13364      282D5F5F 
 13365              	.LASF892:
 13366 1193 57574454 		.ascii	"WWDT_WDMOD_WDEN ((uint32_t) (1 << 0))\000"
 13366      5F57444D 
 13366      4F445F57 
 13366      44454E20 
 13366      28287569 
 13367              	.LASF935:
 13368 11b9 4144435F 		.ascii	"ADC_CR_BURST ((1UL << 16))\000"
 13368      43525F42 
 13368      55525354 
 13368      20282831 
 13368      554C203C 
 13369              	.LASF1096:
 13370 11d4 45787452 		.ascii	"ExtRateIn\000"
 13370      61746549 
 13370      6E00
 13371              	.LASF808:
 13372 11de 55415254 		.ascii	"UART_FCR_TRG_LEV1 (1 << 6)\000"
 13372      5F464352 
 13372      5F545247 
 13372      5F4C4556 
 13372      31202831 
 13373              	.LASF1070:
 13374 11f9 43414E5F 		.ascii	"CAN_SDOSEG_CLOSE 2\000"
 13374      53444F53 
 13374      45475F43 
 13374      4C4F5345 
 13374      203200
 13375              	.LASF831:
 13376 120c 55415254 		.ascii	"UART_MCR_AUTO_RTS_EN (1 << 6)\000"
 13376      5F4D4352 
ARM GAS  /tmp/ccGKa4GA.s 			page 278


 13376      5F415554 
 13376      4F5F5254 
 13376      535F454E 
 13377              	.LASF1144:
 13378 122a 50494E54 		.ascii	"PINTSEL\000"
 13378      53454C00 
 13379              	.LASF170:
 13380 1232 5F5F4445 		.ascii	"__DEC32_MAX__ 9.999999E96DF\000"
 13380      4333325F 
 13380      4D41585F 
 13380      5F20392E 
 13380      39393939 
 13381              	.LASF204:
 13382 124e 5F5F5546 		.ascii	"__UFRACT_MIN__ 0.0UR\000"
 13382      52414354 
 13382      5F4D494E 
 13382      5F5F2030 
 13382      2E305552 
 13383              	.LASF861:
 13384 1263 55415254 		.ascii	"UART_RS485CTRL_RX_DIS (1 << 1)\000"
 13384      5F525334 
 13384      38354354 
 13384      524C5F52 
 13384      585F4449 
 13385              	.LASF907:
 13386 1282 5353505F 		.ascii	"SSP_CR0_BITMASK ((uint32_t) (0xFFFF))\000"
 13386      4352305F 
 13386      4249544D 
 13386      41534B20 
 13386      28287569 
 13387              	.LASF447:
 13388 12a8 5F494E54 		.ascii	"_INTPTR_T_DECLARED \000"
 13388      5054525F 
 13388      545F4445 
 13388      434C4152 
 13388      45442000 
 13389              	.LASF658:
 13390 12bc 4C50435F 		.ascii	"LPC_GPIO_PORT0_BASE 0x50000000\000"
 13390      4750494F 
 13390      5F504F52 
 13390      54305F42 
 13390      41534520 
 13391              	.LASF490:
 13392 12db 494E545F 		.ascii	"INT_FAST32_MIN (-__INT_FAST32_MAX__ - 1)\000"
 13392      46415354 
 13392      33325F4D 
 13392      494E2028 
 13392      2D5F5F49 
 13393              	.LASF616:
 13394 1304 53797354 		.ascii	"SysTick_CTRL_TICKINT_Pos 1\000"
 13394      69636B5F 
 13394      4354524C 
 13394      5F544943 
 13394      4B494E54 
 13395              	.LASF547:
 13396 131f 5F5F434F 		.ascii	"__CORE_CM0_H_GENERIC \000"
 13396      52455F43 
ARM GAS  /tmp/ccGKa4GA.s 			page 279


 13396      4D305F48 
 13396      5F47454E 
 13396      45524943 
 13397              	.LASF51:
 13398 1335 5F5F5549 		.ascii	"__UINT_LEAST8_TYPE__ unsigned char\000"
 13398      4E545F4C 
 13398      45415354 
 13398      385F5459 
 13398      50455F5F 
 13399              	.LASF994:
 13400 1358 4932435F 		.ascii	"I2C_I2STAT_S_RX_PRE_GENCALL_DAT_NACK ((0x98))\000"
 13400      49325354 
 13400      41545F53 
 13400      5F52585F 
 13400      5052455F 
 13401              	.LASF237:
 13402 1386 5F5F4143 		.ascii	"__ACCUM_FBIT__ 15\000"
 13402      43554D5F 
 13402      46424954 
 13402      5F5F2031 
 13402      3500
 13403              	.LASF372:
 13404 1398 5F5F474E 		.ascii	"__GNUC_PREREQ(maj,min) ((__GNUC__ << 16) + __GNUC_M"
 13404      55435F50 
 13404      52455245 
 13404      51286D61 
 13404      6A2C6D69 
 13405 13cb 494E4F52 		.ascii	"INOR__ >= ((maj) << 16) + (min))\000"
 13405      5F5F203E 
 13405      3D202828 
 13405      6D616A29 
 13405      203C3C20 
 13406              	.LASF678:
 13407 13ec 4C50435F 		.ascii	"LPC_CCAN ((LPC_CCAN_T *) LPC_CAN0_BASE)\000"
 13407      4343414E 
 13407      2028284C 
 13407      50435F43 
 13407      43414E5F 
 13408              	.LASF243:
 13409 1414 5F5F5541 		.ascii	"__UACCUM_IBIT__ 16\000"
 13409      4343554D 
 13409      5F494249 
 13409      545F5F20 
 13409      313600
 13410              	.LASF1079:
 13411 1427 6C6F6E67 		.ascii	"long int\000"
 13411      20696E74 
 13411      00
 13412              	.LASF993:
 13413 1430 4932435F 		.ascii	"I2C_I2STAT_S_RX_PRE_GENCALL_DAT_ACK ((0x90))\000"
 13413      49325354 
 13413      41545F53 
 13413      5F52585F 
 13413      5052455F 
 13414              	.LASF1245:
 13415 145d 5353505F 		.ascii	"SSP_MODE_MASTER\000"
 13415      4D4F4445 
ARM GAS  /tmp/ccGKa4GA.s 			page 280


 13415      5F4D4153 
 13415      54455200 
 13416              	.LASF112:
 13417 146d 5F5F494E 		.ascii	"__INT_FAST64_MAX__ 0x7fffffffffffffffLL\000"
 13417      545F4641 
 13417      53543634 
 13417      5F4D4158 
 13417      5F5F2030 
 13418              	.LASF146:
 13419 1495 5F5F4442 		.ascii	"__DBL_MIN__ ((double)2.2250738585072014e-308L)\000"
 13419      4C5F4D49 
 13419      4E5F5F20 
 13419      2828646F 
 13419      75626C65 
 13420              	.LASF721:
 13421 14c4 494F434F 		.ascii	"IOCON_FUNC5 0x5\000"
 13421      4E5F4655 
 13421      4E433520 
 13421      30783500 
 13422              	.LASF1059:
 13423 14d4 4F445F45 		.ascii	"OD_EXP_RO 0x10\000"
 13423      58505F52 
 13423      4F203078 
 13423      313000
 13424              	.LASF1137:
 13425 14e3 50494F50 		.ascii	"PIOPORCAP\000"
 13425      4F524341 
 13425      5000
 13426              	.LASF399:
 13427 14ed 5F5F5F69 		.ascii	"___int_least16_t_defined 1\000"
 13427      6E745F6C 
 13427      65617374 
 13427      31365F74 
 13427      5F646566 
 13428              	.LASF607:
 13429 1508 5343425F 		.ascii	"SCB_CCR_STKALIGN_Msk (1UL << SCB_CCR_STKALIGN_Pos)\000"
 13429      4343525F 
 13429      53544B41 
 13429      4C49474E 
 13429      5F4D736B 
 13430              	.LASF181:
 13431 153b 5F5F4445 		.ascii	"__DEC128_MIN_EXP__ (-6142)\000"
 13431      43313238 
 13431      5F4D494E 
 13431      5F455850 
 13431      5F5F2028 
 13432              	.LASF736:
 13433 1556 494F434F 		.ascii	"IOCON_OPENDRAIN_EN (0x1 << 10)\000"
 13433      4E5F4F50 
 13433      454E4452 
 13433      41494E5F 
 13433      454E2028 
 13434              	.LASF55:
 13435 1575 5F5F494E 		.ascii	"__INT_FAST8_TYPE__ int\000"
 13435      545F4641 
 13435      5354385F 
 13435      54595045 
ARM GAS  /tmp/ccGKa4GA.s 			page 281


 13435      5F5F2069 
 13436              	.LASF1110:
 13437 158c 53595350 		.ascii	"SYSPLLCLKSEL\000"
 13437      4C4C434C 
 13437      4B53454C 
 13437      00
 13438              	.LASF299:
 13439 1599 5F5F5544 		.ascii	"__UDA_FBIT__ 32\000"
 13439      415F4642 
 13439      49545F5F 
 13439      20333200 
 13440              	.LASF1130:
 13441 15a9 57445443 		.ascii	"WDTCLKUEN\000"
 13441      4C4B5545 
 13441      4E00
 13442              	.LASF829:
 13443 15b3 55415254 		.ascii	"UART_MCR_RTS_CTRL (1 << 1)\000"
 13443      5F4D4352 
 13443      5F525453 
 13443      5F435452 
 13443      4C202831 
 13444              	.LASF236:
 13445 15ce 5F5F5553 		.ascii	"__USACCUM_EPSILON__ 0x1P-8UHK\000"
 13445      41434355 
 13445      4D5F4550 
 13445      53494C4F 
 13445      4E5F5F20 
 13446              	.LASF1300:
 13447 15ec 43686970 		.ascii	"Chip_SSP_ClearIntPending\000"
 13447      5F535350 
 13447      5F436C65 
 13447      6172496E 
 13447      7450656E 
 13448              	.LASF29:
 13449 1605 5F5F5349 		.ascii	"__SIZEOF_POINTER__ 4\000"
 13449      5A454F46 
 13449      5F504F49 
 13449      4E544552 
 13449      5F5F2034 
 13450              	.LASF47:
 13451 161a 5F5F494E 		.ascii	"__INT_LEAST8_TYPE__ signed char\000"
 13451      545F4C45 
 13451      41535438 
 13451      5F545950 
 13451      455F5F20 
 13452              	.LASF307:
 13453 163a 5F5F4743 		.ascii	"__GCC_ATOMIC_BOOL_LOCK_FREE 1\000"
 13453      435F4154 
 13453      4F4D4943 
 13453      5F424F4F 
 13453      4C5F4C4F 
 13454              	.LASF723:
 13455 1658 494F434F 		.ascii	"IOCON_FUNC7 0x7\000"
 13455      4E5F4655 
 13455      4E433720 
 13455      30783700 
 13456              	.LASF649:
ARM GAS  /tmp/ccGKa4GA.s 			page 282


 13457 1668 4C50435F 		.ascii	"LPC_ACMP_BASE 0x40028000\000"
 13457      41434D50 
 13457      5F424153 
 13457      45203078 
 13457      34303032 
 13458              	.LASF348:
 13459 1681 5F5F4152 		.ascii	"__ARM_NEON__\000"
 13459      4D5F4E45 
 13459      4F4E5F5F 
 13459      00
 13460              	.LASF459:
 13461 168e 55494E54 		.ascii	"UINTPTR_MAX (__UINTPTR_MAX__)\000"
 13461      5054525F 
 13461      4D415820 
 13461      285F5F55 
 13461      494E5450 
 13462              	.LASF228:
 13463 16ac 5F5F5341 		.ascii	"__SACCUM_IBIT__ 8\000"
 13463      4343554D 
 13463      5F494249 
 13463      545F5F20 
 13463      3800
 13464              	.LASF351:
 13465 16be 5F5F5448 		.ascii	"__THUMB_INTERWORK__ 1\000"
 13465      554D425F 
 13465      494E5445 
 13465      52574F52 
 13465      4B5F5F20 
 13466              	.LASF225:
 13467 16d4 5F5F554C 		.ascii	"__ULLFRACT_MAX__ 0XFFFFFFFFFFFFFFFFP-64ULLR\000"
 13467      4C465241 
 13467      43545F4D 
 13467      41585F5F 
 13467      20305846 
 13468              	.LASF1024:
 13469 1700 4932435F 		.ascii	"I2C_NAK_RECV (0x10000000 | 0x01)\000"
 13469      4E414B5F 
 13469      52454356 
 13469      20283078 
 13469      31303030 
 13470              	.LASF1314:
 13471 1721 43686970 		.ascii	"Chip_SYSCTL_PeriphReset\000"
 13471      5F535953 
 13471      43544C5F 
 13471      50657269 
 13471      70685265 
 13472              	.LASF669:
 13473 1739 4C50435F 		.ascii	"LPC_TIMER32_0 ((LPC_TIMER_T *) LPC_TIMER32_0_BASE)\000"
 13473      54494D45 
 13473      5233325F 
 13473      30202828 
 13473      4C50435F 
 13474              	.LASF443:
 13475 176c 5F55494E 		.ascii	"_UINT64_T_DECLARED \000"
 13475      5436345F 
 13475      545F4445 
 13475      434C4152 
ARM GAS  /tmp/ccGKa4GA.s 			page 283


 13475      45442000 
 13476              	.LASF37:
 13477 1780 5F5F4348 		.ascii	"__CHAR32_TYPE__ long unsigned int\000"
 13477      41523332 
 13477      5F545950 
 13477      455F5F20 
 13477      6C6F6E67 
 13478              	.LASF524:
 13479 17a2 50415241 		.ascii	"PARAM_SETSTATE(State) ((State == RESET) || (State ="
 13479      4D5F5345 
 13479      54535441 
 13479      54452853 
 13479      74617465 
 13480 17d5 3D205345 		.ascii	"= SET))\000"
 13480      54292900 
 13481              	.LASF379:
 13482 17dd 5F504F53 		.ascii	"_POSIX_C_SOURCE 200809L\000"
 13482      49585F43 
 13482      5F534F55 
 13482      52434520 
 13482      32303038 
 13483              	.LASF799:
 13484 17f5 55415254 		.ascii	"UART_IIR_INTID_THRE (1 << 1)\000"
 13484      5F494952 
 13484      5F494E54 
 13484      49445F54 
 13484      48524520 
 13485              	.LASF115:
 13486 1812 5F5F5549 		.ascii	"__UINT_FAST32_MAX__ 0xffffffffU\000"
 13486      4E545F46 
 13486      41535433 
 13486      325F4D41 
 13486      585F5F20 
 13487              	.LASF128:
 13488 1832 5F5F464C 		.ascii	"__FLT_MAX_EXP__ 128\000"
 13488      545F4D41 
 13488      585F4558 
 13488      505F5F20 
 13488      31323800 
 13489              	.LASF15:
 13490 1846 5F5F5349 		.ascii	"__SIZEOF_LONG__ 4\000"
 13490      5A454F46 
 13490      5F4C4F4E 
 13490      475F5F20 
 13490      3400
 13491              	.LASF400:
 13492 1858 5F5F5F69 		.ascii	"___int_least32_t_defined 1\000"
 13492      6E745F6C 
 13492      65617374 
 13492      33325F74 
 13492      5F646566 
 13493              	.LASF1215:
 13494 1873 5353505F 		.ascii	"SSP_INT_CLEAR_BITMASK\000"
 13494      494E545F 
 13494      434C4541 
 13494      525F4249 
 13494      544D4153 
ARM GAS  /tmp/ccGKa4GA.s 			page 284


 13495              	.LASF1244:
 13496 1889 43484950 		.ascii	"CHIP_SSP_MODE\000"
 13496      5F535350 
 13496      5F4D4F44 
 13496      4500
 13497              	.LASF664:
 13498 1897 4C50435F 		.ascii	"LPC_I2C ((LPC_I2C_T *) LPC_I2C_BASE)\000"
 13498      49324320 
 13498      28284C50 
 13498      435F4932 
 13498      435F5420 
 13499              	.LASF639:
 13500 18bc 5F49505F 		.ascii	"_IP_IDX(IRQn) ( ((uint32_t)(IRQn) >> 2) )\000"
 13500      49445828 
 13500      4952516E 
 13500      29202820 
 13500      28287569 
 13501              	.LASF863:
 13502 18e6 55415254 		.ascii	"UART_RS485CTRL_SEL_DTR (1 << 3)\000"
 13502      5F525334 
 13502      38354354 
 13502      524C5F53 
 13502      454C5F44 
 13503              	.LASF19:
 13504 1906 5F5F5349 		.ascii	"__SIZEOF_DOUBLE__ 8\000"
 13504      5A454F46 
 13504      5F444F55 
 13504      424C455F 
 13504      5F203800 
 13505              	.LASF830:
 13506 191a 55415254 		.ascii	"UART_MCR_LOOPB_EN (1 << 4)\000"
 13506      5F4D4352 
 13506      5F4C4F4F 
 13506      50425F45 
 13506      4E202831 
 13507              	.LASF998:
 13508 1935 4932435F 		.ascii	"I2C_I2STAT_S_TX_DAT_ACK ((0xB8))\000"
 13508      49325354 
 13508      41545F53 
 13508      5F54585F 
 13508      4441545F 
 13509              	.LASF1210:
 13510 1956 5353505F 		.ascii	"SSP_RAW_INT_STAT_BITMASK\000"
 13510      5241575F 
 13510      494E545F 
 13510      53544154 
 13510      5F424954 
 13511              	.LASF839:
 13512 196f 55415254 		.ascii	"UART_LSR_THRE (1 << 5)\000"
 13512      5F4C5352 
 13512      5F544852 
 13512      45202831 
 13512      203C3C20 
 13513              	.LASF1057:
 13514 1986 53444F5F 		.ascii	"SDO_ABORT_DEVSTAT 0x08000022UL\000"
 13514      41424F52 
 13514      545F4445 
ARM GAS  /tmp/ccGKa4GA.s 			page 285


 13514      56535441 
 13514      54203078 
 13515              	.LASF1033:
 13516 19a5 43414E5F 		.ascii	"CAN_ERROR_STUF 0x00000008UL\000"
 13516      4552524F 
 13516      525F5354 
 13516      55462030 
 13516      78303030 
 13517              	.LASF797:
 13518 19c1 55415254 		.ascii	"UART_IIR_INTID_RDA (2 << 1)\000"
 13518      5F494952 
 13518      5F494E54 
 13518      49445F52 
 13518      44412028 
 13519              	.LASF718:
 13520 19dd 494F434F 		.ascii	"IOCON_FUNC2 0x2\000"
 13520      4E5F4655 
 13520      4E433220 
 13520      30783200 
 13521              	.LASF425:
 13522 19ed 5F5F4641 		.ascii	"__FAST16 \000"
 13522      53543136 
 13522      2000
 13523              	.LASF954:
 13524 19f7 4932435F 		.ascii	"I2C_I2CONSET_AA ((0x04))\000"
 13524      4932434F 
 13524      4E534554 
 13524      5F414120 
 13524      28283078 
 13525              	.LASF613:
 13526 1a10 53797354 		.ascii	"SysTick_CTRL_COUNTFLAG_Msk (1UL << SysTick_CTRL_COU"
 13526      69636B5F 
 13526      4354524C 
 13526      5F434F55 
 13526      4E54464C 
 13527 1a43 4E54464C 		.ascii	"NTFLAG_Pos)\000"
 13527      41475F50 
 13527      6F732900 
 13528              	.LASF386:
 13529 1a4f 5F5F4C41 		.ascii	"__LARGEFILE_VISIBLE 0\000"
 13529      52474546 
 13529      494C455F 
 13529      56495349 
 13529      424C4520 
 13530              	.LASF177:
 13531 1a65 5F5F4445 		.ascii	"__DEC64_MAX__ 9.999999999999999E384DD\000"
 13531      4336345F 
 13531      4D41585F 
 13531      5F20392E 
 13531      39393939 
 13532              	.LASF1247:
 13533 1a8b 74785F64 		.ascii	"tx_data\000"
 13533      61746100 
 13534              	.LASF1157:
 13535 1a93 50445255 		.ascii	"PDRUNCFG\000"
 13535      4E434647 
 13535      00
ARM GAS  /tmp/ccGKa4GA.s 			page 286


 13536              	.LASF603:
 13537 1a9c 5343425F 		.ascii	"SCB_SCR_SLEEPDEEP_Msk (1UL << SCB_SCR_SLEEPDEEP_Pos"
 13537      5343525F 
 13537      534C4545 
 13537      50444545 
 13537      505F4D73 
 13538 1acf 2900     		.ascii	")\000"
 13539              	.LASF974:
 13540 1ad1 4932435F 		.ascii	"I2C_I2STAT_M_TX_RESTART ((0x10))\000"
 13540      49325354 
 13540      41545F4D 
 13540      5F54585F 
 13540      52455354 
 13541              	.LASF920:
 13542 1af2 5353505F 		.ascii	"SSP_CPOL_HI SSP_CR0_CPOL_LO\000"
 13542      43504F4C 
 13542      5F484920 
 13542      5353505F 
 13542      4352305F 
 13543              	.LASF127:
 13544 1b0e 5F5F464C 		.ascii	"__FLT_MIN_10_EXP__ (-37)\000"
 13544      545F4D49 
 13544      4E5F3130 
 13544      5F455850 
 13544      5F5F2028 
 13545              	.LASF385:
 13546 1b27 5F5F4953 		.ascii	"__ISO_C_VISIBLE 1999\000"
 13546      4F5F435F 
 13546      56495349 
 13546      424C4520 
 13546      31393939 
 13547              	.LASF788:
 13548 1b3c 55415254 		.ascii	"UART1_IER_BITMASK (0x30F)\000"
 13548      315F4945 
 13548      525F4249 
 13548      544D4153 
 13548      4B202830 
 13549              	.LASF938:
 13550 1b56 4144435F 		.ascii	"ADC_CR_START_MODE_SEL(SEL) ((SEL << 24))\000"
 13550      43525F53 
 13550      54415254 
 13550      5F4D4F44 
 13550      455F5345 
 13551              	.LASF130:
 13552 1b7f 5F5F464C 		.ascii	"__FLT_DECIMAL_DIG__ 9\000"
 13552      545F4445 
 13552      43494D41 
 13552      4C5F4449 
 13552      475F5F20 
 13553              	.LASF434:
 13554 1b95 5F55494E 		.ascii	"_UINT8_T_DECLARED \000"
 13554      54385F54 
 13554      5F444543 
 13554      4C415245 
 13554      442000
 13555              	.LASF1073:
 13556 1ba8 7369676E 		.ascii	"signed char\000"
ARM GAS  /tmp/ccGKa4GA.s 			page 287


 13556      65642063 
 13556      68617200 
 13557              	.LASF1317:
 13558 1bb4 43686970 		.ascii	"Chip_SYSCTL_AssertPeriphReset\000"
 13558      5F535953 
 13558      43544C5F 
 13558      41737365 
 13558      72745065 
 13559              	.LASF927:
 13560 1bd2 5F5F4144 		.ascii	"__ADC_11XX_H_ \000"
 13560      435F3131 
 13560      58585F48 
 13560      5F2000
 13561              	.LASF1084:
 13562 1be1 75696E74 		.ascii	"uint8_t\000"
 13562      385F7400 
 13563              	.LASF707:
 13564 1be9 53595343 		.ascii	"SYSCTL_POWERDOWN_FLASH_PD (1 << 2)\000"
 13564      544C5F50 
 13564      4F574552 
 13564      444F574E 
 13564      5F464C41 
 13565              	.LASF1112:
 13566 1c0c 55534250 		.ascii	"USBPLLCLKSEL\000"
 13566      4C4C434C 
 13566      4B53454C 
 13566      00
 13567              	.LASF541:
 13568 1c19 43484950 		.ascii	"CHIP_LPC11CXX \000"
 13568      5F4C5043 
 13568      31314358 
 13568      582000
 13569              	.LASF1195:
 13570 1c28 494D5343 		.ascii	"IMSC\000"
 13570      00
 13571              	.LASF727:
 13572 1c2d 494F434F 		.ascii	"IOCON_MODE_REPEATER (0x3 << 3)\000"
 13572      4E5F4D4F 
 13572      44455F52 
 13572      45504541 
 13572      54455220 
 13573              	.LASF979:
 13574 1c4c 4932435F 		.ascii	"I2C_I2STAT_M_TX_ARB_LOST ((0x38))\000"
 13574      49325354 
 13574      41545F4D 
 13574      5F54585F 
 13574      4152425F 
 13575              	.LASF504:
 13576 1c6e 57434841 		.ascii	"WCHAR_MIN (__WCHAR_MIN__)\000"
 13576      525F4D49 
 13576      4E20285F 
 13576      5F574348 
 13576      41525F4D 
 13577              	.LASF951:
 13578 1c88 5245545F 		.ascii	"RET_SLAVE_IDLE 2\000"
 13578      534C4156 
 13578      455F4944 
ARM GAS  /tmp/ccGKa4GA.s 			page 288


 13578      4C452032 
 13578      00
 13579              	.LASF197:
 13580 1c99 5F5F4652 		.ascii	"__FRACT_FBIT__ 15\000"
 13580      4143545F 
 13580      46424954 
 13580      5F5F2031 
 13580      3500
 13581              	.LASF1134:
 13582 1cab 434C4B4F 		.ascii	"CLKOUTUEN\000"
 13582      55545545 
 13582      4E00
 13583              	.LASF137:
 13584 1cb5 5F5F464C 		.ascii	"__FLT_HAS_QUIET_NAN__ 1\000"
 13584      545F4841 
 13584      535F5155 
 13584      4945545F 
 13584      4E414E5F 
 13585              	.LASF529:
 13586 1ccd 5F534246 		.ascii	"_SBF(f,v) ((v) << (f))\000"
 13586      28662C76 
 13586      29202828 
 13586      7629203C 
 13586      3C202866 
 13587              	.LASF4:
 13588 1ce4 5F5F474E 		.ascii	"__GNUC_PATCHLEVEL__ 1\000"
 13588      55435F50 
 13588      41544348 
 13588      4C455645 
 13588      4C5F5F20 
 13589              	.LASF595:
 13590 1cfa 5343425F 		.ascii	"SCB_AIRCR_ENDIANESS_Msk (1UL << SCB_AIRCR_ENDIANESS"
 13590      41495243 
 13590      525F454E 
 13590      4449414E 
 13590      4553535F 
 13591 1d2d 5F506F73 		.ascii	"_Pos)\000"
 13591      2900
 13592              	.LASF103:
 13593 1d33 5F5F5549 		.ascii	"__UINT_LEAST16_MAX__ 0xffff\000"
 13593      4E545F4C 
 13593      45415354 
 13593      31365F4D 
 13593      41585F5F 
 13594              	.LASF870:
 13595 1d4f 55415254 		.ascii	"UART_ICR_PULSEDIV(n) ((n & 0x07) << 3)\000"
 13595      5F494352 
 13595      5F50554C 
 13595      53454449 
 13595      56286E29 
 13596              	.LASF836:
 13597 1d76 55415254 		.ascii	"UART_LSR_PE (1 << 2)\000"
 13597      5F4C5352 
 13597      5F504520 
 13597      2831203C 
 13597      3C203229 
 13598              	.LASF921:
ARM GAS  /tmp/ccGKa4GA.s 			page 289


 13599 1d8b 5353505F 		.ascii	"SSP_CPOL_LO SSP_CR0_CPOL_HI\000"
 13599      43504F4C 
 13599      5F4C4F20 
 13599      5353505F 
 13599      4352305F 
 13600              	.LASF364:
 13601 1da7 5F535444 		.ascii	"_STDINT_H \000"
 13601      494E545F 
 13601      482000
 13602              	.LASF589:
 13603 1db2 5343425F 		.ascii	"SCB_ICSR_VECTACTIVE_Msk (0x1FFUL << SCB_ICSR_VECTAC"
 13603      49435352 
 13603      5F564543 
 13603      54414354 
 13603      4956455F 
 13604 1de5 54495645 		.ascii	"TIVE_Pos)\000"
 13604      5F506F73 
 13604      2900
 13605              	.LASF519:
 13606 1def 5F535444 		.ascii	"_STDBOOL_H \000"
 13606      424F4F4C 
 13606      5F482000 
 13607              	.LASF826:
 13608 1dfb 55415254 		.ascii	"UART_LCR_DLAB_EN (1 << 7)\000"
 13608      5F4C4352 
 13608      5F444C41 
 13608      425F454E 
 13608      20283120 
 13609              	.LASF556:
 13610 1e15 5F5F434F 		.ascii	"__CORE_CMINSTR_H \000"
 13610      52455F43 
 13610      4D494E53 
 13610      54525F48 
 13610      2000
 13611              	.LASF1296:
 13612 1e27 6672616D 		.ascii	"frameFormat\000"
 13612      65466F72 
 13612      6D617400 
 13613              	.LASF670:
 13614 1e33 4C50435F 		.ascii	"LPC_TIMER32_1 ((LPC_TIMER_T *) LPC_TIMER32_1_BASE)\000"
 13614      54494D45 
 13614      5233325F 
 13614      31202828 
 13614      4C50435F 
 13615              	.LASF867:
 13616 1e66 55415254 		.ascii	"UART_ICR_IRDAEN (1 << 0)\000"
 13616      5F494352 
 13616      5F495244 
 13616      41454E20 
 13616      2831203C 
 13617              	.LASF396:
 13618 1e7f 5F5F5F69 		.ascii	"___int32_t_defined 1\000"
 13618      6E743332 
 13618      5F745F64 
 13618      6566696E 
 13618      65642031 
 13619              	.LASF1103:
ARM GAS  /tmp/ccGKa4GA.s 			page 290


 13620 1e94 52455345 		.ascii	"RESERVED1\000"
 13620      52564544 
 13620      3100
 13621              	.LASF1074:
 13622 1e9e 756E7369 		.ascii	"unsigned char\000"
 13622      676E6564 
 13622      20636861 
 13622      7200
 13623              	.LASF1114:
 13624 1eac 52455345 		.ascii	"RESERVED3\000"
 13624      52564544 
 13624      3300
 13625              	.LASF1118:
 13626 1eb6 52455345 		.ascii	"RESERVED4\000"
 13626      52564544 
 13626      3400
 13627              	.LASF1120:
 13628 1ec0 52455345 		.ascii	"RESERVED5\000"
 13628      52564544 
 13628      3500
 13629              	.LASF1124:
 13630 1eca 52455345 		.ascii	"RESERVED6\000"
 13630      52564544 
 13630      3600
 13631              	.LASF1128:
 13632 1ed4 52455345 		.ascii	"RESERVED7\000"
 13632      52564544 
 13632      3700
 13633              	.LASF1132:
 13634 1ede 52455345 		.ascii	"RESERVED8\000"
 13634      52564544 
 13634      3800
 13635              	.LASF1136:
 13636 1ee8 52455345 		.ascii	"RESERVED9\000"
 13636      52564544 
 13636      3900
 13637              	.LASF182:
 13638 1ef2 5F5F4445 		.ascii	"__DEC128_MAX_EXP__ 6145\000"
 13638      43313238 
 13638      5F4D4158 
 13638      5F455850 
 13638      5F5F2036 
 13639              	.LASF119:
 13640 1f0a 5F5F4743 		.ascii	"__GCC_IEC_559 0\000"
 13640      435F4945 
 13640      435F3535 
 13640      39203000 
 13641              	.LASF1115:
 13642 1f1a 4D41494E 		.ascii	"MAINCLKSEL\000"
 13642      434C4B53 
 13642      454C00
 13643              	.LASF1232:
 13644 1f25 5353505F 		.ascii	"SSP_BITS_5\000"
 13644      42495453 
 13644      5F3500
 13645              	.LASF1054:
 13646 1f30 53444F5F 		.ascii	"SDO_ABORT_VALUE_RANGE 0x06090030UL\000"
ARM GAS  /tmp/ccGKa4GA.s 			page 291


 13646      41424F52 
 13646      545F5641 
 13646      4C55455F 
 13646      52414E47 
 13647              	.LASF111:
 13648 1f53 5F5F494E 		.ascii	"__INT_FAST32_MAX__ 0x7fffffff\000"
 13648      545F4641 
 13648      53543332 
 13648      5F4D4158 
 13648      5F5F2030 
 13649              	.LASF7:
 13650 1f71 5F5F4154 		.ascii	"__ATOMIC_SEQ_CST 5\000"
 13650      4F4D4943 
 13650      5F534551 
 13650      5F435354 
 13650      203500
 13651              	.LASF605:
 13652 1f84 5343425F 		.ascii	"SCB_SCR_SLEEPONEXIT_Msk (1UL << SCB_SCR_SLEEPONEXIT"
 13652      5343525F 
 13652      534C4545 
 13652      504F4E45 
 13652      5849545F 
 13653 1fb7 5F506F73 		.ascii	"_Pos)\000"
 13653      2900
 13654              	.LASF355:
 13655 1fbd 5F5F4152 		.ascii	"__ARM_ARCH_EXT_IDIV__\000"
 13655      4D5F4152 
 13655      43485F45 
 13655      58545F49 
 13655      4449565F 
 13656              	.LASF741:
 13657 1fd3 4D445F48 		.ascii	"MD_HYS (0x1 << 5)\000"
 13657      59532028 
 13657      30783120 
 13657      3C3C2035 
 13657      2900
 13658              	.LASF915:
 13659 1fe5 5353505F 		.ascii	"SSP_DR_BITMASK(n) ((n) & 0xFFFF)\000"
 13659      44525F42 
 13659      49544D41 
 13659      534B286E 
 13659      29202828 
 13660              	.LASF919:
 13661 2006 5353505F 		.ascii	"SSP_CPHA_SECOND SSP_CR0_CPHA_SECOND\000"
 13661      43504841 
 13661      5F534543 
 13661      4F4E4420 
 13661      5353505F 
 13662              	.LASF824:
 13663 202a 55415254 		.ascii	"UART_LCR_PARITY_F_0 (3 << 4)\000"
 13663      5F4C4352 
 13663      5F504152 
 13663      4954595F 
 13663      465F3020 
 13664              	.LASF671:
 13665 2047 4C50435F 		.ascii	"LPC_ADC ((LPC_ADC_T *) LPC_ADC_BASE)\000"
 13665      41444320 
ARM GAS  /tmp/ccGKa4GA.s 			page 292


 13665      28284C50 
 13665      435F4144 
 13665      435F5420 
 13666              	.LASF625:
 13667 206c 53797354 		.ascii	"SysTick_CALIB_NOREF_Msk (1UL << SysTick_CALIB_NOREF"
 13667      69636B5F 
 13667      43414C49 
 13667      425F4E4F 
 13667      5245465F 
 13668 209f 5F506F73 		.ascii	"_Pos)\000"
 13668      2900
 13669              	.LASF1207:
 13670 20a5 5353505F 		.ascii	"SSP_RTRIS\000"
 13670      52545249 
 13670      5300
 13671              	.LASF485:
 13672 20af 494E545F 		.ascii	"INT_FAST8_MAX (__INT_FAST8_MAX__)\000"
 13672      46415354 
 13672      385F4D41 
 13672      5820285F 
 13672      5F494E54 
 13673              	.LASF1027:
 13674 20d1 4932435F 		.ascii	"I2C_MONITOR_CFG_MATCHALL I2C_I2MMCTRL_MATCH_ALL\000"
 13674      4D4F4E49 
 13674      544F525F 
 13674      4346475F 
 13674      4D415443 
 13675              	.LASF90:
 13676 2101 5F5F5549 		.ascii	"__UINT16_MAX__ 0xffff\000"
 13676      4E543136 
 13676      5F4D4158 
 13676      5F5F2030 
 13676      78666666 
 13677              	.LASF967:
 13678 2117 4932435F 		.ascii	"I2C_CON_STA (1UL << 5)\000"
 13678      434F4E5F 
 13678      53544120 
 13678      2831554C 
 13678      203C3C20 
 13679              	.LASF275:
 13680 212e 5F5F5451 		.ascii	"__TQ_FBIT__ 127\000"
 13680      5F464249 
 13680      545F5F20 
 13680      31323700 
 13681              	.LASF1264:
 13682 213e 78665F73 		.ascii	"xf_setup\000"
 13682      65747570 
 13682      00
 13683              	.LASF939:
 13684 2147 4144435F 		.ascii	"ADC_CR_START_NOW ((1UL << 24))\000"
 13684      43525F53 
 13684      54415254 
 13684      5F4E4F57 
 13684      20282831 
 13685              	.LASF198:
 13686 2166 5F5F4652 		.ascii	"__FRACT_IBIT__ 0\000"
 13686      4143545F 
ARM GAS  /tmp/ccGKa4GA.s 			page 293


 13686      49424954 
 13686      5F5F2030 
 13686      00
 13687              	.LASF1198:
 13688 2177 5F535350 		.ascii	"_SSP_STATUS\000"
 13688      5F535441 
 13688      54555300 
 13689              	.LASF456:
 13690 2183 5F5F696E 		.ascii	"__int_fast64_t_defined 1\000"
 13690      745F6661 
 13690      73743634 
 13690      5F745F64 
 13690      6566696E 
 13691              	.LASF663:
 13692 219c 4C50435F 		.ascii	"LPC_ROM_API_BASE_LOC 0x1FFF1FF8\000"
 13692      524F4D5F 
 13692      4150495F 
 13692      42415345 
 13692      5F4C4F43 
 13693              	.LASF360:
 13694 21bc 5F5F5553 		.ascii	"__USES_INITFINI__ 1\000"
 13694      45535F49 
 13694      4E495446 
 13694      494E495F 
 13694      5F203100 
 13695              	.LASF566:
 13696 21d0 5343425F 		.ascii	"SCB_CPUID_ARCHITECTURE_Pos 16\000"
 13696      43505549 
 13696      445F4152 
 13696      43484954 
 13696      45435455 
 13697              	.LASF1212:
 13698 21ee 5F535350 		.ascii	"_SSP_INTCLEAR\000"
 13698      5F494E54 
 13698      434C4541 
 13698      5200
 13699              	.LASF17:
 13700 21fc 5F5F5349 		.ascii	"__SIZEOF_SHORT__ 2\000"
 13700      5A454F46 
 13700      5F53484F 
 13700      52545F5F 
 13700      203200
 13701              	.LASF262:
 13702 220f 5F5F554C 		.ascii	"__ULLACCUM_FBIT__ 32\000"
 13702      4C414343 
 13702      554D5F46 
 13702      4249545F 
 13702      5F203332 
 13703              	.LASF1093:
 13704 2224 5F426F6F 		.ascii	"_Bool\000"
 13704      6C00
 13705              	.LASF805:
 13706 222a 55415254 		.ascii	"UART_FCR_BITMASK (0xCF)\000"
 13706      5F464352 
 13706      5F424954 
 13706      4D41534B 
 13706      20283078 
ARM GAS  /tmp/ccGKa4GA.s 			page 294


 13707              	.LASF633:
 13708 2242 5343425F 		.ascii	"SCB_BASE (SCS_BASE + 0x0D00UL)\000"
 13708      42415345 
 13708      20285343 
 13708      535F4241 
 13708      5345202B 
 13709              	.LASF680:
 13710 2261 4C50435F 		.ascii	"LPC_GPIO ((LPC_GPIO_T *) LPC_GPIO_PORT0_BASE)\000"
 13710      4750494F 
 13710      2028284C 
 13710      50435F47 
 13710      50494F5F 
 13711              	.LASF363:
 13712 228f 5F5F4C50 		.ascii	"__LPC_TYPES_H_ \000"
 13712      435F5459 
 13712      5045535F 
 13712      485F2000 
 13713              	.LASF538:
 13714 229f 4D494E28 		.ascii	"MIN(a,b) (((a) < (b)) ? (a) : (b))\000"
 13714      612C6229 
 13714      20282828 
 13714      6129203C 
 13714      20286229 
 13715              	.LASF366:
 13716 22c2 5F535953 		.ascii	"_SYS_FEATURES_H \000"
 13716      5F464541 
 13716      54555245 
 13716      535F4820 
 13716      00
 13717              	.LASF1060:
 13718 22d3 4F445F45 		.ascii	"OD_EXP_WO 0x20\000"
 13718      58505F57 
 13718      4F203078 
 13718      323000
 13719              	.LASF534:
 13720 22e2 53544154 		.ascii	"STATIC static\000"
 13720      49432073 
 13720      74617469 
 13720      6300
 13721              	.LASF1109:
 13722 22f0 52455345 		.ascii	"RESERVED2\000"
 13722      52564544 
 13722      3200
 13723              	.LASF1208:
 13724 22fa 5353505F 		.ascii	"SSP_RXRIS\000"
 13724      52585249 
 13724      5300
 13725              	.LASF20:
 13726 2304 5F5F5349 		.ascii	"__SIZEOF_LONG_DOUBLE__ 8\000"
 13726      5A454F46 
 13726      5F4C4F4E 
 13726      475F444F 
 13726      55424C45 
 13727              	.LASF838:
 13728 231d 55415254 		.ascii	"UART_LSR_BI (1 << 4)\000"
 13728      5F4C5352 
 13728      5F424920 
ARM GAS  /tmp/ccGKa4GA.s 			page 295


 13728      2831203C 
 13728      3C203429 
 13729              	.LASF816:
 13730 2332 55415254 		.ascii	"UART_LCR_SBS_MASK (1 << 2)\000"
 13730      5F4C4352 
 13730      5F534253 
 13730      5F4D4153 
 13730      4B202831 
 13731              	.LASF319:
 13732 234d 5F5F5052 		.ascii	"__PRAGMA_REDEFINE_EXTNAME 1\000"
 13732      41474D41 
 13732      5F524544 
 13732      4546494E 
 13732      455F4558 
 13733              	.LASF32:
 13734 2369 5F5F5743 		.ascii	"__WCHAR_TYPE__ unsigned int\000"
 13734      4841525F 
 13734      54595045 
 13734      5F5F2075 
 13734      6E736967 
 13735              	.LASF68:
 13736 2385 5F5F5343 		.ascii	"__SCHAR_MAX__ 0x7f\000"
 13736      4841525F 
 13736      4D41585F 
 13736      5F203078 
 13736      376600
 13737              	.LASF407:
 13738 2398 63686172 		.ascii	"char\000"
 13738      00
 13739              	.LASF298:
 13740 239d 5F5F5553 		.ascii	"__USA_IBIT__ 16\000"
 13740      415F4942 
 13740      49545F5F 
 13740      20313600 
 13741              	.LASF516:
 13742 23ad 494E544D 		.ascii	"INTMAX_C(x) __INTMAX_C(x)\000"
 13742      41585F43 
 13742      28782920 
 13742      5F5F494E 
 13742      544D4158 
 13743              	.LASF503:
 13744 23c7 50545244 		.ascii	"PTRDIFF_MIN (-PTRDIFF_MAX - 1)\000"
 13744      4946465F 
 13744      4D494E20 
 13744      282D5054 
 13744      52444946 
 13745              	.LASF748:
 13746 23e6 4D445F53 		.ascii	"MD_STDI2C (0x1 << 8)\000"
 13746      54444932 
 13746      43202830 
 13746      7831203C 
 13746      3C203829 
 13747              	.LASF1122:
 13748 23fb 55534152 		.ascii	"USARTCLKDIV\000"
 13748      54434C4B 
 13748      44495600 
 13749              	.LASF1052:
ARM GAS  /tmp/ccGKa4GA.s 			page 296


 13750 2407 53444F5F 		.ascii	"SDO_ABORT_TYPEMISMATCH 0x06070010UL\000"
 13750      41424F52 
 13750      545F5459 
 13750      50454D49 
 13750      534D4154 
 13751              	.LASF62:
 13752 242b 5F5F5549 		.ascii	"__UINT_FAST64_TYPE__ long long unsigned int\000"
 13752      4E545F46 
 13752      41535436 
 13752      345F5459 
 13752      50455F5F 
 13753              	.LASF1185:
 13754 2457 53595343 		.ascii	"SYSCTL_CLOCK_SSP0\000"
 13754      544C5F43 
 13754      4C4F434B 
 13754      5F535350 
 13754      3000
 13755              	.LASF1192:
 13756 2469 53595343 		.ascii	"SYSCTL_CLOCK_SSP1\000"
 13756      544C5F43 
 13756      4C4F434B 
 13756      5F535350 
 13756      3100
 13757              	.LASF910:
 13758 247b 5353505F 		.ascii	"SSP_CR1_SLAVE_EN ((uint32_t) (1 << 2))\000"
 13758      4352315F 
 13758      534C4156 
 13758      455F454E 
 13758      20282875 
 13759              	.LASF132:
 13760 24a2 5F5F464C 		.ascii	"__FLT_MIN__ 1.1754943508222875e-38F\000"
 13760      545F4D49 
 13760      4E5F5F20 
 13760      312E3137 
 13760      35343934 
 13761              	.LASF1281:
 13762 24c6 43686970 		.ascii	"Chip_SSP_GetPCLKkRate\000"
 13762      5F535350 
 13762      5F476574 
 13762      50434C4B 
 13762      6B526174 
 13763              	.LASF287:
 13764 24dc 5F5F4841 		.ascii	"__HA_FBIT__ 7\000"
 13764      5F464249 
 13764      545F5F20 
 13764      3700
 13765              	.LASF1043:
 13766 24ea 53444F5F 		.ascii	"SDO_ABORT_TOGGLE 0x05030000UL\000"
 13766      41424F52 
 13766      545F544F 
 13766      47474C45 
 13766      20307830 
 13767              	.LASF971:
 13768 2508 4932435F 		.ascii	"I2C_I2STAT_NO_INF ((0xF8))\000"
 13768      49325354 
 13768      41545F4E 
 13768      4F5F494E 
ARM GAS  /tmp/ccGKa4GA.s 			page 297


 13768      46202828 
 13769              	.LASF676:
 13770 2523 4C50435F 		.ascii	"LPC_SYSCTL ((LPC_SYSCTL_T *) LPC_SYSCTL_BASE)\000"
 13770      53595343 
 13770      544C2028 
 13770      284C5043 
 13770      5F535953 
 13771              	.LASF131:
 13772 2551 5F5F464C 		.ascii	"__FLT_MAX__ 3.4028234663852886e+38F\000"
 13772      545F4D41 
 13772      585F5F20 
 13772      332E3430 
 13772      32383233 
 13773              	.LASF315:
 13774 2575 5F5F4743 		.ascii	"__GCC_ATOMIC_LLONG_LOCK_FREE 1\000"
 13774      435F4154 
 13774      4F4D4943 
 13774      5F4C4C4F 
 13774      4E475F4C 
 13775              	.LASF501:
 13776 2594 5349475F 		.ascii	"SIG_ATOMIC_MAX (__STDINT_EXP(INT_MAX))\000"
 13776      41544F4D 
 13776      49435F4D 
 13776      41582028 
 13776      5F5F5354 
 13777              	.LASF771:
 13778 25bb 5F5F5541 		.ascii	"__UART_11XX_H_ \000"
 13778      52545F31 
 13778      3158585F 
 13778      485F2000 
 13779              	.LASF1058:
 13780 25cb 4F445F4E 		.ascii	"OD_NONE 0x00\000"
 13780      4F4E4520 
 13780      30783030 
 13780      00
 13781              	.LASF492:
 13782 25d8 55494E54 		.ascii	"UINT_FAST32_MAX (__UINT_FAST32_MAX__)\000"
 13782      5F464153 
 13782      5433325F 
 13782      4D415820 
 13782      285F5F55 
 13783              	.LASF647:
 13784 25fe 4C50435F 		.ascii	"LPC_ADC_BASE 0x4001C000\000"
 13784      4144435F 
 13784      42415345 
 13784      20307834 
 13784      30303143 
 13785              	.LASF975:
 13786 2616 4932435F 		.ascii	"I2C_I2STAT_M_TX_SLAW_ACK ((0x18))\000"
 13786      49325354 
 13786      41545F4D 
 13786      5F54585F 
 13786      534C4157 
 13787              	.LASF167:
 13788 2638 5F5F4445 		.ascii	"__DEC32_MIN_EXP__ (-94)\000"
 13788      4333325F 
 13788      4D494E5F 
ARM GAS  /tmp/ccGKa4GA.s 			page 298


 13788      4558505F 
 13788      5F20282D 
 13789              	.LASF193:
 13790 2650 5F5F5553 		.ascii	"__USFRACT_IBIT__ 0\000"
 13790      46524143 
 13790      545F4942 
 13790      49545F5F 
 13790      203000
 13791              	.LASF527:
 13792 2663 5F424954 		.ascii	"_BIT(n) (1 << (n))\000"
 13792      286E2920 
 13792      2831203C 
 13792      3C20286E 
 13792      292900
 13793              	.LASF1077:
 13794 2676 5F5F7569 		.ascii	"__uint16_t\000"
 13794      6E743136 
 13794      5F7400
 13795              	.LASF584:
 13796 2681 5343425F 		.ascii	"SCB_ICSR_ISRPENDING_Pos 22\000"
 13796      49435352 
 13796      5F495352 
 13796      50454E44 
 13796      494E475F 
 13797              	.LASF1320:
 13798 269c 2F686F6D 		.ascii	"/home/tianye/FSAEARM/psychic-guacamole/can\000"
 13798      652F7469 
 13798      616E7965 
 13798      2F465341 
 13798      4541524D 
 13799              	.LASF1301:
 13800 26c7 496E7443 		.ascii	"IntClear\000"
 13800      6C656172 
 13800      00
 13801              	.LASF194:
 13802 26d0 5F5F5553 		.ascii	"__USFRACT_MIN__ 0.0UHR\000"
 13802      46524143 
 13802      545F4D49 
 13802      4E5F5F20 
 13802      302E3055 
 13803              	.LASF756:
 13804 26e7 46554E43 		.ascii	"FUNC5 0x5\000"
 13804      35203078 
 13804      3500
 13805              	.LASF349:
 13806 26f1 5F5F4152 		.ascii	"__ARM_NEON\000"
 13806      4D5F4E45 
 13806      4F4E00
 13807              	.LASF858:
 13808 26fc 55415254 		.ascii	"UART_ACR_ABTOINT_CLR (1 << 9)\000"
 13808      5F414352 
 13808      5F414254 
 13808      4F494E54 
 13808      5F434C52 
 13809              	.LASF89:
 13810 271a 5F5F5549 		.ascii	"__UINT8_MAX__ 0xff\000"
 13810      4E54385F 
ARM GAS  /tmp/ccGKa4GA.s 			page 299


 13810      4D41585F 
 13810      5F203078 
 13810      666600
 13811              	.LASF395:
 13812 272d 5F5F5F69 		.ascii	"___int16_t_defined 1\000"
 13812      6E743136 
 13812      5F745F64 
 13812      6566696E 
 13812      65642031 
 13813              	.LASF156:
 13814 2742 5F5F4C44 		.ascii	"__LDBL_MAX_EXP__ 1024\000"
 13814      424C5F4D 
 13814      41585F45 
 13814      58505F5F 
 13814      20313032 
 13815              	.LASF722:
 13816 2758 494F434F 		.ascii	"IOCON_FUNC6 0x6\000"
 13816      4E5F4655 
 13816      4E433620 
 13816      30783600 
 13817              	.LASF604:
 13818 2768 5343425F 		.ascii	"SCB_SCR_SLEEPONEXIT_Pos 1\000"
 13818      5343525F 
 13818      534C4545 
 13818      504F4E45 
 13818      5849545F 
 13819              	.LASF602:
 13820 2782 5343425F 		.ascii	"SCB_SCR_SLEEPDEEP_Pos 2\000"
 13820      5343525F 
 13820      534C4545 
 13820      50444545 
 13820      505F506F 
 13821              	.LASF794:
 13822 279a 55415254 		.ascii	"UART_IIR_BITMASK (0x3CF)\000"
 13822      5F494952 
 13822      5F424954 
 13822      4D41534B 
 13822      20283078 
 13823              	.LASF435:
 13824 27b3 5F5F696E 		.ascii	"__int8_t_defined 1\000"
 13824      74385F74 
 13824      5F646566 
 13824      696E6564 
 13824      203100
 13825              	.LASF1040:
 13826 27c6 43414E5F 		.ascii	"CAN_MSGOBJ_EXT 0x20000000UL\000"
 13826      4D53474F 
 13826      424A5F45 
 13826      58542030 
 13826      78323030 
 13827              	.LASF149:
 13828 27e2 5F5F4442 		.ascii	"__DBL_HAS_DENORM__ 1\000"
 13828      4C5F4841 
 13828      535F4445 
 13828      4E4F524D 
 13828      5F5F2031 
 13829              	.LASF1071:
ARM GAS  /tmp/ccGKa4GA.s 			page 300


 13830 27f7 4C50435F 		.ascii	"LPC_CCAN_API ((CCAN_API_T *) (LPC_ROM_API->candApiB"
 13830      4343414E 
 13830      5F415049 
 13830      20282843 
 13830      43414E5F 
 13831 282a 61736529 		.ascii	"ase))\000"
 13831      2900
 13832              	.LASF1254:
 13833 2830 43686970 		.ascii	"Chip_SSP_DeInit\000"
 13833      5F535350 
 13833      5F446549 
 13833      6E697400 
 13834              	.LASF695:
 13835 2840 53595343 		.ascii	"SYSCTL_DEEPSLP_BOD_PD (1 << 3)\000"
 13835      544C5F44 
 13835      45455053 
 13835      4C505F42 
 13835      4F445F50 
 13836              	.LASF618:
 13837 285f 53797354 		.ascii	"SysTick_CTRL_ENABLE_Pos 0\000"
 13837      69636B5F 
 13837      4354524C 
 13837      5F454E41 
 13837      424C455F 
 13838              	.LASF1311:
 13839 2879 43686970 		.ascii	"Chip_Clock_SetSSP0ClockDiv\000"
 13839      5F436C6F 
 13839      636B5F53 
 13839      65745353 
 13839      5030436C 
 13840              	.LASF496:
 13841 2894 494E544D 		.ascii	"INTMAX_MAX (__INTMAX_MAX__)\000"
 13841      41585F4D 
 13841      41582028 
 13841      5F5F494E 
 13841      544D4158 
 13842              	.LASF473:
 13843 28b0 494E5433 		.ascii	"INT32_MAX (__INT32_MAX__)\000"
 13843      325F4D41 
 13843      5820285F 
 13843      5F494E54 
 13843      33325F4D 
 13844              	.LASF811:
 13845 28ca 55415254 		.ascii	"UART_LCR_WLEN_MASK (3 << 0)\000"
 13845      5F4C4352 
 13845      5F574C45 
 13845      4E5F4D41 
 13845      534B2028 
 13846              	.LASF67:
 13847 28e6 5F5F4758 		.ascii	"__GXX_ABI_VERSION 1010\000"
 13847      585F4142 
 13847      495F5645 
 13847      5253494F 
 13847      4E203130 
 13848              	.LASF711:
 13849 28fd 53595343 		.ascii	"SYSCTL_POWERDOWN_WDTOSC_PD (1 << 6)\000"
 13849      544C5F50 
ARM GAS  /tmp/ccGKa4GA.s 			page 301


 13849      4F574552 
 13849      444F574E 
 13849      5F574454 
 13850              	.LASF291:
 13851 2921 5F5F4441 		.ascii	"__DA_FBIT__ 31\000"
 13851      5F464249 
 13851      545F5F20 
 13851      333100
 13852              	.LASF739:
 13853 2930 4D445F50 		.ascii	"MD_PUP (0x2 << 3)\000"
 13853      55502028 
 13853      30783220 
 13853      3C3C2033 
 13853      2900
 13854              	.LASF1022:
 13855 2942 4932435F 		.ascii	"I2C_RECV_END 0x10\000"
 13855      52454356 
 13855      5F454E44 
 13855      20307831 
 13855      3000
 13856              	.LASF95:
 13857 2954 5F5F494E 		.ascii	"__INT_LEAST16_MAX__ 0x7fff\000"
 13857      545F4C45 
 13857      41535431 
 13857      365F4D41 
 13857      585F5F20 
 13858              	.LASF577:
 13859 296f 5343425F 		.ascii	"SCB_ICSR_PENDSVCLR_Msk (1UL << SCB_ICSR_PENDSVCLR_P"
 13859      49435352 
 13859      5F50454E 
 13859      44535643 
 13859      4C525F4D 
 13860 29a2 6F732900 		.ascii	"os)\000"
 13861              	.LASF134:
 13862 29a6 5F5F464C 		.ascii	"__FLT_DENORM_MIN__ 1.4012984643248171e-45F\000"
 13862      545F4445 
 13862      4E4F524D 
 13862      5F4D494E 
 13862      5F5F2031 
 13863              	.LASF428:
 13864 29d1 5F5F4C45 		.ascii	"__LEAST8 \"hh\"\000"
 13864      41535438 
 13864      20226868 
 13864      2200
 13865              	.LASF626:
 13866 29df 53797354 		.ascii	"SysTick_CALIB_SKEW_Pos 30\000"
 13866      69636B5F 
 13866      43414C49 
 13866      425F534B 
 13866      45575F50 
 13867              	.LASF266:
 13868 29f9 5F5F554C 		.ascii	"__ULLACCUM_EPSILON__ 0x1P-32ULLK\000"
 13868      4C414343 
 13868      554D5F45 
 13868      5053494C 
 13868      4F4E5F5F 
 13869              	.LASF866:
ARM GAS  /tmp/ccGKa4GA.s 			page 302


 13870 2a1a 55415254 		.ascii	"UART_RS485CTRL_BITMASK (0x3F)\000"
 13870      5F525334 
 13870      38354354 
 13870      524C5F42 
 13870      49544D41 
 13871              	.LASF963:
 13872 2a38 4932435F 		.ascii	"I2C_I2CONCLR_I2ENC ((1 << 6))\000"
 13872      4932434F 
 13872      4E434C52 
 13872      5F493245 
 13872      4E432028 
 13873              	.LASF66:
 13874 2a56 5F5F6861 		.ascii	"__has_include_next(STR) __has_include_next__(STR)\000"
 13874      735F696E 
 13874      636C7564 
 13874      655F6E65 
 13874      78742853 
 13875              	.LASF900:
 13876 2a88 5353505F 		.ascii	"SSP_CR0_FRF_TI ((uint32_t) (1 << 4))\000"
 13876      4352305F 
 13876      4652465F 
 13876      54492028 
 13876      2875696E 
 13877              	.LASF471:
 13878 2aad 55494E54 		.ascii	"UINT_LEAST16_MAX (__UINT_LEAST16_MAX__)\000"
 13878      5F4C4541 
 13878      53543136 
 13878      5F4D4158 
 13878      20285F5F 
 13879              	.LASF106:
 13880 2ad5 5F5F5549 		.ascii	"__UINT32_C(c) c ## UL\000"
 13880      4E543332 
 13880      5F432863 
 13880      29206320 
 13880      23232055 
 13881              	.LASF568:
 13882 2aeb 5343425F 		.ascii	"SCB_CPUID_PARTNO_Pos 4\000"
 13882      43505549 
 13882      445F5041 
 13882      52544E4F 
 13882      5F506F73 
 13883              	.LASF573:
 13884 2b02 5343425F 		.ascii	"SCB_ICSR_NMIPENDSET_Msk (1UL << SCB_ICSR_NMIPENDSET"
 13884      49435352 
 13884      5F4E4D49 
 13884      50454E44 
 13884      5345545F 
 13885 2b35 5F506F73 		.ascii	"_Pos)\000"
 13885      2900
 13886              	.LASF814:
 13887 2b3b 55415254 		.ascii	"UART_LCR_WLEN7 (2 << 0)\000"
 13887      5F4C4352 
 13887      5F574C45 
 13887      4E372028 
 13887      32203C3C 
 13888              	.LASF528:
 13889 2b53 5F534246 		.ascii	"_SBF\000"
ARM GAS  /tmp/ccGKa4GA.s 			page 303


 13889      00
 13890              	.LASF244:
 13891 2b58 5F5F5541 		.ascii	"__UACCUM_MIN__ 0.0UK\000"
 13891      4343554D 
 13891      5F4D494E 
 13891      5F5F2030 
 13891      2E30554B 
 13892              	.LASF785:
 13893 2b6d 55415254 		.ascii	"UART_IER_ABEOINT (1 << 8)\000"
 13893      5F494552 
 13893      5F414245 
 13893      4F494E54 
 13893      20283120 
 13894              	.LASF133:
 13895 2b87 5F5F464C 		.ascii	"__FLT_EPSILON__ 1.1920928955078125e-7F\000"
 13895      545F4550 
 13895      53494C4F 
 13895      4E5F5F20 
 13895      312E3139 
 13896              	.LASF640:
 13897 2bae 4C50435F 		.ascii	"LPC_I2C_BASE 0x40000000\000"
 13897      4932435F 
 13897      42415345 
 13897      20307834 
 13897      30303030 
 13898              	.LASF445:
 13899 2bc6 5F494E54 		.ascii	"_INTMAX_T_DECLARED \000"
 13899      4D41585F 
 13899      545F4445 
 13899      434C4152 
 13899      45442000 
 13900              	.LASF543:
 13901 2bda 5F5F434D 		.ascii	"__CMSIS_11CXX_H_ \000"
 13901      5349535F 
 13901      31314358 
 13901      585F485F 
 13901      2000
 13902              	.LASF1217:
 13903 2bec 43484950 		.ascii	"CHIP_SSP_CLOCK_FORMAT\000"
 13903      5F535350 
 13903      5F434C4F 
 13903      434B5F46 
 13903      4F524D41 
 13904              	.LASF31:
 13905 2c02 5F5F5054 		.ascii	"__PTRDIFF_TYPE__ int\000"
 13905      52444946 
 13905      465F5459 
 13905      50455F5F 
 13905      20696E74 
 13906              	.LASF809:
 13907 2c17 55415254 		.ascii	"UART_FCR_TRG_LEV2 (2 << 6)\000"
 13907      5F464352 
 13907      5F545247 
 13907      5F4C4556 
 13907      32202832 
 13908              	.LASF1050:
 13909 2c32 53444F5F 		.ascii	"SDO_ABORT_PARAINCOMP 0x06040043UL\000"
ARM GAS  /tmp/ccGKa4GA.s 			page 304


 13909      41424F52 
 13909      545F5041 
 13909      5241494E 
 13909      434F4D50 
 13910              	.LASF612:
 13911 2c54 53797354 		.ascii	"SysTick_CTRL_COUNTFLAG_Pos 16\000"
 13911      69636B5F 
 13911      4354524C 
 13911      5F434F55 
 13911      4E54464C 
 13912              	.LASF450:
 13913 2c72 5F5F696E 		.ascii	"__int_least16_t_defined 1\000"
 13913      745F6C65 
 13913      61737431 
 13913      365F745F 
 13913      64656669 
 13914              	.LASF246:
 13915 2c8c 5F5F5541 		.ascii	"__UACCUM_EPSILON__ 0x1P-16UK\000"
 13915      4343554D 
 13915      5F455053 
 13915      494C4F4E 
 13915      5F5F2030 
 13916              	.LASF345:
 13917 2ca9 5F5F5646 		.ascii	"__VFP_FP__ 1\000"
 13917      505F4650 
 13917      5F5F2031 
 13917      00
 13918              	.LASF476:
 13919 2cb6 494E545F 		.ascii	"INT_LEAST32_MAX (__INT_LEAST32_MAX__)\000"
 13919      4C454153 
 13919      5433325F 
 13919      4D415820 
 13919      285F5F49 
 13920              	.LASF1284:
 13921 2cdc 43686970 		.ascii	"Chip_SSP_GetClockIndex\000"
 13921      5F535350 
 13921      5F476574 
 13921      436C6F63 
 13921      6B496E64 
 13922              	.LASF312:
 13923 2cf3 5F5F4743 		.ascii	"__GCC_ATOMIC_SHORT_LOCK_FREE 1\000"
 13923      435F4154 
 13923      4F4D4943 
 13923      5F53484F 
 13923      52545F4C 
 13924              	.LASF522:
 13925 2d12 66616C73 		.ascii	"false 0\000"
 13925      65203000 
 13926              	.LASF942:
 13927 2d1a 4144435F 		.ascii	"ADC_CR_START_ADCTRIG0 ((4UL << 24))\000"
 13927      43525F53 
 13927      54415254 
 13927      5F414443 
 13927      54524947 
 13928              	.LASF766:
 13929 2d3e 54494D45 		.ascii	"TIMER_RESET_ON_MATCH(n) (_BIT((((n) * 3) + 1)))\000"
 13929      525F5245 
ARM GAS  /tmp/ccGKa4GA.s 			page 305


 13929      5345545F 
 13929      4F4E5F4D 
 13929      41544348 
 13930              	.LASF897:
 13931 2d6e 5F5F5353 		.ascii	"__SSP_11XX_H_ \000"
 13931      505F3131 
 13931      58585F48 
 13931      5F2000
 13932              	.LASF270:
 13933 2d7d 5F5F4851 		.ascii	"__HQ_IBIT__ 0\000"
 13933      5F494249 
 13933      545F5F20 
 13933      3000
 13934              	.LASF551:
 13935 2d8b 5F5F434F 		.ascii	"__CORTEX_M (0x00)\000"
 13935      52544558 
 13935      5F4D2028 
 13935      30783030 
 13935      2900
 13936              	.LASF232:
 13937 2d9d 5F5F5553 		.ascii	"__USACCUM_FBIT__ 8\000"
 13937      41434355 
 13937      4D5F4642 
 13937      49545F5F 
 13937      203800
 13938              	.LASF316:
 13939 2db0 5F5F4743 		.ascii	"__GCC_ATOMIC_TEST_AND_SET_TRUEVAL 1\000"
 13939      435F4154 
 13939      4F4D4943 
 13939      5F544553 
 13939      545F414E 
 13940              	.LASF982:
 13941 2dd4 4932435F 		.ascii	"I2C_I2STAT_M_RX_ARB_LOST ((0x38))\000"
 13941      49325354 
 13941      41545F4D 
 13941      5F52585F 
 13941      4152425F 
 13942              	.LASF587:
 13943 2df6 5343425F 		.ascii	"SCB_ICSR_VECTPENDING_Msk (0x1FFUL << SCB_ICSR_VECTP"
 13943      49435352 
 13943      5F564543 
 13943      5450454E 
 13943      44494E47 
 13944 2e29 454E4449 		.ascii	"ENDING_Pos)\000"
 13944      4E475F50 
 13944      6F732900 
 13945              	.LASF1218:
 13946 2e35 5353505F 		.ascii	"SSP_CLOCK_CPHA0_CPOL0\000"
 13946      434C4F43 
 13946      4B5F4350 
 13946      4841305F 
 13946      43504F4C 
 13947              	.LASF1219:
 13948 2e4b 5353505F 		.ascii	"SSP_CLOCK_CPHA0_CPOL1\000"
 13948      434C4F43 
 13948      4B5F4350 
 13948      4841305F 
ARM GAS  /tmp/ccGKa4GA.s 			page 306


 13948      43504F4C 
 13949              	.LASF247:
 13950 2e61 5F5F4C41 		.ascii	"__LACCUM_FBIT__ 31\000"
 13950      4343554D 
 13950      5F464249 
 13950      545F5F20 
 13950      333100
 13951              	.LASF715:
 13952 2e74 5F5F494F 		.ascii	"__IOCON_11XX_H_ \000"
 13952      434F4E5F 
 13952      31315858 
 13952      5F485F20 
 13952      00
 13953              	.LASF1228:
 13954 2e85 43484950 		.ascii	"CHIP_SSP_FRAME_FORMAT_TI\000"
 13954      5F535350 
 13954      5F465241 
 13954      4D455F46 
 13954      4F524D41 
 13955              	.LASF1007:
 13956 2e9e 4932435F 		.ascii	"I2C_I2MMCTRL_BITMASK ((0x07))\000"
 13956      49324D4D 
 13956      4354524C 
 13956      5F424954 
 13956      4D41534B 
 13957              	.LASF762:
 13958 2ebc 54494D45 		.ascii	"TIMER_CAP_INT(n) (_BIT((((n) & 0x0F) + 4)))\000"
 13958      525F4341 
 13958      505F494E 
 13958      54286E29 
 13958      20285F42 
 13959              	.LASF1222:
 13960 2ee8 5353505F 		.ascii	"SSP_CLOCK_MODE0\000"
 13960      434C4F43 
 13960      4B5F4D4F 
 13960      44453000 
 13961              	.LASF1223:
 13962 2ef8 5353505F 		.ascii	"SSP_CLOCK_MODE1\000"
 13962      434C4F43 
 13962      4B5F4D4F 
 13962      44453100 
 13963              	.LASF1099:
 13964 2f08 53595350 		.ascii	"SYSPLLCTRL\000"
 13964      4C4C4354 
 13964      524C00
 13965              	.LASF1225:
 13966 2f13 5353505F 		.ascii	"SSP_CLOCK_MODE3\000"
 13966      434C4F43 
 13966      4B5F4D4F 
 13966      44453300 
 13967              	.LASF293:
 13968 2f23 5F5F5441 		.ascii	"__TA_FBIT__ 63\000"
 13968      5F464249 
 13968      545F5F20 
 13968      363300
 13969              	.LASF783:
 13970 2f32 55415254 		.ascii	"UART_IER_MSINT (1 << 3)\000"
ARM GAS  /tmp/ccGKa4GA.s 			page 307


 13970      5F494552 
 13970      5F4D5349 
 13970      4E542028 
 13970      31203C3C 
 13971              	.LASF987:
 13972 2f4a 4932435F 		.ascii	"I2C_I2STAT_S_RX_SLAW_ACK ((0x60))\000"
 13972      49325354 
 13972      41545F53 
 13972      5F52585F 
 13972      534C4157 
 13973              	.LASF457:
 13974 2f6c 494E5450 		.ascii	"INTPTR_MIN (-__INTPTR_MAX__ - 1)\000"
 13974      54525F4D 
 13974      494E2028 
 13974      2D5F5F49 
 13974      4E545054 
 13975              	.LASF1097:
 13976 2f8d 5359534D 		.ascii	"SYSMEMREMAP\000"
 13976      454D5245 
 13976      4D415000 
 13977              	.LASF1171:
 13978 2f99 52455345 		.ascii	"RESET_DAC0\000"
 13978      545F4441 
 13978      433000
 13979              	.LASF614:
 13980 2fa4 53797354 		.ascii	"SysTick_CTRL_CLKSOURCE_Pos 2\000"
 13980      69636B5F 
 13980      4354524C 
 13980      5F434C4B 
 13980      534F5552 
 13981              	.LASF353:
 13982 2fc1 5F5F4152 		.ascii	"__ARM_PCS 1\000"
 13982      4D5F5043 
 13982      53203100 
 13983              	.LASF520:
 13984 2fcd 626F6F6C 		.ascii	"bool _Bool\000"
 13984      205F426F 
 13984      6F6C00
 13985              	.LASF957:
 13986 2fd8 4932435F 		.ascii	"I2C_I2CONSET_STA ((0x20))\000"
 13986      4932434F 
 13986      4E534554 
 13986      5F535441 
 13986      20282830 
 13987              	.LASF690:
 13988 2ff2 53595343 		.ascii	"SYSCTL_RST_EXTRST (1 << 1)\000"
 13988      544C5F52 
 13988      53545F45 
 13988      58545253 
 13988      54202831 
 13989              	.LASF691:
 13990 300d 53595343 		.ascii	"SYSCTL_RST_WDT (1 << 2)\000"
 13990      544C5F52 
 13990      53545F57 
 13990      44542028 
 13990      31203C3C 
 13991              	.LASF549:
ARM GAS  /tmp/ccGKa4GA.s 			page 308


 13992 3025 5F5F434D 		.ascii	"__CM0_CMSIS_VERSION_SUB (0x01)\000"
 13992      305F434D 
 13992      5349535F 
 13992      56455253 
 13992      494F4E5F 
 13993              	.LASF84:
 13994 3044 5F5F5349 		.ascii	"__SIG_ATOMIC_MIN__ (-__SIG_ATOMIC_MAX__ - 1)\000"
 13994      475F4154 
 13994      4F4D4943 
 13994      5F4D494E 
 13994      5F5F2028 
 13995              	.LASF101:
 13996 3071 5F5F5549 		.ascii	"__UINT_LEAST8_MAX__ 0xff\000"
 13996      4E545F4C 
 13996      45415354 
 13996      385F4D41 
 13996      585F5F20 
 13997              	.LASF574:
 13998 308a 5343425F 		.ascii	"SCB_ICSR_PENDSVSET_Pos 28\000"
 13998      49435352 
 13998      5F50454E 
 13998      44535653 
 13998      45545F50 
 13999              	.LASF1269:
 14000 30a4 62756666 		.ascii	"buffer\000"
 14000      657200
 14001              	.LASF596:
 14002 30ab 5343425F 		.ascii	"SCB_AIRCR_SYSRESETREQ_Pos 2\000"
 14002      41495243 
 14002      525F5359 
 14002      53524553 
 14002      45545245 
 14003              	.LASF560:
 14004 30c7 5F5F4F20 		.ascii	"__O volatile\000"
 14004      766F6C61 
 14004      74696C65 
 14004      00
 14005              	.LASF1318:
 14006 30d4 474E5520 		.ascii	"GNU C89 6.2.1 20161205 (release) [ARM/embedded-6-br"
 14006      43383920 
 14006      362E322E 
 14006      31203230 
 14006      31363132 
 14007 3107 616E6368 		.ascii	"anch revision 243739] -mcpu=cortex-m0 -mthumb -g -g"
 14007      20726576 
 14007      6973696F 
 14007      6E203234 
 14007      33373339 
 14008 313a 67646233 		.ascii	"gdb3 -O2 -std=gnu90 -ffunction-sections -fdata-sect"
 14008      202D4F32 
 14008      202D7374 
 14008      643D676E 
 14008      75393020 
 14009 316d 696F6E73 		.ascii	"ions\000"
 14009      00
 14010              	.LASF500:
 14011 3172 5349475F 		.ascii	"SIG_ATOMIC_MIN (-__STDINT_EXP(INT_MAX) - 1)\000"
ARM GAS  /tmp/ccGKa4GA.s 			page 309


 14011      41544F4D 
 14011      49435F4D 
 14011      494E2028 
 14011      2D5F5F53 
 14012              	.LASF977:
 14013 319e 4932435F 		.ascii	"I2C_I2STAT_M_TX_DAT_ACK ((0x28))\000"
 14013      49325354 
 14013      41545F4D 
 14013      5F54585F 
 14013      4441545F 
 14014              	.LASF1291:
 14015 31bf 5353505F 		.ascii	"SSP_Write2BFifo\000"
 14015      57726974 
 14015      65324246 
 14015      69666F00 
 14016              	.LASF436:
 14017 31cf 5F494E54 		.ascii	"_INT16_T_DECLARED \000"
 14017      31365F54 
 14017      5F444543 
 14017      4C415245 
 14017      442000
 14018              	.LASF1126:
 14019 31e2 55534243 		.ascii	"USBCLKUEN\000"
 14019      4C4B5545 
 14019      4E00
 14020              	.LASF1041:
 14021 31ec 43414E5F 		.ascii	"CAN_MSGOBJ_DAT 0x00000000UL\000"
 14021      4D53474F 
 14021      424A5F44 
 14021      41542030 
 14021      78303030 
 14022              	.LASF1001:
 14023 3208 4932435F 		.ascii	"I2C_SLAVE_TIME_OUT 0x10000000UL\000"
 14023      534C4156 
 14023      455F5449 
 14023      4D455F4F 
 14023      55542030 
 14024              	.LASF854:
 14025 3228 55415254 		.ascii	"UART_ACR_START (1 << 0)\000"
 14025      5F414352 
 14025      5F535441 
 14025      52542028 
 14025      31203C3C 
 14026              	.LASF875:
 14027 3240 55415254 		.ascii	"UART_SCICTRL_PROTSEL_T1 (1 << 2)\000"
 14027      5F534349 
 14027      4354524C 
 14027      5F50524F 
 14027      5453454C 
 14028              	.LASF452:
 14029 3261 5F5F696E 		.ascii	"__int_least64_t_defined 1\000"
 14029      745F6C65 
 14029      61737436 
 14029      345F745F 
 14029      64656669 
 14030              	.LASF1267:
 14031 327b 43686970 		.ascii	"Chip_SSP_Int_FlushData\000"
ARM GAS  /tmp/ccGKa4GA.s 			page 310


 14031      5F535350 
 14031      5F496E74 
 14031      5F466C75 
 14031      73684461 
 14032              	.LASF774:
 14033 3292 52425F56 		.ascii	"RB_VTAIL(rb) ((volatile uint32_t)(rb->tail))\000"
 14033      5441494C 
 14033      28726229 
 14033      20282876 
 14033      6F6C6174 
 14034              	.LASF877:
 14035 32bf 55415254 		.ascii	"UART_SCICTRL_GUARDTIME(n) ((n & 0xFF) << 8)\000"
 14035      5F534349 
 14035      4354524C 
 14035      5F475541 
 14035      52445449 
 14036              	.LASF1145:
 14037 32eb 55534243 		.ascii	"USBCLKCTRL\000"
 14037      4C4B4354 
 14037      524C00
 14038              	.LASF179:
 14039 32f6 5F5F4445 		.ascii	"__DEC64_SUBNORMAL_MIN__ 0.000000000000001E-383DD\000"
 14039      4336345F 
 14039      5355424E 
 14039      4F524D41 
 14039      4C5F4D49 
 14040              	.LASF196:
 14041 3327 5F5F5553 		.ascii	"__USFRACT_EPSILON__ 0x1P-8UHR\000"
 14041      46524143 
 14041      545F4550 
 14041      53494C4F 
 14041      4E5F5F20 
 14042              	.LASF740:
 14043 3345 4D445F42 		.ascii	"MD_BUK (0x3 << 3)\000"
 14043      554B2028 
 14043      30783320 
 14043      3C3C2033 
 14043      2900
 14044              	.LASF530:
 14045 3357 5F424954 		.ascii	"_BITMASK\000"
 14045      4D41534B 
 14045      00
 14046              	.LASF651:
 14047 3360 4C50435F 		.ascii	"LPC_FLASH_BASE 0x4003C000\000"
 14047      464C4153 
 14047      485F4241 
 14047      53452030 
 14047      78343030 
 14048              	.LASF674:
 14049 337a 4C50435F 		.ascii	"LPC_SSP0 ((LPC_SSP_T *) LPC_SSP0_BASE)\000"
 14049      53535030 
 14049      2028284C 
 14049      50435F53 
 14049      53505F54 
 14050              	.LASF1255:
 14051 33a1 43686970 		.ascii	"Chip_SSP_Init\000"
 14051      5F535350 
ARM GAS  /tmp/ccGKa4GA.s 			page 311


 14051      5F496E69 
 14051      7400
 14052              	.LASF260:
 14053 33af 5F5F4C4C 		.ascii	"__LLACCUM_MAX__ 0X7FFFFFFFFFFFFFFFP-31LLK\000"
 14053      41434355 
 14053      4D5F4D41 
 14053      585F5F20 
 14053      30583746 
 14054              	.LASF791:
 14055 33d9 55415254 		.ascii	"UART_IIR_FIFO_EN (3 << 6)\000"
 14055      5F494952 
 14055      5F464946 
 14055      4F5F454E 
 14055      20283320 
 14056              	.LASF757:
 14057 33f3 46554E43 		.ascii	"FUNC6 0x6\000"
 14057      36203078 
 14057      3600
 14058              	.LASF1270:
 14059 33fd 62756666 		.ascii	"buffer_len\000"
 14059      65725F6C 
 14059      656E00
 14060              	.LASF451:
 14061 3408 5F5F696E 		.ascii	"__int_least32_t_defined 1\000"
 14061      745F6C65 
 14061      61737433 
 14061      325F745F 
 14061      64656669 
 14062              	.LASF304:
 14063 3422 5F5F5553 		.ascii	"__USER_LABEL_PREFIX__ \000"
 14063      45525F4C 
 14063      4142454C 
 14063      5F505245 
 14063      4649585F 
 14064              	.LASF92:
 14065 3439 5F5F5549 		.ascii	"__UINT64_MAX__ 0xffffffffffffffffULL\000"
 14065      4E543634 
 14065      5F4D4158 
 14065      5F5F2030 
 14065      78666666 
 14066              	.LASF661:
 14067 345e 4C50435F 		.ascii	"LPC_GPIO_PORT3_BASE 0x50030000\000"
 14067      4750494F 
 14067      5F504F52 
 14067      54335F42 
 14067      41534520 
 14068              	.LASF1002:
 14069 347d 4932435F 		.ascii	"I2C_I2DAT_BITMASK ((0xFF))\000"
 14069      49324441 
 14069      545F4249 
 14069      544D4153 
 14069      4B202828 
 14070              	.LASF815:
 14071 3498 55415254 		.ascii	"UART_LCR_WLEN8 (3 << 0)\000"
 14071      5F4C4352 
 14071      5F574C45 
 14071      4E382028 
ARM GAS  /tmp/ccGKa4GA.s 			page 312


 14071      33203C3C 
 14072              	.LASF1178:
 14073 34b0 53595343 		.ascii	"SYSCTL_CLOCK_FLASHARRAY\000"
 14073      544C5F43 
 14073      4C4F434B 
 14073      5F464C41 
 14073      53484152 
 14074              	.LASF91:
 14075 34c8 5F5F5549 		.ascii	"__UINT32_MAX__ 0xffffffffUL\000"
 14075      4E543332 
 14075      5F4D4158 
 14075      5F5F2030 
 14075      78666666 
 14076              	.LASF514:
 14077 34e4 494E5436 		.ascii	"INT64_C(x) __INT64_C(x)\000"
 14077      345F4328 
 14077      7829205F 
 14077      5F494E54 
 14077      36345F43 
 14078              	.LASF380:
 14079 34fc 5F415446 		.ascii	"_ATFILE_SOURCE\000"
 14079      494C455F 
 14079      534F5552 
 14079      434500
 14080              	.LASF460:
 14081 350b 494E5438 		.ascii	"INT8_MIN (-__INT8_MAX__ - 1)\000"
 14081      5F4D494E 
 14081      20282D5F 
 14081      5F494E54 
 14081      385F4D41 
 14082              	.LASF895:
 14083 3528 57574454 		.ascii	"WWDT_WDMOD_WDINT ((uint32_t) (1 << 3))\000"
 14083      5F57444D 
 14083      4F445F57 
 14083      44494E54 
 14083      20282875 
 14084              	.LASF93:
 14085 354f 5F5F494E 		.ascii	"__INT_LEAST8_MAX__ 0x7f\000"
 14085      545F4C45 
 14085      41535438 
 14085      5F4D4158 
 14085      5F5F2030 
 14086              	.LASF1180:
 14087 3567 53595343 		.ascii	"SYSCTL_CLOCK_GPIO\000"
 14087      544C5F43 
 14087      4C4F434B 
 14087      5F475049 
 14087      4F00
 14088              	.LASF1142:
 14089 3579 4952514C 		.ascii	"IRQLATENCY\000"
 14089      4154454E 
 14089      435900
 14090              	.LASF356:
 14091 3584 5F5F4152 		.ascii	"__ARM_FEATURE_IDIV\000"
 14091      4D5F4645 
 14091      41545552 
 14091      455F4944 
ARM GAS  /tmp/ccGKa4GA.s 			page 313


 14091      495600
 14092              	.LASF8:
 14093 3597 5F5F4154 		.ascii	"__ATOMIC_ACQUIRE 2\000"
 14093      4F4D4943 
 14093      5F414351 
 14093      55495245 
 14093      203200
 14094              	.LASF1265:
 14095 35aa 43686970 		.ascii	"Chip_SSP_Int_RWFrames16Bits\000"
 14095      5F535350 
 14095      5F496E74 
 14095      5F525746 
 14095      72616D65 
 14096              	.LASF1312:
 14097 35c6 43686970 		.ascii	"Chip_Clock_DisablePeriphClock\000"
 14097      5F436C6F 
 14097      636B5F44 
 14097      69736162 
 14097      6C655065 
 14098              	.LASF684:
 14099 35e4 504D555F 		.ascii	"PMU_PCON_PM_DEEPPOWERDOWN (0x2)\000"
 14099      50434F4E 
 14099      5F504D5F 
 14099      44454550 
 14099      504F5745 
 14100              	.LASF911:
 14101 3604 5353505F 		.ascii	"SSP_CR1_MASTER_EN ((uint32_t) (0))\000"
 14101      4352315F 
 14101      4D415354 
 14101      45525F45 
 14101      4E202828 
 14102              	.LASF1102:
 14103 3627 55534250 		.ascii	"USBPLLSTAT\000"
 14103      4C4C5354 
 14103      415400
 14104              	.LASF418:
 14105 3632 5F494E54 		.ascii	"_INTPTR_EQ_INT \000"
 14105      5054525F 
 14105      45515F49 
 14105      4E542000 
 14106              	.LASF334:
 14107 3642 5F5F4152 		.ascii	"__ARM_SIZEOF_WCHAR_T 4\000"
 14107      4D5F5349 
 14107      5A454F46 
 14107      5F574348 
 14107      41525F54 
 14108              	.LASF468:
 14109 3659 55494E54 		.ascii	"UINT16_MAX (__UINT16_MAX__)\000"
 14109      31365F4D 
 14109      41582028 
 14109      5F5F5549 
 14109      4E543136 
 14110              	.LASF65:
 14111 3675 5F5F6861 		.ascii	"__has_include(STR) __has_include__(STR)\000"
 14111      735F696E 
 14111      636C7564 
 14111      65285354 
ARM GAS  /tmp/ccGKa4GA.s 			page 314


 14111      5229205F 
 14112              	.LASF1053:
 14113 369d 53444F5F 		.ascii	"SDO_ABORT_UNKNOWNSUB 0x06090011UL\000"
 14113      41424F52 
 14113      545F554E 
 14113      4B4E4F57 
 14113      4E535542 
 14114              	.LASF906:
 14115 36bf 5353505F 		.ascii	"SSP_CR0_SCR(n) ((uint32_t) ((n & 0xFF) << 8))\000"
 14115      4352305F 
 14115      53435228 
 14115      6E292028 
 14115      2875696E 
 14116              	.LASF1321:
 14117 36ed 43686970 		.ascii	"Chip_SSP_SetClockRate\000"
 14117      5F535350 
 14117      5F536574 
 14117      436C6F63 
 14117      6B526174 
 14118              	.LASF803:
 14119 3703 55415254 		.ascii	"UART_FCR_TX_RS (1 << 2)\000"
 14119      5F464352 
 14119      5F54585F 
 14119      52532028 
 14119      31203C3C 
 14120              	.LASF1302:
 14121 371b 43686970 		.ascii	"Chip_SSP_GetDataSize\000"
 14121      5F535350 
 14121      5F476574 
 14121      44617461 
 14121      53697A65 
 14122              	.LASF147:
 14123 3730 5F5F4442 		.ascii	"__DBL_EPSILON__ ((double)2.2204460492503131e-16L)\000"
 14123      4C5F4550 
 14123      53494C4F 
 14123      4E5F5F20 
 14123      2828646F 
 14124              	.LASF1278:
 14125 3762 7373705F 		.ascii	"ssp_clk\000"
 14125      636C6B00 
 14126              	.LASF136:
 14127 376a 5F5F464C 		.ascii	"__FLT_HAS_INFINITY__ 1\000"
 14127      545F4841 
 14127      535F494E 
 14127      46494E49 
 14127      54595F5F 
 14128              	.LASF1167:
 14129 3781 52455345 		.ascii	"RESET_TIMER1_16\000"
 14129      545F5449 
 14129      4D455231 
 14129      5F313600 
 14130              	.LASF240:
 14131 3791 5F5F4143 		.ascii	"__ACCUM_MAX__ 0X7FFFFFFFP-15K\000"
 14131      43554D5F 
 14131      4D41585F 
 14131      5F203058 
 14131      37464646 
ARM GAS  /tmp/ccGKa4GA.s 			page 315


 14132              	.LASF585:
 14133 37af 5343425F 		.ascii	"SCB_ICSR_ISRPENDING_Msk (1UL << SCB_ICSR_ISRPENDING"
 14133      49435352 
 14133      5F495352 
 14133      50454E44 
 14133      494E475F 
 14134 37e2 5F506F73 		.ascii	"_Pos)\000"
 14134      2900
 14135              	.LASF85:
 14136 37e8 5F5F494E 		.ascii	"__INT8_MAX__ 0x7f\000"
 14136      54385F4D 
 14136      41585F5F 
 14136      20307837 
 14136      6600
 14137              	.LASF1310:
 14138 37fa 43686970 		.ascii	"Chip_Clock_GetSSP0ClockDiv\000"
 14138      5F436C6F 
 14138      636B5F47 
 14138      65745353 
 14138      5030436C 
 14139              	.LASF667:
 14140 3815 4C50435F 		.ascii	"LPC_TIMER16_0 ((LPC_TIMER_T *) LPC_TIMER16_0_BASE)\000"
 14140      54494D45 
 14140      5231365F 
 14140      30202828 
 14140      4C50435F 
 14141              	.LASF318:
 14142 3848 5F5F4743 		.ascii	"__GCC_HAVE_DWARF2_CFI_ASM 1\000"
 14142      435F4841 
 14142      56455F44 
 14142      57415246 
 14142      325F4346 
 14143              	.LASF394:
 14144 3864 5F5F5F69 		.ascii	"___int8_t_defined 1\000"
 14144      6E74385F 
 14144      745F6465 
 14144      66696E65 
 14144      64203100 
 14145              	.LASF189:
 14146 3878 5F5F5346 		.ascii	"__SFRACT_MIN__ (-0.5HR-0.5HR)\000"
 14146      52414354 
 14146      5F4D494E 
 14146      5F5F2028 
 14146      2D302E35 
 14147              	.LASF1081:
 14148 3896 6C6F6E67 		.ascii	"long unsigned int\000"
 14148      20756E73 
 14148      69676E65 
 14148      6420696E 
 14148      7400
 14149              	.LASF290:
 14150 38a8 5F5F5341 		.ascii	"__SA_IBIT__ 16\000"
 14150      5F494249 
 14150      545F5F20 
 14150      313600
 14151              	.LASF60:
 14152 38b7 5F5F5549 		.ascii	"__UINT_FAST16_TYPE__ unsigned int\000"
ARM GAS  /tmp/ccGKa4GA.s 			page 316


 14152      4E545F46 
 14152      41535431 
 14152      365F5459 
 14152      50455F5F 
 14153              	.LASF405:
 14154 38d9 7369676E 		.ascii	"signed\000"
 14154      656400
 14155              	.LASF120:
 14156 38e0 5F5F4743 		.ascii	"__GCC_IEC_559_COMPLEX 0\000"
 14156      435F4945 
 14156      435F3535 
 14156      395F434F 
 14156      4D504C45 
 14157              	.LASF916:
 14158 38f8 5353505F 		.ascii	"SSP_SR_BITMASK ((uint32_t) (0x1F))\000"
 14158      53525F42 
 14158      49544D41 
 14158      534B2028 
 14158      2875696E 
 14159              	.LASF2:
 14160 391b 5F5F474E 		.ascii	"__GNUC__ 6\000"
 14160      55435F5F 
 14160      203600
 14161              	.LASF761:
 14162 3926 54494D45 		.ascii	"TIMER_MATCH_INT(n) (_BIT((n) & 0x0F))\000"
 14162      525F4D41 
 14162      5443485F 
 14162      494E5428 
 14162      6E292028 
 14163              	.LASF44:
 14164 394c 5F5F5549 		.ascii	"__UINT16_TYPE__ short unsigned int\000"
 14164      4E543136 
 14164      5F545950 
 14164      455F5F20 
 14164      73686F72 
 14165              	.LASF64:
 14166 396f 5F5F5549 		.ascii	"__UINTPTR_TYPE__ unsigned int\000"
 14166      4E545054 
 14166      525F5459 
 14166      50455F5F 
 14166      20756E73 
 14167              	.LASF344:
 14168 398d 5F5F534F 		.ascii	"__SOFTFP__ 1\000"
 14168      46544650 
 14168      5F5F2031 
 14168      00
 14169              	.LASF441:
 14170 399a 5F5F696E 		.ascii	"__int32_t_defined 1\000"
 14170      7433325F 
 14170      745F6465 
 14170      66696E65 
 14170      64203100 
 14171              	.LASF499:
 14172 39ae 53495A45 		.ascii	"SIZE_MAX (__SIZE_MAX__)\000"
 14172      5F4D4158 
 14172      20285F5F 
 14172      53495A45 
ARM GAS  /tmp/ccGKa4GA.s 			page 317


 14172      5F4D4158 
 14173              	.LASF168:
 14174 39c6 5F5F4445 		.ascii	"__DEC32_MAX_EXP__ 97\000"
 14174      4333325F 
 14174      4D41585F 
 14174      4558505F 
 14174      5F203937 
 14175              	.LASF628:
 14176 39db 53797354 		.ascii	"SysTick_CALIB_TENMS_Pos 0\000"
 14176      69636B5F 
 14176      43414C49 
 14176      425F5445 
 14176      4E4D535F 
 14177              	.LASF884:
 14178 39f5 55415254 		.ascii	"UART_SYNCCTRL_CSRC_MASTER (1 << 1)\000"
 14178      5F53594E 
 14178      43435452 
 14178      4C5F4353 
 14178      52435F4D 
 14179              	.LASF1290:
 14180 3a18 5353505F 		.ascii	"SSP_Write1BFifo\000"
 14180      57726974 
 14180      65314246 
 14180      69666F00 
 14181              	.LASF699:
 14182 3a28 53595343 		.ascii	"SYSCTL_SLPWAKE_FLASH_PD (1 << 2)\000"
 14182      544C5F53 
 14182      4C505741 
 14182      4B455F46 
 14182      4C415348 
 14183              	.LASF416:
 14184 3a49 696E7420 		.ascii	"int +2\000"
 14184      2B3200
 14185              	.LASF1253:
 14186 3a50 53797374 		.ascii	"SystemCoreClock\000"
 14186      656D436F 
 14186      7265436C 
 14186      6F636B00 
 14187              	.LASF1204:
 14188 3a60 5353505F 		.ascii	"SSP_STATUS_T\000"
 14188      53544154 
 14188      55535F54 
 14188      00
 14189              	.LASF508:
 14190 3a6d 494E5438 		.ascii	"INT8_C(x) __INT8_C(x)\000"
 14190      5F432878 
 14190      29205F5F 
 14190      494E5438 
 14190      5F432878 
 14191              	.LASF59:
 14192 3a83 5F5F5549 		.ascii	"__UINT_FAST8_TYPE__ unsigned int\000"
 14192      4E545F46 
 14192      41535438 
 14192      5F545950 
 14192      455F5F20 
 14193              	.LASF258:
 14194 3aa4 5F5F4C4C 		.ascii	"__LLACCUM_IBIT__ 32\000"
ARM GAS  /tmp/ccGKa4GA.s 			page 318


 14194      41434355 
 14194      4D5F4942 
 14194      49545F5F 
 14194      20333200 
 14195              	.LASF597:
 14196 3ab8 5343425F 		.ascii	"SCB_AIRCR_SYSRESETREQ_Msk (1UL << SCB_AIRCR_SYSRESE"
 14196      41495243 
 14196      525F5359 
 14196      53524553 
 14196      45545245 
 14197 3aeb 54524551 		.ascii	"TREQ_Pos)\000"
 14197      5F506F73 
 14197      2900
 14198              	.LASF201:
 14199 3af5 5F5F4652 		.ascii	"__FRACT_EPSILON__ 0x1P-15R\000"
 14199      4143545F 
 14199      45505349 
 14199      4C4F4E5F 
 14199      5F203078 
 14200              	.LASF535:
 14201 3b10 45585445 		.ascii	"EXTERN extern\000"
 14201      524E2065 
 14201      78746572 
 14201      6E00
 14202              	.LASF583:
 14203 3b1e 5343425F 		.ascii	"SCB_ICSR_ISRPREEMPT_Msk (1UL << SCB_ICSR_ISRPREEMPT"
 14203      49435352 
 14203      5F495352 
 14203      50524545 
 14203      4D50545F 
 14204 3b51 5F506F73 		.ascii	"_Pos)\000"
 14204      2900
 14205              	.LASF87:
 14206 3b57 5F5F494E 		.ascii	"__INT32_MAX__ 0x7fffffffL\000"
 14206      5433325F 
 14206      4D41585F 
 14206      5F203078 
 14206      37666666 
 14207              	.LASF1020:
 14208 3b71 4932435F 		.ascii	"I2C_LAST_BYTE_RECV 0x04\000"
 14208      4C415354 
 14208      5F425954 
 14208      455F5245 
 14208      43562030 
 14209              	.LASF358:
 14210 3b89 5F5F4758 		.ascii	"__GXX_TYPEINFO_EQUALITY_INLINE 0\000"
 14210      585F5459 
 14210      5045494E 
 14210      464F5F45 
 14210      5155414C 
 14211              	.LASF544:
 14212 3baa 5F5F4D50 		.ascii	"__MPU_PRESENT 0\000"
 14212      555F5052 
 14212      4553454E 
 14212      54203000 
 14213              	.LASF370:
 14214 3bba 5F5F4E45 		.ascii	"__NEWLIB_MINOR__ 4\000"
ARM GAS  /tmp/ccGKa4GA.s 			page 319


 14214      574C4942 
 14214      5F4D494E 
 14214      4F525F5F 
 14214      203400
 14215              	.LASF38:
 14216 3bcd 5F5F5349 		.ascii	"__SIG_ATOMIC_TYPE__ int\000"
 14216      475F4154 
 14216      4F4D4943 
 14216      5F545950 
 14216      455F5F20 
 14217              	.LASF1172:
 14218 3be5 52455345 		.ascii	"RESET_ADC0\000"
 14218      545F4144 
 14218      433000
 14219              	.LASF327:
 14220 3bf0 5F5F4152 		.ascii	"__ARM_FEATURE_UNALIGNED\000"
 14220      4D5F4645 
 14220      41545552 
 14220      455F554E 
 14220      414C4947 
 14221              	.LASF375:
 14222 3c08 5F444546 		.ascii	"_DEFAULT_SOURCE 1\000"
 14222      41554C54 
 14222      5F534F55 
 14222      52434520 
 14222      3100
 14223              	.LASF184:
 14224 3c1a 5F5F4445 		.ascii	"__DEC128_MAX__ 9.999999999999999999999999999999999E"
 14224      43313238 
 14224      5F4D4158 
 14224      5F5F2039 
 14224      2E393939 
 14225 3c4d 36313434 		.ascii	"6144DL\000"
 14225      444C00
 14226              	.LASF118:
 14227 3c54 5F5F5549 		.ascii	"__UINTPTR_MAX__ 0xffffffffU\000"
 14227      4E545054 
 14227      525F4D41 
 14227      585F5F20 
 14227      30786666 
 14228              	.LASF1042:
 14229 3c70 43414E5F 		.ascii	"CAN_MSGOBJ_RTR 0x40000000UL\000"
 14229      4D53474F 
 14229      424A5F52 
 14229      54522030 
 14229      78343030 
 14230              	.LASF591:
 14231 3c8c 5343425F 		.ascii	"SCB_AIRCR_VECTKEY_Msk (0xFFFFUL << SCB_AIRCR_VECTKE"
 14231      41495243 
 14231      525F5645 
 14231      43544B45 
 14231      595F4D73 
 14232 3cbf 595F506F 		.ascii	"Y_Pos)\000"
 14232      732900
 14233              	.LASF742:
 14234 3cc6 4D445F49 		.ascii	"MD_INV (0x1 << 6)\000"
 14234      4E562028 
ARM GAS  /tmp/ccGKa4GA.s 			page 320


 14234      30783120 
 14234      3C3C2036 
 14234      2900
 14235              	.LASF54:
 14236 3cd8 5F5F5549 		.ascii	"__UINT_LEAST64_TYPE__ long long unsigned int\000"
 14236      4E545F4C 
 14236      45415354 
 14236      36345F54 
 14236      5950455F 
 14237              	.LASF729:
 14238 3d05 494F434F 		.ascii	"IOCON_INV_EN (0x1 << 6)\000"
 14238      4E5F494E 
 14238      565F454E 
 14238      20283078 
 14238      31203C3C 
 14239              	.LASF798:
 14240 3d1d 55415254 		.ascii	"UART_IIR_INTID_CTI (6 << 1)\000"
 14240      5F494952 
 14240      5F494E54 
 14240      49445F43 
 14240      54492028 
 14241              	.LASF192:
 14242 3d39 5F5F5553 		.ascii	"__USFRACT_FBIT__ 8\000"
 14242      46524143 
 14242      545F4642 
 14242      49545F5F 
 14242      203800
 14243              	.LASF161:
 14244 3d4c 5F5F4C44 		.ascii	"__LDBL_EPSILON__ 2.2204460492503131e-16L\000"
 14244      424C5F45 
 14244      5053494C 
 14244      4F4E5F5F 
 14244      20322E32 
 14245              	.LASF1063:
 14246 3d75 4F445F53 		.ascii	"OD_SEG_WO 0x50\000"
 14246      45475F57 
 14246      4F203078 
 14246      353000
 14247              	.LASF1202:
 14248 3d84 5353505F 		.ascii	"SSP_STAT_RFF\000"
 14248      53544154 
 14248      5F524646 
 14248      00
 14249              	.LASF309:
 14250 3d91 5F5F4743 		.ascii	"__GCC_ATOMIC_CHAR16_T_LOCK_FREE 1\000"
 14250      435F4154 
 14250      4F4D4943 
 14250      5F434841 
 14250      5231365F 
 14251              	.LASF142:
 14252 3db3 5F5F4442 		.ascii	"__DBL_MAX_EXP__ 1024\000"
 14252      4C5F4D41 
 14252      585F4558 
 14252      505F5F20 
 14252      31303234 
 14253              	.LASF427:
 14254 3dc8 5F5F4641 		.ascii	"__FAST64 \"ll\"\000"
ARM GAS  /tmp/ccGKa4GA.s 			page 321


 14254      53543634 
 14254      20226C6C 
 14254      2200
 14255              	.LASF9:
 14256 3dd6 5F5F4154 		.ascii	"__ATOMIC_RELEASE 3\000"
 14256      4F4D4943 
 14256      5F52454C 
 14256      45415345 
 14256      203300
 14257              	.LASF412:
 14258 3de9 756E7369 		.ascii	"unsigned +0\000"
 14258      676E6564 
 14258      202B3000 
 14259              	.LASF124:
 14260 3df5 5F5F464C 		.ascii	"__FLT_MANT_DIG__ 24\000"
 14260      545F4D41 
 14260      4E545F44 
 14260      49475F5F 
 14260      20323400 
 14261              	.LASF1197:
 14262 3e09 43484950 		.ascii	"CHIP_SYSCTL_CLOCK\000"
 14262      5F535953 
 14262      43544C5F 
 14262      434C4F43 
 14262      4B00
 14263              	.LASF1090:
 14264 3e1b 4552524F 		.ascii	"ERROR\000"
 14264      5200
 14265              	.LASF57:
 14266 3e21 5F5F494E 		.ascii	"__INT_FAST32_TYPE__ int\000"
 14266      545F4641 
 14266      53543332 
 14266      5F545950 
 14266      455F5F20 
 14267              	.LASF1190:
 14268 3e39 53595343 		.ascii	"SYSCTL_CLOCK_IOCON\000"
 14268      544C5F43 
 14268      4C4F434B 
 14268      5F494F43 
 14268      4F4E00
 14269              	.LASF49:
 14270 3e4c 5F5F494E 		.ascii	"__INT_LEAST32_TYPE__ long int\000"
 14270      545F4C45 
 14270      41535433 
 14270      325F5459 
 14270      50455F5F 
 14271              	.LASF498:
 14272 3e6a 55494E54 		.ascii	"UINTMAX_MAX (__UINTMAX_MAX__)\000"
 14272      4D41585F 
 14272      4D415820 
 14272      285F5F55 
 14272      494E544D 
 14273              	.LASF933:
 14274 3e88 4144435F 		.ascii	"ADC_CR_CH_SEL(n) ((1UL << (n)))\000"
 14274      43525F43 
 14274      485F5345 
 14274      4C286E29 
ARM GAS  /tmp/ccGKa4GA.s 			page 322


 14274      20282831 
 14275              	.LASF12:
 14276 3ea8 5F5F4F50 		.ascii	"__OPTIMIZE__ 1\000"
 14276      54494D49 
 14276      5A455F5F 
 14276      203100
 14277              	.LASF245:
 14278 3eb7 5F5F5541 		.ascii	"__UACCUM_MAX__ 0XFFFFFFFFP-16UK\000"
 14278      4343554D 
 14278      5F4D4158 
 14278      5F5F2030 
 14278      58464646 
 14279              	.LASF439:
 14280 3ed7 5F494E54 		.ascii	"_INT32_T_DECLARED \000"
 14280      33325F54 
 14280      5F444543 
 14280      4C415245 
 14280      442000
 14281              	.LASF681:
 14282 3eea 4C50435F 		.ascii	"LPC_ROM_API (*((LPC_ROM_API_T * *) LPC_ROM_API_BASE"
 14282      524F4D5F 
 14282      41504920 
 14282      282A2828 
 14282      4C50435F 
 14283 3f1d 5F4C4F43 		.ascii	"_LOC))\000"
 14283      292900
 14284              	.LASF1062:
 14285 3f24 4F445F53 		.ascii	"OD_SEG_RO 0x40\000"
 14285      45475F52 
 14285      4F203078 
 14285      343000
 14286              	.LASF426:
 14287 3f33 5F5F4641 		.ascii	"__FAST32 \000"
 14287      53543332 
 14287      2000
 14288              	.LASF415:
 14289 3f3d 5F5F696E 		.ascii	"__int20 +2\000"
 14289      74323020 
 14289      2B3200
 14290              	.LASF894:
 14291 3f48 57574454 		.ascii	"WWDT_WDMOD_WDTOF ((uint32_t) (1 << 2))\000"
 14291      5F57444D 
 14291      4F445F57 
 14291      44544F46 
 14291      20282875 
 14292              	.LASF943:
 14293 3f6f 4144435F 		.ascii	"ADC_CR_START_ADCTRIG1 ((5UL << 24))\000"
 14293      43525F53 
 14293      54415254 
 14293      5F414443 
 14293      54524947 
 14294              	.LASF162:
 14295 3f93 5F5F4C44 		.ascii	"__LDBL_DENORM_MIN__ 4.9406564584124654e-324L\000"
 14295      424C5F44 
 14295      454E4F52 
 14295      4D5F4D49 
 14295      4E5F5F20 
ARM GAS  /tmp/ccGKa4GA.s 			page 323


 14296              	.LASF88:
 14297 3fc0 5F5F494E 		.ascii	"__INT64_MAX__ 0x7fffffffffffffffLL\000"
 14297      5436345F 
 14297      4D41585F 
 14297      5F203078 
 14297      37666666 
 14298              	.LASF918:
 14299 3fe3 5353505F 		.ascii	"SSP_CPHA_FIRST SSP_CR0_CPHA_FIRST\000"
 14299      43504841 
 14299      5F464952 
 14299      53542053 
 14299      53505F43 
 14300              	.LASF438:
 14301 4005 5F5F696E 		.ascii	"__int16_t_defined 1\000"
 14301      7431365F 
 14301      745F6465 
 14301      66696E65 
 14301      64203100 
 14302              	.LASF223:
 14303 4019 5F5F554C 		.ascii	"__ULLFRACT_IBIT__ 0\000"
 14303      4C465241 
 14303      43545F49 
 14303      4249545F 
 14303      5F203000 
 14304              	.LASF1175:
 14305 402d 53595343 		.ascii	"SYSCTL_CLOCK_ROM\000"
 14305      544C5F43 
 14305      4C4F434B 
 14305      5F524F4D 
 14305      00
 14306              	.LASF1169:
 14307 403e 52455345 		.ascii	"RESET_TIMER1_32\000"
 14307      545F5449 
 14307      4D455231 
 14307      5F333200 
 14308              	.LASF844:
 14309 404e 55415254 		.ascii	"UART1_LSR_BITMASK (0x1FF)\000"
 14309      315F4C53 
 14309      525F4249 
 14309      544D4153 
 14309      4B202830 
 14310              	.LASF810:
 14311 4068 55415254 		.ascii	"UART_FCR_TRG_LEV3 (3 << 6)\000"
 14311      5F464352 
 14311      5F545247 
 14311      5F4C4556 
 14311      33202833 
 14312              	.LASF984:
 14313 4083 4932435F 		.ascii	"I2C_I2STAT_M_RX_SLAR_NACK ((0x48))\000"
 14313      49325354 
 14313      41545F4D 
 14313      5F52585F 
 14313      534C4152 
 14314              	.LASF677:
 14315 40a6 4C50435F 		.ascii	"LPC_SSP1 ((LPC_SSP_T *) LPC_SSP1_BASE)\000"
 14315      53535031 
 14315      2028284C 
ARM GAS  /tmp/ccGKa4GA.s 			page 324


 14315      50435F53 
 14315      53505F54 
 14316              	.LASF786:
 14317 40cd 55415254 		.ascii	"UART_IER_ABTOINT (1 << 9)\000"
 14317      5F494552 
 14317      5F414254 
 14317      4F494E54 
 14317      20283120 
 14318              	.LASF872:
 14319 40e7 55415254 		.ascii	"UART_HDEN_HDEN ((1 << 0))\000"
 14319      5F484445 
 14319      4E5F4844 
 14319      454E2028 
 14319      2831203C 
 14320              	.LASF570:
 14321 4101 5343425F 		.ascii	"SCB_CPUID_REVISION_Pos 0\000"
 14321      43505549 
 14321      445F5245 
 14321      56495349 
 14321      4F4E5F50 
 14322              	.LASF554:
 14323 411a 5F5F5354 		.ascii	"__STATIC_INLINE static inline\000"
 14323      41544943 
 14323      5F494E4C 
 14323      494E4520 
 14323      73746174 
 14324              	.LASF1285:
 14325 4138 636C6B53 		.ascii	"clkSSP\000"
 14325      535000
 14326              	.LASF650:
 14327 413f 4C50435F 		.ascii	"LPC_PMU_BASE 0x40038000\000"
 14327      504D555F 
 14327      42415345 
 14327      20307834 
 14327      30303338 
 14328              	.LASF1010:
 14329 4157 4932435F 		.ascii	"I2C_I2ADR_BITMASK ((0xFF))\000"
 14329      49324144 
 14329      525F4249 
 14329      544D4153 
 14329      4B202828 
 14330              	.LASF969:
 14331 4172 4932435F 		.ascii	"I2C_STAT_CODE_BITMASK ((0xF8))\000"
 14331      53544154 
 14331      5F434F44 
 14331      455F4249 
 14331      544D4153 
 14332              	.LASF1025:
 14333 4191 4932435F 		.ascii	"I2C_CheckError(ErrorCode) (ErrorCode & 0x10000000)\000"
 14333      43686563 
 14333      6B457272 
 14333      6F722845 
 14333      72726F72 
 14334              	.LASF1092:
 14335 41c4 53746174 		.ascii	"Status\000"
 14335      757300
 14336              	.LASF713:
ARM GAS  /tmp/ccGKa4GA.s 			page 325


 14337 41cb 5F5F434C 		.ascii	"__CLOCK_11XX_H_ \000"
 14337      4F434B5F 
 14337      31315858 
 14337      5F485F20 
 14337      00
 14338              	.LASF242:
 14339 41dc 5F5F5541 		.ascii	"__UACCUM_FBIT__ 16\000"
 14339      4343554D 
 14339      5F464249 
 14339      545F5F20 
 14339      313600
 14340              	.LASF1012:
 14341 41ef 4932435F 		.ascii	"I2C_I2SCLH_BITMASK ((0xFFFF))\000"
 14341      49325343 
 14341      4C485F42 
 14341      49544D41 
 14341      534B2028 
 14342              	.LASF206:
 14343 420d 5F5F5546 		.ascii	"__UFRACT_EPSILON__ 0x1P-16UR\000"
 14343      52414354 
 14343      5F455053 
 14343      494C4F4E 
 14343      5F5F2030 
 14344              	.LASF74:
 14345 422a 5F5F5743 		.ascii	"__WCHAR_MIN__ 0U\000"
 14345      4841525F 
 14345      4D494E5F 
 14345      5F203055 
 14345      00
 14346              	.LASF278:
 14347 423b 5F5F5551 		.ascii	"__UQQ_IBIT__ 0\000"
 14347      515F4942 
 14347      49545F5F 
 14347      203000
 14348              	.LASF368:
 14349 424a 5F4E4557 		.ascii	"_NEWLIB_VERSION \"2.4.0\"\000"
 14349      4C49425F 
 14349      56455253 
 14349      494F4E20 
 14349      22322E34 
 14350              	.LASF314:
 14351 4262 5F5F4743 		.ascii	"__GCC_ATOMIC_LONG_LOCK_FREE 1\000"
 14351      435F4154 
 14351      4F4D4943 
 14351      5F4C4F4E 
 14351      475F4C4F 
 14352              	.LASF254:
 14353 4280 5F5F554C 		.ascii	"__ULACCUM_MIN__ 0.0ULK\000"
 14353      41434355 
 14353      4D5F4D49 
 14353      4E5F5F20 
 14353      302E3055 
 14354              	.LASF1080:
 14355 4297 5F5F7569 		.ascii	"__uint32_t\000"
 14355      6E743332 
 14355      5F7400
 14356              	.LASF159:
ARM GAS  /tmp/ccGKa4GA.s 			page 326


 14357 42a2 5F5F4C44 		.ascii	"__LDBL_MAX__ 1.7976931348623157e+308L\000"
 14357      424C5F4D 
 14357      41585F5F 
 14357      20312E37 
 14357      39373639 
 14358              	.LASF123:
 14359 42c8 5F5F464C 		.ascii	"__FLT_RADIX__ 2\000"
 14359      545F5241 
 14359      4449585F 
 14359      5F203200 
 14360              	.LASF902:
 14361 42d8 5353505F 		.ascii	"SSP_CR0_CPOL_LO ((uint32_t) (0))\000"
 14361      4352305F 
 14361      43504F4C 
 14361      5F4C4F20 
 14361      28287569 
 14362              	.LASF1082:
 14363 42f9 6C6F6E67 		.ascii	"long long int\000"
 14363      206C6F6E 
 14363      6720696E 
 14363      7400
 14364              	.LASF755:
 14365 4307 46554E43 		.ascii	"FUNC4 0x4\000"
 14365      34203078 
 14365      3400
 14366              	.LASF474:
 14367 4311 55494E54 		.ascii	"UINT32_MAX (__UINT32_MAX__)\000"
 14367      33325F4D 
 14367      41582028 
 14367      5F5F5549 
 14367      4E543332 
 14368              	.LASF827:
 14369 432d 55415254 		.ascii	"UART_LCR_BITMASK (0xFF)\000"
 14369      5F4C4352 
 14369      5F424954 
 14369      4D41534B 
 14369      20283078 
 14370              	.LASF165:
 14371 4345 5F5F4C44 		.ascii	"__LDBL_HAS_QUIET_NAN__ 1\000"
 14371      424C5F48 
 14371      41535F51 
 14371      55494554 
 14371      5F4E414E 
 14372              	.LASF818:
 14373 435e 55415254 		.ascii	"UART_LCR_SBS_2BIT (1 << 2)\000"
 14373      5F4C4352 
 14373      5F534253 
 14373      5F324249 
 14373      54202831 
 14374              	.LASF1016:
 14375 4379 4932435F 		.ascii	"I2C_SETUP_STATUS_DONE (1 << 10)\000"
 14375      53455455 
 14375      505F5354 
 14375      41545553 
 14375      5F444F4E 
 14376              	.LASF702:
 14377 4399 53595343 		.ascii	"SYSCTL_SLPWAKE_SYSOSC_PD (1 << 5)\000"
ARM GAS  /tmp/ccGKa4GA.s 			page 327


 14377      544C5F53 
 14377      4C505741 
 14377      4B455F53 
 14377      59534F53 
 14378              	.LASF506:
 14379 43bb 57494E54 		.ascii	"WINT_MAX (__WINT_MAX__)\000"
 14379      5F4D4158 
 14379      20285F5F 
 14379      57494E54 
 14379      5F4D4158 
 14380              	.LASF732:
 14381 43d3 494F434F 		.ascii	"IOCON_SFI2C_EN (0x0 << 8)\000"
 14381      4E5F5346 
 14381      4932435F 
 14381      454E2028 
 14381      30783020 
 14382              	.LASF1031:
 14383 43ed 43414E5F 		.ascii	"CAN_ERROR_WARN 0x00000002UL\000"
 14383      4552524F 
 14383      525F5741 
 14383      524E2030 
 14383      78303030 
 14384              	.LASF672:
 14385 4409 4C50435F 		.ascii	"LPC_PMU ((LPC_PMU_T *) LPC_PMU_BASE)\000"
 14385      504D5520 
 14385      28284C50 
 14385      435F504D 
 14385      555F5420 
 14386              	.LASF495:
 14387 442e 55494E54 		.ascii	"UINT_FAST64_MAX (__UINT_FAST64_MAX__)\000"
 14387      5F464153 
 14387      5436345F 
 14387      4D415820 
 14387      285F5F55 
 14388              	.LASF346:
 14389 4454 5F5F4152 		.ascii	"__ARM_FP\000"
 14389      4D5F4650 
 14389      00
 14390              	.LASF288:
 14391 445d 5F5F4841 		.ascii	"__HA_IBIT__ 8\000"
 14391      5F494249 
 14391      545F5F20 
 14391      3800
 14392              	.LASF323:
 14393 446b 5F5F4152 		.ascii	"__ARM_FEATURE_DSP\000"
 14393      4D5F4645 
 14393      41545552 
 14393      455F4453 
 14393      5000
 14394              	.LASF305:
 14395 447d 5F5F474E 		.ascii	"__GNUC_GNU_INLINE__ 1\000"
 14395      55435F47 
 14395      4E555F49 
 14395      4E4C494E 
 14395      455F5F20 
 14396              	.LASF966:
 14397 4493 4932435F 		.ascii	"I2C_CON_STO (1UL << 4)\000"
ARM GAS  /tmp/ccGKa4GA.s 			page 328


 14397      434F4E5F 
 14397      53544F20 
 14397      2831554C 
 14397      203C3C20 
 14398              	.LASF637:
 14399 44aa 5F424954 		.ascii	"_BIT_SHIFT(IRQn) ( (((uint32_t)(IRQn) ) & 0x03) * 8"
 14399      5F534849 
 14399      46542849 
 14399      52516E29 
 14399      20282028 
 14400 44dd 202900   		.ascii	" )\000"
 14401              	.LASF853:
 14402 44e0 55415254 		.ascii	"UART_MSR_BITMASK (0xFF)\000"
 14402      5F4D5352 
 14402      5F424954 
 14402      4D41534B 
 14402      20283078 
 14403              	.LASF1322:
 14404 44f8 43686970 		.ascii	"Chip_Clock_GetMainClockRate\000"
 14404      5F436C6F 
 14404      636B5F47 
 14404      65744D61 
 14404      696E436C 
 14405              	.LASF848:
 14406 4514 55415254 		.ascii	"UART_MSR_DELTA_DCD (1 << 3)\000"
 14406      5F4D5352 
 14406      5F44454C 
 14406      54415F44 
 14406      43442028 
 14407              	.LASF873:
 14408 4530 55415254 		.ascii	"UART_SCICTRL_SCIEN (1 << 0)\000"
 14408      5F534349 
 14408      4354524C 
 14408      5F534349 
 14408      454E2028 
 14409              	.LASF792:
 14410 454c 55415254 		.ascii	"UART_IIR_ABEO_INT (1 << 8)\000"
 14410      5F494952 
 14410      5F414245 
 14410      4F5F494E 
 14410      54202831 
 14411              	.LASF1108:
 14412 4567 53595352 		.ascii	"SYSRSTSTAT\000"
 14412      53545354 
 14412      415400
 14413              	.LASF99:
 14414 4572 5F5F494E 		.ascii	"__INT_LEAST64_MAX__ 0x7fffffffffffffffLL\000"
 14414      545F4C45 
 14414      41535436 
 14414      345F4D41 
 14414      585F5F20 
 14415              	.LASF896:
 14416 459b 57574454 		.ascii	"WWDT_WDMOD_WDPROTECT ((uint32_t) (1 << 4))\000"
 14416      5F57444D 
 14416      4F445F57 
 14416      4450524F 
 14416      54454354 
ARM GAS  /tmp/ccGKa4GA.s 			page 329


 14417              	.LASF976:
 14418 45c6 4932435F 		.ascii	"I2C_I2STAT_M_TX_SLAW_NACK ((0x20))\000"
 14418      49325354 
 14418      41545F4D 
 14418      5F54585F 
 14418      534C4157 
 14419              	.LASF823:
 14420 45e9 55415254 		.ascii	"UART_LCR_PARITY_F_1 (2 << 4)\000"
 14420      5F4C4352 
 14420      5F504152 
 14420      4954595F 
 14420      465F3120 
 14421              	.LASF1250:
 14422 4606 72785F63 		.ascii	"rx_cnt\000"
 14422      6E7400
 14423              	.LASF42:
 14424 460d 5F5F494E 		.ascii	"__INT64_TYPE__ long long int\000"
 14424      5436345F 
 14424      54595045 
 14424      5F5F206C 
 14424      6F6E6720 
 14425              	.LASF1308:
 14426 462a 43686970 		.ascii	"Chip_Clock_SetSSP1ClockDiv\000"
 14426      5F436C6F 
 14426      636B5F53 
 14426      65745353 
 14426      5031436C 
 14427              	.LASF22:
 14428 4645 5F5F4348 		.ascii	"__CHAR_BIT__ 8\000"
 14428      41525F42 
 14428      49545F5F 
 14428      203800
 14429              	.LASF320:
 14430 4654 5F5F5349 		.ascii	"__SIZEOF_WCHAR_T__ 4\000"
 14430      5A454F46 
 14430      5F574348 
 14430      41525F54 
 14430      5F5F2034 
 14431              	.LASF917:
 14432 4669 5353505F 		.ascii	"SSP_ICR_BITMASK ((uint32_t) (0x03))\000"
 14432      4943525F 
 14432      4249544D 
 14432      41534B20 
 14432      28287569 
 14433              	.LASF383:
 14434 468d 5F5F4253 		.ascii	"__BSD_VISIBLE 1\000"
 14434      445F5649 
 14434      5349424C 
 14434      45203100 
 14435              	.LASF469:
 14436 469d 494E545F 		.ascii	"INT_LEAST16_MIN (-__INT_LEAST16_MAX__ - 1)\000"
 14436      4C454153 
 14436      5431365F 
 14436      4D494E20 
 14436      282D5F5F 
 14437              	.LASF855:
 14438 46c8 55415254 		.ascii	"UART_ACR_MODE (1 << 1)\000"
ARM GAS  /tmp/ccGKa4GA.s 			page 330


 14438      5F414352 
 14438      5F4D4F44 
 14438      45202831 
 14438      203C3C20 
 14439              	.LASF1213:
 14440 46df 5353505F 		.ascii	"SSP_RORIC\000"
 14440      524F5249 
 14440      4300
 14441              	.LASF995:
 14442 46e9 4932435F 		.ascii	"I2C_I2STAT_S_RX_STA_STO_SLVREC_SLVTRX ((0xA0))\000"
 14442      49325354 
 14442      41545F53 
 14442      5F52585F 
 14442      5354415F 
 14443              	.LASF790:
 14444 4718 55415254 		.ascii	"UART_IIR_INTSTAT_PEND (1 << 0)\000"
 14444      5F494952 
 14444      5F494E54 
 14444      53544154 
 14444      5F50454E 
 14445              	.LASF586:
 14446 4737 5343425F 		.ascii	"SCB_ICSR_VECTPENDING_Pos 12\000"
 14446      49435352 
 14446      5F564543 
 14446      5450454E 
 14446      44494E47 
 14447              	.LASF940:
 14448 4753 4144435F 		.ascii	"ADC_CR_START_CTOUT15 ((2UL << 24))\000"
 14448      43525F53 
 14448      54415254 
 14448      5F43544F 
 14448      55543135 
 14449              	.LASF205:
 14450 4776 5F5F5546 		.ascii	"__UFRACT_MAX__ 0XFFFFP-16UR\000"
 14450      52414354 
 14450      5F4D4158 
 14450      5F5F2030 
 14450      58464646 
 14451              	.LASF1268:
 14452 4792 43686970 		.ascii	"Chip_SSP_ReadFrames_Blocking\000"
 14452      5F535350 
 14452      5F526561 
 14452      64467261 
 14452      6D65735F 
 14453              	.LASF1006:
 14454 47af 4932435F 		.ascii	"I2C_I2MMCTRL_MATCH_ALL ((1 << 2))\000"
 14454      49324D4D 
 14454      4354524C 
 14454      5F4D4154 
 14454      43485F41 
 14455              	.LASF769:
 14456 47d1 54494D45 		.ascii	"TIMER_CAP_FALLING(n) (_BIT((((n) * 3) + 1)))\000"
 14456      525F4341 
 14456      505F4641 
 14456      4C4C494E 
 14456      47286E29 
 14457              	.LASF295:
ARM GAS  /tmp/ccGKa4GA.s 			page 331


 14458 47fe 5F5F5548 		.ascii	"__UHA_FBIT__ 8\000"
 14458      415F4642 
 14458      49545F5F 
 14458      203800
 14459              	.LASF1294:
 14460 480d 43686970 		.ascii	"Chip_SSP_SetFormat\000"
 14460      5F535350 
 14460      5F536574 
 14460      466F726D 
 14460      617400
 14461              	.LASF1068:
 14462 4820 43414E5F 		.ascii	"CAN_SDOSEG_SEGMENT 0\000"
 14462      53444F53 
 14462      45475F53 
 14462      45474D45 
 14462      4E542030 
 14463              	.LASF381:
 14464 4835 5F415446 		.ascii	"_ATFILE_SOURCE 1\000"
 14464      494C455F 
 14464      534F5552 
 14464      43452031 
 14464      00
 14465              	.LASF404:
 14466 4846 5F5F5354 		.ascii	"__STDINT_EXP(x) __ ##x ##__\000"
 14466      44494E54 
 14466      5F455850 
 14466      28782920 
 14466      5F5F2023 
 14467              	.LASF391:
 14468 4862 5F5F4558 		.ascii	"__EXP(x) __ ##x ##__\000"
 14468      50287829 
 14468      205F5F20 
 14468      23237820 
 14468      23235F5F 
 14469              	.LASF27:
 14470 4877 5F5F4259 		.ascii	"__BYTE_ORDER__ __ORDER_LITTLE_ENDIAN__\000"
 14470      54455F4F 
 14470      52444552 
 14470      5F5F205F 
 14470      5F4F5244 
 14471              	.LASF350:
 14472 489e 5F5F4152 		.ascii	"__ARM_NEON_FP\000"
 14472      4D5F4E45 
 14472      4F4E5F46 
 14472      5000
 14473              	.LASF660:
 14474 48ac 4C50435F 		.ascii	"LPC_GPIO_PORT2_BASE 0x50020000\000"
 14474      4750494F 
 14474      5F504F52 
 14474      54325F42 
 14474      41534520 
 14475              	.LASF235:
 14476 48cb 5F5F5553 		.ascii	"__USACCUM_MAX__ 0XFFFFP-8UHK\000"
 14476      41434355 
 14476      4D5F4D41 
 14476      585F5F20 
 14476      30584646 
ARM GAS  /tmp/ccGKa4GA.s 			page 332


 14477              	.LASF845:
 14478 48e8 55415254 		.ascii	"UART_MSR_DELTA_CTS (1 << 0)\000"
 14478      5F4D5352 
 14478      5F44454C 
 14478      54415F43 
 14478      54532028 
 14479              	.LASF749:
 14480 4904 4D445F46 		.ascii	"MD_FASTI2C (0x2 << 8)\000"
 14480      41535449 
 14480      32432028 
 14480      30783220 
 14480      3C3C2038 
 14481              	.LASF768:
 14482 491a 54494D45 		.ascii	"TIMER_CAP_RISING(n) (_BIT(((n) * 3)))\000"
 14482      525F4341 
 14482      505F5249 
 14482      53494E47 
 14482      286E2920 
 14483              	.LASF1299:
 14484 4940 43686970 		.ascii	"Chip_SSP_ReceiveFrame\000"
 14484      5F535350 
 14484      5F526563 
 14484      65697665 
 14484      4672616D 
 14485              	.LASF581:
 14486 4956 5343425F 		.ascii	"SCB_ICSR_PENDSTCLR_Msk (1UL << SCB_ICSR_PENDSTCLR_P"
 14486      49435352 
 14486      5F50454E 
 14486      44535443 
 14486      4C525F4D 
 14487 4989 6F732900 		.ascii	"os)\000"
 14488              	.LASF1289:
 14489 498d 5353505F 		.ascii	"SSP_Read2BFifo\000"
 14489      52656164 
 14489      32424669 
 14489      666F00
 14490              	.LASF840:
 14491 499c 55415254 		.ascii	"UART_LSR_TEMT (1 << 6)\000"
 14491      5F4C5352 
 14491      5F54454D 
 14491      54202831 
 14491      203C3C20 
 14492              	.LASF708:
 14493 49b3 53595343 		.ascii	"SYSCTL_POWERDOWN_BOD_PD (1 << 3)\000"
 14493      544C5F50 
 14493      4F574552 
 14493      444F574E 
 14493      5F424F44 
 14494              	.LASF329:
 14495 49d4 5F5F4152 		.ascii	"__ARM_32BIT_STATE\000"
 14495      4D5F3332 
 14495      4249545F 
 14495      53544154 
 14495      4500
 14496              	.LASF33:
 14497 49e6 5F5F5749 		.ascii	"__WINT_TYPE__ unsigned int\000"
 14497      4E545F54 
ARM GAS  /tmp/ccGKa4GA.s 			page 333


 14497      5950455F 
 14497      5F20756E 
 14497      7369676E 
 14498              	.LASF821:
 14499 4a01 55415254 		.ascii	"UART_LCR_PARITY_ODD (0 << 4)\000"
 14499      5F4C4352 
 14499      5F504152 
 14499      4954595F 
 14499      4F444420 
 14500              	.LASF283:
 14501 4a1e 5F5F5544 		.ascii	"__UDQ_FBIT__ 64\000"
 14501      515F4642 
 14501      49545F5F 
 14501      20363400 
 14502              	.LASF553:
 14503 4a2e 5F5F494E 		.ascii	"__INLINE inline\000"
 14503      4C494E45 
 14503      20696E6C 
 14503      696E6500 
 14504              	.LASF454:
 14505 4a3e 5F5F696E 		.ascii	"__int_fast16_t_defined 1\000"
 14505      745F6661 
 14505      73743136 
 14505      5F745F64 
 14505      6566696E 
 14506              	.LASF782:
 14507 4a57 55415254 		.ascii	"UART_IER_RLSINT (1 << 2)\000"
 14507      5F494552 
 14507      5F524C53 
 14507      494E5420 
 14507      2831203C 
 14508              	.LASF157:
 14509 4a70 5F5F4C44 		.ascii	"__LDBL_MAX_10_EXP__ 308\000"
 14509      424C5F4D 
 14509      41585F31 
 14509      305F4558 
 14509      505F5F20 
 14510              	.LASF959:
 14511 4a88 4932435F 		.ascii	"I2C_I2CONCLR_AAC ((1 << 2))\000"
 14511      4932434F 
 14511      4E434C52 
 14511      5F414143 
 14511      20282831 
 14512              	.LASF636:
 14513 4aa4 4E564943 		.ascii	"NVIC ((NVIC_Type *) NVIC_BASE )\000"
 14513      2028284E 
 14513      5649435F 
 14513      54797065 
 14513      202A2920 
 14514              	.LASF479:
 14515 4ac4 494E5436 		.ascii	"INT64_MAX (__INT64_MAX__)\000"
 14515      345F4D41 
 14515      5820285F 
 14515      5F494E54 
 14515      36345F4D 
 14516              	.LASF1173:
 14517 4ade 43484950 		.ascii	"CHIP_SYSCTL_PERIPH_RESET_T\000"
ARM GAS  /tmp/ccGKa4GA.s 			page 334


 14517      5F535953 
 14517      43544C5F 
 14517      50455249 
 14517      50485F52 
 14518              	.LASF1069:
 14519 4af9 43414E5F 		.ascii	"CAN_SDOSEG_OPEN 1\000"
 14519      53444F53 
 14519      45475F4F 
 14519      50454E20 
 14519      3100
 14520              	.LASF164:
 14521 4b0b 5F5F4C44 		.ascii	"__LDBL_HAS_INFINITY__ 1\000"
 14521      424C5F48 
 14521      41535F49 
 14521      4E46494E 
 14521      4954595F 
 14522              	.LASF580:
 14523 4b23 5343425F 		.ascii	"SCB_ICSR_PENDSTCLR_Pos 25\000"
 14523      49435352 
 14523      5F50454E 
 14523      44535443 
 14523      4C525F50 
 14524              	.LASF1072:
 14525 4b3d 756E7369 		.ascii	"unsigned int\000"
 14525      676E6564 
 14525      20696E74 
 14525      00
 14526              	.LASF1266:
 14527 4b4a 43686970 		.ascii	"Chip_SSP_Int_RWFrames8Bits\000"
 14527      5F535350 
 14527      5F496E74 
 14527      5F525746 
 14527      72616D65 
 14528              	.LASF388:
 14529 4b65 5F5F504F 		.ascii	"__POSIX_VISIBLE 200809\000"
 14529      5349585F 
 14529      56495349 
 14529      424C4520 
 14529      32303038 
 14530              	.LASF200:
 14531 4b7c 5F5F4652 		.ascii	"__FRACT_MAX__ 0X7FFFP-15R\000"
 14531      4143545F 
 14531      4D41585F 
 14531      5F203058 
 14531      37464646 
 14532              	.LASF1111:
 14533 4b96 53595350 		.ascii	"SYSPLLCLKUEN\000"
 14533      4C4C434C 
 14533      4B55454E 
 14533      00
 14534              	.LASF126:
 14535 4ba3 5F5F464C 		.ascii	"__FLT_MIN_EXP__ (-125)\000"
 14535      545F4D49 
 14535      4E5F4558 
 14535      505F5F20 
 14535      282D3132 
 14536              	.LASF122:
ARM GAS  /tmp/ccGKa4GA.s 			page 335


 14537 4bba 5F5F4445 		.ascii	"__DEC_EVAL_METHOD__ 2\000"
 14537      435F4556 
 14537      414C5F4D 
 14537      4554484F 
 14537      445F5F20 
 14538              	.LASF513:
 14539 4bd0 55494E54 		.ascii	"UINT32_C(x) __UINT32_C(x)\000"
 14539      33325F43 
 14539      28782920 
 14539      5F5F5549 
 14539      4E543332 
 14540              	.LASF565:
 14541 4bea 5343425F 		.ascii	"SCB_CPUID_VARIANT_Msk (0xFUL << SCB_CPUID_VARIANT_P"
 14541      43505549 
 14541      445F5641 
 14541      5249414E 
 14541      545F4D73 
 14542 4c1d 6F732900 		.ascii	"os)\000"
 14543              	.LASF705:
 14544 4c21 53595343 		.ascii	"SYSCTL_POWERDOWN_IRCOUT_PD (1 << 0)\000"
 14544      544C5F50 
 14544      4F574552 
 14544      444F574E 
 14544      5F495243 
 14545              	.LASF744:
 14546 4c45 4D445F44 		.ascii	"MD_DIGMODE (0x1 << 7)\000"
 14546      49474D4F 
 14546      44452028 
 14546      30783120 
 14546      3C3C2037 
 14547              	.LASF233:
 14548 4c5b 5F5F5553 		.ascii	"__USACCUM_IBIT__ 8\000"
 14548      41434355 
 14548      4D5F4942 
 14548      49545F5F 
 14548      203800
 14549              	.LASF1064:
 14550 4c6e 4F445F53 		.ascii	"OD_SEG_RW 0x60\000"
 14550      45475F52 
 14550      57203078 
 14550      363000
 14551              	.LASF709:
 14552 4c7d 53595343 		.ascii	"SYSCTL_POWERDOWN_ADC_PD (1 << 4)\000"
 14552      544C5F50 
 14552      4F574552 
 14552      444F574E 
 14552      5F414443 
 14553              	.LASF484:
 14554 4c9e 494E545F 		.ascii	"INT_FAST8_MIN (-__INT_FAST8_MAX__ - 1)\000"
 14554      46415354 
 14554      385F4D49 
 14554      4E20282D 
 14554      5F5F494E 
 14555              	.LASF747:
 14556 4cc5 4D445F53 		.ascii	"MD_SFI2C (0x0 << 8)\000"
 14556      46493243 
 14556      20283078 
ARM GAS  /tmp/ccGKa4GA.s 			page 336


 14556      30203C3C 
 14556      20382900 
 14557              	.LASF125:
 14558 4cd9 5F5F464C 		.ascii	"__FLT_DIG__ 6\000"
 14558      545F4449 
 14558      475F5F20 
 14558      3600
 14559              	.LASF35:
 14560 4ce7 5F5F5549 		.ascii	"__UINTMAX_TYPE__ long long unsigned int\000"
 14560      4E544D41 
 14560      585F5459 
 14560      50455F5F 
 14560      206C6F6E 
 14561              	.LASF864:
 14562 4d0f 55415254 		.ascii	"UART_RS485CTRL_DCTRL_EN (1 << 4)\000"
 14562      5F525334 
 14562      38354354 
 14562      524C5F44 
 14562      4354524C 
 14563              	.LASF1220:
 14564 4d30 5353505F 		.ascii	"SSP_CLOCK_CPHA1_CPOL0\000"
 14564      434C4F43 
 14564      4B5F4350 
 14564      4841315F 
 14564      43504F4C 
 14565              	.LASF1221:
 14566 4d46 5353505F 		.ascii	"SSP_CLOCK_CPHA1_CPOL1\000"
 14566      434C4F43 
 14566      4B5F4350 
 14566      4841315F 
 14566      43504F4C 
 14567              	.LASF121:
 14568 4d5c 5F5F464C 		.ascii	"__FLT_EVAL_METHOD__ 0\000"
 14568      545F4556 
 14568      414C5F4D 
 14568      4554484F 
 14568      445F5F20 
 14569              	.LASF834:
 14570 4d72 55415254 		.ascii	"UART_LSR_RDR (1 << 0)\000"
 14570      5F4C5352 
 14570      5F524452 
 14570      20283120 
 14570      3C3C2030 
 14571              	.LASF801:
 14572 4d88 55415254 		.ascii	"UART_FCR_FIFO_EN (1 << 0)\000"
 14572      5F464352 
 14572      5F464946 
 14572      4F5F454E 
 14572      20283120 
 14573              	.LASF5:
 14574 4da2 5F5F5645 		.ascii	"__VERSION__ \"6.2.1 20161205 (release) [ARM/embedde"
 14574      5253494F 
 14574      4E5F5F20 
 14574      22362E32 
 14574      2E312032 
 14575 4dd4 642D362D 		.ascii	"d-6-branch revision 243739]\"\000"
 14575      6272616E 
ARM GAS  /tmp/ccGKa4GA.s 			page 337


 14575      63682072 
 14575      65766973 
 14575      696F6E20 
 14576              	.LASF857:
 14577 4df1 55415254 		.ascii	"UART_ACR_ABEOINT_CLR (1 << 8)\000"
 14577      5F414352 
 14577      5F414245 
 14577      4F494E54 
 14577      5F434C52 
 14578              	.LASF421:
 14579 4e0f 5F5F494E 		.ascii	"__INT16 \"h\"\000"
 14579      54313620 
 14579      22682200 
 14580              	.LASF340:
 14581 4e1b 5F5F7468 		.ascii	"__thumb2__\000"
 14581      756D6232 
 14581      5F5F00
 14582              	.LASF376:
 14583 4e26 5F504F53 		.ascii	"_POSIX_SOURCE\000"
 14583      49585F53 
 14583      4F555243 
 14583      4500
 14584              	.LASF330:
 14585 4e34 5F5F4152 		.ascii	"__ARM_FEATURE_LDREX\000"
 14585      4D5F4645 
 14585      41545552 
 14585      455F4C44 
 14585      52455800 
 14586              	.LASF930:
 14587 4e48 4144435F 		.ascii	"ADC_CR_BITACC(n) ((((n) & 0x7) << 17))\000"
 14587      43525F42 
 14587      49544143 
 14587      43286E29 
 14587      20282828 
 14588              	.LASF1170:
 14589 4e6f 52455345 		.ascii	"RESET_ACMP\000"
 14589      545F4143 
 14589      4D5000
 14590              	.LASF277:
 14591 4e7a 5F5F5551 		.ascii	"__UQQ_FBIT__ 8\000"
 14591      515F4642 
 14591      49545F5F 
 14591      203800
 14592              	.LASF623:
 14593 4e89 53797354 		.ascii	"SysTick_VAL_CURRENT_Msk (0xFFFFFFUL << SysTick_VAL_"
 14593      69636B5F 
 14593      56414C5F 
 14593      43555252 
 14593      454E545F 
 14594 4ebc 43555252 		.ascii	"CURRENT_Pos)\000"
 14594      454E545F 
 14594      506F7329 
 14594      00
 14595              	.LASF1316:
 14596 4ec9 43686970 		.ascii	"Chip_SYSCTL_DeassertPeriphReset\000"
 14596      5F535953 
 14596      43544C5F 
ARM GAS  /tmp/ccGKa4GA.s 			page 338


 14596      44656173 
 14596      73657274 
 14597              	.LASF1117:
 14598 4ee9 53595341 		.ascii	"SYSAHBCLKDIV\000"
 14598      4842434C 
 14598      4B444956 
 14598      00
 14599              	.LASF973:
 14600 4ef6 4932435F 		.ascii	"I2C_I2STAT_M_TX_START ((0x08))\000"
 14600      49325354 
 14600      41545F4D 
 14600      5F54585F 
 14600      53544152 
 14601              	.LASF781:
 14602 4f15 55415254 		.ascii	"UART_IER_THREINT (1 << 1)\000"
 14602      5F494552 
 14602      5F544852 
 14602      45494E54 
 14602      20283120 
 14603              	.LASF413:
 14604 4f2f 63686172 		.ascii	"char +0\000"
 14604      202B3000 
 14605              	.LASF210:
 14606 4f37 5F5F4C46 		.ascii	"__LFRACT_MAX__ 0X7FFFFFFFP-31LR\000"
 14606      52414354 
 14606      5F4D4158 
 14606      5F5F2030 
 14606      58374646 
 14607              	.LASF322:
 14608 4f57 5F5F5349 		.ascii	"__SIZEOF_PTRDIFF_T__ 4\000"
 14608      5A454F46 
 14608      5F505452 
 14608      44494646 
 14608      5F545F5F 
 14609              	.LASF1295:
 14610 4f6e 62697473 		.ascii	"bits\000"
 14610      00
 14611              	.LASF0:
 14612 4f73 5F5F5354 		.ascii	"__STDC__ 1\000"
 14612      44435F5F 
 14612      203100
 14613              	.LASF1155:
 14614 4f7e 5044534C 		.ascii	"PDSLEEPCFG\000"
 14614      45455043 
 14614      464700
 14615              	.LASF398:
 14616 4f89 5F5F5F69 		.ascii	"___int_least8_t_defined 1\000"
 14616      6E745F6C 
 14616      65617374 
 14616      385F745F 
 14616      64656669 
 14617              	.LASF28:
 14618 4fa3 5F5F464C 		.ascii	"__FLOAT_WORD_ORDER__ __ORDER_LITTLE_ENDIAN__\000"
 14618      4F41545F 
 14618      574F5244 
 14618      5F4F5244 
 14618      45525F5F 
ARM GAS  /tmp/ccGKa4GA.s 			page 339


 14619              	.LASF1263:
 14620 4fd0 6D617374 		.ascii	"master\000"
 14620      657200
 14621              	.LASF497:
 14622 4fd7 494E544D 		.ascii	"INTMAX_MIN (-INTMAX_MAX - 1)\000"
 14622      41585F4D 
 14622      494E2028 
 14622      2D494E54 
 14622      4D41585F 
 14623              	.LASF43:
 14624 4ff4 5F5F5549 		.ascii	"__UINT8_TYPE__ unsigned char\000"
 14624      4E54385F 
 14624      54595045 
 14624      5F5F2075 
 14624      6E736967 
 14625              	.LASF964:
 14626 5011 4932435F 		.ascii	"I2C_CON_AA (1UL << 2)\000"
 14626      434F4E5F 
 14626      41412028 
 14626      31554C20 
 14626      3C3C2032 
 14627              	.LASF898:
 14628 5027 5353505F 		.ascii	"SSP_CR0_DSS(n) ((uint32_t) ((n) & 0xF))\000"
 14628      4352305F 
 14628      44535328 
 14628      6E292028 
 14628      2875696E 
 14629              	.LASF453:
 14630 504f 5F5F696E 		.ascii	"__int_fast8_t_defined 1\000"
 14630      745F6661 
 14630      7374385F 
 14630      745F6465 
 14630      66696E65 
 14631              	.LASF931:
 14632 5067 4144435F 		.ascii	"ADC_DR_DONE(n) (((n) >> 31))\000"
 14632      44525F44 
 14632      4F4E4528 
 14632      6E292028 
 14632      28286E29 
 14633              	.LASF989:
 14634 5084 4932435F 		.ascii	"I2C_I2STAT_S_RX_GENCALL_ACK ((0x70))\000"
 14634      49325354 
 14634      41545F53 
 14634      5F52585F 
 14634      47454E43 
 14635              	.LASF754:
 14636 50a9 46554E43 		.ascii	"FUNC3 0x3\000"
 14636      33203078 
 14636      3300
 14637              	.LASF1272:
 14638 50b3 72646174 		.ascii	"rdata8\000"
 14638      613800
 14639              	.LASF712:
 14640 50ba 53595343 		.ascii	"SYSCTL_POWERDOWN_SYSPLL_PD (1 << 7)\000"
 14640      544C5F50 
 14640      4F574552 
 14640      444F574E 
ARM GAS  /tmp/ccGKa4GA.s 			page 340


 14640      5F535953 
 14641              	.LASF1148:
 14642 50de 53544152 		.ascii	"STARTAPRP0\000"
 14642      54415052 
 14642      503000
 14643              	.LASF180:
 14644 50e9 5F5F4445 		.ascii	"__DEC128_MANT_DIG__ 34\000"
 14644      43313238 
 14644      5F4D414E 
 14644      545F4449 
 14644      475F5F20 
 14645              	.LASF458:
 14646 5100 494E5450 		.ascii	"INTPTR_MAX (__INTPTR_MAX__)\000"
 14646      54525F4D 
 14646      41582028 
 14646      5F5F494E 
 14646      54505452 
 14647              	.LASF968:
 14648 511c 4932435F 		.ascii	"I2C_CON_I2EN (1UL << 6)\000"
 14648      434F4E5F 
 14648      4932454E 
 14648      20283155 
 14648      4C203C3C 
 14649              	.LASF521:
 14650 5134 74727565 		.ascii	"true 1\000"
 14650      203100
 14651              	.LASF720:
 14652 513b 494F434F 		.ascii	"IOCON_FUNC4 0x4\000"
 14652      4E5F4655 
 14652      4E433420 
 14652      30783400 
 14653              	.LASF297:
 14654 514b 5F5F5553 		.ascii	"__USA_FBIT__ 16\000"
 14654      415F4642 
 14654      49545F5F 
 14654      20313600 
 14655              	.LASF1306:
 14656 515b 53746174 		.ascii	"Stat\000"
 14656      00
 14657              	.LASF631:
 14658 5160 53797354 		.ascii	"SysTick_BASE (SCS_BASE + 0x0010UL)\000"
 14658      69636B5F 
 14658      42415345 
 14658      20285343 
 14658      535F4241 
 14659              	.LASF820:
 14660 5183 55415254 		.ascii	"UART_LCR_PARITY_DIS (0 << 3)\000"
 14660      5F4C4352 
 14660      5F504152 
 14660      4954595F 
 14660      44495320 
 14661              	.LASF155:
 14662 51a0 5F5F4C44 		.ascii	"__LDBL_MIN_10_EXP__ (-307)\000"
 14662      424C5F4D 
 14662      494E5F31 
 14662      305F4558 
 14662      505F5F20 
ARM GAS  /tmp/ccGKa4GA.s 			page 341


 14663              	.LASF865:
 14664 51bb 55415254 		.ascii	"UART_RS485CTRL_OINV_1 (1 << 5)\000"
 14664      5F525334 
 14664      38354354 
 14664      524C5F4F 
 14664      494E565F 
 14665              	.LASF308:
 14666 51da 5F5F4743 		.ascii	"__GCC_ATOMIC_CHAR_LOCK_FREE 1\000"
 14666      435F4154 
 14666      4F4D4943 
 14666      5F434841 
 14666      525F4C4F 
 14667              	.LASF382:
 14668 51f8 5F5F4154 		.ascii	"__ATFILE_VISIBLE 1\000"
 14668      46494C45 
 14668      5F564953 
 14668      49424C45 
 14668      203100
 14669              	.LASF1113:
 14670 520b 55534250 		.ascii	"USBPLLCLKUEN\000"
 14670      4C4C434C 
 14670      4B55454E 
 14670      00
 14671              	.LASF682:
 14672 5218 5F5F504D 		.ascii	"__PMU_11XX_H_ \000"
 14672      555F3131 
 14672      58585F48 
 14672      5F2000
 14673              	.LASF211:
 14674 5227 5F5F4C46 		.ascii	"__LFRACT_EPSILON__ 0x1P-31LR\000"
 14674      52414354 
 14674      5F455053 
 14674      494C4F4E 
 14674      5F5F2030 
 14675              	.LASF608:
 14676 5244 5343425F 		.ascii	"SCB_CCR_UNALIGN_TRP_Pos 3\000"
 14676      4343525F 
 14676      554E414C 
 14676      49474E5F 
 14676      5452505F 
 14677              	.LASF1206:
 14678 525e 5353505F 		.ascii	"SSP_RORRIS\000"
 14678      524F5252 
 14678      495300
 14679              	.LASF654:
 14680 5269 4C50435F 		.ascii	"LPC_SYSCTL_BASE 0x40048000\000"
 14680      53595343 
 14680      544C5F42 
 14680      41534520 
 14680      30783430 
 14681              	.LASF611:
 14682 5284 5343425F 		.ascii	"SCB_SHCSR_SVCALLPENDED_Msk (1UL << SCB_SHCSR_SVCALL"
 14682      53484353 
 14682      525F5356 
 14682      43414C4C 
 14682      50454E44 
 14683 52b7 50454E44 		.ascii	"PENDED_Pos)\000"
ARM GAS  /tmp/ccGKa4GA.s 			page 342


 14683      45445F50 
 14683      6F732900 
 14684              	.LASF336:
 14685 52c3 5F5F6172 		.ascii	"__arm__ 1\000"
 14685      6D5F5F20 
 14685      3100
 14686              	.LASF725:
 14687 52cd 494F434F 		.ascii	"IOCON_MODE_PULLDOWN (0x1 << 3)\000"
 14687      4E5F4D4F 
 14687      44455F50 
 14687      554C4C44 
 14687      4F574E20 
 14688              	.LASF901:
 14689 52ec 5353505F 		.ascii	"SSP_CR0_FRF_MICROWIRE ((uint32_t) (2 << 4))\000"
 14689      4352305F 
 14689      4652465F 
 14689      4D494352 
 14689      4F574952 
 14690              	.LASF652:
 14691 5318 4C50435F 		.ascii	"LPC_SSP0_BASE 0x40040000\000"
 14691      53535030 
 14691      5F424153 
 14691      45203078 
 14691      34303034 
 14692              	.LASF775:
 14693 5331 55415254 		.ascii	"UART_RBR_MASKBIT (0xFF)\000"
 14693      5F524252 
 14693      5F4D4153 
 14693      4B424954 
 14693      20283078 
 14694              	.LASF997:
 14695 5349 4932435F 		.ascii	"I2C_I2STAT_S_TX_ARB_LOST_M_SLA ((0xB0))\000"
 14695      49325354 
 14695      41545F53 
 14695      5F54585F 
 14695      4152425F 
 14696              	.LASF990:
 14697 5371 4932435F 		.ascii	"I2C_I2STAT_S_RX_ARB_LOST_M_GENCALL ((0x78))\000"
 14697      49325354 
 14697      41545F53 
 14697      5F52585F 
 14697      4152425F 
 14698              	.LASF542:
 14699 539d 5F5F434D 		.ascii	"__CMSIS_H_ \000"
 14699      5349535F 
 14699      485F2000 
 14700              	.LASF1298:
 14701 53a9 43686970 		.ascii	"Chip_SSP_SendFrame\000"
 14701      5F535350 
 14701      5F53656E 
 14701      64467261 
 14701      6D6500
 14702              	.LASF1061:
 14703 53bc 4F445F45 		.ascii	"OD_EXP_RW 0x30\000"
 14703      58505F52 
 14703      57203078 
 14703      333000
ARM GAS  /tmp/ccGKa4GA.s 			page 343


 14704              	.LASF466:
 14705 53cb 494E5431 		.ascii	"INT16_MIN (-__INT16_MAX__ - 1)\000"
 14705      365F4D49 
 14705      4E20282D 
 14705      5F5F494E 
 14705      5431365F 
 14706              	.LASF679:
 14707 53ea 4C50435F 		.ascii	"LPC_USB ((LPC_USB_T *) LPC_USB0_BASE)\000"
 14707      55534220 
 14707      28284C50 
 14707      435F5553 
 14707      425F5420 
 14708              	.LASF659:
 14709 5410 4C50435F 		.ascii	"LPC_GPIO_PORT1_BASE 0x50010000\000"
 14709      4750494F 
 14709      5F504F52 
 14709      54315F42 
 14709      41534520 
 14710              	.LASF657:
 14711 542f 4C50435F 		.ascii	"LPC_SSP1_BASE 0x40058000\000"
 14711      53535031 
 14711      5F424153 
 14711      45203078 
 14711      34303035 
 14712              	.LASF970:
 14713 5448 4932435F 		.ascii	"I2C_STAT_CODE_ERROR ((0xFF))\000"
 14713      53544154 
 14713      5F434F44 
 14713      455F4552 
 14713      524F5220 
 14714              	.LASF878:
 14715 5465 55415254 		.ascii	"UART_FDR_DIVADDVAL(n) (n & 0x0F)\000"
 14715      5F464452 
 14715      5F444956 
 14715      41444456 
 14715      414C286E 
 14716              	.LASF1303:
 14717 5486 43686970 		.ascii	"Chip_SSP_GetRawIntStatus\000"
 14717      5F535350 
 14717      5F476574 
 14717      52617749 
 14717      6E745374 
 14718              	.LASF166:
 14719 549f 5F5F4445 		.ascii	"__DEC32_MANT_DIG__ 7\000"
 14719      4333325F 
 14719      4D414E54 
 14719      5F444947 
 14719      5F5F2037 
 14720              	.LASF493:
 14721 54b4 494E545F 		.ascii	"INT_FAST64_MIN (-__INT_FAST64_MAX__ - 1)\000"
 14721      46415354 
 14721      36345F4D 
 14721      494E2028 
 14721      2D5F5F49 
 14722              	.LASF1319:
 14723 54dd 2E2E2F2E 		.ascii	"../../lpc11cx4-library/lpc_chip_11cxx_lib/src/ssp_1"
 14723      2E2F6C70 
ARM GAS  /tmp/ccGKa4GA.s 			page 344


 14723      63313163 
 14723      78342D6C 
 14723      69627261 
 14724 5510 3178782E 		.ascii	"1xx.c\000"
 14724      6300
 14725              	.LASF365:
 14726 5516 5F4D4143 		.ascii	"_MACHINE__DEFAULT_TYPES_H \000"
 14726      48494E45 
 14726      5F5F4445 
 14726      4641554C 
 14726      545F5459 
 14727              	.LASF23:
 14728 5531 5F5F4249 		.ascii	"__BIGGEST_ALIGNMENT__ 8\000"
 14728      47474553 
 14728      545F414C 
 14728      49474E4D 
 14728      454E545F 
 14729              	.LASF999:
 14730 5549 4932435F 		.ascii	"I2C_I2STAT_S_TX_DAT_NACK ((0xC0))\000"
 14730      49325354 
 14730      41545F53 
 14730      5F54585F 
 14730      4441545F 
 14731              	.LASF234:
 14732 556b 5F5F5553 		.ascii	"__USACCUM_MIN__ 0.0UHK\000"
 14732      41434355 
 14732      4D5F4D49 
 14732      4E5F5F20 
 14732      302E3055 
 14733              	.LASF600:
 14734 5582 5343425F 		.ascii	"SCB_SCR_SEVONPEND_Pos 4\000"
 14734      5343525F 
 14734      5345564F 
 14734      4E50454E 
 14734      445F506F 
 14735              	.LASF728:
 14736 559a 494F434F 		.ascii	"IOCON_HYS_EN (0x1 << 5)\000"
 14736      4E5F4859 
 14736      535F454E 
 14736      20283078 
 14736      31203C3C 
 14737              	.LASF1309:
 14738 55b2 43686970 		.ascii	"Chip_Clock_GetSSP1ClockDiv\000"
 14738      5F436C6F 
 14738      636B5F47 
 14738      65745353 
 14738      5031436C 
 14739              	.LASF332:
 14740 55cd 5F5F4152 		.ascii	"__ARM_FEATURE_SIMD32\000"
 14740      4D5F4645 
 14740      41545552 
 14740      455F5349 
 14740      4D443332 
 14741              	.LASF925:
 14742 55e2 5F5F4C50 		.ascii	"__LPC_ERROR_H__ \000"
 14742      435F4552 
 14742      524F525F 
ARM GAS  /tmp/ccGKa4GA.s 			page 345


 14742      485F5F20 
 14742      00
 14743              	.LASF431:
 14744 55f3 5F5F4C45 		.ascii	"__LEAST64 \"ll\"\000"
 14744      41535436 
 14744      3420226C 
 14744      6C2200
 14745              	.LASF1116:
 14746 5602 4D41494E 		.ascii	"MAINCLKUEN\000"
 14746      434C4B55 
 14746      454E00
 14747              	.LASF1026:
 14748 560d 4932435F 		.ascii	"I2C_MONITOR_CFG_SCL_OUTPUT I2C_I2MMCTRL_ENA_SCL\000"
 14748      4D4F4E49 
 14748      544F525F 
 14748      4346475F 
 14748      53434C5F 
 14749              	.LASF978:
 14750 563d 4932435F 		.ascii	"I2C_I2STAT_M_TX_DAT_NACK ((0x30))\000"
 14750      49325354 
 14750      41545F4D 
 14750      5F54585F 
 14750      4441545F 
 14751              	.LASF908:
 14752 565f 5353505F 		.ascii	"SSP_CR1_LBM_EN ((uint32_t) (1 << 0))\000"
 14752      4352315F 
 14752      4C424D5F 
 14752      454E2028 
 14752      2875696E 
 14753              	.LASF582:
 14754 5684 5343425F 		.ascii	"SCB_ICSR_ISRPREEMPT_Pos 23\000"
 14754      49435352 
 14754      5F495352 
 14754      50524545 
 14754      4D50545F 
 14755              	.LASF1274:
 14756 569f 77646174 		.ascii	"wdata16\000"
 14756      61313600 
 14757              	.LASF328:
 14758 56a7 5F5F4152 		.ascii	"__ARM_FEATURE_QRDMX\000"
 14758      4D5F4645 
 14758      41545552 
 14758      455F5152 
 14758      444D5800 
 14759              	.LASF1056:
 14760 56bb 53444F5F 		.ascii	"SDO_ABORT_LOCAL 0x08000021UL\000"
 14760      41424F52 
 14760      545F4C4F 
 14760      43414C20 
 14760      30783038 
 14761              	.LASF772:
 14762 56d8 5F5F5249 		.ascii	"__RING_BUFFER_H_ \000"
 14762      4E475F42 
 14762      55464645 
 14762      525F485F 
 14762      2000
 14763              	.LASF342:
ARM GAS  /tmp/ccGKa4GA.s 			page 346


 14764 56ea 5F5F4152 		.ascii	"__ARM_ARCH_ISA_THUMB 1\000"
 14764      4D5F4152 
 14764      43485F49 
 14764      53415F54 
 14764      48554D42 
 14765              	.LASF548:
 14766 5701 5F5F434D 		.ascii	"__CM0_CMSIS_VERSION_MAIN (0x03)\000"
 14766      305F434D 
 14766      5349535F 
 14766      56455253 
 14766      494F4E5F 
 14767              	.LASF72:
 14768 5721 5F5F4C4F 		.ascii	"__LONG_LONG_MAX__ 0x7fffffffffffffffLL\000"
 14768      4E475F4C 
 14768      4F4E475F 
 14768      4D41585F 
 14768      5F203078 
 14769              	.LASF887:
 14770 5748 55415254 		.ascii	"UART_SYNCCTRL_CSCEN (1 << 4)\000"
 14770      5F53594E 
 14770      43435452 
 14770      4C5F4353 
 14770      43454E20 
 14771              	.LASF410:
 14772 5765 6C6F6E67 		.ascii	"long\000"
 14772      00
 14773              	.LASF1104:
 14774 576a 5359534F 		.ascii	"SYSOSCCTRL\000"
 14774      53434354 
 14774      524C00
 14775              	.LASF282:
 14776 5775 5F5F5553 		.ascii	"__USQ_IBIT__ 0\000"
 14776      515F4942 
 14776      49545F5F 
 14776      203000
 14777              	.LASF813:
 14778 5784 55415254 		.ascii	"UART_LCR_WLEN6 (1 << 0)\000"
 14778      5F4C4352 
 14778      5F574C45 
 14778      4E362028 
 14778      31203C3C 
 14779              	.LASF1252:
 14780 579c 43686970 		.ascii	"Chip_SSP_DATA_SETUP_T\000"
 14780      5F535350 
 14780      5F444154 
 14780      415F5345 
 14780      5455505F 
 14781              	.LASF965:
 14782 57b2 4932435F 		.ascii	"I2C_CON_SI (1UL << 3)\000"
 14782      434F4E5F 
 14782      53492028 
 14782      31554C20 
 14782      3C3C2033 
 14783              	.LASF203:
 14784 57c8 5F5F5546 		.ascii	"__UFRACT_IBIT__ 0\000"
 14784      52414354 
 14784      5F494249 
ARM GAS  /tmp/ccGKa4GA.s 			page 347


 14784      545F5F20 
 14784      3000
 14785              	.LASF347:
 14786 57da 5F5F4152 		.ascii	"__ARM_FEATURE_FMA\000"
 14786      4D5F4645 
 14786      41545552 
 14786      455F464D 
 14786      4100
 14787              	.LASF630:
 14788 57ec 5343535F 		.ascii	"SCS_BASE (0xE000E000UL)\000"
 14788      42415345 
 14788      20283078 
 14788      45303030 
 14788      45303030 
 14789              	.LASF94:
 14790 5804 5F5F494E 		.ascii	"__INT8_C(c) c\000"
 14790      54385F43 
 14790      28632920 
 14790      6300
 14791              	.LASF208:
 14792 5812 5F5F4C46 		.ascii	"__LFRACT_IBIT__ 0\000"
 14792      52414354 
 14792      5F494249 
 14792      545F5F20 
 14792      3000
 14793              	.LASF945:
 14794 5824 4144435F 		.ascii	"ADC_CR_EDGE ((1UL << 27))\000"
 14794      43525F45 
 14794      44474520 
 14794      28283155 
 14794      4C203C3C 
 14795              	.LASF546:
 14796 583e 5F5F5665 		.ascii	"__Vendor_SysTickConfig 0\000"
 14796      6E646F72 
 14796      5F537973 
 14796      5469636B 
 14796      436F6E66 
 14797              	.LASF776:
 14798 5857 55415254 		.ascii	"UART_LOAD_DLL(div) ((div) & 0xFF)\000"
 14798      5F4C4F41 
 14798      445F444C 
 14798      4C286469 
 14798      76292028 
 14799              	.LASF571:
 14800 5879 5343425F 		.ascii	"SCB_CPUID_REVISION_Msk (0xFUL << SCB_CPUID_REVISION"
 14800      43505549 
 14800      445F5245 
 14800      56495349 
 14800      4F4E5F4D 
 14801 58ac 5F506F73 		.ascii	"_Pos)\000"
 14801      2900
 14802              	.LASF317:
 14803 58b2 5F5F4743 		.ascii	"__GCC_ATOMIC_POINTER_LOCK_FREE 1\000"
 14803      435F4154 
 14803      4F4D4943 
 14803      5F504F49 
 14803      4E544552 
ARM GAS  /tmp/ccGKa4GA.s 			page 348


 14804              	.LASF140:
 14805 58d3 5F5F4442 		.ascii	"__DBL_MIN_EXP__ (-1021)\000"
 14805      4C5F4D49 
 14805      4E5F4558 
 14805      505F5F20 
 14805      282D3130 
 14806              	.LASF750:
 14807 58eb 4D445F4F 		.ascii	"MD_OPENDRAIN (0x1 << 10)\000"
 14807      50454E44 
 14807      5241494E 
 14807      20283078 
 14807      31203C3C 
 14808              	.LASF532:
 14809 5904 4E554C4C 		.ascii	"NULL ((void *) 0)\000"
 14809      20282876 
 14809      6F696420 
 14809      2A292030 
 14809      2900
 14810              	.LASF745:
 14811 5916 4D445F44 		.ascii	"MD_DISFIL (0x0 << 8)\000"
 14811      49534649 
 14811      4C202830 
 14811      7830203C 
 14811      3C203829 
 14812              	.LASF310:
 14813 592b 5F5F4743 		.ascii	"__GCC_ATOMIC_CHAR32_T_LOCK_FREE 1\000"
 14813      435F4154 
 14813      4F4D4943 
 14813      5F434841 
 14813      5233325F 
 14814              	.LASF173:
 14815 594d 5F5F4445 		.ascii	"__DEC64_MANT_DIG__ 16\000"
 14815      4336345F 
 14815      4D414E54 
 14815      5F444947 
 14815      5F5F2031 
 14816              	.LASF1203:
 14817 5963 5353505F 		.ascii	"SSP_STAT_BSY\000"
 14817      53544154 
 14817      5F425359 
 14817      00
 14818              	.LASF1029:
 14819 5970 43414E5F 		.ascii	"CAN_ERROR_NONE 0x00000000UL\000"
 14819      4552524F 
 14819      525F4E4F 
 14819      4E452030 
 14819      78303030 
 14820              	.LASF1177:
 14821 598c 53595343 		.ascii	"SYSCTL_CLOCK_FLASHREG\000"
 14821      544C5F43 
 14821      4C4F434B 
 14821      5F464C41 
 14821      53485245 
 14822              	.LASF414:
 14823 59a2 73686F72 		.ascii	"short +1\000"
 14823      74202B31 
 14823      00
ARM GAS  /tmp/ccGKa4GA.s 			page 349


 14824              	.LASF850:
 14825 59ab 55415254 		.ascii	"UART_MSR_DSR (1 << 5)\000"
 14825      5F4D5352 
 14825      5F445352 
 14825      20283120 
 14825      3C3C2035 
 14826              	.LASF1017:
 14827 59c1 4932435F 		.ascii	"I2C_OK 0x00\000"
 14827      4F4B2030 
 14827      78303000 
 14828              	.LASF752:
 14829 59cd 46554E43 		.ascii	"FUNC1 0x1\000"
 14829      31203078 
 14829      3100
 14830              	.LASF517:
 14831 59d7 55494E54 		.ascii	"UINTMAX_C(x) __UINTMAX_C(x)\000"
 14831      4D41585F 
 14831      43287829 
 14831      205F5F55 
 14831      494E544D 
 14832              	.LASF387:
 14833 59f3 5F5F4D49 		.ascii	"__MISC_VISIBLE 1\000"
 14833      53435F56 
 14833      49534942 
 14833      4C452031 
 14833      00
 14834              	.LASF1095:
 14835 5a04 4F736352 		.ascii	"OscRateIn\000"
 14835      61746549 
 14835      6E00
 14836              	.LASF402:
 14837 5a0e 5F5F4558 		.ascii	"__EXP\000"
 14837      5000
 14838              	.LASF730:
 14839 5a14 494F434F 		.ascii	"IOCON_ADMODE_EN (0x0 << 7)\000"
 14839      4E5F4144 
 14839      4D4F4445 
 14839      5F454E20 
 14839      28307830 
 14840              	.LASF397:
 14841 5a2f 5F5F5F69 		.ascii	"___int64_t_defined 1\000"
 14841      6E743634 
 14841      5F745F64 
 14841      6566696E 
 14841      65642031 
 14842              	.LASF163:
 14843 5a44 5F5F4C44 		.ascii	"__LDBL_HAS_DENORM__ 1\000"
 14843      424C5F48 
 14843      41535F44 
 14843      454E4F52 
 14843      4D5F5F20 
 14844              	.LASF227:
 14845 5a5a 5F5F5341 		.ascii	"__SACCUM_FBIT__ 7\000"
 14845      4343554D 
 14845      5F464249 
 14845      545F5F20 
 14845      3700
ARM GAS  /tmp/ccGKa4GA.s 			page 350


 14846              	.LASF1211:
 14847 5a6c 5353505F 		.ascii	"SSP_RAWINTSTATUS_T\000"
 14847      52415749 
 14847      4E545354 
 14847      41545553 
 14847      5F5400
 14848              	.LASF778:
 14849 5a7f 55415254 		.ascii	"UART_LOAD_DLM(div) (((div) >> 8) & 0xFF)\000"
 14849      5F4C4F41 
 14849      445F444C 
 14849      4D286469 
 14849      76292028 
 14850              	.LASF780:
 14851 5aa8 55415254 		.ascii	"UART_IER_RBRINT (1 << 0)\000"
 14851      5F494552 
 14851      5F524252 
 14851      494E5420 
 14851      2831203C 
 14852              	.LASF108:
 14853 5ac1 5F5F5549 		.ascii	"__UINT64_C(c) c ## ULL\000"
 14853      4E543634 
 14853      5F432863 
 14853      29206320 
 14853      23232055 
 14854              	.LASF629:
 14855 5ad8 53797354 		.ascii	"SysTick_CALIB_TENMS_Msk (0xFFFFFFUL << SysTick_VAL_"
 14855      69636B5F 
 14855      43414C49 
 14855      425F5445 
 14855      4E4D535F 
 14856 5b0b 43555252 		.ascii	"CURRENT_Pos)\000"
 14856      454E545F 
 14856      506F7329 
 14856      00
 14857              	.LASF326:
 14858 5b18 5F5F4152 		.ascii	"__ARM_FEATURE_CRYPTO\000"
 14858      4D5F4645 
 14858      41545552 
 14858      455F4352 
 14858      5950544F 
 14859              	.LASF656:
 14860 5b2d 4C50435F 		.ascii	"LPC_CAN0_BASE 0x40050000\000"
 14860      43414E30 
 14860      5F424153 
 14860      45203078 
 14860      34303035 
 14861              	.LASF1187:
 14862 5b46 53595343 		.ascii	"SYSCTL_CLOCK_ADC\000"
 14862      544C5F43 
 14862      4C4F434B 
 14862      5F414443 
 14862      00
 14863              	.LASF746:
 14864 5b57 4D445F45 		.ascii	"MD_ENFIL (0x1 << 8)\000"
 14864      4E46494C 
 14864      20283078 
 14864      31203C3C 
ARM GAS  /tmp/ccGKa4GA.s 			page 351


 14864      20382900 
 14865              	.LASF1051:
 14866 5b6b 53444F5F 		.ascii	"SDO_ABORT_ACCINCOMP 0x06040047UL\000"
 14866      41424F52 
 14866      545F4143 
 14866      43494E43 
 14866      4F4D5020 
 14867              	.LASF107:
 14868 5b8c 5F5F5549 		.ascii	"__UINT_LEAST64_MAX__ 0xffffffffffffffffULL\000"
 14868      4E545F4C 
 14868      45415354 
 14868      36345F4D 
 14868      41585F5F 
 14869              	.LASF116:
 14870 5bb7 5F5F5549 		.ascii	"__UINT_FAST64_MAX__ 0xffffffffffffffffULL\000"
 14870      4E545F46 
 14870      41535436 
 14870      345F4D41 
 14870      585F5F20 
 14871              	.LASF950:
 14872 5be1 5245545F 		.ascii	"RET_SLAVE_RX 5\000"
 14872      534C4156 
 14872      455F5258 
 14872      203500
 14873              	.LASF760:
 14874 5bf0 54494D45 		.ascii	"TIMER_IR_CLR(n) _BIT(n)\000"
 14874      525F4952 
 14874      5F434C52 
 14874      286E2920 
 14874      5F424954 
 14875              	.LASF1047:
 14876 5c08 53444F5F 		.ascii	"SDO_ABORT_WRITEONLY 0x06010001UL\000"
 14876      41424F52 
 14876      545F5752 
 14876      4954454F 
 14876      4E4C5920 
 14877              	.LASF371:
 14878 5c29 5F5F4E45 		.ascii	"__NEWLIB_PATCHLEVEL__ 0\000"
 14878      574C4942 
 14878      5F504154 
 14878      43484C45 
 14878      56454C5F 
 14879              	.LASF893:
 14880 5c41 57574454 		.ascii	"WWDT_WDMOD_WDRESET ((uint32_t) (1 << 1))\000"
 14880      5F57444D 
 14880      4F445F57 
 14880      44524553 
 14880      45542028 
 14881              	.LASF24:
 14882 5c6a 5F5F4F52 		.ascii	"__ORDER_LITTLE_ENDIAN__ 1234\000"
 14882      4445525F 
 14882      4C495454 
 14882      4C455F45 
 14882      4E444941 
 14883              	.LASF1011:
 14884 5c87 4932435F 		.ascii	"I2C_I2MASK_MASK(n) ((n & 0xFE))\000"
 14884      49324D41 
ARM GAS  /tmp/ccGKa4GA.s 			page 352


 14884      534B5F4D 
 14884      41534B28 
 14884      6E292028 
 14885              	.LASF1083:
 14886 5ca7 6C6F6E67 		.ascii	"long long unsigned int\000"
 14886      206C6F6E 
 14886      6720756E 
 14886      7369676E 
 14886      65642069 
 14887              	.LASF483:
 14888 5cbe 55494E54 		.ascii	"UINT_LEAST64_MAX (__UINT_LEAST64_MAX__)\000"
 14888      5F4C4541 
 14888      53543634 
 14888      5F4D4158 
 14888      20285F5F 
 14889              	.LASF253:
 14890 5ce6 5F5F554C 		.ascii	"__ULACCUM_IBIT__ 32\000"
 14890      41434355 
 14890      4D5F4942 
 14890      49545F5F 
 14890      20333200 
 14891              	.LASF69:
 14892 5cfa 5F5F5348 		.ascii	"__SHRT_MAX__ 0x7fff\000"
 14892      52545F4D 
 14892      41585F5F 
 14892      20307837 
 14892      66666600 
 14893              	.LASF486:
 14894 5d0e 55494E54 		.ascii	"UINT_FAST8_MAX (__UINT_FAST8_MAX__)\000"
 14894      5F464153 
 14894      54385F4D 
 14894      41582028 
 14894      5F5F5549 
 14895              	.LASF1188:
 14896 5d32 53595343 		.ascii	"SYSCTL_CLOCK_RESERVED14\000"
 14896      544C5F43 
 14896      4C4F434B 
 14896      5F524553 
 14896      45525645 
 14897              	.LASF1259:
 14898 5d4a 6372305F 		.ascii	"cr0_div\000"
 14898      64697600 
 14899              	.LASF847:
 14900 5d52 55415254 		.ascii	"UART_MSR_LO2HI_RI (1 << 2)\000"
 14900      5F4D5352 
 14900      5F4C4F32 
 14900      48495F52 
 14900      49202831 
 14901              	.LASF338:
 14902 5d6d 5F5F4150 		.ascii	"__APCS_32__ 1\000"
 14902      43535F33 
 14902      325F5F20 
 14902      3100
 14903              	.LASF1313:
 14904 5d7b 43686970 		.ascii	"Chip_Clock_EnablePeriphClock\000"
 14904      5F436C6F 
 14904      636B5F45 
ARM GAS  /tmp/ccGKa4GA.s 			page 353


 14904      6E61626C 
 14904      65506572 
 14905              	.LASF924:
 14906 5d98 5F5F524F 		.ascii	"__ROMAPI_11XX_H_ \000"
 14906      4D415049 
 14906      5F313158 
 14906      585F485F 
 14906      2000
 14907              	.LASF384:
 14908 5daa 5F5F474E 		.ascii	"__GNU_VISIBLE 0\000"
 14908      555F5649 
 14908      5349424C 
 14908      45203000 
 14909              	.LASF1251:
 14910 5dba 6C656E67 		.ascii	"length\000"
 14910      746800
 14911              	.LASF1085:
 14912 5dc1 75696E74 		.ascii	"uint16_t\000"
 14912      31365F74 
 14912      00
 14913              	.LASF273:
 14914 5dca 5F5F4451 		.ascii	"__DQ_FBIT__ 63\000"
 14914      5F464249 
 14914      545F5F20 
 14914      363300
 14915              	.LASF1186:
 14916 5dd9 53595343 		.ascii	"SYSCTL_CLOCK_UART0\000"
 14916      544C5F43 
 14916      4C4F434B 
 14916      5F554152 
 14916      543000
 14917              	.LASF1179:
 14918 5dec 53595343 		.ascii	"SYSCTL_CLOCK_I2C\000"
 14918      544C5F43 
 14918      4C4F434B 
 14918      5F493243 
 14918      00
 14919              	.LASF61:
 14920 5dfd 5F5F5549 		.ascii	"__UINT_FAST32_TYPE__ unsigned int\000"
 14920      4E545F46 
 14920      41535433 
 14920      325F5459 
 14920      50455F5F 
 14921              	.LASF56:
 14922 5e1f 5F5F494E 		.ascii	"__INT_FAST16_TYPE__ int\000"
 14922      545F4641 
 14922      53543136 
 14922      5F545950 
 14922      455F5F20 
 14923              	.LASF701:
 14924 5e37 53595343 		.ascii	"SYSCTL_SLPWAKE_ADC_PD (1 << 4)\000"
 14924      544C5F53 
 14924      4C505741 
 14924      4B455F41 
 14924      44435F50 
 14925              	.LASF446:
 14926 5e56 5F55494E 		.ascii	"_UINTMAX_T_DECLARED \000"
ARM GAS  /tmp/ccGKa4GA.s 			page 354


 14926      544D4158 
 14926      5F545F44 
 14926      45434C41 
 14926      52454420 
 14927              	.LASF1067:
 14928 5e6b 43414E5F 		.ascii	"CAN_SDOREQ_HANDLED_NOSEND 2\000"
 14928      53444F52 
 14928      45515F48 
 14928      414E444C 
 14928      45445F4E 
 14929              	.LASF229:
 14930 5e87 5F5F5341 		.ascii	"__SACCUM_MIN__ (-0X1P7HK-0X1P7HK)\000"
 14930      4343554D 
 14930      5F4D494E 
 14930      5F5F2028 
 14930      2D305831 
 14931              	.LASF215:
 14932 5ea9 5F5F554C 		.ascii	"__ULFRACT_MAX__ 0XFFFFFFFFP-32ULR\000"
 14932      46524143 
 14932      545F4D41 
 14932      585F5F20 
 14932      30584646 
 14933              	.LASF622:
 14934 5ecb 53797354 		.ascii	"SysTick_VAL_CURRENT_Pos 0\000"
 14934      69636B5F 
 14934      56414C5F 
 14934      43555252 
 14934      454E545F 
 14935              	.LASF52:
 14936 5ee5 5F5F5549 		.ascii	"__UINT_LEAST16_TYPE__ short unsigned int\000"
 14936      4E545F4C 
 14936      45415354 
 14936      31365F54 
 14936      5950455F 
 14937              	.LASF946:
 14938 5f0e 4144435F 		.ascii	"ADC_SAMPLE_RATE_CONFIG_MASK (ADC_CR_CLKDIV(0xFF) | "
 14938      53414D50 
 14938      4C455F52 
 14938      4154455F 
 14938      434F4E46 
 14939 5f41 4144435F 		.ascii	"ADC_CR_BITACC(0x07))\000"
 14939      43525F42 
 14939      49544143 
 14939      43283078 
 14939      30372929 
 14940              	.LASF1138:
 14941 5f56 52455345 		.ascii	"RESERVED10\000"
 14941      52564544 
 14941      313000
 14942              	.LASF1141:
 14943 5f61 52455345 		.ascii	"RESERVED11\000"
 14943      52564544 
 14943      313100
 14944              	.LASF1147:
 14945 5f6c 52455345 		.ascii	"RESERVED12\000"
 14945      52564544 
 14945      313200
ARM GAS  /tmp/ccGKa4GA.s 			page 355


 14946              	.LASF1152:
 14947 5f77 52455345 		.ascii	"RESERVED13\000"
 14947      52564544 
 14947      313300
 14948              	.LASF1154:
 14949 5f82 52455345 		.ascii	"RESERVED14\000"
 14949      52564544 
 14949      313400
 14950              	.LASF1158:
 14951 5f8d 52455345 		.ascii	"RESERVED15\000"
 14951      52564544 
 14951      313500
 14952              	.LASF1262:
 14953 5f98 43686970 		.ascii	"Chip_SSP_SetMaster\000"
 14953      5F535350 
 14953      5F536574 
 14953      4D617374 
 14953      657200
 14954              	.LASF1201:
 14955 5fab 5353505F 		.ascii	"SSP_STAT_RNE\000"
 14955      53544154 
 14955      5F524E45 
 14955      00
 14956              	.LASF285:
 14957 5fb8 5F5F5554 		.ascii	"__UTQ_FBIT__ 128\000"
 14957      515F4642 
 14957      49545F5F 
 14957      20313238 
 14957      00
 14958              	.LASF188:
 14959 5fc9 5F5F5346 		.ascii	"__SFRACT_IBIT__ 0\000"
 14959      52414354 
 14959      5F494249 
 14959      545F5F20 
 14959      3000
 14960              	.LASF767:
 14961 5fdb 54494D45 		.ascii	"TIMER_STOP_ON_MATCH(n) (_BIT((((n) * 3) + 2)))\000"
 14961      525F5354 
 14961      4F505F4F 
 14961      4E5F4D41 
 14961      54434828 
 14962              	.LASF1021:
 14963 600a 4932435F 		.ascii	"I2C_SEND_END 0x08\000"
 14963      53454E44 
 14963      5F454E44 
 14963      20307830 
 14963      3800
 14964              	.LASF1014:
 14965 601c 4932435F 		.ascii	"I2C_SETUP_STATUS_ARBF (1 << 8)\000"
 14965      53455455 
 14965      505F5354 
 14965      41545553 
 14965      5F415242 
 14966              	.LASF261:
 14967 603b 5F5F4C4C 		.ascii	"__LLACCUM_EPSILON__ 0x1P-31LLK\000"
 14967      41434355 
 14967      4D5F4550 
ARM GAS  /tmp/ccGKa4GA.s 			page 356


 14967      53494C4F 
 14967      4E5F5F20 
 14968              	.LASF13:
 14969 605a 5F5F4649 		.ascii	"__FINITE_MATH_ONLY__ 0\000"
 14969      4E495445 
 14969      5F4D4154 
 14969      485F4F4E 
 14969      4C595F5F 
 14970              	.LASF110:
 14971 6071 5F5F494E 		.ascii	"__INT_FAST16_MAX__ 0x7fffffff\000"
 14971      545F4641 
 14971      53543136 
 14971      5F4D4158 
 14971      5F5F2030 
 14972              	.LASF392:
 14973 608f 5F5F6861 		.ascii	"__have_longlong64 1\000"
 14973      76655F6C 
 14973      6F6E676C 
 14973      6F6E6736 
 14973      34203100 
 14974              	.LASF562:
 14975 60a3 5343425F 		.ascii	"SCB_CPUID_IMPLEMENTER_Pos 24\000"
 14975      43505549 
 14975      445F494D 
 14975      504C454D 
 14975      454E5445 
 14976              	.LASF1227:
 14977 60c0 5353505F 		.ascii	"SSP_FRAMEFORMAT_SPI\000"
 14977      4652414D 
 14977      45464F52 
 14977      4D41545F 
 14977      53504900 
 14978              	.LASF1119:
 14979 60d4 53595341 		.ascii	"SYSAHBCLKCTRL\000"
 14979      4842434C 
 14979      4B435452 
 14979      4C00
 14980              	.LASF540:
 14981 60e2 5F5F5359 		.ascii	"__SYS_CONFIG_H_ \000"
 14981      535F434F 
 14981      4E464947 
 14981      5F485F20 
 14981      00
 14982              	.LASF673:
 14983 60f3 4C50435F 		.ascii	"LPC_FMC ((LPC_FMC_T *) LPC_FLASH_BASE)\000"
 14983      464D4320 
 14983      28284C50 
 14983      435F464D 
 14983      435F5420 
 14984              	.LASF1106:
 14985 611a 49524343 		.ascii	"IRCCTRL\000"
 14985      54524C00 
 14986              	.LASF883:
 14987 6122 55415254 		.ascii	"UART_SYNCCTRL_SYNC (1 << 0)\000"
 14987      5F53594E 
 14987      43435452 
 14987      4C5F5359 
ARM GAS  /tmp/ccGKa4GA.s 			page 357


 14987      4E432028 
 14988              	.LASF448:
 14989 613e 5F55494E 		.ascii	"_UINTPTR_T_DECLARED \000"
 14989      54505452 
 14989      5F545F44 
 14989      45434C41 
 14989      52454420 
 14990              	.LASF337:
 14991 6153 5F5F4152 		.ascii	"__ARM_ARCH 6\000"
 14991      4D5F4152 
 14991      43482036 
 14991      00
 14992              	.LASF420:
 14993 6160 5F5F494E 		.ascii	"__INT8 \"hh\"\000"
 14993      54382022 
 14993      68682200 
 14994              	.LASF1018:
 14995 616c 4932435F 		.ascii	"I2C_BYTE_SENT 0x01\000"
 14995      42595445 
 14995      5F53454E 
 14995      54203078 
 14995      303100
 14996              	.LASF255:
 14997 617f 5F5F554C 		.ascii	"__ULACCUM_MAX__ 0XFFFFFFFFFFFFFFFFP-32ULK\000"
 14997      41434355 
 14997      4D5F4D41 
 14997      585F5F20 
 14997      30584646 
 14998              	.LASF1091:
 14999 61a9 53554343 		.ascii	"SUCCESS\000"
 14999      45535300 
 15000              	.LASF655:
 15001 61b1 4C50435F 		.ascii	"LPC_USB0_BASE 0x40080000\000"
 15001      55534230 
 15001      5F424153 
 15001      45203078 
 15001      34303038 
 15002              	.LASF941:
 15003 61ca 4144435F 		.ascii	"ADC_CR_START_CTOUT8 ((3UL << 24))\000"
 15003      43525F53 
 15003      54415254 
 15003      5F43544F 
 15003      55543820 
 15004              	.LASF214:
 15005 61ec 5F5F554C 		.ascii	"__ULFRACT_MIN__ 0.0ULR\000"
 15005      46524143 
 15005      545F4D49 
 15005      4E5F5F20 
 15005      302E3055 
 15006              	.LASF1156:
 15007 6203 50445741 		.ascii	"PDWAKECFG\000"
 15007      4B454346 
 15007      4700
 15008              	.LASF274:
 15009 620d 5F5F4451 		.ascii	"__DQ_IBIT__ 0\000"
 15009      5F494249 
 15009      545F5F20 
ARM GAS  /tmp/ccGKa4GA.s 			page 358


 15009      3000
 15010              	.LASF1146:
 15011 621b 55534243 		.ascii	"USBCLKST\000"
 15011      4C4B5354 
 15011      00
 15012              	.LASF1098:
 15013 6224 50524553 		.ascii	"PRESETCTRL\000"
 15013      45544354 
 15013      524C00
 15014              	.LASF704:
 15015 622f 53595343 		.ascii	"SYSCTL_SLPWAKE_SYSPLL_PD (1 << 7)\000"
 15015      544C5F53 
 15015      4C505741 
 15015      4B455F53 
 15015      5953504C 
 15016              	.LASF731:
 15017 6251 494F434F 		.ascii	"IOCON_DIGMODE_EN (0x1 << 7)\000"
 15017      4E5F4449 
 15017      474D4F44 
 15017      455F454E 
 15017      20283078 
 15018              	.LASF564:
 15019 626d 5343425F 		.ascii	"SCB_CPUID_VARIANT_Pos 20\000"
 15019      43505549 
 15019      445F5641 
 15019      5249414E 
 15019      545F506F 
 15020              	.LASF1013:
 15021 6286 4932435F 		.ascii	"I2C_I2SCLL_BITMASK ((0xFFFF))\000"
 15021      49325343 
 15021      4C4C5F42 
 15021      49544D41 
 15021      534B2028 
 15022              	.LASF1036:
 15023 62a4 43414E5F 		.ascii	"CAN_ERROR_BIT1 0x00000040UL\000"
 15023      4552524F 
 15023      525F4249 
 15023      54312030 
 15023      78303030 
 15024              	.LASF696:
 15025 62c0 53595343 		.ascii	"SYSCTL_DEEPSLP_WDTOSC_PD (1 << 6)\000"
 15025      544C5F44 
 15025      45455053 
 15025      4C505F57 
 15025      44544F53 
 15026              	.LASF796:
 15027 62e2 55415254 		.ascii	"UART_IIR_INTID_RLS (3 << 1)\000"
 15027      5F494952 
 15027      5F494E54 
 15027      49445F52 
 15027      4C532028 
 15028              	.LASF442:
 15029 62fe 5F494E54 		.ascii	"_INT64_T_DECLARED \000"
 15029      36345F54 
 15029      5F444543 
 15029      4C415245 
 15029      442000
ARM GAS  /tmp/ccGKa4GA.s 			page 359


 15030              	.LASF876:
 15031 6311 55415254 		.ascii	"UART_SCICTRL_TXRETRY(n) ((n & 0x07) << 5)\000"
 15031      5F534349 
 15031      4354524C 
 15031      5F545852 
 15031      45545259 
 15032              	.LASF638:
 15033 633b 5F534850 		.ascii	"_SHP_IDX(IRQn) ( ((((uint32_t)(IRQn) & 0x0F)-8) >> "
 15033      5F494458 
 15033      28495251 
 15033      6E292028 
 15033      20282828 
 15034 636e 32292029 		.ascii	"2) )\000"
 15034      00
 15035              	.LASF665:
 15036 6373 4C50435F 		.ascii	"LPC_WWDT ((LPC_WWDT_T *) LPC_WWDT_BASE)\000"
 15036      57574454 
 15036      2028284C 
 15036      50435F57 
 15036      5744545F 
 15037              	.LASF617:
 15038 639b 53797354 		.ascii	"SysTick_CTRL_TICKINT_Msk (1UL << SysTick_CTRL_TICKI"
 15038      69636B5F 
 15038      4354524C 
 15038      5F544943 
 15038      4B494E54 
 15039 63ce 4E545F50 		.ascii	"NT_Pos)\000"
 15039      6F732900 
 15040              	.LASF851:
 15041 63d6 55415254 		.ascii	"UART_MSR_RI (1 << 6)\000"
 15041      5F4D5352 
 15041      5F524920 
 15041      2831203C 
 15041      3C203629 
 15042              	.LASF912:
 15043 63eb 5353505F 		.ascii	"SSP_CR1_SO_DISABLE ((uint32_t) (1 << 3))\000"
 15043      4352315F 
 15043      534F5F44 
 15043      49534142 
 15043      4C452028 
 15044              	.LASF1087:
 15045 6414 52455345 		.ascii	"RESET\000"
 15045      5400
 15046              	.LASF286:
 15047 641a 5F5F5554 		.ascii	"__UTQ_IBIT__ 0\000"
 15047      515F4942 
 15047      49545F5F 
 15047      203000
 15048              	.LASF289:
 15049 6429 5F5F5341 		.ascii	"__SA_FBIT__ 15\000"
 15049      5F464249 
 15049      545F5F20 
 15049      313500
 15050              	.LASF221:
 15051 6438 5F5F4C4C 		.ascii	"__LLFRACT_EPSILON__ 0x1P-63LLR\000"
 15051      46524143 
 15051      545F4550 
ARM GAS  /tmp/ccGKa4GA.s 			page 360


 15051      53494C4F 
 15051      4E5F5F20 
 15052              	.LASF879:
 15053 6457 55415254 		.ascii	"UART_FDR_MULVAL(n) ((n << 4) & 0xF0)\000"
 15053      5F464452 
 15053      5F4D554C 
 15053      56414C28 
 15053      6E292028 
 15054              	.LASF1248:
 15055 647c 74785F63 		.ascii	"tx_cnt\000"
 15055      6E7400
 15056              	.LASF753:
 15057 6483 46554E43 		.ascii	"FUNC2 0x2\000"
 15057      32203078 
 15057      3200
 15058              	.LASF1129:
 15059 648d 57445443 		.ascii	"WDTCLKSEL\000"
 15059      4C4B5345 
 15059      4C00
 15060              	.LASF354:
 15061 6497 5F5F4152 		.ascii	"__ARM_EABI__ 1\000"
 15061      4D5F4541 
 15061      42495F5F 
 15061      203100
 15062              	.LASF1048:
 15063 64a6 53444F5F 		.ascii	"SDO_ABORT_READONLY 0x06010002UL\000"
 15063      41424F52 
 15063      545F5245 
 15063      41444F4E 
 15063      4C592030 
 15064              	.LASF856:
 15065 64c6 55415254 		.ascii	"UART_ACR_AUTO_RESTART (1 << 2)\000"
 15065      5F414352 
 15065      5F415554 
 15065      4F5F5245 
 15065      53544152 
 15066              	.LASF359:
 15067 64e5 5F5F454C 		.ascii	"__ELF__ 1\000"
 15067      465F5F20 
 15067      3100
 15068              	.LASF472:
 15069 64ef 494E5433 		.ascii	"INT32_MIN (-__INT32_MAX__ - 1)\000"
 15069      325F4D49 
 15069      4E20282D 
 15069      5F5F494E 
 15069      5433325F 
 15070              	.LASF341:
 15071 650e 5F5F5448 		.ascii	"__THUMBEL__ 1\000"
 15071      554D4245 
 15071      4C5F5F20 
 15071      3100
 15072              	.LASF719:
 15073 651c 494F434F 		.ascii	"IOCON_FUNC3 0x3\000"
 15073      4E5F4655 
 15073      4E433320 
 15073      30783300 
 15074              	.LASF268:
ARM GAS  /tmp/ccGKa4GA.s 			page 361


 15075 652c 5F5F5151 		.ascii	"__QQ_IBIT__ 0\000"
 15075      5F494249 
 15075      545F5F20 
 15075      3000
 15076              	.LASF944:
 15077 653a 4144435F 		.ascii	"ADC_CR_START_MCOA2 ((6UL << 24))\000"
 15077      43525F53 
 15077      54415254 
 15077      5F4D434F 
 15077      41322028 
 15078              	.LASF937:
 15079 655b 4144435F 		.ascii	"ADC_CR_START_MASK ((7UL << 24))\000"
 15079      43525F53 
 15079      54415254 
 15079      5F4D4153 
 15079      4B202828 
 15080              	.LASF643:
 15081 657b 4C50435F 		.ascii	"LPC_TIMER16_0_BASE 0x4000C000\000"
 15081      54494D45 
 15081      5231365F 
 15081      305F4241 
 15081      53452030 
 15082              	.LASF991:
 15083 6599 4932435F 		.ascii	"I2C_I2STAT_S_RX_PRE_SLA_DAT_ACK ((0x80))\000"
 15083      49325354 
 15083      41545F53 
 15083      5F52585F 
 15083      5052455F 
 15084              	.LASF432:
 15085 65c2 5F535953 		.ascii	"_SYS__STDINT_H \000"
 15085      5F5F5354 
 15085      44494E54 
 15085      5F482000 
 15086              	.LASF257:
 15087 65d2 5F5F4C4C 		.ascii	"__LLACCUM_FBIT__ 31\000"
 15087      41434355 
 15087      4D5F4642 
 15087      49545F5F 
 15087      20333100 
 15088              	.LASF129:
 15089 65e6 5F5F464C 		.ascii	"__FLT_MAX_10_EXP__ 38\000"
 15089      545F4D41 
 15089      585F3130 
 15089      5F455850 
 15089      5F5F2033 
 15090              	.LASF465:
 15091 65fc 55494E54 		.ascii	"UINT_LEAST8_MAX (__UINT_LEAST8_MAX__)\000"
 15091      5F4C4541 
 15091      5354385F 
 15091      4D415820 
 15091      285F5F55 
 15092              	.LASF3:
 15093 6622 5F5F474E 		.ascii	"__GNUC_MINOR__ 2\000"
 15093      55435F4D 
 15093      494E4F52 
 15093      5F5F2032 
 15093      00
ARM GAS  /tmp/ccGKa4GA.s 			page 362


 15094              	.LASF53:
 15095 6633 5F5F5549 		.ascii	"__UINT_LEAST32_TYPE__ long unsigned int\000"
 15095      4E545F4C 
 15095      45415354 
 15095      33325F54 
 15095      5950455F 
 15096              	.LASF280:
 15097 665b 5F5F5548 		.ascii	"__UHQ_IBIT__ 0\000"
 15097      515F4942 
 15097      49545F5F 
 15097      203000
 15098              	.LASF1088:
 15099 666a 466C6167 		.ascii	"FlagStatus\000"
 15099      53746174 
 15099      757300
 15100              	.LASF313:
 15101 6675 5F5F4743 		.ascii	"__GCC_ATOMIC_INT_LOCK_FREE 1\000"
 15101      435F4154 
 15101      4F4D4943 
 15101      5F494E54 
 15101      5F4C4F43 
 15102              	.LASF408:
 15103 6692 73686F72 		.ascii	"short\000"
 15103      7400
 15104              	.LASF306:
 15105 6698 5F5F4348 		.ascii	"__CHAR_UNSIGNED__ 1\000"
 15105      41525F55 
 15105      4E534947 
 15105      4E45445F 
 15105      5F203100 
 15106              	.LASF1258:
 15107 66ac 62697452 		.ascii	"bitRate\000"
 15107      61746500 
 15108              	.LASF1315:
 15109 66b4 70657269 		.ascii	"periph\000"
 15109      706800
 15110              	.LASF983:
 15111 66bb 4932435F 		.ascii	"I2C_I2STAT_M_RX_SLAR_ACK ((0x40))\000"
 15111      49325354 
 15111      41545F4D 
 15111      5F52585F 
 15111      534C4152 
 15112              	.LASF726:
 15113 66dd 494F434F 		.ascii	"IOCON_MODE_PULLUP (0x2 << 3)\000"
 15113      4E5F4D4F 
 15113      44455F50 
 15113      554C4C55 
 15113      50202830 
 15114              	.LASF812:
 15115 66fa 55415254 		.ascii	"UART_LCR_WLEN5 (0 << 0)\000"
 15115      5F4C4352 
 15115      5F574C45 
 15115      4E352028 
 15115      30203C3C 
 15116              	.LASF1237:
 15117 6712 5353505F 		.ascii	"SSP_BITS_10\000"
 15117      42495453 
ARM GAS  /tmp/ccGKa4GA.s 			page 363


 15117      5F313000 
 15118              	.LASF1238:
 15119 671e 5353505F 		.ascii	"SSP_BITS_11\000"
 15119      42495453 
 15119      5F313100 
 15120              	.LASF1229:
 15121 672a 5353505F 		.ascii	"SSP_FRAMEFORMAT_MICROWIRE\000"
 15121      4652414D 
 15121      45464F52 
 15121      4D41545F 
 15121      4D494352 
 15122              	.LASF1240:
 15123 6744 5353505F 		.ascii	"SSP_BITS_13\000"
 15123      42495453 
 15123      5F313300 
 15124              	.LASF1241:
 15125 6750 5353505F 		.ascii	"SSP_BITS_14\000"
 15125      42495453 
 15125      5F313400 
 15126              	.LASF1242:
 15127 675c 5353505F 		.ascii	"SSP_BITS_15\000"
 15127      42495453 
 15127      5F313500 
 15128              	.LASF1243:
 15129 6768 5353505F 		.ascii	"SSP_BITS_16\000"
 15129      42495453 
 15129      5F313600 
 15130              	.LASF904:
 15131 6774 5353505F 		.ascii	"SSP_CR0_CPHA_FIRST ((uint32_t) (0))\000"
 15131      4352305F 
 15131      43504841 
 15131      5F464952 
 15131      53542028 
 15132              	.LASF512:
 15133 6798 494E5433 		.ascii	"INT32_C(x) __INT32_C(x)\000"
 15133      325F4328 
 15133      7829205F 
 15133      5F494E54 
 15133      33325F43 
 15134              	.LASF489:
 15135 67b0 55494E54 		.ascii	"UINT_FAST16_MAX (__UINT_FAST16_MAX__)\000"
 15135      5F464153 
 15135      5431365F 
 15135      4D415820 
 15135      285F5F55 
 15136              	.LASF220:
 15137 67d6 5F5F4C4C 		.ascii	"__LLFRACT_MAX__ 0X7FFFFFFFFFFFFFFFP-63LLR\000"
 15137      46524143 
 15137      545F4D41 
 15137      585F5F20 
 15137      30583746 
 15138              	.LASF621:
 15139 6800 53797354 		.ascii	"SysTick_LOAD_RELOAD_Msk (0xFFFFFFUL << SysTick_LOAD"
 15139      69636B5F 
 15139      4C4F4144 
 15139      5F52454C 
 15139      4F41445F 
ARM GAS  /tmp/ccGKa4GA.s 			page 364


 15140 6833 5F52454C 		.ascii	"_RELOAD_Pos)\000"
 15140      4F41445F 
 15140      506F7329 
 15140      00
 15141              	.LASF477:
 15142 6840 55494E54 		.ascii	"UINT_LEAST32_MAX (__UINT_LEAST32_MAX__)\000"
 15142      5F4C4541 
 15142      53543332 
 15142      5F4D4158 
 15142      20285F5F 
 15143              	.LASF1194:
 15144 6868 43505352 		.ascii	"CPSR\000"
 15144      00
 15145              	.LASF714:
 15146 686d 53595343 		.ascii	"SYSCTL_IRC_FREQ (12000000)\000"
 15146      544C5F49 
 15146      52435F46 
 15146      52455120 
 15146      28313230 
 15147              	.LASF550:
 15148 6888 5F5F434D 		.ascii	"__CM0_CMSIS_VERSION ((__CM0_CMSIS_VERSION_MAIN << 1"
 15148      305F434D 
 15148      5349535F 
 15148      56455253 
 15148      494F4E20 
 15149 68bb 3629207C 		.ascii	"6) | __CM0_CMSIS_VERSION_SUB )\000"
 15149      205F5F43 
 15149      4D305F43 
 15149      4D534953 
 15149      5F564552 
 15150              	.LASF575:
 15151 68da 5343425F 		.ascii	"SCB_ICSR_PENDSVSET_Msk (1UL << SCB_ICSR_PENDSVSET_P"
 15151      49435352 
 15151      5F50454E 
 15151      44535653 
 15151      45545F4D 
 15152 690d 6F732900 		.ascii	"os)\000"
 15153              	.LASF624:
 15154 6911 53797354 		.ascii	"SysTick_CALIB_NOREF_Pos 31\000"
 15154      69636B5F 
 15154      43414C49 
 15154      425F4E4F 
 15154      5245465F 
 15155              	.LASF230:
 15156 692c 5F5F5341 		.ascii	"__SACCUM_MAX__ 0X7FFFP-7HK\000"
 15156      4343554D 
 15156      5F4D4158 
 15156      5F5F2030 
 15156      58374646 
 15157              	.LASF63:
 15158 6947 5F5F494E 		.ascii	"__INTPTR_TYPE__ int\000"
 15158      54505452 
 15158      5F545950 
 15158      455F5F20 
 15158      696E7400 
 15159              	.LASF36:
 15160 695b 5F5F4348 		.ascii	"__CHAR16_TYPE__ short unsigned int\000"
ARM GAS  /tmp/ccGKa4GA.s 			page 365


 15160      41523136 
 15160      5F545950 
 15160      455F5F20 
 15160      73686F72 
 15161              	.LASF1286:
 15162 697e 43686970 		.ascii	"Chip_SSP_SetSSPClkDivider\000"
 15162      5F535350 
 15162      5F536574 
 15162      53535043 
 15162      6C6B4469 
 15163              	.LASF619:
 15164 6998 53797354 		.ascii	"SysTick_CTRL_ENABLE_Msk (1UL << SysTick_CTRL_ENABLE"
 15164      69636B5F 
 15164      4354524C 
 15164      5F454E41 
 15164      424C455F 
 15165 69cb 5F506F73 		.ascii	"_Pos)\000"
 15165      2900
 15166              	.LASF303:
 15167 69d1 5F5F5245 		.ascii	"__REGISTER_PREFIX__ \000"
 15167      47495354 
 15167      45525F50 
 15167      52454649 
 15167      585F5F20 
 15168              	.LASF186:
 15169 69e6 5F5F4445 		.ascii	"__DEC128_SUBNORMAL_MIN__ 0.000000000000000000000000"
 15169      43313238 
 15169      5F535542 
 15169      4E4F524D 
 15169      414C5F4D 
 15170 6a19 30303030 		.ascii	"000000001E-6143DL\000"
 15170      30303030 
 15170      31452D36 
 15170      31343344 
 15170      4C00
 15171              	.LASF1107:
 15172 6a2b 4C464F53 		.ascii	"LFOSCCTRL\000"
 15172      43435452 
 15172      4C00
 15173              	.LASF216:
 15174 6a35 5F5F554C 		.ascii	"__ULFRACT_EPSILON__ 0x1P-32ULR\000"
 15174      46524143 
 15174      545F4550 
 15174      53494C4F 
 15174      4E5F5F20 
 15175              	.LASF1066:
 15176 6a54 43414E5F 		.ascii	"CAN_SDOREQ_HANDLED_SEND 1\000"
 15176      53444F52 
 15176      45515F48 
 15176      414E444C 
 15176      45445F53 
 15177              	.LASF352:
 15178 6a6e 5F5F4152 		.ascii	"__ARM_ARCH_6M__ 1\000"
 15178      4D5F4152 
 15178      43485F36 
 15178      4D5F5F20 
 15178      3100
ARM GAS  /tmp/ccGKa4GA.s 			page 366


 15179              	.LASF21:
 15180 6a80 5F5F5349 		.ascii	"__SIZEOF_SIZE_T__ 4\000"
 15180      5A454F46 
 15180      5F53495A 
 15180      455F545F 
 15180      5F203400 
 15181              	.LASF837:
 15182 6a94 55415254 		.ascii	"UART_LSR_FE (1 << 3)\000"
 15182      5F4C5352 
 15182      5F464520 
 15182      2831203C 
 15182      3C203329 
 15183              	.LASF891:
 15184 6aa9 57574454 		.ascii	"WWDT_WDMOD_BITMASK ((uint32_t) 0x1F)\000"
 15184      5F57444D 
 15184      4F445F42 
 15184      49544D41 
 15184      534B2028 
 15185              	.LASF46:
 15186 6ace 5F5F5549 		.ascii	"__UINT64_TYPE__ long long unsigned int\000"
 15186      4E543634 
 15186      5F545950 
 15186      455F5F20 
 15186      6C6F6E67 
 15187              	.LASF183:
 15188 6af5 5F5F4445 		.ascii	"__DEC128_MIN__ 1E-6143DL\000"
 15188      43313238 
 15188      5F4D494E 
 15188      5F5F2031 
 15188      452D3631 
 15189              	.LASF100:
 15190 6b0e 5F5F494E 		.ascii	"__INT64_C(c) c ## LL\000"
 15190      5436345F 
 15190      43286329 
 15190      20632023 
 15190      23204C4C 
 15191              	.LASF248:
 15192 6b23 5F5F4C41 		.ascii	"__LACCUM_IBIT__ 32\000"
 15192      4343554D 
 15192      5F494249 
 15192      545F5F20 
 15192      333200
 15193              	.LASF1159:
 15194 6b36 44455649 		.ascii	"DEVICEID\000"
 15194      43454944 
 15194      00
 15195              	.LASF475:
 15196 6b3f 494E545F 		.ascii	"INT_LEAST32_MIN (-__INT_LEAST32_MAX__ - 1)\000"
 15196      4C454153 
 15196      5433325F 
 15196      4D494E20 
 15196      282D5F5F 
 15197              	.LASF733:
 15198 6b6a 494F434F 		.ascii	"IOCON_STDI2C_EN (0x1 << 8)\000"
 15198      4E5F5354 
 15198      44493243 
 15198      5F454E20 
ARM GAS  /tmp/ccGKa4GA.s 			page 367


 15198      28307831 
 15199              	.LASF518:
 15200 6b85 5F474343 		.ascii	"_GCC_WRAP_STDINT_H \000"
 15200      5F575241 
 15200      505F5354 
 15200      44494E54 
 15200      5F482000 
 15201              	.LASF1009:
 15202 6b99 4932435F 		.ascii	"I2C_I2ADR_GC ((1 << 0))\000"
 15202      49324144 
 15202      525F4743 
 15202      20282831 
 15202      203C3C20 
 15203              	.LASF1133:
 15204 6bb1 434C4B4F 		.ascii	"CLKOUTSEL\000"
 15204      55545345 
 15204      4C00
 15205              	.LASF160:
 15206 6bbb 5F5F4C44 		.ascii	"__LDBL_MIN__ 2.2250738585072014e-308L\000"
 15206      424C5F4D 
 15206      494E5F5F 
 15206      20322E32 
 15206      32353037 
 15207              	.LASF238:
 15208 6be1 5F5F4143 		.ascii	"__ACCUM_IBIT__ 16\000"
 15208      43554D5F 
 15208      49424954 
 15208      5F5F2031 
 15208      3600
 15209              	.LASF1037:
 15210 6bf3 43414E5F 		.ascii	"CAN_ERROR_BIT0 0x00000080UL\000"
 15210      4552524F 
 15210      525F4249 
 15210      54302030 
 15210      78303030 
 15211              	.LASF947:
 15212 6c0f 5F5F4750 		.ascii	"__GPIO_11XX_2_H_ \000"
 15212      494F5F31 
 15212      3158585F 
 15212      325F485F 
 15212      2000
 15213              	.LASF1287:
 15214 6c21 5353505F 		.ascii	"SSP_Read1BFifo\000"
 15214      52656164 
 15214      31424669 
 15214      666F00
 15215              	.LASF1075:
 15216 6c30 73686F72 		.ascii	"short int\000"
 15216      7420696E 
 15216      7400
 15217              	.LASF734:
 15218 6c3a 494F434F 		.ascii	"IOCON_FASTI2C_EN (0x2 << 8)\000"
 15218      4E5F4641 
 15218      53544932 
 15218      435F454E 
 15218      20283078 
 15219              	.LASF510:
ARM GAS  /tmp/ccGKa4GA.s 			page 368


 15220 6c56 494E5431 		.ascii	"INT16_C(x) __INT16_C(x)\000"
 15220      365F4328 
 15220      7829205F 
 15220      5F494E54 
 15220      31365F43 
 15221              	.LASF724:
 15222 6c6e 494F434F 		.ascii	"IOCON_MODE_INACT (0x0 << 3)\000"
 15222      4E5F4D4F 
 15222      44455F49 
 15222      4E414354 
 15222      20283078 
 15223              	.LASF804:
 15224 6c8a 55415254 		.ascii	"UART_FCR_DMAMODE_SEL (1 << 3)\000"
 15224      5F464352 
 15224      5F444D41 
 15224      4D4F4445 
 15224      5F53454C 
 15225              	.LASF202:
 15226 6ca8 5F5F5546 		.ascii	"__UFRACT_FBIT__ 16\000"
 15226      52414354 
 15226      5F464249 
 15226      545F5F20 
 15226      313600
 15227              	.LASF104:
 15228 6cbb 5F5F5549 		.ascii	"__UINT16_C(c) c\000"
 15228      4E543136 
 15228      5F432863 
 15228      29206300 
 15229              	.LASF537:
 15230 6ccb 4D415828 		.ascii	"MAX(a,b) (((a) > (b)) ? (a) : (b))\000"
 15230      612C6229 
 15230      20282828 
 15230      6129203E 
 15230      20286229 
 15231              	.LASF735:
 15232 6cee 494F434F 		.ascii	"IOCON_FILT_DIS (0x1 << 8)\000"
 15232      4E5F4649 
 15232      4C545F44 
 15232      49532028 
 15232      30783120 
 15233              	.LASF300:
 15234 6d08 5F5F5544 		.ascii	"__UDA_IBIT__ 32\000"
 15234      415F4942 
 15234      49545F5F 
 15234      20333200 
 15235              	.LASF1293:
 15236 6d18 6D6F6465 		.ascii	"mode\000"
 15236      00
 15237              	.LASF886:
 15238 6d1d 55415254 		.ascii	"UART_SYNCCTRL_TSBYPASS (1 << 3)\000"
 15238      5F53594E 
 15238      43435452 
 15238      4C5F5453 
 15238      42595041 
 15239              	.LASF610:
 15240 6d3d 5343425F 		.ascii	"SCB_SHCSR_SVCALLPENDED_Pos 15\000"
 15240      53484353 
ARM GAS  /tmp/ccGKa4GA.s 			page 369


 15240      525F5356 
 15240      43414C4C 
 15240      50454E44 
 15241              	.LASF369:
 15242 6d5b 5F5F4E45 		.ascii	"__NEWLIB__ 2\000"
 15242      574C4942 
 15242      5F5F2032 
 15242      00
 15243              	.LASF478:
 15244 6d68 494E5436 		.ascii	"INT64_MIN (-__INT64_MAX__ - 1)\000"
 15244      345F4D49 
 15244      4E20282D 
 15244      5F5F494E 
 15244      5436345F 
 15245              	.LASF6:
 15246 6d87 5F5F4154 		.ascii	"__ATOMIC_RELAXED 0\000"
 15246      4F4D4943 
 15246      5F52454C 
 15246      41584544 
 15246      203000
 15247              	.LASF802:
 15248 6d9a 55415254 		.ascii	"UART_FCR_RX_RS (1 << 1)\000"
 15248      5F464352 
 15248      5F52585F 
 15248      52532028 
 15248      31203C3C 
 15249              	.LASF687:
 15250 6db2 5F5F464D 		.ascii	"__FMC_11XX_H_ \000"
 15250      435F3131 
 15250      58585F48 
 15250      5F2000
 15251              	.LASF784:
 15252 6dc1 55415254 		.ascii	"UART_IER_CTSINT (1 << 7)\000"
 15252      5F494552 
 15252      5F435453 
 15252      494E5420 
 15252      2831203C 
 15253              	.LASF150:
 15254 6dda 5F5F4442 		.ascii	"__DBL_HAS_INFINITY__ 1\000"
 15254      4C5F4841 
 15254      535F494E 
 15254      46494E49 
 15254      54595F5F 
 15255              	.LASF683:
 15256 6df1 504D555F 		.ascii	"PMU_PCON_PM_SLEEP (0x0)\000"
 15256      50434F4E 
 15256      5F504D5F 
 15256      534C4545 
 15256      50202830 
 15257              	.LASF83:
 15258 6e09 5F5F5349 		.ascii	"__SIG_ATOMIC_MAX__ 0x7fffffff\000"
 15258      475F4154 
 15258      4F4D4943 
 15258      5F4D4158 
 15258      5F5F2030 
 15259              	.LASF480:
 15260 6e27 55494E54 		.ascii	"UINT64_MAX (__UINT64_MAX__)\000"
ARM GAS  /tmp/ccGKa4GA.s 			page 370


 15260      36345F4D 
 15260      41582028 
 15260      5F5F5549 
 15260      4E543634 
 15261              	.LASF953:
 15262 6e43 4932435F 		.ascii	"I2C_STA_STO_RECV 0x20\000"
 15262      5354415F 
 15262      53544F5F 
 15262      52454356 
 15262      20307832 
 15263              	.LASF822:
 15264 6e59 55415254 		.ascii	"UART_LCR_PARITY_EVEN (1 << 4)\000"
 15264      5F4C4352 
 15264      5F504152 
 15264      4954595F 
 15264      4556454E 
 15265              	.LASF1149:
 15266 6e77 53544152 		.ascii	"STARTERP0\000"
 15266      54455250 
 15266      3000
 15267              	.LASF1153:
 15268 6e81 53544152 		.ascii	"STARTERP1\000"
 15268      54455250 
 15268      3100
 15269              	.LASF561:
 15270 6e8b 5F5F494F 		.ascii	"__IO volatile\000"
 15270      20766F6C 
 15270      6174696C 
 15270      6500
 15271              	.LASF738:
 15272 6e99 4D445F50 		.ascii	"MD_PDN (0x1 << 3)\000"
 15272      444E2028 
 15272      30783120 
 15272      3C3C2033 
 15272      2900
 15273              	.LASF779:
 15274 6eab 55415254 		.ascii	"UART_DLM_MASKBIT (0xFF)\000"
 15274      5F444C4D 
 15274      5F4D4153 
 15274      4B424954 
 15274      20283078 
 15275              	.LASF952:
 15276 6ec3 5245545F 		.ascii	"RET_SLAVE_BUSY 0\000"
 15276      534C4156 
 15276      455F4255 
 15276      53592030 
 15276      00
 15277              	.LASF18:
 15278 6ed4 5F5F5349 		.ascii	"__SIZEOF_FLOAT__ 4\000"
 15278      5A454F46 
 15278      5F464C4F 
 15278      41545F5F 
 15278      203400
 15279              	.LASF509:
 15280 6ee7 55494E54 		.ascii	"UINT8_C(x) __UINT8_C(x)\000"
 15280      385F4328 
 15280      7829205F 
ARM GAS  /tmp/ccGKa4GA.s 			page 371


 15280      5F55494E 
 15280      54385F43 
 15281              	.LASF176:
 15282 6eff 5F5F4445 		.ascii	"__DEC64_MIN__ 1E-383DD\000"
 15282      4336345F 
 15282      4D494E5F 
 15282      5F203145 
 15282      2D333833 
 15283              	.LASF635:
 15284 6f16 53797354 		.ascii	"SysTick ((SysTick_Type *) SysTick_BASE )\000"
 15284      69636B20 
 15284      28285379 
 15284      73546963 
 15284      6B5F5479 
 15285              	.LASF144:
 15286 6f3f 5F5F4442 		.ascii	"__DBL_DECIMAL_DIG__ 17\000"
 15286      4C5F4445 
 15286      43494D41 
 15286      4C5F4449 
 15286      475F5F20 
 15287              	.LASF576:
 15288 6f56 5343425F 		.ascii	"SCB_ICSR_PENDSVCLR_Pos 27\000"
 15288      49435352 
 15288      5F50454E 
 15288      44535643 
 15288      4C525F50 
 15289              	.LASF929:
 15290 6f70 4144435F 		.ascii	"ADC_DR_RESULT(n) ((((n) >> 6) & 0x3FF))\000"
 15290      44525F52 
 15290      4553554C 
 15290      54286E29 
 15290      20282828 
 15291              	.LASF393:
 15292 6f98 5F5F6861 		.ascii	"__have_long32 1\000"
 15292      76655F6C 
 15292      6F6E6733 
 15292      32203100 
 15293              	.LASF463:
 15294 6fa8 494E545F 		.ascii	"INT_LEAST8_MIN (-__INT_LEAST8_MAX__ - 1)\000"
 15294      4C454153 
 15294      54385F4D 
 15294      494E2028 
 15294      2D5F5F49 
 15295              	.LASF252:
 15296 6fd1 5F5F554C 		.ascii	"__ULACCUM_FBIT__ 32\000"
 15296      41434355 
 15296      4D5F4642 
 15296      49545F5F 
 15296      20333200 
 15297              	.LASF594:
 15298 6fe5 5343425F 		.ascii	"SCB_AIRCR_ENDIANESS_Pos 15\000"
 15298      41495243 
 15298      525F454E 
 15298      4449414E 
 15298      4553535F 
 15299              	.LASF703:
 15300 7000 53595343 		.ascii	"SYSCTL_SLPWAKE_WDTOSC_PD (1 << 6)\000"
ARM GAS  /tmp/ccGKa4GA.s 			page 372


 15300      544C5F53 
 15300      4C505741 
 15300      4B455F57 
 15300      44544F53 
 15301              	.LASF599:
 15302 7022 5343425F 		.ascii	"SCB_AIRCR_VECTCLRACTIVE_Msk (1UL << SCB_AIRCR_VECTC"
 15302      41495243 
 15302      525F5645 
 15302      4354434C 
 15302      52414354 
 15303 7055 4C524143 		.ascii	"LRACTIVE_Pos)\000"
 15303      54495645 
 15303      5F506F73 
 15303      2900
 15304              	.LASF515:
 15305 7063 55494E54 		.ascii	"UINT64_C(x) __UINT64_C(x)\000"
 15305      36345F43 
 15305      28782920 
 15305      5F5F5549 
 15305      4E543634 
 15306              	.LASF444:
 15307 707d 5F5F696E 		.ascii	"__int64_t_defined 1\000"
 15307      7436345F 
 15307      745F6465 
 15307      66696E65 
 15307      64203100 
 15308              	.LASF86:
 15309 7091 5F5F494E 		.ascii	"__INT16_MAX__ 0x7fff\000"
 15309      5431365F 
 15309      4D41585F 
 15309      5F203078 
 15309      37666666 
 15310              	.LASF773:
 15311 70a6 52425F56 		.ascii	"RB_VHEAD(rb) ((volatile uint32_t)(rb->head))\000"
 15311      48454144 
 15311      28726229 
 15311      20282876 
 15311      6F6C6174 
 15312              	.LASF559:
 15313 70d3 5F5F4920 		.ascii	"__I volatile const\000"
 15313      766F6C61 
 15313      74696C65 
 15313      20636F6E 
 15313      737400
 15314              	.LASF1162:
 15315 70e6 52455345 		.ascii	"RESET_I2C0\000"
 15315      545F4932 
 15315      433000
 15316              	.LASF1199:
 15317 70f1 5353505F 		.ascii	"SSP_STAT_TFE\000"
 15317      53544154 
 15317      5F544645 
 15317      00
 15318              	.LASF424:
 15319 70fe 5F5F4641 		.ascii	"__FAST8 \000"
 15319      53543820 
 15319      00
ARM GAS  /tmp/ccGKa4GA.s 			page 373


 15320              	.LASF1143:
 15321 7107 4E4D4953 		.ascii	"NMISRC\000"
 15321      524300
 15322              	.LASF668:
 15323 710e 4C50435F 		.ascii	"LPC_TIMER16_1 ((LPC_TIMER_T *) LPC_TIMER16_1_BASE)\000"
 15323      54494D45 
 15323      5231365F 
 15323      31202828 
 15323      4C50435F 
 15324              	.LASF267:
 15325 7141 5F5F5151 		.ascii	"__QQ_FBIT__ 7\000"
 15325      5F464249 
 15325      545F5F20 
 15325      3700
 15326              	.LASF1023:
 15327 714f 4932435F 		.ascii	"I2C_ERR (0x10000000)\000"
 15327      45525220 
 15327      28307831 
 15327      30303030 
 15327      30303029 
 15328              	.LASF1003:
 15329 7164 4932435F 		.ascii	"I2C_I2DAT_IDLE_CHAR (0xFF)\000"
 15329      49324441 
 15329      545F4944 
 15329      4C455F43 
 15329      48415220 
 15330              	.LASF226:
 15331 717f 5F5F554C 		.ascii	"__ULLFRACT_EPSILON__ 0x1P-64ULLR\000"
 15331      4C465241 
 15331      43545F45 
 15331      5053494C 
 15331      4F4E5F5F 
 15332              	.LASF539:
 15333 71a0 494E4C49 		.ascii	"INLINE inline\000"
 15333      4E452069 
 15333      6E6C696E 
 15333      6500
 15334              	.LASF932:
 15335 71ae 4144435F 		.ascii	"ADC_DR_OVERRUN(n) ((((n) >> 30) & (1UL)))\000"
 15335      44525F4F 
 15335      56455252 
 15335      554E286E 
 15335      29202828 
 15336              	.LASF606:
 15337 71d8 5343425F 		.ascii	"SCB_CCR_STKALIGN_Pos 9\000"
 15337      4343525F 
 15337      53544B41 
 15337      4C49474E 
 15337      5F506F73 
 15338              	.LASF948:
 15339 71ef 5F5F4932 		.ascii	"__I2C_11XX_H_ \000"
 15339      435F3131 
 15339      58585F48 
 15339      5F2000
 15340              	.LASF841:
 15341 71fe 55415254 		.ascii	"UART_LSR_RXFE (1 << 7)\000"
 15341      5F4C5352 
ARM GAS  /tmp/ccGKa4GA.s 			page 374


 15341      5F525846 
 15341      45202831 
 15341      203C3C20 
 15342              	.LASF373:
 15343 7215 5F5F474E 		.ascii	"__GNUC_PREREQ__(ma,mi) __GNUC_PREREQ(ma, mi)\000"
 15343      55435F50 
 15343      52455245 
 15343      515F5F28 
 15343      6D612C6D 
 15344              	.LASF642:
 15345 7242 4C50435F 		.ascii	"LPC_USART_BASE 0x40008000\000"
 15345      55534152 
 15345      545F4241 
 15345      53452030 
 15345      78343030 
 15346              	.LASF706:
 15347 725c 53595343 		.ascii	"SYSCTL_POWERDOWN_IRC_PD (1 << 1)\000"
 15347      544C5F50 
 15347      4F574552 
 15347      444F574E 
 15347      5F495243 
 15348              	.LASF302:
 15349 727d 5F5F5554 		.ascii	"__UTA_IBIT__ 64\000"
 15349      415F4942 
 15349      49545F5F 
 15349      20363400 
 15350              	.LASF263:
 15351 728d 5F5F554C 		.ascii	"__ULLACCUM_IBIT__ 32\000"
 15351      4C414343 
 15351      554D5F49 
 15351      4249545F 
 15351      5F203332 
 15352              	.LASF555:
 15353 72a2 5F5F4650 		.ascii	"__FPU_USED 0\000"
 15353      555F5553 
 15353      45442030 
 15353      00
 15354              	.LASF533:
 15355 72af 4E454C45 		.ascii	"NELEMENTS(array) (sizeof(array) / sizeof(array[0]))"
 15355      4D454E54 
 15355      53286172 
 15355      72617929 
 15355      20287369 
 15356 72e2 00       		.ascii	"\000"
 15357              	.LASF207:
 15358 72e3 5F5F4C46 		.ascii	"__LFRACT_FBIT__ 31\000"
 15358      52414354 
 15358      5F464249 
 15358      545F5F20 
 15358      333100
 15359              	.LASF1214:
 15360 72f6 5353505F 		.ascii	"SSP_RTIC\000"
 15360      52544943 
 15360      00
 15361              	.LASF1131:
 15362 72ff 57445443 		.ascii	"WDTCLKDIV\000"
 15362      4C4B4449 
ARM GAS  /tmp/ccGKa4GA.s 			page 375


 15362      5600
 15363              	.LASF105:
 15364 7309 5F5F5549 		.ascii	"__UINT_LEAST32_MAX__ 0xffffffffUL\000"
 15364      4E545F4C 
 15364      45415354 
 15364      33325F4D 
 15364      41585F5F 
 15365              	.LASF321:
 15366 732b 5F5F5349 		.ascii	"__SIZEOF_WINT_T__ 4\000"
 15366      5A454F46 
 15366      5F57494E 
 15366      545F545F 
 15366      5F203400 
 15367              	.LASF686:
 15368 733f 504D555F 		.ascii	"PMU_PCON_DPDFLAG (1 << 11)\000"
 15368      50434F4E 
 15368      5F445044 
 15368      464C4147 
 15368      20283120 
 15369              	.LASF97:
 15370 735a 5F5F494E 		.ascii	"__INT_LEAST32_MAX__ 0x7fffffffL\000"
 15370      545F4C45 
 15370      41535433 
 15370      325F4D41 
 15370      585F5F20 
 15371              	.LASF219:
 15372 737a 5F5F4C4C 		.ascii	"__LLFRACT_MIN__ (-0.5LLR-0.5LLR)\000"
 15372      46524143 
 15372      545F4D49 
 15372      4E5F5F20 
 15372      282D302E 
 15373              	.LASF1101:
 15374 739b 55534250 		.ascii	"USBPLLCTRL\000"
 15374      4C4C4354 
 15374      524C00
 15375              	.LASF1150:
 15376 73a6 53544152 		.ascii	"STARTRSRP0CLR\000"
 15376      54525352 
 15376      5030434C 
 15376      5200
 15377              	.LASF1100:
 15378 73b4 53595350 		.ascii	"SYSPLLSTAT\000"
 15378      4C4C5354 
 15378      415400
 15379              	.LASF249:
 15380 73bf 5F5F4C41 		.ascii	"__LACCUM_MIN__ (-0X1P31LK-0X1P31LK)\000"
 15380      4343554D 
 15380      5F4D494E 
 15380      5F5F2028 
 15380      2D305831 
 15381              	.LASF662:
 15382 73e3 4941505F 		.ascii	"IAP_ENTRY_LOCATION 0X1FFF1FF1\000"
 15382      454E5452 
 15382      595F4C4F 
 15382      43415449 
 15382      4F4E2030 
 15383              	.LASF109:
ARM GAS  /tmp/ccGKa4GA.s 			page 376


 15384 7401 5F5F494E 		.ascii	"__INT_FAST8_MAX__ 0x7fffffff\000"
 15384      545F4641 
 15384      5354385F 
 15384      4D41585F 
 15384      5F203078 
 15385              	.LASF1089:
 15386 741e 496E7453 		.ascii	"IntStatus\000"
 15386      74617475 
 15386      7300
 15387              	.LASF148:
 15388 7428 5F5F4442 		.ascii	"__DBL_DENORM_MIN__ ((double)4.9406564584124654e-324"
 15388      4C5F4445 
 15388      4E4F524D 
 15388      5F4D494E 
 15388      5F5F2028 
 15389 745b 4C2900   		.ascii	"L)\000"
 15390              	.LASF1121:
 15391 745e 53535030 		.ascii	"SSP0CLKDIV\000"
 15391      434C4B44 
 15391      495600
 15392              	.LASF433:
 15393 7469 5F494E54 		.ascii	"_INT8_T_DECLARED \000"
 15393      385F545F 
 15393      4445434C 
 15393      41524544 
 15393      2000
 15394              	.LASF1292:
 15395 747b 43686970 		.ascii	"Chip_SSP_Set_Mode\000"
 15395      5F535350 
 15395      5F536574 
 15395      5F4D6F64 
 15395      6500
 15396              	.LASF648:
 15397 748d 4C50435F 		.ascii	"LPC_DAC_BASE 0x40024000\000"
 15397      4441435F 
 15397      42415345 
 15397      20307834 
 15397      30303234 
 15398              	.LASF422:
 15399 74a5 5F5F494E 		.ascii	"__INT32 \"l\"\000"
 15399      54333220 
 15399      226C2200 
 15400              	.LASF590:
 15401 74b1 5343425F 		.ascii	"SCB_AIRCR_VECTKEY_Pos 16\000"
 15401      41495243 
 15401      525F5645 
 15401      43544B45 
 15401      595F506F 
 15402              	.LASF531:
 15403 74ca 5F424954 		.ascii	"_BITMASK(field_width) ( _BIT(field_width) - 1)\000"
 15403      4D41534B 
 15403      28666965 
 15403      6C645F77 
 15403      69647468 
 15404              	.LASF692:
 15405 74f9 53595343 		.ascii	"SYSCTL_RST_BOD (1 << 3)\000"
 15405      544C5F52 
ARM GAS  /tmp/ccGKa4GA.s 			page 377


 15405      53545F42 
 15405      4F442028 
 15405      31203C3C 
 15406              	.LASF1305:
 15407 7511 43686970 		.ascii	"Chip_SSP_GetStatus\000"
 15407      5F535350 
 15407      5F476574 
 15407      53746174 
 15407      757300
 15408              	.LASF45:
 15409 7524 5F5F5549 		.ascii	"__UINT32_TYPE__ long unsigned int\000"
 15409      4E543332 
 15409      5F545950 
 15409      455F5F20 
 15409      6C6F6E67 
 15410              	.LASF688:
 15411 7546 5F5F5359 		.ascii	"__SYSCTL_11XX_H_ \000"
 15411      5343544C 
 15411      5F313158 
 15411      585F485F 
 15411      2000
 15412              	.LASF361:
 15413 7558 434F5245 		.ascii	"CORE_M0 1\000"
 15413      5F4D3020 
 15413      3100
 15414              	.LASF905:
 15415 7562 5353505F 		.ascii	"SSP_CR0_CPHA_SECOND ((uint32_t) (1 << 7))\000"
 15415      4352305F 
 15415      43504841 
 15415      5F534543 
 15415      4F4E4420 
 15416              	.LASF759:
 15417 758c 5F5F5449 		.ascii	"__TIMER_11XX_H_ \000"
 15417      4D45525F 
 15417      31315858 
 15417      5F485F20 
 15417      00
 15418              	.LASF374:
 15419 759d 5F444546 		.ascii	"_DEFAULT_SOURCE\000"
 15419      41554C54 
 15419      5F534F55 
 15419      52434500 
 15420              	.LASF151:
 15421 75ad 5F5F4442 		.ascii	"__DBL_HAS_QUIET_NAN__ 1\000"
 15421      4C5F4841 
 15421      535F5155 
 15421      4945545F 
 15421      4E414E5F 
 15422              	.LASF751:
 15423 75c5 46554E43 		.ascii	"FUNC0 0x0\000"
 15423      30203078 
 15423      3000
 15424              	.LASF1044:
 15425 75cf 53444F5F 		.ascii	"SDO_ABORT_SDOTIMEOUT 0x05040000UL\000"
 15425      41424F52 
 15425      545F5344 
 15425      4F54494D 
ARM GAS  /tmp/ccGKa4GA.s 			page 378


 15425      454F5554 
 15426              	.LASF846:
 15427 75f1 55415254 		.ascii	"UART_MSR_DELTA_DSR (1 << 1)\000"
 15427      5F4D5352 
 15427      5F44454C 
 15427      54415F44 
 15427      53522028 
 15428              	.LASF224:
 15429 760d 5F5F554C 		.ascii	"__ULLFRACT_MIN__ 0.0ULLR\000"
 15429      4C465241 
 15429      43545F4D 
 15429      494E5F5F 
 15429      20302E30 
 15430              	.LASF1283:
 15431 7626 72657365 		.ascii	"resetSSP\000"
 15431      74535350 
 15431      00
 15432              	.LASF693:
 15433 762f 53595343 		.ascii	"SYSCTL_RST_SYSRST (1 << 4)\000"
 15433      544C5F52 
 15433      53545F53 
 15433      59535253 
 15433      54202831 
 15434              	.LASF697:
 15435 764a 53595343 		.ascii	"SYSCTL_SLPWAKE_IRCOUT_PD (1 << 0)\000"
 15435      544C5F53 
 15435      4C505741 
 15435      4B455F49 
 15435      52434F55 
 15436              	.LASF666:
 15437 766c 4C50435F 		.ascii	"LPC_USART ((LPC_USART_T *) LPC_USART_BASE)\000"
 15437      55534152 
 15437      54202828 
 15437      4C50435F 
 15437      55534152 
 15438              	.LASF284:
 15439 7697 5F5F5544 		.ascii	"__UDQ_IBIT__ 0\000"
 15439      515F4942 
 15439      49545F5F 
 15439      203000
 15440              	.LASF14:
 15441 76a6 5F5F5349 		.ascii	"__SIZEOF_INT__ 4\000"
 15441      5A454F46 
 15441      5F494E54 
 15441      5F5F2034 
 15441      00
 15442              	.LASF218:
 15443 76b7 5F5F4C4C 		.ascii	"__LLFRACT_IBIT__ 0\000"
 15443      46524143 
 15443      545F4942 
 15443      49545F5F 
 15443      203000
 15444              	.LASF511:
 15445 76ca 55494E54 		.ascii	"UINT16_C(x) __UINT16_C(x)\000"
 15445      31365F43 
 15445      28782920 
 15445      5F5F5549 
ARM GAS  /tmp/ccGKa4GA.s 			page 379


 15445      4E543136 
 15446              	.LASF1000:
 15447 76e4 4932435F 		.ascii	"I2C_I2STAT_S_TX_LAST_DAT_ACK ((0xC8))\000"
 15447      49325354 
 15447      41545F53 
 15447      5F54585F 
 15447      4C415354 
 15448              	.LASF1181:
 15449 770a 53595343 		.ascii	"SYSCTL_CLOCK_CT16B0\000"
 15449      544C5F43 
 15449      4C4F434B 
 15449      5F435431 
 15449      36423000 
 15450              	.LASF1086:
 15451 771e 75696E74 		.ascii	"uint32_t\000"
 15451      33325F74 
 15451      00
 15452              	.LASF1166:
 15453 7727 52455345 		.ascii	"RESET_TIMER0_16\000"
 15453      545F5449 
 15453      4D455230 
 15453      5F313600 
 15454              	.LASF874:
 15455 7737 55415254 		.ascii	"UART_SCICTRL_NACKDIS (1 << 1)\000"
 15455      5F534349 
 15455      4354524C 
 15455      5F4E4143 
 15455      4B444953 
 15456              	.LASF403:
 15457 7755 5F535953 		.ascii	"_SYS__INTSUP_H \000"
 15457      5F5F494E 
 15457      54535550 
 15457      5F482000 
 15458              	.LASF1151:
 15459 7765 53544152 		.ascii	"STARTSRP0\000"
 15459      54535250 
 15459      3000
 15460              	.LASF620:
 15461 776f 53797354 		.ascii	"SysTick_LOAD_RELOAD_Pos 0\000"
 15461      69636B5F 
 15461      4C4F4144 
 15461      5F52454C 
 15461      4F41445F 
 15462              	.LASF231:
 15463 7789 5F5F5341 		.ascii	"__SACCUM_EPSILON__ 0x1P-7HK\000"
 15463      4343554D 
 15463      5F455053 
 15463      494C4F4E 
 15463      5F5F2030 
 15464              	.LASF743:
 15465 77a5 4D445F41 		.ascii	"MD_ADMODE (0x0 << 7)\000"
 15465      444D4F44 
 15465      45202830 
 15465      7830203C 
 15465      3C203729 
 15466              	.LASF685:
 15467 77ba 504D555F 		.ascii	"PMU_PCON_SLEEPFLAG (1 << 8)\000"
ARM GAS  /tmp/ccGKa4GA.s 			page 380


 15467      50434F4E 
 15467      5F534C45 
 15467      4550464C 
 15467      41472028 
 15468              	.LASF401:
 15469 77d6 5F5F5F69 		.ascii	"___int_least64_t_defined 1\000"
 15469      6E745F6C 
 15469      65617374 
 15469      36345F74 
 15469      5F646566 
 15470              	.LASF494:
 15471 77f1 494E545F 		.ascii	"INT_FAST64_MAX (__INT_FAST64_MAX__)\000"
 15471      46415354 
 15471      36345F4D 
 15471      41582028 
 15471      5F5F494E 
 15472              	.LASF1276:
 15473 7815 43686970 		.ascii	"Chip_SSP_RWFrames_Blocking\000"
 15473      5F535350 
 15473      5F525746 
 15473      72616D65 
 15473      735F426C 
 15474              	.LASF777:
 15475 7830 55415254 		.ascii	"UART_DLL_MASKBIT (0xFF)\000"
 15475      5F444C4C 
 15475      5F4D4153 
 15475      4B424954 
 15475      20283078 
 15476              	.LASF1288:
 15477 7848 72446174 		.ascii	"rDat\000"
 15477      00
 15478              	.LASF545:
 15479 784d 5F5F4E56 		.ascii	"__NVIC_PRIO_BITS 2\000"
 15479      49435F50 
 15479      52494F5F 
 15479      42495453 
 15479      203200
 15480              	.LASF1280:
 15481 7860 73737043 		.ascii	"sspCLK\000"
 15481      4C4B00
 15482              	.LASF1282:
 15483 7867 43686970 		.ascii	"Chip_SSP_GetResetIndex\000"
 15483      5F535350 
 15483      5F476574 
 15483      52657365 
 15483      74496E64 
 15484              	.LASF627:
 15485 787e 53797354 		.ascii	"SysTick_CALIB_SKEW_Msk (1UL << SysTick_CALIB_SKEW_P"
 15485      69636B5F 
 15485      43414C49 
 15485      425F534B 
 15485      45575F4D 
 15486 78b1 6F732900 		.ascii	"os)\000"
 15487              	.LASF296:
 15488 78b5 5F5F5548 		.ascii	"__UHA_IBIT__ 8\000"
 15488      415F4942 
 15488      49545F5F 
ARM GAS  /tmp/ccGKa4GA.s 			page 381


 15488      203800
 15489              	.LASF367:
 15490 78c4 5F4E4557 		.ascii	"_NEWLIB_VERSION_H__ 1\000"
 15490      4C49425F 
 15490      56455253 
 15490      494F4E5F 
 15490      485F5F20 
 15491              	.LASF241:
 15492 78da 5F5F4143 		.ascii	"__ACCUM_EPSILON__ 0x1P-15K\000"
 15492      43554D5F 
 15492      45505349 
 15492      4C4F4E5F 
 15492      5F203078 
 15493              	.LASF256:
 15494 78f5 5F5F554C 		.ascii	"__ULACCUM_EPSILON__ 0x1P-32ULK\000"
 15494      41434355 
 15494      4D5F4550 
 15494      53494C4F 
 15494      4E5F5F20 
 15495              	.LASF153:
 15496 7914 5F5F4C44 		.ascii	"__LDBL_DIG__ 15\000"
 15496      424C5F44 
 15496      49475F5F 
 15496      20313500 
 15497              	.LASF1105:
 15498 7924 5744544F 		.ascii	"WDTOSCCTRL\000"
 15498      53434354 
 15498      524C00
 15499              	.LASF835:
 15500 792f 55415254 		.ascii	"UART_LSR_OE (1 << 1)\000"
 15500      5F4C5352 
 15500      5F4F4520 
 15500      2831203C 
 15500      3C203129 
 15501              	.LASF1005:
 15502 7944 4932435F 		.ascii	"I2C_I2MMCTRL_ENA_SCL ((1 << 1))\000"
 15502      49324D4D 
 15502      4354524C 
 15502      5F454E41 
 15502      5F53434C 
 15503              	.LASF1135:
 15504 7964 434C4B4F 		.ascii	"CLKOUTDIV\000"
 15504      55544449 
 15504      5600
 15505              	.LASF76:
 15506 796e 5F5F5749 		.ascii	"__WINT_MIN__ 0U\000"
 15506      4E545F4D 
 15506      494E5F5F 
 15506      20305500 
 15507              	.LASF1216:
 15508 797e 5353505F 		.ascii	"SSP_INTCLEAR_T\000"
 15508      494E5443 
 15508      4C454152 
 15508      5F5400
 15509              	.LASF178:
 15510 798d 5F5F4445 		.ascii	"__DEC64_EPSILON__ 1E-15DD\000"
 15510      4336345F 
ARM GAS  /tmp/ccGKa4GA.s 			page 382


 15510      45505349 
 15510      4C4F4E5F 
 15510      5F203145 
 15511              	.LASF75:
 15512 79a7 5F5F5749 		.ascii	"__WINT_MAX__ 0xffffffffU\000"
 15512      4E545F4D 
 15512      41585F5F 
 15512      20307866 
 15512      66666666 
 15513              	.LASF429:
 15514 79c0 5F5F4C45 		.ascii	"__LEAST16 \"h\"\000"
 15514      41535431 
 15514      36202268 
 15514      2200
 15515              	.LASF48:
 15516 79ce 5F5F494E 		.ascii	"__INT_LEAST16_TYPE__ short int\000"
 15516      545F4C45 
 15516      41535431 
 15516      365F5459 
 15516      50455F5F 
 15517              	.LASF1123:
 15518 79ed 53535031 		.ascii	"SSP1CLKDIV\000"
 15518      434C4B44 
 15518      495600
 15519              	.LASF698:
 15520 79f8 53595343 		.ascii	"SYSCTL_SLPWAKE_IRC_PD (1 << 1)\000"
 15520      544C5F53 
 15520      4C505741 
 15520      4B455F49 
 15520      52435F50 
 15521              	.LASF145:
 15522 7a17 5F5F4442 		.ascii	"__DBL_MAX__ ((double)1.7976931348623157e+308L)\000"
 15522      4C5F4D41 
 15522      585F5F20 
 15522      2828646F 
 15522      75626C65 
 15523              	.LASF1078:
 15524 7a46 73686F72 		.ascii	"short unsigned int\000"
 15524      7420756E 
 15524      7369676E 
 15524      65642069 
 15524      6E7400
 15525              	.LASF217:
 15526 7a59 5F5F4C4C 		.ascii	"__LLFRACT_FBIT__ 63\000"
 15526      46524143 
 15526      545F4642 
 15526      49545F5F 
 15526      20363300 
 15527              	.LASF563:
 15528 7a6d 5343425F 		.ascii	"SCB_CPUID_IMPLEMENTER_Msk (0xFFUL << SCB_CPUID_IMPL"
 15528      43505549 
 15528      445F494D 
 15528      504C454D 
 15528      454E5445 
 15529 7aa0 454D454E 		.ascii	"EMENTER_Pos)\000"
 15529      5445525F 
 15529      506F7329 
ARM GAS  /tmp/ccGKa4GA.s 			page 383


 15529      00
 15530              	.LASF339:
 15531 7aad 5F5F7468 		.ascii	"__thumb__ 1\000"
 15531      756D625F 
 15531      5F203100 
 15532              	.LASF936:
 15533 7ab9 4144435F 		.ascii	"ADC_CR_PDN ((1UL << 21))\000"
 15533      43525F50 
 15533      444E2028 
 15533      2831554C 
 15533      203C3C20 
 15534              	.LASF885:
 15535 7ad2 55415254 		.ascii	"UART_SYNCCTRL_FES (1 << 2)\000"
 15535      5F53594E 
 15535      43435452 
 15535      4C5F4645 
 15535      53202831 
 15536              	.LASF343:
 15537 7aed 5F5F4152 		.ascii	"__ARMEL__ 1\000"
 15537      4D454C5F 
 15537      5F203100 
 15538              	.LASF889:
 15539 7af9 55415254 		.ascii	"UART_SYNCCTRL_CCCLR (1 << 6)\000"
 15539      5F53594E 
 15539      43435452 
 15539      4C5F4343 
 15539      434C5220 
 15540              	.LASF269:
 15541 7b16 5F5F4851 		.ascii	"__HQ_FBIT__ 15\000"
 15541      5F464249 
 15541      545F5F20 
 15541      313500
 15542              	.LASF523:
 15543 7b25 5F5F626F 		.ascii	"__bool_true_false_are_defined 1\000"
 15543      6F6C5F74 
 15543      7275655F 
 15543      66616C73 
 15543      655F6172 
 15544              	.LASF988:
 15545 7b45 4932435F 		.ascii	"I2C_I2STAT_S_RX_ARB_LOST_M_SLA ((0x68))\000"
 15545      49325354 
 15545      41545F53 
 15545      5F52585F 
 15545      4152425F 
 15546              	.LASF419:
 15547 7b6d 5F494E54 		.ascii	"_INT32_EQ_LONG \000"
 15547      33325F45 
 15547      515F4C4F 
 15547      4E472000 
 15548              	.LASF598:
 15549 7b7d 5343425F 		.ascii	"SCB_AIRCR_VECTCLRACTIVE_Pos 1\000"
 15549      41495243 
 15549      525F5645 
 15549      4354434C 
 15549      52414354 
 15550              	.LASF961:
 15551 7b9b 4932435F 		.ascii	"I2C_I2CONCLR_STOC ((1 << 4))\000"
ARM GAS  /tmp/ccGKa4GA.s 			page 384


 15551      4932434F 
 15551      4E434C52 
 15551      5F53544F 
 15551      43202828 
 15552              	.LASF78:
 15553 7bb8 5F5F5349 		.ascii	"__SIZE_MAX__ 0xffffffffU\000"
 15553      5A455F4D 
 15553      41585F5F 
 15553      20307866 
 15553      66666666 
 15554              	.LASF1260:
 15555 7bd1 636D705F 		.ascii	"cmp_clk\000"
 15555      636C6B00 
 15556              	.LASF325:
 15557 7bd9 5F5F4152 		.ascii	"__ARM_FEATURE_SAT\000"
 15557      4D5F4645 
 15557      41545552 
 15557      455F5341 
 15557      5400
 15558              	.LASF1049:
 15559 7beb 53444F5F 		.ascii	"SDO_ABORT_NOT_EXISTS 0x06020000UL\000"
 15559      41424F52 
 15559      545F4E4F 
 15559      545F4558 
 15559      49535453 
 15560              	.LASF634:
 15561 7c0d 53434220 		.ascii	"SCB ((SCB_Type *) SCB_BASE )\000"
 15561      28285343 
 15561      425F5479 
 15561      7065202A 
 15561      29205343 
 15562              	.LASF1273:
 15563 7c2a 43686970 		.ascii	"Chip_SSP_WriteFrames_Blocking\000"
 15563      5F535350 
 15563      5F577269 
 15563      74654672 
 15563      616D6573 
 15564              	.LASF869:
 15565 7c48 55415254 		.ascii	"UART_ICR_FIXPULSE_EN (1 << 2)\000"
 15565      5F494352 
 15565      5F464958 
 15565      50554C53 
 15565      455F454E 
 15566              	.LASF1065:
 15567 7c66 43414E5F 		.ascii	"CAN_SDOREQ_NOTHANDLED 0\000"
 15567      53444F52 
 15567      45515F4E 
 15567      4F544841 
 15567      4E444C45 
 15568              	.LASF462:
 15569 7c7e 55494E54 		.ascii	"UINT8_MAX (__UINT8_MAX__)\000"
 15569      385F4D41 
 15569      5820285F 
 15569      5F55494E 
 15569      54385F4D 
 15570              	.LASF71:
 15571 7c98 5F5F4C4F 		.ascii	"__LONG_MAX__ 0x7fffffffL\000"
ARM GAS  /tmp/ccGKa4GA.s 			page 385


 15571      4E475F4D 
 15571      41585F5F 
 15571      20307837 
 15571      66666666 
 15572              	.LASF558:
 15573 7cb1 5F5F434F 		.ascii	"__CORE_CM0_H_DEPENDANT \000"
 15573      52455F43 
 15573      4D305F48 
 15573      5F444550 
 15573      454E4441 
 15574              	.LASF449:
 15575 7cc9 5F5F696E 		.ascii	"__int_least8_t_defined 1\000"
 15575      745F6C65 
 15575      61737438 
 15575      5F745F64 
 15575      6566696E 
 15576              	.LASF1230:
 15577 7ce2 43484950 		.ascii	"CHIP_SSP_BITS\000"
 15577      5F535350 
 15577      5F424954 
 15577      5300
 15578              	.LASF716:
 15579 7cf0 494F434F 		.ascii	"IOCON_FUNC0 0x0\000"
 15579      4E5F4655 
 15579      4E433020 
 15579      30783000 
 15580              	.LASF417:
 15581 7d00 6C6F6E67 		.ascii	"long +4\000"
 15581      202B3400 
 15582              	.LASF1209:
 15583 7d08 5353505F 		.ascii	"SSP_TXRIS\000"
 15583      54585249 
 15583      5300
 15584              	.LASF644:
 15585 7d12 4C50435F 		.ascii	"LPC_TIMER16_1_BASE 0x40010000\000"
 15585      54494D45 
 15585      5231365F 
 15585      315F4241 
 15585      53452030 
 15586              	.LASF1261:
 15587 7d30 70726573 		.ascii	"prescale\000"
 15587      63616C65 
 15587      00
 15588              	.LASF996:
 15589 7d39 4932435F 		.ascii	"I2C_I2STAT_S_TX_SLAR_ACK ((0xA8))\000"
 15589      49325354 
 15589      41545F53 
 15589      5F54585F 
 15589      534C4152 
 15590              	.LASF1140:
 15591 7d5b 53595354 		.ascii	"SYSTCKCAL\000"
 15591      434B4341 
 15591      4C00
 15592              	.LASF914:
 15593 7d65 5353505F 		.ascii	"SSP_CPSR_BITMASK ((uint32_t) (0xFF))\000"
 15593      43505352 
 15593      5F424954 
ARM GAS  /tmp/ccGKa4GA.s 			page 386


 15593      4D41534B 
 15593      20282875 
 15594              	.LASF30:
 15595 7d8a 5F5F5349 		.ascii	"__SIZE_TYPE__ unsigned int\000"
 15595      5A455F54 
 15595      5950455F 
 15595      5F20756E 
 15595      7369676E 
 15596              	.LASF34:
 15597 7da5 5F5F494E 		.ascii	"__INTMAX_TYPE__ long long int\000"
 15597      544D4158 
 15597      5F545950 
 15597      455F5F20 
 15597      6C6F6E67 
 15598              	.LASF888:
 15599 7dc3 55415254 		.ascii	"UART_SYNCCTRL_STARTSTOPDISABLE (1 << 5)\000"
 15599      5F53594E 
 15599      43435452 
 15599      4C5F5354 
 15599      41525453 
 15600              	.LASF1125:
 15601 7deb 55534243 		.ascii	"USBCLKSEL\000"
 15601      4C4B5345 
 15601      4C00
 15602              	.LASF1055:
 15603 7df5 53444F5F 		.ascii	"SDO_ABORT_TRANSFER 0x08000020UL\000"
 15603      41424F52 
 15603      545F5452 
 15603      414E5346 
 15603      45522030 
 15604              	.LASF190:
 15605 7e15 5F5F5346 		.ascii	"__SFRACT_MAX__ 0X7FP-7HR\000"
 15605      52414354 
 15605      5F4D4158 
 15605      5F5F2030 
 15605      58374650 
 15606              	.LASF770:
 15607 7e2e 54494D45 		.ascii	"TIMER_INT_ON_CAP(n) (_BIT((((n) * 3) + 2)))\000"
 15607      525F494E 
 15607      545F4F4E 
 15607      5F434150 
 15607      286E2920 
 15608              	.LASF357:
 15609 7e5a 5F5F4152 		.ascii	"__ARM_ASM_SYNTAX_UNIFIED__\000"
 15609      4D5F4153 
 15609      4D5F5359 
 15609      4E544158 
 15609      5F554E49 
 15610              	.LASF1279:
 15611 7e75 74656D70 		.ascii	"temp\000"
 15611      00
 15612              	.LASF913:
 15613 7e7a 5353505F 		.ascii	"SSP_CR1_BITMASK ((uint32_t) (0x0F))\000"
 15613      4352315F 
 15613      4249544D 
 15613      41534B20 
 15613      28287569 
ARM GAS  /tmp/ccGKa4GA.s 			page 387


 15614              	.LASF96:
 15615 7e9e 5F5F494E 		.ascii	"__INT16_C(c) c\000"
 15615      5431365F 
 15615      43286329 
 15615      206300
 15616              	.LASF1168:
 15617 7ead 52455345 		.ascii	"RESET_TIMER0_32\000"
 15617      545F5449 
 15617      4D455230 
 15617      5F333200 
 15618              	.LASF1038:
 15619 7ebd 43414E5F 		.ascii	"CAN_ERROR_CRC 0x00000100UL\000"
 15619      4552524F 
 15619      525F4352 
 15619      43203078 
 15619      30303030 
 15620              	.LASF292:
 15621 7ed8 5F5F4441 		.ascii	"__DA_IBIT__ 32\000"
 15621      5F494249 
 15621      545F5F20 
 15621      333200
 15622              	.LASF1035:
 15623 7ee7 43414E5F 		.ascii	"CAN_ERROR_ACK 0x00000020UL\000"
 15623      4552524F 
 15623      525F4143 
 15623      4B203078 
 15623      30303030 
 15624              	.LASF1297:
 15625 7f02 636C6F63 		.ascii	"clockMode\000"
 15625      6B4D6F64 
 15625      6500
 15626              	.LASF174:
 15627 7f0c 5F5F4445 		.ascii	"__DEC64_MIN_EXP__ (-382)\000"
 15627      4336345F 
 15627      4D494E5F 
 15627      4558505F 
 15627      5F20282D 
 15628              	.LASF601:
 15629 7f25 5343425F 		.ascii	"SCB_SCR_SEVONPEND_Msk (1UL << SCB_SCR_SEVONPEND_Pos"
 15629      5343525F 
 15629      5345564F 
 15629      4E50454E 
 15629      445F4D73 
 15630 7f58 2900     		.ascii	")\000"
 15631              	.LASF795:
 15632 7f5a 55415254 		.ascii	"UART_IIR_INTID_MASK (7 << 1)\000"
 15632      5F494952 
 15632      5F494E54 
 15632      49445F4D 
 15632      41534B20 
 15633              	.LASF10:
 15634 7f77 5F5F4154 		.ascii	"__ATOMIC_ACQ_REL 4\000"
 15634      4F4D4943 
 15634      5F414351 
 15634      5F52454C 
 15634      203400
 15635              	.LASF41:
ARM GAS  /tmp/ccGKa4GA.s 			page 388


 15636 7f8a 5F5F494E 		.ascii	"__INT32_TYPE__ long int\000"
 15636      5433325F 
 15636      54595045 
 15636      5F5F206C 
 15636      6F6E6720 
 15637              	.LASF362:
 15638 7fa2 5F5F4348 		.ascii	"__CHIP_H_ \000"
 15638      49505F48 
 15638      5F2000
 15639              	.LASF141:
 15640 7fad 5F5F4442 		.ascii	"__DBL_MIN_10_EXP__ (-307)\000"
 15640      4C5F4D49 
 15640      4E5F3130 
 15640      5F455850 
 15640      5F5F2028 
 15641              	.LASF922:
 15642 7fc7 5353505F 		.ascii	"SSP_SLAVE_MODE SSP_CR1_SLAVE_EN\000"
 15642      534C4156 
 15642      455F4D4F 
 15642      44452053 
 15642      53505F43 
 15643              	.LASF593:
 15644 7fe7 5343425F 		.ascii	"SCB_AIRCR_VECTKEYSTAT_Msk (0xFFFFUL << SCB_AIRCR_VE"
 15644      41495243 
 15644      525F5645 
 15644      43544B45 
 15644      59535441 
 15645 801a 43544B45 		.ascii	"CTKEYSTAT_Pos)\000"
 15645      59535441 
 15645      545F506F 
 15645      732900
 15646              	.LASF694:
 15647 8029 53595343 		.ascii	"SYSCTL_NMISRC_ENABLE ((uint32_t) 1 << 31)\000"
 15647      544C5F4E 
 15647      4D495352 
 15647      435F454E 
 15647      41424C45 
 15648              	.LASF758:
 15649 8053 46554E43 		.ascii	"FUNC7 0x7\000"
 15649      37203078 
 15649      3700
 15650              	.LASF409:
 15651 805d 5F5F696E 		.ascii	"__int20\000"
 15651      74323000 
 15652              	.LASF1161:
 15653 8065 52455345 		.ascii	"RESET_SSP0\000"
 15653      545F5353 
 15653      503000
 15654              	.LASF1163:
 15655 8070 52455345 		.ascii	"RESET_SSP1\000"
 15655      545F5353 
 15655      503100
 15656              	.LASF491:
 15657 807b 494E545F 		.ascii	"INT_FAST32_MAX (__INT_FAST32_MAX__)\000"
 15657      46415354 
 15657      33325F4D 
 15657      41582028 
ARM GAS  /tmp/ccGKa4GA.s 			page 389


 15657      5F5F494E 
 15658              	.LASF852:
 15659 809f 55415254 		.ascii	"UART_MSR_DCD (1 << 7)\000"
 15659      5F4D5352 
 15659      5F444344 
 15659      20283120 
 15659      3C3C2037 
 15660              	.LASF1028:
 15661 80b5 5F5F4343 		.ascii	"__CCAND_11XX_H_ \000"
 15661      414E445F 
 15661      31315858 
 15661      5F485F20 
 15661      00
 15662              	.LASF378:
 15663 80c6 5F504F53 		.ascii	"_POSIX_C_SOURCE\000"
 15663      49585F43 
 15663      5F534F55 
 15663      52434500 
 15664              	.LASF81:
 15665 80d6 5F5F5549 		.ascii	"__UINTMAX_MAX__ 0xffffffffffffffffULL\000"
 15665      4E544D41 
 15665      585F4D41 
 15665      585F5F20 
 15665      30786666 
 15666              	.LASF1191:
 15667 80fc 53595343 		.ascii	"SYSCTL_CLOCK_CAN\000"
 15667      544C5F43 
 15667      4C4F434B 
 15667      5F43414E 
 15667      00
 15668              	.LASF138:
 15669 810d 5F5F4442 		.ascii	"__DBL_MANT_DIG__ 53\000"
 15669      4C5F4D41 
 15669      4E545F44 
 15669      49475F5F 
 15669      20353300 
 15670              	.LASF213:
 15671 8121 5F5F554C 		.ascii	"__ULFRACT_IBIT__ 0\000"
 15671      46524143 
 15671      545F4942 
 15671      49545F5F 
 15671      203000
 15672              	.LASF1246:
 15673 8134 5353505F 		.ascii	"SSP_MODE_SLAVE\000"
 15673      4D4F4445 
 15673      5F534C41 
 15673      564500
 15674              	.LASF934:
 15675 8143 4144435F 		.ascii	"ADC_CR_CLKDIV(n) ((((n) & 0xFF) << 8))\000"
 15675      43525F43 
 15675      4C4B4449 
 15675      56286E29 
 15675      20282828 
 15676              	.LASF764:
 15677 816a 54494D45 		.ascii	"TIMER_RESET ((uint32_t) (1 << 1))\000"
 15677      525F5245 
 15677      53455420 
ARM GAS  /tmp/ccGKa4GA.s 			page 390


 15677      28287569 
 15677      6E743332 
 15678              	.LASF817:
 15679 818c 55415254 		.ascii	"UART_LCR_SBS_1BIT (0 << 2)\000"
 15679      5F4C4352 
 15679      5F534253 
 15679      5F314249 
 15679      54202830 
 15680              	.LASF70:
 15681 81a7 5F5F494E 		.ascii	"__INT_MAX__ 0x7fffffff\000"
 15681      545F4D41 
 15681      585F5F20 
 15681      30783766 
 15681      66666666 
 15682              	.LASF50:
 15683 81be 5F5F494E 		.ascii	"__INT_LEAST64_TYPE__ long long int\000"
 15683      545F4C45 
 15683      41535436 
 15683      345F5459 
 15683      50455F5F 
 15684              	.LASF793:
 15685 81e1 55415254 		.ascii	"UART_IIR_ABTO_INT (1 << 9)\000"
 15685      5F494952 
 15685      5F414254 
 15685      4F5F494E 
 15685      54202831 
 15686              	.LASF1231:
 15687 81fc 5353505F 		.ascii	"SSP_BITS_4\000"
 15687      42495453 
 15687      5F3400
 15688              	.LASF1205:
 15689 8207 5F535350 		.ascii	"_SSP_RAWINTSTATUS\000"
 15689      5F524157 
 15689      494E5453 
 15689      54415455 
 15689      5300
 15690              	.LASF1233:
 15691 8219 5353505F 		.ascii	"SSP_BITS_6\000"
 15691      42495453 
 15691      5F3600
 15692              	.LASF1234:
 15693 8224 5353505F 		.ascii	"SSP_BITS_7\000"
 15693      42495453 
 15693      5F3700
 15694              	.LASF1235:
 15695 822f 5353505F 		.ascii	"SSP_BITS_8\000"
 15695      42495453 
 15695      5F3800
 15696              	.LASF1236:
 15697 823a 5353505F 		.ascii	"SSP_BITS_9\000"
 15697      42495453 
 15697      5F3900
 15698              	.LASF849:
 15699 8245 55415254 		.ascii	"UART_MSR_CTS (1 << 4)\000"
 15699      5F4D5352 
 15699      5F435453 
 15699      20283120 
ARM GAS  /tmp/ccGKa4GA.s 			page 391


 15699      3C3C2034 
 15700              	.LASF1015:
 15701 825b 4932435F 		.ascii	"I2C_SETUP_STATUS_NOACKF (1 << 9)\000"
 15701      53455455 
 15701      505F5354 
 15701      41545553 
 15701      5F4E4F41 
 15702              		.ident	"GCC: (GNU Tools for ARM Embedded Processors) 6.2.1 20161205 (release) [ARM/embedded-6-bran
ARM GAS  /tmp/ccGKa4GA.s 			page 392


DEFINED SYMBOLS
                            *ABS*:0000000000000000 ssp_11xx.c
     /tmp/ccGKa4GA.s:72     .text.Chip_SSP_SetClockRate:0000000000000000 $t
     /tmp/ccGKa4GA.s:80     .text.Chip_SSP_SetClockRate:0000000000000000 Chip_SSP_SetClockRate
     /tmp/ccGKa4GA.s:115    .text.Chip_SSP_SetClockRate:0000000000000014 $d
     /tmp/ccGKa4GA.s:120    .text.Chip_SSP_RWFrames_Blocking:0000000000000000 $t
     /tmp/ccGKa4GA.s:128    .text.Chip_SSP_RWFrames_Blocking:0000000000000000 Chip_SSP_RWFrames_Blocking
     /tmp/ccGKa4GA.s:632    .text.Chip_SSP_RWFrames_Blocking:0000000000000144 $d
     /tmp/ccGKa4GA.s:641    .text.Chip_SSP_WriteFrames_Blocking:0000000000000000 $t
     /tmp/ccGKa4GA.s:649    .text.Chip_SSP_WriteFrames_Blocking:0000000000000000 Chip_SSP_WriteFrames_Blocking
     /tmp/ccGKa4GA.s:1015   .text.Chip_SSP_ReadFrames_Blocking:0000000000000000 $t
     /tmp/ccGKa4GA.s:1023   .text.Chip_SSP_ReadFrames_Blocking:0000000000000000 Chip_SSP_ReadFrames_Blocking
     /tmp/ccGKa4GA.s:1424   .text.Chip_SSP_ReadFrames_Blocking:00000000000000dc $d
     /tmp/ccGKa4GA.s:1432   .text.Chip_SSP_Int_FlushData:0000000000000000 $t
     /tmp/ccGKa4GA.s:1440   .text.Chip_SSP_Int_FlushData:0000000000000000 Chip_SSP_Int_FlushData
     /tmp/ccGKa4GA.s:1531   .text.Chip_SSP_Int_RWFrames8Bits:0000000000000000 $t
     /tmp/ccGKa4GA.s:1539   .text.Chip_SSP_Int_RWFrames8Bits:0000000000000000 Chip_SSP_Int_RWFrames8Bits
     /tmp/ccGKa4GA.s:1847   .text.Chip_SSP_Int_RWFrames16Bits:0000000000000000 $t
     /tmp/ccGKa4GA.s:1855   .text.Chip_SSP_Int_RWFrames16Bits:0000000000000000 Chip_SSP_Int_RWFrames16Bits
     /tmp/ccGKa4GA.s:2198   .text.Chip_SSP_Int_RWFrames16Bits:00000000000000c4 $d
     /tmp/ccGKa4GA.s:2203   .text.Chip_SSP_SetMaster:0000000000000000 $t
     /tmp/ccGKa4GA.s:2211   .text.Chip_SSP_SetMaster:0000000000000000 Chip_SSP_SetMaster
     /tmp/ccGKa4GA.s:2257   .text.Chip_SSP_SetBitRate:0000000000000000 $t
     /tmp/ccGKa4GA.s:2265   .text.Chip_SSP_SetBitRate:0000000000000000 Chip_SSP_SetBitRate
     /tmp/ccGKa4GA.s:2414   .text.Chip_SSP_SetBitRate:0000000000000074 $d
     /tmp/ccGKa4GA.s:2421   .text.Chip_SSP_Init:0000000000000000 $t
     /tmp/ccGKa4GA.s:2429   .text.Chip_SSP_Init:0000000000000000 Chip_SSP_Init
     /tmp/ccGKa4GA.s:2575   .text.Chip_SSP_Init:0000000000000064 $d
     /tmp/ccGKa4GA.s:2585   .text.Chip_SSP_DeInit:0000000000000000 $t
     /tmp/ccGKa4GA.s:2593   .text.Chip_SSP_DeInit:0000000000000000 Chip_SSP_DeInit
     /tmp/ccGKa4GA.s:2674   .text.Chip_SSP_DeInit:0000000000000038 $d
                     .debug_frame:0000000000000010 $d
                           .group:0000000000000000 wm4.0.adead285382a0a5b53a07cb69e17d027
                           .group:0000000000000000 wm4._newlib_version.h.4.ad342815780c8db09778091a421b5b5b
                           .group:0000000000000000 wm4.features.h.33.863f3be0b2e521e624fcc7d6fa31d2ca
                           .group:0000000000000000 wm4._default_types.h.15.247e5cd201eca3442cbf5404108c4935
                           .group:0000000000000000 wm4._intsup.h.10.cce27fed8484c08a33f522034c30d2b5
                           .group:0000000000000000 wm4._stdint.h.10.c24fa3af3bc1706662bb5593a907e841
                           .group:0000000000000000 wm4.stdint.h.23.d53047a68f4a85177f80b422d52785ed
                           .group:0000000000000000 wm4.stdbool.h.29.07dce69c3b78884144b7f7bd19483461
                           .group:0000000000000000 wm4.lpc_types.h.63.860ba57581a002825766a7c2ac00d549
                           .group:0000000000000000 wm4.sys_config.h.31.9f234e9c90333d233c7e647ebe63e928
                           .group:0000000000000000 wm4.cmsis_11cxx.h.33.407e9bbb5d170cd1552d3f7dc3fd5c42
                           .group:0000000000000000 wm4.core_cm0.h.32.192d13cfa8b31e63c86621de62eb153f
                           .group:0000000000000000 wm4.core_cm0.h.120.f4257ea7d0bce0cbabffe223e23b2fd4
                           .group:0000000000000000 wm4.chip.h.116.857da603c399e979152c31968de4baae
                           .group:0000000000000000 wm4.pmu_11xx.h.33.1d6b708881441cb98d19b8bab3caa180
                           .group:0000000000000000 wm4.sysctl_11xx.h.33.ae61a1181e608f8409883008e291930c
                           .group:0000000000000000 wm4.clock_11xx.h.33.23290a9e2ed919e3a6958d25130bc848
                           .group:0000000000000000 wm4.iocon_11xx.h.33.25e2b3cde122df23fb07b984cb4f3a93
                           .group:0000000000000000 wm4.timer_11xx.h.33.c92f50a9325789ee6a8ffd6248980d70
                           .group:0000000000000000 wm4.ring_buffer.h.33.2f271415f1f27d60350fb4738c5cbee6
                           .group:0000000000000000 wm4.uart_11xx.h.98.fe68b709973730a4fba3f3ce60c5c312
                           .group:0000000000000000 wm4.wwdt_11xx.h.33.5768344983cb842df69cc91ea86cabb0
                           .group:0000000000000000 wm4.ssp_11xx.h.33.af054d3d65f4cb0c078be40bb872ec37
                           .group:0000000000000000 wm4.error.h.38.ae74fe1dd9d19c80c505f1fda144fce8
                           .group:0000000000000000 wm4.adc_11xx.h.33.6ce7433ac6b30df70a6993d01dbd513f
ARM GAS  /tmp/ccGKa4GA.s 			page 393


                           .group:0000000000000000 wm4.i2c_11xx.h.33.2b506d1350e00a8c26e8bf006a5f9390
                           .group:0000000000000000 wm4.ccand_11xx.h.33.99627f4b529fecdc77b0877ab6fe5266

UNDEFINED SYMBOLS
__aeabi_uidiv
Chip_Clock_GetMainClockRate
