ARM GAS  /tmp/ccGKa4GA.s 			page 1


   1              		.cpu cortex-m0
   2              		.eabi_attribute 20, 1	@ Tag_ABI_FP_denormal
   3              		.eabi_attribute 21, 1	@ Tag_ABI_FP_exceptions
   4              		.eabi_attribute 23, 3	@ Tag_ABI_FP_number_model
   5              		.eabi_attribute 24, 1	@ Tag_ABI_align8_needed
   6              		.eabi_attribute 25, 1	@ Tag_ABI_align8_preserved
   7              		.eabi_attribute 26, 1	@ Tag_ABI_enum_size
   8              		.eabi_attribute 30, 2	@ Tag_ABI_optimization_goals
   9              		.eabi_attribute 34, 0	@ Tag_CPU_unaligned_access
  10              		.eabi_attribute 18, 4	@ Tag_ABI_PCS_wchar_t
  11              		.file	"ssp_11xx.c"
  12              	@ GNU C89 (GNU Tools for ARM Embedded Processors) version 6.2.1 20161205 (release) [ARM/embedded-6-
  13              	@	compiled by GNU C version 5.4.0 20160609, GMP version 6.1.0, MPFR version 3.1.4, MPC version 1.0.
  14              	@ GGC heuristics: --param ggc-min-expand=100 --param ggc-min-heapsize=131072
  15              	@ options passed:  -I . -I ../../lpc11cx4-library/lpc_chip_11cxx_lib/inc
  16              	@ -imultilib thumb/v6-m -iprefix /usr/bin/../lib/gcc/arm-none-eabi/6.2.1/
  17              	@ -isysroot /usr/bin/../arm-none-eabi -MD bin/ssp_11xx.d -MF bin/ssp_11xx.d
  18              	@ -MP -MQ bin/ssp_11xx.o -D__USES_INITFINI__ -D CORE_M0
  19              	@ ../../lpc11cx4-library/lpc_chip_11cxx_lib/src/ssp_11xx.c -mcpu=cortex-m0
  20              	@ -mthumb -auxbase-strip bin/ssp_11xx.o -g -ggdb3 -O2 -Wall
  21              	@ -Wstrict-prototypes -Wextra -std=gnu90 -ffunction-sections
  22              	@ -fdata-sections -fverbose-asm
  23              	@ options enabled:  -faggressive-loop-optimizations -falign-jumps
  24              	@ -falign-labels -falign-loops -fauto-inc-dec -fbranch-count-reg
  25              	@ -fcaller-saves -fchkp-check-incomplete-type -fchkp-check-read
  26              	@ -fchkp-check-write -fchkp-instrument-calls -fchkp-narrow-bounds
  27              	@ -fchkp-optimize -fchkp-store-bounds -fchkp-use-static-bounds
  28              	@ -fchkp-use-static-const-bounds -fchkp-use-wrappers
  29              	@ -fcombine-stack-adjustments -fcommon -fcompare-elim -fcprop-registers
  30              	@ -fcrossjumping -fcse-follow-jumps -fdata-sections -fdefer-pop
  31              	@ -fdelete-null-pointer-checks -fdevirtualize -fdevirtualize-speculatively
  32              	@ -fdwarf2-cfi-asm -fearly-inlining -feliminate-unused-debug-types
  33              	@ -fexpensive-optimizations -fforward-propagate -ffunction-cse
  34              	@ -ffunction-sections -fgcse -fgcse-lm -fgnu-runtime -fgnu-unique
  35              	@ -fguess-branch-probability -fhoist-adjacent-loads -fident -fif-conversion
  36              	@ -fif-conversion2 -findirect-inlining -finline -finline-atomics
  37              	@ -finline-functions-called-once -finline-small-functions -fipa-cp
  38              	@ -fipa-cp-alignment -fipa-icf -fipa-icf-functions -fipa-icf-variables
  39              	@ -fipa-profile -fipa-pure-const -fipa-reference -fipa-sra
  40              	@ -fira-hoist-pressure -fira-share-save-slots -fira-share-spill-slots
  41              	@ -fisolate-erroneous-paths-dereference -fivopts -fkeep-static-consts
  42              	@ -fleading-underscore -flifetime-dse -flra-remat -flto-odr-type-merging
  43              	@ -fmath-errno -fmerge-constants -fmerge-debug-strings
  44              	@ -fmove-loop-invariants -fomit-frame-pointer -foptimize-sibling-calls
  45              	@ -foptimize-strlen -fpartial-inlining -fpeephole -fpeephole2 -fplt
  46              	@ -fprefetch-loop-arrays -freg-struct-return -freorder-blocks
  47              	@ -freorder-functions -frerun-cse-after-loop
  48              	@ -fsched-critical-path-heuristic -fsched-dep-count-heuristic
  49              	@ -fsched-group-heuristic -fsched-interblock -fsched-last-insn-heuristic
  50              	@ -fsched-pressure -fsched-rank-heuristic -fsched-spec
  51              	@ -fsched-spec-insn-heuristic -fsched-stalled-insns-dep -fschedule-insns2
  52              	@ -fsection-anchors -fsemantic-interposition -fshow-column -fshrink-wrap
  53              	@ -fsigned-zeros -fsplit-ivs-in-unroller -fsplit-wide-types -fssa-backprop
  54              	@ -fssa-phiopt -fstdarg-opt -fstrict-aliasing -fstrict-overflow
  55              	@ -fstrict-volatile-bitfields -fsync-libcalls -fthread-jumps
  56              	@ -ftoplevel-reorder -ftrapping-math -ftree-bit-ccp -ftree-builtin-call-dce
  57              	@ -ftree-ccp -ftree-ch -ftree-coalesce-vars -ftree-copy-prop -ftree-cselim
ARM GAS  /tmp/ccGKa4GA.s 			page 2


  58              	@ -ftree-dce -ftree-dominator-opts -ftree-dse -ftree-forwprop -ftree-fre
  59              	@ -ftree-loop-if-convert -ftree-loop-im -ftree-loop-ivcanon
  60              	@ -ftree-loop-optimize -ftree-parallelize-loops= -ftree-phiprop -ftree-pre
  61              	@ -ftree-pta -ftree-reassoc -ftree-scev-cprop -ftree-sink -ftree-slsr
  62              	@ -ftree-sra -ftree-switch-conversion -ftree-tail-merge -ftree-ter
  63              	@ -ftree-vrp -funit-at-a-time -fvar-tracking -fvar-tracking-assignments
  64              	@ -fverbose-asm -fzero-initialized-in-bss -mlittle-endian
  65              	@ -mpic-data-is-text-relative -msched-prolog -mthumb
  66              	@ -mvectorize-with-neon-quad
  67              	
  68              		.text
  69              	.Ltext0:
  70              		.cfi_sections	.debug_frame
  71              		.section	.text.Chip_SSP_SetClockRate,"ax",%progbits
  72              		.align	1
  73              		.p2align 2,,3
  74              		.global	Chip_SSP_SetClockRate
  75              		.syntax unified
  76              		.code	16
  77              		.thumb_func
  78              		.fpu softvfp
  79              		.type	Chip_SSP_SetClockRate, %function
  80              	Chip_SSP_SetClockRate:
  81              	.LFB206:
  82              		.file 1 "../../lpc11cx4-library/lpc_chip_11cxx_lib/src/ssp_11xx.c"
   1:../../lpc11cx4-library/lpc_chip_11cxx_lib/src/ssp_11xx.c **** /*
   2:../../lpc11cx4-library/lpc_chip_11cxx_lib/src/ssp_11xx.c ****  * @brief LPC11xx SSP Registers and control functions
   3:../../lpc11cx4-library/lpc_chip_11cxx_lib/src/ssp_11xx.c ****  *
   4:../../lpc11cx4-library/lpc_chip_11cxx_lib/src/ssp_11xx.c ****  * @note
   5:../../lpc11cx4-library/lpc_chip_11cxx_lib/src/ssp_11xx.c ****  * Copyright(C) NXP Semiconductors, 2012
   6:../../lpc11cx4-library/lpc_chip_11cxx_lib/src/ssp_11xx.c ****  * All rights reserved.
   7:../../lpc11cx4-library/lpc_chip_11cxx_lib/src/ssp_11xx.c ****  *
   8:../../lpc11cx4-library/lpc_chip_11cxx_lib/src/ssp_11xx.c ****  * @par
   9:../../lpc11cx4-library/lpc_chip_11cxx_lib/src/ssp_11xx.c ****  * Software that is described herein is for illustrative purposes only
  10:../../lpc11cx4-library/lpc_chip_11cxx_lib/src/ssp_11xx.c ****  * which provides customers with programming information regarding the
  11:../../lpc11cx4-library/lpc_chip_11cxx_lib/src/ssp_11xx.c ****  * LPC products.  This software is supplied "AS IS" without any warranties of
  12:../../lpc11cx4-library/lpc_chip_11cxx_lib/src/ssp_11xx.c ****  * any kind, and NXP Semiconductors and its licensor disclaim any and
  13:../../lpc11cx4-library/lpc_chip_11cxx_lib/src/ssp_11xx.c ****  * all warranties, express or implied, including all implied warranties of
  14:../../lpc11cx4-library/lpc_chip_11cxx_lib/src/ssp_11xx.c ****  * merchantability, fitness for a particular purpose and non-infringement of
  15:../../lpc11cx4-library/lpc_chip_11cxx_lib/src/ssp_11xx.c ****  * intellectual property rights.  NXP Semiconductors assumes no responsibility
  16:../../lpc11cx4-library/lpc_chip_11cxx_lib/src/ssp_11xx.c ****  * or liability for the use of the software, conveys no license or rights under any
  17:../../lpc11cx4-library/lpc_chip_11cxx_lib/src/ssp_11xx.c ****  * patent, copyright, mask work right, or any other intellectual property rights in
  18:../../lpc11cx4-library/lpc_chip_11cxx_lib/src/ssp_11xx.c ****  * or to any products. NXP Semiconductors reserves the right to make changes
  19:../../lpc11cx4-library/lpc_chip_11cxx_lib/src/ssp_11xx.c ****  * in the software without notification. NXP Semiconductors also makes no
  20:../../lpc11cx4-library/lpc_chip_11cxx_lib/src/ssp_11xx.c ****  * representation or warranty that such application will be suitable for the
  21:../../lpc11cx4-library/lpc_chip_11cxx_lib/src/ssp_11xx.c ****  * specified use without further testing or modification.
  22:../../lpc11cx4-library/lpc_chip_11cxx_lib/src/ssp_11xx.c ****  *
  23:../../lpc11cx4-library/lpc_chip_11cxx_lib/src/ssp_11xx.c ****  * @par
  24:../../lpc11cx4-library/lpc_chip_11cxx_lib/src/ssp_11xx.c ****  * Permission to use, copy, modify, and distribute this software and its
  25:../../lpc11cx4-library/lpc_chip_11cxx_lib/src/ssp_11xx.c ****  * documentation is hereby granted, under NXP Semiconductors' and its
  26:../../lpc11cx4-library/lpc_chip_11cxx_lib/src/ssp_11xx.c ****  * licensor's relevant copyrights in the software, without fee, provided that it
  27:../../lpc11cx4-library/lpc_chip_11cxx_lib/src/ssp_11xx.c ****  * is used in conjunction with NXP Semiconductors microcontrollers.  This
  28:../../lpc11cx4-library/lpc_chip_11cxx_lib/src/ssp_11xx.c ****  * copyright, permission, and disclaimer notice must appear in all copies of
  29:../../lpc11cx4-library/lpc_chip_11cxx_lib/src/ssp_11xx.c ****  * this code.
  30:../../lpc11cx4-library/lpc_chip_11cxx_lib/src/ssp_11xx.c ****  */
  31:../../lpc11cx4-library/lpc_chip_11cxx_lib/src/ssp_11xx.c **** 
  32:../../lpc11cx4-library/lpc_chip_11cxx_lib/src/ssp_11xx.c **** #include "chip.h"
ARM GAS  /tmp/ccGKa4GA.s 			page 3


  33:../../lpc11cx4-library/lpc_chip_11cxx_lib/src/ssp_11xx.c **** 
  34:../../lpc11cx4-library/lpc_chip_11cxx_lib/src/ssp_11xx.c **** /*****************************************************************************
  35:../../lpc11cx4-library/lpc_chip_11cxx_lib/src/ssp_11xx.c ****  * Private types/enumerations/variables
  36:../../lpc11cx4-library/lpc_chip_11cxx_lib/src/ssp_11xx.c ****  ****************************************************************************/
  37:../../lpc11cx4-library/lpc_chip_11cxx_lib/src/ssp_11xx.c **** 
  38:../../lpc11cx4-library/lpc_chip_11cxx_lib/src/ssp_11xx.c **** /*****************************************************************************
  39:../../lpc11cx4-library/lpc_chip_11cxx_lib/src/ssp_11xx.c ****  * Public types/enumerations/variables
  40:../../lpc11cx4-library/lpc_chip_11cxx_lib/src/ssp_11xx.c ****  ****************************************************************************/
  41:../../lpc11cx4-library/lpc_chip_11cxx_lib/src/ssp_11xx.c **** 
  42:../../lpc11cx4-library/lpc_chip_11cxx_lib/src/ssp_11xx.c **** /*****************************************************************************
  43:../../lpc11cx4-library/lpc_chip_11cxx_lib/src/ssp_11xx.c ****  * Private functions
  44:../../lpc11cx4-library/lpc_chip_11cxx_lib/src/ssp_11xx.c ****  ****************************************************************************/
  45:../../lpc11cx4-library/lpc_chip_11cxx_lib/src/ssp_11xx.c **** 
  46:../../lpc11cx4-library/lpc_chip_11cxx_lib/src/ssp_11xx.c **** STATIC void SSP_Write2BFifo(LPC_SSP_T *pSSP, Chip_SSP_DATA_SETUP_T *xf_setup)
  47:../../lpc11cx4-library/lpc_chip_11cxx_lib/src/ssp_11xx.c **** {
  48:../../lpc11cx4-library/lpc_chip_11cxx_lib/src/ssp_11xx.c **** 	if (xf_setup->tx_data) {
  49:../../lpc11cx4-library/lpc_chip_11cxx_lib/src/ssp_11xx.c **** 		Chip_SSP_SendFrame(pSSP, (*(uint16_t *) ((uint32_t) xf_setup->tx_data +
  50:../../lpc11cx4-library/lpc_chip_11cxx_lib/src/ssp_11xx.c **** 												 xf_setup->tx_cnt)));
  51:../../lpc11cx4-library/lpc_chip_11cxx_lib/src/ssp_11xx.c **** 	}
  52:../../lpc11cx4-library/lpc_chip_11cxx_lib/src/ssp_11xx.c **** 	else {
  53:../../lpc11cx4-library/lpc_chip_11cxx_lib/src/ssp_11xx.c **** 		Chip_SSP_SendFrame(pSSP, 0xFFFF);
  54:../../lpc11cx4-library/lpc_chip_11cxx_lib/src/ssp_11xx.c **** 	}
  55:../../lpc11cx4-library/lpc_chip_11cxx_lib/src/ssp_11xx.c **** 
  56:../../lpc11cx4-library/lpc_chip_11cxx_lib/src/ssp_11xx.c **** 	xf_setup->tx_cnt += 2;
  57:../../lpc11cx4-library/lpc_chip_11cxx_lib/src/ssp_11xx.c **** }
  58:../../lpc11cx4-library/lpc_chip_11cxx_lib/src/ssp_11xx.c **** 
  59:../../lpc11cx4-library/lpc_chip_11cxx_lib/src/ssp_11xx.c **** /** SSP macro: write 1 bytes to FIFO buffer */
  60:../../lpc11cx4-library/lpc_chip_11cxx_lib/src/ssp_11xx.c **** STATIC void SSP_Write1BFifo(LPC_SSP_T *pSSP, Chip_SSP_DATA_SETUP_T *xf_setup)
  61:../../lpc11cx4-library/lpc_chip_11cxx_lib/src/ssp_11xx.c **** {
  62:../../lpc11cx4-library/lpc_chip_11cxx_lib/src/ssp_11xx.c **** 	if (xf_setup->tx_data) {
  63:../../lpc11cx4-library/lpc_chip_11cxx_lib/src/ssp_11xx.c **** 		Chip_SSP_SendFrame(pSSP, (*(uint8_t *) ((uint32_t) xf_setup->tx_data + xf_setup->tx_cnt)));
  64:../../lpc11cx4-library/lpc_chip_11cxx_lib/src/ssp_11xx.c **** 	}
  65:../../lpc11cx4-library/lpc_chip_11cxx_lib/src/ssp_11xx.c **** 	else {
  66:../../lpc11cx4-library/lpc_chip_11cxx_lib/src/ssp_11xx.c **** 		Chip_SSP_SendFrame(pSSP, 0xFF);
  67:../../lpc11cx4-library/lpc_chip_11cxx_lib/src/ssp_11xx.c **** 	}
  68:../../lpc11cx4-library/lpc_chip_11cxx_lib/src/ssp_11xx.c **** 
  69:../../lpc11cx4-library/lpc_chip_11cxx_lib/src/ssp_11xx.c **** 	xf_setup->tx_cnt++;
  70:../../lpc11cx4-library/lpc_chip_11cxx_lib/src/ssp_11xx.c **** }
  71:../../lpc11cx4-library/lpc_chip_11cxx_lib/src/ssp_11xx.c **** 
  72:../../lpc11cx4-library/lpc_chip_11cxx_lib/src/ssp_11xx.c **** /** SSP macro: read 1 bytes from FIFO buffer */
  73:../../lpc11cx4-library/lpc_chip_11cxx_lib/src/ssp_11xx.c **** STATIC void SSP_Read2BFifo(LPC_SSP_T *pSSP, Chip_SSP_DATA_SETUP_T *xf_setup)
  74:../../lpc11cx4-library/lpc_chip_11cxx_lib/src/ssp_11xx.c **** {
  75:../../lpc11cx4-library/lpc_chip_11cxx_lib/src/ssp_11xx.c **** 	uint16_t rDat;
  76:../../lpc11cx4-library/lpc_chip_11cxx_lib/src/ssp_11xx.c **** 
  77:../../lpc11cx4-library/lpc_chip_11cxx_lib/src/ssp_11xx.c **** 	while ((Chip_SSP_GetStatus(pSSP, SSP_STAT_RNE) == SET) &&
  78:../../lpc11cx4-library/lpc_chip_11cxx_lib/src/ssp_11xx.c **** 		   (xf_setup->rx_cnt < xf_setup->length)) {
  79:../../lpc11cx4-library/lpc_chip_11cxx_lib/src/ssp_11xx.c **** 		rDat = Chip_SSP_ReceiveFrame(pSSP);
  80:../../lpc11cx4-library/lpc_chip_11cxx_lib/src/ssp_11xx.c **** 		if (xf_setup->rx_data) {
  81:../../lpc11cx4-library/lpc_chip_11cxx_lib/src/ssp_11xx.c **** 			*(uint16_t *) ((uint32_t) xf_setup->rx_data + xf_setup->rx_cnt) = rDat;
  82:../../lpc11cx4-library/lpc_chip_11cxx_lib/src/ssp_11xx.c **** 		}
  83:../../lpc11cx4-library/lpc_chip_11cxx_lib/src/ssp_11xx.c **** 
  84:../../lpc11cx4-library/lpc_chip_11cxx_lib/src/ssp_11xx.c **** 		xf_setup->rx_cnt += 2;
  85:../../lpc11cx4-library/lpc_chip_11cxx_lib/src/ssp_11xx.c **** 	}
  86:../../lpc11cx4-library/lpc_chip_11cxx_lib/src/ssp_11xx.c **** }
  87:../../lpc11cx4-library/lpc_chip_11cxx_lib/src/ssp_11xx.c **** 
  88:../../lpc11cx4-library/lpc_chip_11cxx_lib/src/ssp_11xx.c **** /** SSP macro: read 2 bytes from FIFO buffer */
  89:../../lpc11cx4-library/lpc_chip_11cxx_lib/src/ssp_11xx.c **** STATIC void SSP_Read1BFifo(LPC_SSP_T *pSSP, Chip_SSP_DATA_SETUP_T *xf_setup)
ARM GAS  /tmp/ccGKa4GA.s 			page 4


  90:../../lpc11cx4-library/lpc_chip_11cxx_lib/src/ssp_11xx.c **** {
  91:../../lpc11cx4-library/lpc_chip_11cxx_lib/src/ssp_11xx.c **** 	uint16_t rDat;
  92:../../lpc11cx4-library/lpc_chip_11cxx_lib/src/ssp_11xx.c **** 
  93:../../lpc11cx4-library/lpc_chip_11cxx_lib/src/ssp_11xx.c **** 	while ((Chip_SSP_GetStatus(pSSP, SSP_STAT_RNE) == SET) &&
  94:../../lpc11cx4-library/lpc_chip_11cxx_lib/src/ssp_11xx.c **** 		   (xf_setup->rx_cnt < xf_setup->length)) {
  95:../../lpc11cx4-library/lpc_chip_11cxx_lib/src/ssp_11xx.c **** 		rDat = Chip_SSP_ReceiveFrame(pSSP);
  96:../../lpc11cx4-library/lpc_chip_11cxx_lib/src/ssp_11xx.c **** 		if (xf_setup->rx_data) {
  97:../../lpc11cx4-library/lpc_chip_11cxx_lib/src/ssp_11xx.c **** 			*(uint8_t *) ((uint32_t) xf_setup->rx_data + xf_setup->rx_cnt) = rDat;
  98:../../lpc11cx4-library/lpc_chip_11cxx_lib/src/ssp_11xx.c **** 		}
  99:../../lpc11cx4-library/lpc_chip_11cxx_lib/src/ssp_11xx.c **** 
 100:../../lpc11cx4-library/lpc_chip_11cxx_lib/src/ssp_11xx.c **** 		xf_setup->rx_cnt++;
 101:../../lpc11cx4-library/lpc_chip_11cxx_lib/src/ssp_11xx.c **** 	}
 102:../../lpc11cx4-library/lpc_chip_11cxx_lib/src/ssp_11xx.c **** }
 103:../../lpc11cx4-library/lpc_chip_11cxx_lib/src/ssp_11xx.c **** 
 104:../../lpc11cx4-library/lpc_chip_11cxx_lib/src/ssp_11xx.c **** /* Returns clock for the peripheral block */
 105:../../lpc11cx4-library/lpc_chip_11cxx_lib/src/ssp_11xx.c **** STATIC CHIP_SYSCTL_CLOCK_T Chip_SSP_GetClockIndex(LPC_SSP_T *pSSP)
 106:../../lpc11cx4-library/lpc_chip_11cxx_lib/src/ssp_11xx.c **** {
 107:../../lpc11cx4-library/lpc_chip_11cxx_lib/src/ssp_11xx.c **** 	CHIP_SYSCTL_CLOCK_T clkSSP;
 108:../../lpc11cx4-library/lpc_chip_11cxx_lib/src/ssp_11xx.c **** 
 109:../../lpc11cx4-library/lpc_chip_11cxx_lib/src/ssp_11xx.c **** 	if (pSSP == LPC_SSP0) {
 110:../../lpc11cx4-library/lpc_chip_11cxx_lib/src/ssp_11xx.c **** 		clkSSP = SYSCTL_CLOCK_SSP0;
 111:../../lpc11cx4-library/lpc_chip_11cxx_lib/src/ssp_11xx.c **** 	}
 112:../../lpc11cx4-library/lpc_chip_11cxx_lib/src/ssp_11xx.c **** #if defined(CHIP_LPC11CXX) || defined(CHIP_LPC11EXX) || defined(CHIP_LPC11AXX) || defined(CHIP_LPC1
 113:../../lpc11cx4-library/lpc_chip_11cxx_lib/src/ssp_11xx.c **** 	else {
 114:../../lpc11cx4-library/lpc_chip_11cxx_lib/src/ssp_11xx.c **** 		clkSSP = SYSCTL_CLOCK_SSP1;
 115:../../lpc11cx4-library/lpc_chip_11cxx_lib/src/ssp_11xx.c **** 	}
 116:../../lpc11cx4-library/lpc_chip_11cxx_lib/src/ssp_11xx.c **** #endif
 117:../../lpc11cx4-library/lpc_chip_11cxx_lib/src/ssp_11xx.c **** 		
 118:../../lpc11cx4-library/lpc_chip_11cxx_lib/src/ssp_11xx.c **** 	return clkSSP;
 119:../../lpc11cx4-library/lpc_chip_11cxx_lib/src/ssp_11xx.c **** }
 120:../../lpc11cx4-library/lpc_chip_11cxx_lib/src/ssp_11xx.c **** 
 121:../../lpc11cx4-library/lpc_chip_11cxx_lib/src/ssp_11xx.c **** /* Returns reset ID for the peripheral block */
 122:../../lpc11cx4-library/lpc_chip_11cxx_lib/src/ssp_11xx.c **** STATIC CHIP_SYSCTL_PERIPH_RESET_T Chip_SSP_GetResetIndex(LPC_SSP_T *pSSP)
 123:../../lpc11cx4-library/lpc_chip_11cxx_lib/src/ssp_11xx.c **** {
 124:../../lpc11cx4-library/lpc_chip_11cxx_lib/src/ssp_11xx.c **** 	CHIP_SYSCTL_PERIPH_RESET_T resetSSP;
 125:../../lpc11cx4-library/lpc_chip_11cxx_lib/src/ssp_11xx.c **** 
 126:../../lpc11cx4-library/lpc_chip_11cxx_lib/src/ssp_11xx.c **** 	if (pSSP == LPC_SSP0) {
 127:../../lpc11cx4-library/lpc_chip_11cxx_lib/src/ssp_11xx.c **** 		resetSSP = RESET_SSP0;
 128:../../lpc11cx4-library/lpc_chip_11cxx_lib/src/ssp_11xx.c **** 	}
 129:../../lpc11cx4-library/lpc_chip_11cxx_lib/src/ssp_11xx.c **** 	else {
 130:../../lpc11cx4-library/lpc_chip_11cxx_lib/src/ssp_11xx.c **** 		resetSSP = RESET_SSP1;
 131:../../lpc11cx4-library/lpc_chip_11cxx_lib/src/ssp_11xx.c **** 	}
 132:../../lpc11cx4-library/lpc_chip_11cxx_lib/src/ssp_11xx.c **** 
 133:../../lpc11cx4-library/lpc_chip_11cxx_lib/src/ssp_11xx.c **** 	return resetSSP;
 134:../../lpc11cx4-library/lpc_chip_11cxx_lib/src/ssp_11xx.c **** }
 135:../../lpc11cx4-library/lpc_chip_11cxx_lib/src/ssp_11xx.c **** 
 136:../../lpc11cx4-library/lpc_chip_11cxx_lib/src/ssp_11xx.c **** /* Returns reset ID for the peripheral block */
 137:../../lpc11cx4-library/lpc_chip_11cxx_lib/src/ssp_11xx.c **** STATIC void Chip_SSP_SetSSPClkDivider(LPC_SSP_T *pSSP, uint32_t div)
 138:../../lpc11cx4-library/lpc_chip_11cxx_lib/src/ssp_11xx.c **** {
 139:../../lpc11cx4-library/lpc_chip_11cxx_lib/src/ssp_11xx.c **** 	if (pSSP == LPC_SSP0) {
 140:../../lpc11cx4-library/lpc_chip_11cxx_lib/src/ssp_11xx.c **** 		Chip_Clock_SetSSP0ClockDiv(div);
 141:../../lpc11cx4-library/lpc_chip_11cxx_lib/src/ssp_11xx.c **** 	}
 142:../../lpc11cx4-library/lpc_chip_11cxx_lib/src/ssp_11xx.c **** #if defined(CHIP_LPC11CXX) || defined(CHIP_LPC11EXX) || defined(CHIP_LPC11AXX) || defined(CHIP_LPC1
 143:../../lpc11cx4-library/lpc_chip_11cxx_lib/src/ssp_11xx.c **** 	else {
 144:../../lpc11cx4-library/lpc_chip_11cxx_lib/src/ssp_11xx.c **** 		Chip_Clock_SetSSP1ClockDiv(div);
 145:../../lpc11cx4-library/lpc_chip_11cxx_lib/src/ssp_11xx.c **** 	}
 146:../../lpc11cx4-library/lpc_chip_11cxx_lib/src/ssp_11xx.c **** #endif
ARM GAS  /tmp/ccGKa4GA.s 			page 5


 147:../../lpc11cx4-library/lpc_chip_11cxx_lib/src/ssp_11xx.c **** }
 148:../../lpc11cx4-library/lpc_chip_11cxx_lib/src/ssp_11xx.c **** 
 149:../../lpc11cx4-library/lpc_chip_11cxx_lib/src/ssp_11xx.c **** /* Returns SSP peripheral clock for the peripheral block */
 150:../../lpc11cx4-library/lpc_chip_11cxx_lib/src/ssp_11xx.c **** STATIC uint32_t Chip_SSP_GetPCLKkRate(LPC_SSP_T *pSSP)
 151:../../lpc11cx4-library/lpc_chip_11cxx_lib/src/ssp_11xx.c **** {
 152:../../lpc11cx4-library/lpc_chip_11cxx_lib/src/ssp_11xx.c **** 	uint32_t sspCLK = Chip_Clock_GetMainClockRate();
 153:../../lpc11cx4-library/lpc_chip_11cxx_lib/src/ssp_11xx.c **** 
 154:../../lpc11cx4-library/lpc_chip_11cxx_lib/src/ssp_11xx.c **** 	if (pSSP == LPC_SSP0) {
 155:../../lpc11cx4-library/lpc_chip_11cxx_lib/src/ssp_11xx.c **** 		sspCLK /= Chip_Clock_GetSSP0ClockDiv();
 156:../../lpc11cx4-library/lpc_chip_11cxx_lib/src/ssp_11xx.c **** 	}
 157:../../lpc11cx4-library/lpc_chip_11cxx_lib/src/ssp_11xx.c **** #if defined(CHIP_LPC11CXX) || defined(CHIP_LPC11EXX) || defined(CHIP_LPC11AXX) || defined(CHIP_LPC1
 158:../../lpc11cx4-library/lpc_chip_11cxx_lib/src/ssp_11xx.c **** 	else {
 159:../../lpc11cx4-library/lpc_chip_11cxx_lib/src/ssp_11xx.c **** 		sspCLK /= Chip_Clock_GetSSP1ClockDiv();
 160:../../lpc11cx4-library/lpc_chip_11cxx_lib/src/ssp_11xx.c **** 	}
 161:../../lpc11cx4-library/lpc_chip_11cxx_lib/src/ssp_11xx.c **** #endif
 162:../../lpc11cx4-library/lpc_chip_11cxx_lib/src/ssp_11xx.c **** 	
 163:../../lpc11cx4-library/lpc_chip_11cxx_lib/src/ssp_11xx.c ****     return sspCLK;
 164:../../lpc11cx4-library/lpc_chip_11cxx_lib/src/ssp_11xx.c **** }
 165:../../lpc11cx4-library/lpc_chip_11cxx_lib/src/ssp_11xx.c **** 
 166:../../lpc11cx4-library/lpc_chip_11cxx_lib/src/ssp_11xx.c **** /*****************************************************************************
 167:../../lpc11cx4-library/lpc_chip_11cxx_lib/src/ssp_11xx.c ****  * Public functions
 168:../../lpc11cx4-library/lpc_chip_11cxx_lib/src/ssp_11xx.c ****  ****************************************************************************/
 169:../../lpc11cx4-library/lpc_chip_11cxx_lib/src/ssp_11xx.c **** 
 170:../../lpc11cx4-library/lpc_chip_11cxx_lib/src/ssp_11xx.c **** /*Set up output clocks per bit for SSP bus*/
 171:../../lpc11cx4-library/lpc_chip_11cxx_lib/src/ssp_11xx.c **** void Chip_SSP_SetClockRate(LPC_SSP_T *pSSP, uint32_t clk_rate, uint32_t prescale)
 172:../../lpc11cx4-library/lpc_chip_11cxx_lib/src/ssp_11xx.c **** {
  83              		.loc 1 172 0
  84              		.cfi_startproc
  85              		@ args = 0, pretend = 0, frame = 0
  86              		@ frame_needed = 0, uses_anonymous_args = 0
  87              	.LVL0:
  88 0000 10B5     		push	{r4, lr}	@
  89              		.cfi_def_cfa_offset 8
  90              		.cfi_offset 4, -8
  91              		.cfi_offset 14, -4
 173:../../lpc11cx4-library/lpc_chip_11cxx_lib/src/ssp_11xx.c **** 	uint32_t temp;
 174:../../lpc11cx4-library/lpc_chip_11cxx_lib/src/ssp_11xx.c **** 	temp = pSSP->CR0 & (~(SSP_CR0_SCR(0xFF)));
  92              		.loc 1 174 0
  93 0002 0368     		ldr	r3, [r0]	@ _3, pSSP_2(D)->CR0
  94              	.LVL1:
  95 0004 034C     		ldr	r4, .L2	@ tmp122,
 175:../../lpc11cx4-library/lpc_chip_11cxx_lib/src/ssp_11xx.c **** 	pSSP->CR0 = temp | (SSP_CR0_SCR(clk_rate));
  96              		.loc 1 175 0
  97 0006 0906     		lsls	r1, r1, #24	@ tmp120, clk_rate,
  98              	.LVL2:
 174:../../lpc11cx4-library/lpc_chip_11cxx_lib/src/ssp_11xx.c **** 	pSSP->CR0 = temp | (SSP_CR0_SCR(clk_rate));
  99              		.loc 1 174 0
 100 0008 2340     		ands	r3, r4	@ temp, tmp122
 101              	.LVL3:
 102              		.loc 1 175 0
 103 000a 090C     		lsrs	r1, r1, #16	@ tmp119, tmp120,
 104 000c 1943     		orrs	r1, r3	@ _8, temp
 105 000e 0160     		str	r1, [r0]	@ _8, pSSP_2(D)->CR0
 176:../../lpc11cx4-library/lpc_chip_11cxx_lib/src/ssp_11xx.c **** 	pSSP->CPSR = prescale;
 177:../../lpc11cx4-library/lpc_chip_11cxx_lib/src/ssp_11xx.c **** }
 106              		.loc 1 177 0
 107              		@ sp needed	@
ARM GAS  /tmp/ccGKa4GA.s 			page 6


 176:../../lpc11cx4-library/lpc_chip_11cxx_lib/src/ssp_11xx.c **** 	pSSP->CPSR = prescale;
 108              		.loc 1 176 0
 109 0010 0261     		str	r2, [r0, #16]	@ prescale, pSSP_2(D)->CPSR
 110              		.loc 1 177 0
 111 0012 10BD     		pop	{r4, pc}
 112              	.L3:
 113              		.align	2
 114              	.L2:
 115 0014 FF00FFFF 		.word	-65281
 116              		.cfi_endproc
 117              	.LFE206:
 118              		.size	Chip_SSP_SetClockRate, .-Chip_SSP_SetClockRate
 119              		.section	.text.Chip_SSP_RWFrames_Blocking,"ax",%progbits
 120              		.align	1
 121              		.p2align 2,,3
 122              		.global	Chip_SSP_RWFrames_Blocking
 123              		.syntax unified
 124              		.code	16
 125              		.thumb_func
 126              		.fpu softvfp
 127              		.type	Chip_SSP_RWFrames_Blocking, %function
 128              	Chip_SSP_RWFrames_Blocking:
 129              	.LFB207:
 178:../../lpc11cx4-library/lpc_chip_11cxx_lib/src/ssp_11xx.c **** 
 179:../../lpc11cx4-library/lpc_chip_11cxx_lib/src/ssp_11xx.c **** /* SSP Polling Read/Write in blocking mode */
 180:../../lpc11cx4-library/lpc_chip_11cxx_lib/src/ssp_11xx.c **** uint32_t Chip_SSP_RWFrames_Blocking(LPC_SSP_T *pSSP, Chip_SSP_DATA_SETUP_T *xf_setup)
 181:../../lpc11cx4-library/lpc_chip_11cxx_lib/src/ssp_11xx.c **** {
 130              		.loc 1 181 0
 131              		.cfi_startproc
 132              		@ args = 0, pretend = 0, frame = 0
 133              		@ frame_needed = 0, uses_anonymous_args = 0
 134              	.LVL4:
 135 0000 F0B5     		push	{r4, r5, r6, r7, lr}	@
 136              		.cfi_def_cfa_offset 20
 137              		.cfi_offset 4, -20
 138              		.cfi_offset 5, -16
 139              		.cfi_offset 6, -12
 140              		.cfi_offset 7, -8
 141              		.cfi_offset 14, -4
 142 0002 CE46     		mov	lr, r9	@,
 143 0004 4746     		mov	r7, r8	@,
 144              	.LBB242:
 145              	.LBB243:
 146              		.file 2 "../../lpc11cx4-library/lpc_chip_11cxx_lib/inc/ssp_11xx.h"
   1:../../lpc11cx4-library/lpc_chip_11cxx_lib/inc/ssp_11xx.h **** /*
   2:../../lpc11cx4-library/lpc_chip_11cxx_lib/inc/ssp_11xx.h ****  * @brief LPC11xx SSP Registers and control functions
   3:../../lpc11cx4-library/lpc_chip_11cxx_lib/inc/ssp_11xx.h ****  *
   4:../../lpc11cx4-library/lpc_chip_11cxx_lib/inc/ssp_11xx.h ****  * @note
   5:../../lpc11cx4-library/lpc_chip_11cxx_lib/inc/ssp_11xx.h ****  * Copyright(C) NXP Semiconductors, 2012
   6:../../lpc11cx4-library/lpc_chip_11cxx_lib/inc/ssp_11xx.h ****  * All rights reserved.
   7:../../lpc11cx4-library/lpc_chip_11cxx_lib/inc/ssp_11xx.h ****  *
   8:../../lpc11cx4-library/lpc_chip_11cxx_lib/inc/ssp_11xx.h ****  * @par
   9:../../lpc11cx4-library/lpc_chip_11cxx_lib/inc/ssp_11xx.h ****  * Software that is described herein is for illustrative purposes only
  10:../../lpc11cx4-library/lpc_chip_11cxx_lib/inc/ssp_11xx.h ****  * which provides customers with programming information regarding the
  11:../../lpc11cx4-library/lpc_chip_11cxx_lib/inc/ssp_11xx.h ****  * LPC products.  This software is supplied "AS IS" without any warranties of
  12:../../lpc11cx4-library/lpc_chip_11cxx_lib/inc/ssp_11xx.h ****  * any kind, and NXP Semiconductors and its licensor disclaim any and
  13:../../lpc11cx4-library/lpc_chip_11cxx_lib/inc/ssp_11xx.h ****  * all warranties, express or implied, including all implied warranties of
ARM GAS  /tmp/ccGKa4GA.s 			page 7


  14:../../lpc11cx4-library/lpc_chip_11cxx_lib/inc/ssp_11xx.h ****  * merchantability, fitness for a particular purpose and non-infringement of
  15:../../lpc11cx4-library/lpc_chip_11cxx_lib/inc/ssp_11xx.h ****  * intellectual property rights.  NXP Semiconductors assumes no responsibility
  16:../../lpc11cx4-library/lpc_chip_11cxx_lib/inc/ssp_11xx.h ****  * or liability for the use of the software, conveys no license or rights under any
  17:../../lpc11cx4-library/lpc_chip_11cxx_lib/inc/ssp_11xx.h ****  * patent, copyright, mask work right, or any other intellectual property rights in
  18:../../lpc11cx4-library/lpc_chip_11cxx_lib/inc/ssp_11xx.h ****  * or to any products. NXP Semiconductors reserves the right to make changes
  19:../../lpc11cx4-library/lpc_chip_11cxx_lib/inc/ssp_11xx.h ****  * in the software without notification. NXP Semiconductors also makes no
  20:../../lpc11cx4-library/lpc_chip_11cxx_lib/inc/ssp_11xx.h ****  * representation or warranty that such application will be suitable for the
  21:../../lpc11cx4-library/lpc_chip_11cxx_lib/inc/ssp_11xx.h ****  * specified use without further testing or modification.
  22:../../lpc11cx4-library/lpc_chip_11cxx_lib/inc/ssp_11xx.h ****  *
  23:../../lpc11cx4-library/lpc_chip_11cxx_lib/inc/ssp_11xx.h ****  * @par
  24:../../lpc11cx4-library/lpc_chip_11cxx_lib/inc/ssp_11xx.h ****  * Permission to use, copy, modify, and distribute this software and its
  25:../../lpc11cx4-library/lpc_chip_11cxx_lib/inc/ssp_11xx.h ****  * documentation is hereby granted, under NXP Semiconductors' and its
  26:../../lpc11cx4-library/lpc_chip_11cxx_lib/inc/ssp_11xx.h ****  * licensor's relevant copyrights in the software, without fee, provided that it
  27:../../lpc11cx4-library/lpc_chip_11cxx_lib/inc/ssp_11xx.h ****  * is used in conjunction with NXP Semiconductors microcontrollers.  This
  28:../../lpc11cx4-library/lpc_chip_11cxx_lib/inc/ssp_11xx.h ****  * copyright, permission, and disclaimer notice must appear in all copies of
  29:../../lpc11cx4-library/lpc_chip_11cxx_lib/inc/ssp_11xx.h ****  * this code.
  30:../../lpc11cx4-library/lpc_chip_11cxx_lib/inc/ssp_11xx.h ****  */
  31:../../lpc11cx4-library/lpc_chip_11cxx_lib/inc/ssp_11xx.h **** 
  32:../../lpc11cx4-library/lpc_chip_11cxx_lib/inc/ssp_11xx.h **** #ifndef __SSP_11XX_H_
  33:../../lpc11cx4-library/lpc_chip_11cxx_lib/inc/ssp_11xx.h **** #define __SSP_11XX_H_
  34:../../lpc11cx4-library/lpc_chip_11cxx_lib/inc/ssp_11xx.h **** 
  35:../../lpc11cx4-library/lpc_chip_11cxx_lib/inc/ssp_11xx.h **** #ifdef __cplusplus
  36:../../lpc11cx4-library/lpc_chip_11cxx_lib/inc/ssp_11xx.h **** extern "C" {
  37:../../lpc11cx4-library/lpc_chip_11cxx_lib/inc/ssp_11xx.h **** #endif
  38:../../lpc11cx4-library/lpc_chip_11cxx_lib/inc/ssp_11xx.h **** 
  39:../../lpc11cx4-library/lpc_chip_11cxx_lib/inc/ssp_11xx.h **** /** @defgroup SSP_11XX CHIP: LPC11xx SSP register block and driver
  40:../../lpc11cx4-library/lpc_chip_11cxx_lib/inc/ssp_11xx.h ****  * @ingroup CHIP_11XX_Drivers
  41:../../lpc11cx4-library/lpc_chip_11cxx_lib/inc/ssp_11xx.h ****  * @{
  42:../../lpc11cx4-library/lpc_chip_11cxx_lib/inc/ssp_11xx.h ****  */
  43:../../lpc11cx4-library/lpc_chip_11cxx_lib/inc/ssp_11xx.h **** 
  44:../../lpc11cx4-library/lpc_chip_11cxx_lib/inc/ssp_11xx.h **** /**
  45:../../lpc11cx4-library/lpc_chip_11cxx_lib/inc/ssp_11xx.h ****  * @brief SSP register block structure
  46:../../lpc11cx4-library/lpc_chip_11cxx_lib/inc/ssp_11xx.h ****  */
  47:../../lpc11cx4-library/lpc_chip_11cxx_lib/inc/ssp_11xx.h **** typedef struct {			/*!< SSPn Structure         */
  48:../../lpc11cx4-library/lpc_chip_11cxx_lib/inc/ssp_11xx.h **** 	__IO uint32_t CR0;		/*!< Control Register 0. Selects the serial clock rate, bus type, and data siz
  49:../../lpc11cx4-library/lpc_chip_11cxx_lib/inc/ssp_11xx.h **** 	__IO uint32_t CR1;		/*!< Control Register 1. Selects master/slave and other modes. */
  50:../../lpc11cx4-library/lpc_chip_11cxx_lib/inc/ssp_11xx.h **** 	__IO uint32_t DR;		/*!< Data Register. Writes fill the transmit FIFO, and reads empty the receive 
  51:../../lpc11cx4-library/lpc_chip_11cxx_lib/inc/ssp_11xx.h **** 	__I  uint32_t SR;		/*!< Status Register        */
  52:../../lpc11cx4-library/lpc_chip_11cxx_lib/inc/ssp_11xx.h **** 	__IO uint32_t CPSR;		/*!< Clock Prescale Register */
  53:../../lpc11cx4-library/lpc_chip_11cxx_lib/inc/ssp_11xx.h **** 	__IO uint32_t IMSC;		/*!< Interrupt Mask Set and Clear Register */
  54:../../lpc11cx4-library/lpc_chip_11cxx_lib/inc/ssp_11xx.h **** 	__I  uint32_t RIS;		/*!< Raw Interrupt Status Register */
  55:../../lpc11cx4-library/lpc_chip_11cxx_lib/inc/ssp_11xx.h **** 	__I  uint32_t MIS;		/*!< Masked Interrupt Status Register */
  56:../../lpc11cx4-library/lpc_chip_11cxx_lib/inc/ssp_11xx.h **** 	__O  uint32_t ICR;		/*!< SSPICR Interrupt Clear Register */
  57:../../lpc11cx4-library/lpc_chip_11cxx_lib/inc/ssp_11xx.h **** } LPC_SSP_T;
  58:../../lpc11cx4-library/lpc_chip_11cxx_lib/inc/ssp_11xx.h **** 
  59:../../lpc11cx4-library/lpc_chip_11cxx_lib/inc/ssp_11xx.h **** /**
  60:../../lpc11cx4-library/lpc_chip_11cxx_lib/inc/ssp_11xx.h ****  * Macro defines for CR0 register
  61:../../lpc11cx4-library/lpc_chip_11cxx_lib/inc/ssp_11xx.h ****  */
  62:../../lpc11cx4-library/lpc_chip_11cxx_lib/inc/ssp_11xx.h **** 
  63:../../lpc11cx4-library/lpc_chip_11cxx_lib/inc/ssp_11xx.h **** /** SSP data size select, must be 4 bits to 16 bits */
  64:../../lpc11cx4-library/lpc_chip_11cxx_lib/inc/ssp_11xx.h **** #define SSP_CR0_DSS(n)          ((uint32_t) ((n) & 0xF))
  65:../../lpc11cx4-library/lpc_chip_11cxx_lib/inc/ssp_11xx.h **** /** SSP control 0 Motorola SPI mode */
  66:../../lpc11cx4-library/lpc_chip_11cxx_lib/inc/ssp_11xx.h **** #define SSP_CR0_FRF_SPI         ((uint32_t) (0 << 4))
  67:../../lpc11cx4-library/lpc_chip_11cxx_lib/inc/ssp_11xx.h **** /** SSP control 0 TI synchronous serial mode */
  68:../../lpc11cx4-library/lpc_chip_11cxx_lib/inc/ssp_11xx.h **** #define SSP_CR0_FRF_TI          ((uint32_t) (1 << 4))
  69:../../lpc11cx4-library/lpc_chip_11cxx_lib/inc/ssp_11xx.h **** /** SSP control 0 National Micro-wire mode */
  70:../../lpc11cx4-library/lpc_chip_11cxx_lib/inc/ssp_11xx.h **** #define SSP_CR0_FRF_MICROWIRE   ((uint32_t) (2 << 4))
ARM GAS  /tmp/ccGKa4GA.s 			page 8


  71:../../lpc11cx4-library/lpc_chip_11cxx_lib/inc/ssp_11xx.h **** /** SPI clock polarity bit (used in SPI mode only), (1) = maintains the
  72:../../lpc11cx4-library/lpc_chip_11cxx_lib/inc/ssp_11xx.h ****    bus clock high between frames, (0) = low */
  73:../../lpc11cx4-library/lpc_chip_11cxx_lib/inc/ssp_11xx.h **** #define SSP_CR0_CPOL_LO     ((uint32_t) (0))
  74:../../lpc11cx4-library/lpc_chip_11cxx_lib/inc/ssp_11xx.h **** #define SSP_CR0_CPOL_HI     ((uint32_t) (1 << 6))
  75:../../lpc11cx4-library/lpc_chip_11cxx_lib/inc/ssp_11xx.h **** /** SPI clock out phase bit (used in SPI mode only), (1) = captures data
  76:../../lpc11cx4-library/lpc_chip_11cxx_lib/inc/ssp_11xx.h ****    on the second clock transition of the frame, (0) = first */
  77:../../lpc11cx4-library/lpc_chip_11cxx_lib/inc/ssp_11xx.h **** #define SSP_CR0_CPHA_FIRST  ((uint32_t) (0))
  78:../../lpc11cx4-library/lpc_chip_11cxx_lib/inc/ssp_11xx.h **** #define SSP_CR0_CPHA_SECOND ((uint32_t) (1 << 7))
  79:../../lpc11cx4-library/lpc_chip_11cxx_lib/inc/ssp_11xx.h **** /** SSP serial clock rate value load macro, divider rate is
  80:../../lpc11cx4-library/lpc_chip_11cxx_lib/inc/ssp_11xx.h ****    PERIPH_CLK / (cpsr * (SCR + 1)) */
  81:../../lpc11cx4-library/lpc_chip_11cxx_lib/inc/ssp_11xx.h **** #define SSP_CR0_SCR(n)      ((uint32_t) ((n & 0xFF) << 8))
  82:../../lpc11cx4-library/lpc_chip_11cxx_lib/inc/ssp_11xx.h **** /** SSP CR0 bit mask */
  83:../../lpc11cx4-library/lpc_chip_11cxx_lib/inc/ssp_11xx.h **** #define SSP_CR0_BITMASK     ((uint32_t) (0xFFFF))
  84:../../lpc11cx4-library/lpc_chip_11cxx_lib/inc/ssp_11xx.h **** /** SSP CR0 bit mask */
  85:../../lpc11cx4-library/lpc_chip_11cxx_lib/inc/ssp_11xx.h **** #define SSP_CR0_BITMASK     ((uint32_t) (0xFFFF))
  86:../../lpc11cx4-library/lpc_chip_11cxx_lib/inc/ssp_11xx.h **** /** SSP serial clock rate value load macro, divider rate is
  87:../../lpc11cx4-library/lpc_chip_11cxx_lib/inc/ssp_11xx.h ****    PERIPH_CLK / (cpsr * (SCR + 1)) */
  88:../../lpc11cx4-library/lpc_chip_11cxx_lib/inc/ssp_11xx.h **** #define SSP_CR0_SCR(n)      ((uint32_t) ((n & 0xFF) << 8))
  89:../../lpc11cx4-library/lpc_chip_11cxx_lib/inc/ssp_11xx.h **** 
  90:../../lpc11cx4-library/lpc_chip_11cxx_lib/inc/ssp_11xx.h **** /**
  91:../../lpc11cx4-library/lpc_chip_11cxx_lib/inc/ssp_11xx.h ****  * Macro defines for CR1 register
  92:../../lpc11cx4-library/lpc_chip_11cxx_lib/inc/ssp_11xx.h ****  */
  93:../../lpc11cx4-library/lpc_chip_11cxx_lib/inc/ssp_11xx.h **** 
  94:../../lpc11cx4-library/lpc_chip_11cxx_lib/inc/ssp_11xx.h **** /** SSP control 1 loopback mode enable bit */
  95:../../lpc11cx4-library/lpc_chip_11cxx_lib/inc/ssp_11xx.h **** #define SSP_CR1_LBM_EN      ((uint32_t) (1 << 0))
  96:../../lpc11cx4-library/lpc_chip_11cxx_lib/inc/ssp_11xx.h **** /** SSP control 1 enable bit */
  97:../../lpc11cx4-library/lpc_chip_11cxx_lib/inc/ssp_11xx.h **** #define SSP_CR1_SSP_EN      ((uint32_t) (1 << 1))
  98:../../lpc11cx4-library/lpc_chip_11cxx_lib/inc/ssp_11xx.h **** /** SSP control 1 slave enable */
  99:../../lpc11cx4-library/lpc_chip_11cxx_lib/inc/ssp_11xx.h **** #define SSP_CR1_SLAVE_EN    ((uint32_t) (1 << 2))
 100:../../lpc11cx4-library/lpc_chip_11cxx_lib/inc/ssp_11xx.h **** #define SSP_CR1_MASTER_EN   ((uint32_t) (0))
 101:../../lpc11cx4-library/lpc_chip_11cxx_lib/inc/ssp_11xx.h **** /** SSP control 1 slave out disable bit, disables transmit line in slave
 102:../../lpc11cx4-library/lpc_chip_11cxx_lib/inc/ssp_11xx.h ****    mode */
 103:../../lpc11cx4-library/lpc_chip_11cxx_lib/inc/ssp_11xx.h **** #define SSP_CR1_SO_DISABLE  ((uint32_t) (1 << 3))
 104:../../lpc11cx4-library/lpc_chip_11cxx_lib/inc/ssp_11xx.h **** /** SSP CR1 bit mask */
 105:../../lpc11cx4-library/lpc_chip_11cxx_lib/inc/ssp_11xx.h **** #define SSP_CR1_BITMASK     ((uint32_t) (0x0F))
 106:../../lpc11cx4-library/lpc_chip_11cxx_lib/inc/ssp_11xx.h **** 
 107:../../lpc11cx4-library/lpc_chip_11cxx_lib/inc/ssp_11xx.h **** /** SSP CPSR bit mask */
 108:../../lpc11cx4-library/lpc_chip_11cxx_lib/inc/ssp_11xx.h **** #define SSP_CPSR_BITMASK    ((uint32_t) (0xFF))
 109:../../lpc11cx4-library/lpc_chip_11cxx_lib/inc/ssp_11xx.h **** /**
 110:../../lpc11cx4-library/lpc_chip_11cxx_lib/inc/ssp_11xx.h ****  * Macro defines for DR register
 111:../../lpc11cx4-library/lpc_chip_11cxx_lib/inc/ssp_11xx.h ****  */
 112:../../lpc11cx4-library/lpc_chip_11cxx_lib/inc/ssp_11xx.h **** 
 113:../../lpc11cx4-library/lpc_chip_11cxx_lib/inc/ssp_11xx.h **** /** SSP data bit mask */
 114:../../lpc11cx4-library/lpc_chip_11cxx_lib/inc/ssp_11xx.h **** #define SSP_DR_BITMASK(n)   ((n) & 0xFFFF)
 115:../../lpc11cx4-library/lpc_chip_11cxx_lib/inc/ssp_11xx.h **** 
 116:../../lpc11cx4-library/lpc_chip_11cxx_lib/inc/ssp_11xx.h **** /**
 117:../../lpc11cx4-library/lpc_chip_11cxx_lib/inc/ssp_11xx.h ****  * Macro defines for SR register
 118:../../lpc11cx4-library/lpc_chip_11cxx_lib/inc/ssp_11xx.h ****  */
 119:../../lpc11cx4-library/lpc_chip_11cxx_lib/inc/ssp_11xx.h **** 
 120:../../lpc11cx4-library/lpc_chip_11cxx_lib/inc/ssp_11xx.h **** /** SSP SR bit mask */
 121:../../lpc11cx4-library/lpc_chip_11cxx_lib/inc/ssp_11xx.h **** #define SSP_SR_BITMASK  ((uint32_t) (0x1F))
 122:../../lpc11cx4-library/lpc_chip_11cxx_lib/inc/ssp_11xx.h **** 
 123:../../lpc11cx4-library/lpc_chip_11cxx_lib/inc/ssp_11xx.h **** /** ICR bit mask */
 124:../../lpc11cx4-library/lpc_chip_11cxx_lib/inc/ssp_11xx.h **** #define SSP_ICR_BITMASK ((uint32_t) (0x03))
 125:../../lpc11cx4-library/lpc_chip_11cxx_lib/inc/ssp_11xx.h **** 
 126:../../lpc11cx4-library/lpc_chip_11cxx_lib/inc/ssp_11xx.h **** /**
 127:../../lpc11cx4-library/lpc_chip_11cxx_lib/inc/ssp_11xx.h ****  * @brief SSP Type of Status
ARM GAS  /tmp/ccGKa4GA.s 			page 9


 128:../../lpc11cx4-library/lpc_chip_11cxx_lib/inc/ssp_11xx.h ****  */
 129:../../lpc11cx4-library/lpc_chip_11cxx_lib/inc/ssp_11xx.h **** typedef enum _SSP_STATUS {
 130:../../lpc11cx4-library/lpc_chip_11cxx_lib/inc/ssp_11xx.h **** 	SSP_STAT_TFE = ((uint32_t)(1 << 0)),/**< TX FIFO Empty */
 131:../../lpc11cx4-library/lpc_chip_11cxx_lib/inc/ssp_11xx.h **** 	SSP_STAT_TNF = ((uint32_t)(1 << 1)),/**< TX FIFO not full */
 132:../../lpc11cx4-library/lpc_chip_11cxx_lib/inc/ssp_11xx.h **** 	SSP_STAT_RNE = ((uint32_t)(1 << 2)),/**< RX FIFO not empty */
 133:../../lpc11cx4-library/lpc_chip_11cxx_lib/inc/ssp_11xx.h **** 	SSP_STAT_RFF = ((uint32_t)(1 << 3)),/**< RX FIFO full */
 134:../../lpc11cx4-library/lpc_chip_11cxx_lib/inc/ssp_11xx.h **** 	SSP_STAT_BSY = ((uint32_t)(1 << 4)),/**< SSP Busy */
 135:../../lpc11cx4-library/lpc_chip_11cxx_lib/inc/ssp_11xx.h **** } SSP_STATUS_T;
 136:../../lpc11cx4-library/lpc_chip_11cxx_lib/inc/ssp_11xx.h **** 
 137:../../lpc11cx4-library/lpc_chip_11cxx_lib/inc/ssp_11xx.h **** /**
 138:../../lpc11cx4-library/lpc_chip_11cxx_lib/inc/ssp_11xx.h ****  * @brief SSP Type of Interrupt Mask
 139:../../lpc11cx4-library/lpc_chip_11cxx_lib/inc/ssp_11xx.h ****  */
 140:../../lpc11cx4-library/lpc_chip_11cxx_lib/inc/ssp_11xx.h **** typedef enum _SSP_INTMASK {
 141:../../lpc11cx4-library/lpc_chip_11cxx_lib/inc/ssp_11xx.h **** 	SSP_RORIM = ((uint32_t)(1 << 0)),	/**< Overun */
 142:../../lpc11cx4-library/lpc_chip_11cxx_lib/inc/ssp_11xx.h **** 	SSP_RTIM = ((uint32_t)(1 << 1)),/**< TimeOut */
 143:../../lpc11cx4-library/lpc_chip_11cxx_lib/inc/ssp_11xx.h **** 	SSP_RXIM = ((uint32_t)(1 << 2)),/**< Rx FIFO is at least half full */
 144:../../lpc11cx4-library/lpc_chip_11cxx_lib/inc/ssp_11xx.h **** 	SSP_TXIM = ((uint32_t)(1 << 3)),/**< Tx FIFO is at least half empty */
 145:../../lpc11cx4-library/lpc_chip_11cxx_lib/inc/ssp_11xx.h **** 	SSP_INT_MASK_BITMASK = ((uint32_t)(0xF)),
 146:../../lpc11cx4-library/lpc_chip_11cxx_lib/inc/ssp_11xx.h **** } SSP_INTMASK_T;
 147:../../lpc11cx4-library/lpc_chip_11cxx_lib/inc/ssp_11xx.h **** 
 148:../../lpc11cx4-library/lpc_chip_11cxx_lib/inc/ssp_11xx.h **** /**
 149:../../lpc11cx4-library/lpc_chip_11cxx_lib/inc/ssp_11xx.h ****  * @brief SSP Type of Mask Interrupt Status
 150:../../lpc11cx4-library/lpc_chip_11cxx_lib/inc/ssp_11xx.h ****  */
 151:../../lpc11cx4-library/lpc_chip_11cxx_lib/inc/ssp_11xx.h **** typedef enum _SSP_MASKINTSTATUS {
 152:../../lpc11cx4-library/lpc_chip_11cxx_lib/inc/ssp_11xx.h **** 	SSP_RORMIS = ((uint32_t)(1 << 0)),	/**< Overun */
 153:../../lpc11cx4-library/lpc_chip_11cxx_lib/inc/ssp_11xx.h **** 	SSP_RTMIS = ((uint32_t)(1 << 1)),	/**< TimeOut */
 154:../../lpc11cx4-library/lpc_chip_11cxx_lib/inc/ssp_11xx.h **** 	SSP_RXMIS = ((uint32_t)(1 << 2)),	/**< Rx FIFO is at least half full */
 155:../../lpc11cx4-library/lpc_chip_11cxx_lib/inc/ssp_11xx.h **** 	SSP_TXMIS = ((uint32_t)(1 << 3)),	/**< Tx FIFO is at least half empty */
 156:../../lpc11cx4-library/lpc_chip_11cxx_lib/inc/ssp_11xx.h **** 	SSP_MASK_INT_STAT_BITMASK = ((uint32_t)(0xF)),
 157:../../lpc11cx4-library/lpc_chip_11cxx_lib/inc/ssp_11xx.h **** } SSP_MASKINTSTATUS_T;
 158:../../lpc11cx4-library/lpc_chip_11cxx_lib/inc/ssp_11xx.h **** 
 159:../../lpc11cx4-library/lpc_chip_11cxx_lib/inc/ssp_11xx.h **** /**
 160:../../lpc11cx4-library/lpc_chip_11cxx_lib/inc/ssp_11xx.h ****  * @brief SSP Type of Raw Interrupt Status
 161:../../lpc11cx4-library/lpc_chip_11cxx_lib/inc/ssp_11xx.h ****  */
 162:../../lpc11cx4-library/lpc_chip_11cxx_lib/inc/ssp_11xx.h **** typedef enum _SSP_RAWINTSTATUS {
 163:../../lpc11cx4-library/lpc_chip_11cxx_lib/inc/ssp_11xx.h **** 	SSP_RORRIS = ((uint32_t)(1 << 0)),	/**< Overun */
 164:../../lpc11cx4-library/lpc_chip_11cxx_lib/inc/ssp_11xx.h **** 	SSP_RTRIS = ((uint32_t)(1 << 1)),	/**< TimeOut */
 165:../../lpc11cx4-library/lpc_chip_11cxx_lib/inc/ssp_11xx.h **** 	SSP_RXRIS = ((uint32_t)(1 << 2)),	/**< Rx FIFO is at least half full */
 166:../../lpc11cx4-library/lpc_chip_11cxx_lib/inc/ssp_11xx.h **** 	SSP_TXRIS = ((uint32_t)(1 << 3)),	/**< Tx FIFO is at least half empty */
 167:../../lpc11cx4-library/lpc_chip_11cxx_lib/inc/ssp_11xx.h **** 	SSP_RAW_INT_STAT_BITMASK = ((uint32_t)(0xF)),
 168:../../lpc11cx4-library/lpc_chip_11cxx_lib/inc/ssp_11xx.h **** } SSP_RAWINTSTATUS_T;
 169:../../lpc11cx4-library/lpc_chip_11cxx_lib/inc/ssp_11xx.h **** 
 170:../../lpc11cx4-library/lpc_chip_11cxx_lib/inc/ssp_11xx.h **** typedef enum _SSP_INTCLEAR {
 171:../../lpc11cx4-library/lpc_chip_11cxx_lib/inc/ssp_11xx.h **** 	SSP_RORIC = 0x0,
 172:../../lpc11cx4-library/lpc_chip_11cxx_lib/inc/ssp_11xx.h **** 	SSP_RTIC = 0x1,
 173:../../lpc11cx4-library/lpc_chip_11cxx_lib/inc/ssp_11xx.h **** 	SSP_INT_CLEAR_BITMASK = 0x3,
 174:../../lpc11cx4-library/lpc_chip_11cxx_lib/inc/ssp_11xx.h **** } SSP_INTCLEAR_T;
 175:../../lpc11cx4-library/lpc_chip_11cxx_lib/inc/ssp_11xx.h **** 
 176:../../lpc11cx4-library/lpc_chip_11cxx_lib/inc/ssp_11xx.h **** /*
 177:../../lpc11cx4-library/lpc_chip_11cxx_lib/inc/ssp_11xx.h ****  * @brief SSP clock format
 178:../../lpc11cx4-library/lpc_chip_11cxx_lib/inc/ssp_11xx.h ****  */
 179:../../lpc11cx4-library/lpc_chip_11cxx_lib/inc/ssp_11xx.h **** typedef enum CHIP_SSP_CLOCK_FORMAT {
 180:../../lpc11cx4-library/lpc_chip_11cxx_lib/inc/ssp_11xx.h **** 	SSP_CLOCK_CPHA0_CPOL0 = (0 << 6),		/**< CPHA = 0, CPOL = 0 */
 181:../../lpc11cx4-library/lpc_chip_11cxx_lib/inc/ssp_11xx.h **** 	SSP_CLOCK_CPHA0_CPOL1 = (1u << 6),		/**< CPHA = 0, CPOL = 1 */
 182:../../lpc11cx4-library/lpc_chip_11cxx_lib/inc/ssp_11xx.h **** 	SSP_CLOCK_CPHA1_CPOL0 = (2u << 6),		/**< CPHA = 1, CPOL = 0 */
 183:../../lpc11cx4-library/lpc_chip_11cxx_lib/inc/ssp_11xx.h **** 	SSP_CLOCK_CPHA1_CPOL1 = (3u << 6),		/**< CPHA = 1, CPOL = 1 */
 184:../../lpc11cx4-library/lpc_chip_11cxx_lib/inc/ssp_11xx.h **** 	SSP_CLOCK_MODE0 = SSP_CLOCK_CPHA0_CPOL0,/**< alias */
ARM GAS  /tmp/ccGKa4GA.s 			page 10


 185:../../lpc11cx4-library/lpc_chip_11cxx_lib/inc/ssp_11xx.h **** 	SSP_CLOCK_MODE1 = SSP_CLOCK_CPHA1_CPOL0,/**< alias */
 186:../../lpc11cx4-library/lpc_chip_11cxx_lib/inc/ssp_11xx.h **** 	SSP_CLOCK_MODE2 = SSP_CLOCK_CPHA0_CPOL1,/**< alias */
 187:../../lpc11cx4-library/lpc_chip_11cxx_lib/inc/ssp_11xx.h **** 	SSP_CLOCK_MODE3 = SSP_CLOCK_CPHA1_CPOL1,/**< alias */
 188:../../lpc11cx4-library/lpc_chip_11cxx_lib/inc/ssp_11xx.h **** } CHIP_SSP_CLOCK_MODE_T;
 189:../../lpc11cx4-library/lpc_chip_11cxx_lib/inc/ssp_11xx.h **** 
 190:../../lpc11cx4-library/lpc_chip_11cxx_lib/inc/ssp_11xx.h **** /*
 191:../../lpc11cx4-library/lpc_chip_11cxx_lib/inc/ssp_11xx.h ****  * @brief SSP frame format
 192:../../lpc11cx4-library/lpc_chip_11cxx_lib/inc/ssp_11xx.h ****  */
 193:../../lpc11cx4-library/lpc_chip_11cxx_lib/inc/ssp_11xx.h **** typedef enum CHIP_SSP_FRAME_FORMAT {
 194:../../lpc11cx4-library/lpc_chip_11cxx_lib/inc/ssp_11xx.h **** 	SSP_FRAMEFORMAT_SPI = (0 << 4),			/**< Frame format: SPI */
 195:../../lpc11cx4-library/lpc_chip_11cxx_lib/inc/ssp_11xx.h **** 	CHIP_SSP_FRAME_FORMAT_TI = (1u << 4),			/**< Frame format: TI SSI */
 196:../../lpc11cx4-library/lpc_chip_11cxx_lib/inc/ssp_11xx.h **** 	SSP_FRAMEFORMAT_MICROWIRE = (2u << 4),	/**< Frame format: Microwire */
 197:../../lpc11cx4-library/lpc_chip_11cxx_lib/inc/ssp_11xx.h **** } CHIP_SSP_FRAME_FORMAT_T;
 198:../../lpc11cx4-library/lpc_chip_11cxx_lib/inc/ssp_11xx.h **** 
 199:../../lpc11cx4-library/lpc_chip_11cxx_lib/inc/ssp_11xx.h **** /*
 200:../../lpc11cx4-library/lpc_chip_11cxx_lib/inc/ssp_11xx.h ****  * @brief Number of bits per frame
 201:../../lpc11cx4-library/lpc_chip_11cxx_lib/inc/ssp_11xx.h ****  */
 202:../../lpc11cx4-library/lpc_chip_11cxx_lib/inc/ssp_11xx.h **** typedef enum CHIP_SSP_BITS {
 203:../../lpc11cx4-library/lpc_chip_11cxx_lib/inc/ssp_11xx.h **** 	SSP_BITS_4 = (3u << 0),		/*!< 4 bits/frame */
 204:../../lpc11cx4-library/lpc_chip_11cxx_lib/inc/ssp_11xx.h **** 	SSP_BITS_5 = (4u << 0),		/*!< 5 bits/frame */
 205:../../lpc11cx4-library/lpc_chip_11cxx_lib/inc/ssp_11xx.h **** 	SSP_BITS_6 = (5u << 0),		/*!< 6 bits/frame */
 206:../../lpc11cx4-library/lpc_chip_11cxx_lib/inc/ssp_11xx.h **** 	SSP_BITS_7 = (6u << 0),		/*!< 7 bits/frame */
 207:../../lpc11cx4-library/lpc_chip_11cxx_lib/inc/ssp_11xx.h **** 	SSP_BITS_8 = (7u << 0),		/*!< 8 bits/frame */
 208:../../lpc11cx4-library/lpc_chip_11cxx_lib/inc/ssp_11xx.h **** 	SSP_BITS_9 = (8u << 0),		/*!< 9 bits/frame */
 209:../../lpc11cx4-library/lpc_chip_11cxx_lib/inc/ssp_11xx.h **** 	SSP_BITS_10 = (9u << 0),	/*!< 10 bits/frame */
 210:../../lpc11cx4-library/lpc_chip_11cxx_lib/inc/ssp_11xx.h **** 	SSP_BITS_11 = (10u << 0),	/*!< 11 bits/frame */
 211:../../lpc11cx4-library/lpc_chip_11cxx_lib/inc/ssp_11xx.h **** 	SSP_BITS_12 = (11u << 0),	/*!< 12 bits/frame */
 212:../../lpc11cx4-library/lpc_chip_11cxx_lib/inc/ssp_11xx.h **** 	SSP_BITS_13 = (12u << 0),	/*!< 13 bits/frame */
 213:../../lpc11cx4-library/lpc_chip_11cxx_lib/inc/ssp_11xx.h **** 	SSP_BITS_14 = (13u << 0),	/*!< 14 bits/frame */
 214:../../lpc11cx4-library/lpc_chip_11cxx_lib/inc/ssp_11xx.h **** 	SSP_BITS_15 = (14u << 0),	/*!< 15 bits/frame */
 215:../../lpc11cx4-library/lpc_chip_11cxx_lib/inc/ssp_11xx.h **** 	SSP_BITS_16 = (15u << 0),	/*!< 16 bits/frame */
 216:../../lpc11cx4-library/lpc_chip_11cxx_lib/inc/ssp_11xx.h **** } CHIP_SSP_BITS_T;
 217:../../lpc11cx4-library/lpc_chip_11cxx_lib/inc/ssp_11xx.h **** 
 218:../../lpc11cx4-library/lpc_chip_11cxx_lib/inc/ssp_11xx.h **** /*
 219:../../lpc11cx4-library/lpc_chip_11cxx_lib/inc/ssp_11xx.h ****  * @brief SSP config format
 220:../../lpc11cx4-library/lpc_chip_11cxx_lib/inc/ssp_11xx.h ****  */
 221:../../lpc11cx4-library/lpc_chip_11cxx_lib/inc/ssp_11xx.h **** typedef struct SSP_ConfigFormat {
 222:../../lpc11cx4-library/lpc_chip_11cxx_lib/inc/ssp_11xx.h **** 	CHIP_SSP_BITS_T bits;					/*!< Format config: bits/frame */
 223:../../lpc11cx4-library/lpc_chip_11cxx_lib/inc/ssp_11xx.h **** 	CHIP_SSP_CLOCK_MODE_T clockMode;	/*!< Format config: clock phase/polarity */
 224:../../lpc11cx4-library/lpc_chip_11cxx_lib/inc/ssp_11xx.h **** 	CHIP_SSP_FRAME_FORMAT_T frameFormat;	/*!< Format config: SPI/TI/Microwire */
 225:../../lpc11cx4-library/lpc_chip_11cxx_lib/inc/ssp_11xx.h **** } SSP_ConfigFormat;
 226:../../lpc11cx4-library/lpc_chip_11cxx_lib/inc/ssp_11xx.h **** 
 227:../../lpc11cx4-library/lpc_chip_11cxx_lib/inc/ssp_11xx.h **** /**
 228:../../lpc11cx4-library/lpc_chip_11cxx_lib/inc/ssp_11xx.h ****  * @brief	Enable SSP operation
 229:../../lpc11cx4-library/lpc_chip_11cxx_lib/inc/ssp_11xx.h ****  * @param	pSSP		: The base of SSP peripheral on the chip
 230:../../lpc11cx4-library/lpc_chip_11cxx_lib/inc/ssp_11xx.h ****  * @return	 Nothing
 231:../../lpc11cx4-library/lpc_chip_11cxx_lib/inc/ssp_11xx.h ****  */
 232:../../lpc11cx4-library/lpc_chip_11cxx_lib/inc/ssp_11xx.h **** STATIC INLINE void Chip_SSP_Enable(LPC_SSP_T *pSSP)
 233:../../lpc11cx4-library/lpc_chip_11cxx_lib/inc/ssp_11xx.h **** {
 234:../../lpc11cx4-library/lpc_chip_11cxx_lib/inc/ssp_11xx.h **** 	pSSP->CR1 |= SSP_CR1_SSP_EN;
 235:../../lpc11cx4-library/lpc_chip_11cxx_lib/inc/ssp_11xx.h **** }
 236:../../lpc11cx4-library/lpc_chip_11cxx_lib/inc/ssp_11xx.h **** 
 237:../../lpc11cx4-library/lpc_chip_11cxx_lib/inc/ssp_11xx.h **** /**
 238:../../lpc11cx4-library/lpc_chip_11cxx_lib/inc/ssp_11xx.h ****  * @brief	Disable SSP operation
 239:../../lpc11cx4-library/lpc_chip_11cxx_lib/inc/ssp_11xx.h ****  * @param	pSSP		: The base of SSP peripheral on the chip
 240:../../lpc11cx4-library/lpc_chip_11cxx_lib/inc/ssp_11xx.h ****  * @return	 Nothing
 241:../../lpc11cx4-library/lpc_chip_11cxx_lib/inc/ssp_11xx.h ****  */
ARM GAS  /tmp/ccGKa4GA.s 			page 11


 242:../../lpc11cx4-library/lpc_chip_11cxx_lib/inc/ssp_11xx.h **** STATIC INLINE void Chip_SSP_Disable(LPC_SSP_T *pSSP)
 243:../../lpc11cx4-library/lpc_chip_11cxx_lib/inc/ssp_11xx.h **** {
 244:../../lpc11cx4-library/lpc_chip_11cxx_lib/inc/ssp_11xx.h **** 	pSSP->CR1 &= (~SSP_CR1_SSP_EN) & SSP_CR1_BITMASK;
 245:../../lpc11cx4-library/lpc_chip_11cxx_lib/inc/ssp_11xx.h **** }
 246:../../lpc11cx4-library/lpc_chip_11cxx_lib/inc/ssp_11xx.h **** 
 247:../../lpc11cx4-library/lpc_chip_11cxx_lib/inc/ssp_11xx.h **** /**
 248:../../lpc11cx4-library/lpc_chip_11cxx_lib/inc/ssp_11xx.h ****  * @brief	Enable loopback mode
 249:../../lpc11cx4-library/lpc_chip_11cxx_lib/inc/ssp_11xx.h ****  * @param	pSSP		: The base of SSP peripheral on the chip
 250:../../lpc11cx4-library/lpc_chip_11cxx_lib/inc/ssp_11xx.h ****  * @return	 Nothing
 251:../../lpc11cx4-library/lpc_chip_11cxx_lib/inc/ssp_11xx.h ****  * @note	Serial input is taken from the serial output (MOSI or MISO) rather
 252:../../lpc11cx4-library/lpc_chip_11cxx_lib/inc/ssp_11xx.h ****  * than the serial input pin
 253:../../lpc11cx4-library/lpc_chip_11cxx_lib/inc/ssp_11xx.h ****  */
 254:../../lpc11cx4-library/lpc_chip_11cxx_lib/inc/ssp_11xx.h **** STATIC INLINE void Chip_SSP_EnableLoopBack(LPC_SSP_T *pSSP)
 255:../../lpc11cx4-library/lpc_chip_11cxx_lib/inc/ssp_11xx.h **** {
 256:../../lpc11cx4-library/lpc_chip_11cxx_lib/inc/ssp_11xx.h **** 	pSSP->CR1 |= SSP_CR1_LBM_EN;
 257:../../lpc11cx4-library/lpc_chip_11cxx_lib/inc/ssp_11xx.h **** }
 258:../../lpc11cx4-library/lpc_chip_11cxx_lib/inc/ssp_11xx.h **** 
 259:../../lpc11cx4-library/lpc_chip_11cxx_lib/inc/ssp_11xx.h **** /**
 260:../../lpc11cx4-library/lpc_chip_11cxx_lib/inc/ssp_11xx.h ****  * @brief	Disable loopback mode
 261:../../lpc11cx4-library/lpc_chip_11cxx_lib/inc/ssp_11xx.h ****  * @param	pSSP		: The base of SSP peripheral on the chip
 262:../../lpc11cx4-library/lpc_chip_11cxx_lib/inc/ssp_11xx.h ****  * @return	 Nothing
 263:../../lpc11cx4-library/lpc_chip_11cxx_lib/inc/ssp_11xx.h ****  * @note	Serial input is taken from the serial output (MOSI or MISO) rather
 264:../../lpc11cx4-library/lpc_chip_11cxx_lib/inc/ssp_11xx.h ****  * than the serial input pin
 265:../../lpc11cx4-library/lpc_chip_11cxx_lib/inc/ssp_11xx.h ****  */
 266:../../lpc11cx4-library/lpc_chip_11cxx_lib/inc/ssp_11xx.h **** STATIC INLINE void Chip_SSP_DisableLoopBack(LPC_SSP_T *pSSP)
 267:../../lpc11cx4-library/lpc_chip_11cxx_lib/inc/ssp_11xx.h **** {
 268:../../lpc11cx4-library/lpc_chip_11cxx_lib/inc/ssp_11xx.h **** 	pSSP->CR1 &= (~SSP_CR1_LBM_EN) & SSP_CR1_BITMASK;
 269:../../lpc11cx4-library/lpc_chip_11cxx_lib/inc/ssp_11xx.h **** }
 270:../../lpc11cx4-library/lpc_chip_11cxx_lib/inc/ssp_11xx.h **** 
 271:../../lpc11cx4-library/lpc_chip_11cxx_lib/inc/ssp_11xx.h **** /**
 272:../../lpc11cx4-library/lpc_chip_11cxx_lib/inc/ssp_11xx.h ****  * @brief	Get the current status of SSP controller
 273:../../lpc11cx4-library/lpc_chip_11cxx_lib/inc/ssp_11xx.h ****  * @param	pSSP	: The base of SSP peripheral on the chip
 274:../../lpc11cx4-library/lpc_chip_11cxx_lib/inc/ssp_11xx.h ****  * @param	Stat	: Type of status, should be :
 275:../../lpc11cx4-library/lpc_chip_11cxx_lib/inc/ssp_11xx.h ****  *						- SSP_STAT_TFE
 276:../../lpc11cx4-library/lpc_chip_11cxx_lib/inc/ssp_11xx.h ****  *						- SSP_STAT_TNF
 277:../../lpc11cx4-library/lpc_chip_11cxx_lib/inc/ssp_11xx.h ****  *						- SSP_STAT_RNE
 278:../../lpc11cx4-library/lpc_chip_11cxx_lib/inc/ssp_11xx.h ****  *						- SSP_STAT_RFF
 279:../../lpc11cx4-library/lpc_chip_11cxx_lib/inc/ssp_11xx.h ****  *						- SSP_STAT_BSY
 280:../../lpc11cx4-library/lpc_chip_11cxx_lib/inc/ssp_11xx.h ****  * @return	 SSP controller status, SET or RESET
 281:../../lpc11cx4-library/lpc_chip_11cxx_lib/inc/ssp_11xx.h ****  */
 282:../../lpc11cx4-library/lpc_chip_11cxx_lib/inc/ssp_11xx.h **** STATIC INLINE FlagStatus Chip_SSP_GetStatus(LPC_SSP_T *pSSP, SSP_STATUS_T Stat)
 283:../../lpc11cx4-library/lpc_chip_11cxx_lib/inc/ssp_11xx.h **** {
 284:../../lpc11cx4-library/lpc_chip_11cxx_lib/inc/ssp_11xx.h **** 	return (pSSP->SR & Stat) ? SET : RESET;
 147              		.loc 2 284 0
 148 0006 C368     		ldr	r3, [r0, #12]	@ _121, pSSP_10(D)->SR
 149              	.LVL5:
 150              	.LBE243:
 151              	.LBE242:
 152              		.loc 1 181 0
 153 0008 80B5     		push	{r7, lr}	@
 154              		.cfi_def_cfa_offset 28
 155              		.cfi_offset 8, -28
 156              		.cfi_offset 9, -24
 182:../../lpc11cx4-library/lpc_chip_11cxx_lib/src/ssp_11xx.c **** 	/* Clear all remaining frames in RX FIFO */
 183:../../lpc11cx4-library/lpc_chip_11cxx_lib/src/ssp_11xx.c **** 	while (Chip_SSP_GetStatus(pSSP, SSP_STAT_RNE)) {
 157              		.loc 1 183 0
 158 000a 5B07     		lsls	r3, r3, #29	@ tmp256, _121,
ARM GAS  /tmp/ccGKa4GA.s 			page 12


 159 000c 04D5     		bpl	.L5	@,
 160              	.LBB246:
 161              	.LBB244:
 162              		.loc 2 284 0
 163 000e 0422     		movs	r2, #4	@ tmp201,
 164              	.L52:
 165              	.LVL6:
 166              	.LBE244:
 167              	.LBE246:
 168              	.LBB247:
 169              	.LBB248:
 285:../../lpc11cx4-library/lpc_chip_11cxx_lib/inc/ssp_11xx.h **** }
 286:../../lpc11cx4-library/lpc_chip_11cxx_lib/inc/ssp_11xx.h **** 
 287:../../lpc11cx4-library/lpc_chip_11cxx_lib/inc/ssp_11xx.h **** /**
 288:../../lpc11cx4-library/lpc_chip_11cxx_lib/inc/ssp_11xx.h ****  * @brief	Get the masked interrupt status
 289:../../lpc11cx4-library/lpc_chip_11cxx_lib/inc/ssp_11xx.h ****  * @param	pSSP	: The base of SSP peripheral on the chip
 290:../../lpc11cx4-library/lpc_chip_11cxx_lib/inc/ssp_11xx.h ****  * @return	 SSP Masked Interrupt Status Register value
 291:../../lpc11cx4-library/lpc_chip_11cxx_lib/inc/ssp_11xx.h ****  * @note	The return value contains a 1 for each interrupt condition that is asserted and enabled (m
 292:../../lpc11cx4-library/lpc_chip_11cxx_lib/inc/ssp_11xx.h ****  */
 293:../../lpc11cx4-library/lpc_chip_11cxx_lib/inc/ssp_11xx.h **** STATIC INLINE uint32_t Chip_SSP_GetIntStatus(LPC_SSP_T *pSSP)
 294:../../lpc11cx4-library/lpc_chip_11cxx_lib/inc/ssp_11xx.h **** {
 295:../../lpc11cx4-library/lpc_chip_11cxx_lib/inc/ssp_11xx.h **** 	return pSSP->MIS;
 296:../../lpc11cx4-library/lpc_chip_11cxx_lib/inc/ssp_11xx.h **** }
 297:../../lpc11cx4-library/lpc_chip_11cxx_lib/inc/ssp_11xx.h **** 
 298:../../lpc11cx4-library/lpc_chip_11cxx_lib/inc/ssp_11xx.h **** /**
 299:../../lpc11cx4-library/lpc_chip_11cxx_lib/inc/ssp_11xx.h ****  * @brief	Get the raw interrupt status
 300:../../lpc11cx4-library/lpc_chip_11cxx_lib/inc/ssp_11xx.h ****  * @param	pSSP	: The base of SSP peripheral on the chip
 301:../../lpc11cx4-library/lpc_chip_11cxx_lib/inc/ssp_11xx.h ****  * @param	RawInt	: Interrupt condition to be get status, shoud be :
 302:../../lpc11cx4-library/lpc_chip_11cxx_lib/inc/ssp_11xx.h ****  *						- SSP_RORRIS
 303:../../lpc11cx4-library/lpc_chip_11cxx_lib/inc/ssp_11xx.h ****  *						- SSP_RTRIS
 304:../../lpc11cx4-library/lpc_chip_11cxx_lib/inc/ssp_11xx.h ****  *						- SSP_RXRIS
 305:../../lpc11cx4-library/lpc_chip_11cxx_lib/inc/ssp_11xx.h ****  *						- SSP_TXRIS
 306:../../lpc11cx4-library/lpc_chip_11cxx_lib/inc/ssp_11xx.h ****  * @return	 Raw interrupt status corresponding to interrupt condition , SET or RESET
 307:../../lpc11cx4-library/lpc_chip_11cxx_lib/inc/ssp_11xx.h ****  * @note	Get the status of each interrupt condition ,regardless of whether or not the interrupt is 
 308:../../lpc11cx4-library/lpc_chip_11cxx_lib/inc/ssp_11xx.h ****  */
 309:../../lpc11cx4-library/lpc_chip_11cxx_lib/inc/ssp_11xx.h **** STATIC INLINE IntStatus Chip_SSP_GetRawIntStatus(LPC_SSP_T *pSSP, SSP_RAWINTSTATUS_T RawInt)
 310:../../lpc11cx4-library/lpc_chip_11cxx_lib/inc/ssp_11xx.h **** {
 311:../../lpc11cx4-library/lpc_chip_11cxx_lib/inc/ssp_11xx.h **** 	return (pSSP->RIS & RawInt) ? SET : RESET;
 312:../../lpc11cx4-library/lpc_chip_11cxx_lib/inc/ssp_11xx.h **** }
 313:../../lpc11cx4-library/lpc_chip_11cxx_lib/inc/ssp_11xx.h **** 
 314:../../lpc11cx4-library/lpc_chip_11cxx_lib/inc/ssp_11xx.h **** /**
 315:../../lpc11cx4-library/lpc_chip_11cxx_lib/inc/ssp_11xx.h ****  * @brief	Get the number of bits transferred in each frame
 316:../../lpc11cx4-library/lpc_chip_11cxx_lib/inc/ssp_11xx.h ****  * @param	pSSP	: The base of SSP peripheral on the chip
 317:../../lpc11cx4-library/lpc_chip_11cxx_lib/inc/ssp_11xx.h ****  * @return	 the number of bits transferred in each frame minus one
 318:../../lpc11cx4-library/lpc_chip_11cxx_lib/inc/ssp_11xx.h ****  * @note	The return value is 0x03 -> 0xF corresponding to 4bit -> 16bit transfer
 319:../../lpc11cx4-library/lpc_chip_11cxx_lib/inc/ssp_11xx.h ****  */
 320:../../lpc11cx4-library/lpc_chip_11cxx_lib/inc/ssp_11xx.h **** STATIC INLINE uint8_t Chip_SSP_GetDataSize(LPC_SSP_T *pSSP)
 321:../../lpc11cx4-library/lpc_chip_11cxx_lib/inc/ssp_11xx.h **** {
 322:../../lpc11cx4-library/lpc_chip_11cxx_lib/inc/ssp_11xx.h **** 	return SSP_CR0_DSS(pSSP->CR0);
 323:../../lpc11cx4-library/lpc_chip_11cxx_lib/inc/ssp_11xx.h **** }
 324:../../lpc11cx4-library/lpc_chip_11cxx_lib/inc/ssp_11xx.h **** 
 325:../../lpc11cx4-library/lpc_chip_11cxx_lib/inc/ssp_11xx.h **** /**
 326:../../lpc11cx4-library/lpc_chip_11cxx_lib/inc/ssp_11xx.h ****  * @brief	Clear the corresponding interrupt condition(s) in the SSP controller
 327:../../lpc11cx4-library/lpc_chip_11cxx_lib/inc/ssp_11xx.h ****  * @param	pSSP	: The base of SSP peripheral on the chip
 328:../../lpc11cx4-library/lpc_chip_11cxx_lib/inc/ssp_11xx.h ****  * @param	IntClear: Type of cleared interrupt, should be :
 329:../../lpc11cx4-library/lpc_chip_11cxx_lib/inc/ssp_11xx.h ****  *						- SSP_RORIC
 330:../../lpc11cx4-library/lpc_chip_11cxx_lib/inc/ssp_11xx.h ****  *						- SSP_RTIC
ARM GAS  /tmp/ccGKa4GA.s 			page 13


 331:../../lpc11cx4-library/lpc_chip_11cxx_lib/inc/ssp_11xx.h ****  * @return	 Nothing
 332:../../lpc11cx4-library/lpc_chip_11cxx_lib/inc/ssp_11xx.h ****  * @note	Software can clear one or more interrupt condition(s) in the SSP controller
 333:../../lpc11cx4-library/lpc_chip_11cxx_lib/inc/ssp_11xx.h ****  */
 334:../../lpc11cx4-library/lpc_chip_11cxx_lib/inc/ssp_11xx.h **** STATIC INLINE void Chip_SSP_ClearIntPending(LPC_SSP_T *pSSP, SSP_INTCLEAR_T IntClear)
 335:../../lpc11cx4-library/lpc_chip_11cxx_lib/inc/ssp_11xx.h **** {
 336:../../lpc11cx4-library/lpc_chip_11cxx_lib/inc/ssp_11xx.h **** 	pSSP->ICR = IntClear;
 337:../../lpc11cx4-library/lpc_chip_11cxx_lib/inc/ssp_11xx.h **** }
 338:../../lpc11cx4-library/lpc_chip_11cxx_lib/inc/ssp_11xx.h **** 
 339:../../lpc11cx4-library/lpc_chip_11cxx_lib/inc/ssp_11xx.h **** /**
 340:../../lpc11cx4-library/lpc_chip_11cxx_lib/inc/ssp_11xx.h ****  * @brief	Enable interrupt for the SSP
 341:../../lpc11cx4-library/lpc_chip_11cxx_lib/inc/ssp_11xx.h ****  * @param	pSSP		: The base of SSP peripheral on the chip
 342:../../lpc11cx4-library/lpc_chip_11cxx_lib/inc/ssp_11xx.h ****  * @return	 Nothing
 343:../../lpc11cx4-library/lpc_chip_11cxx_lib/inc/ssp_11xx.h ****  */
 344:../../lpc11cx4-library/lpc_chip_11cxx_lib/inc/ssp_11xx.h **** STATIC INLINE void Chip_SSP_Int_Enable(LPC_SSP_T *pSSP)
 345:../../lpc11cx4-library/lpc_chip_11cxx_lib/inc/ssp_11xx.h **** {
 346:../../lpc11cx4-library/lpc_chip_11cxx_lib/inc/ssp_11xx.h **** 	pSSP->IMSC |= SSP_TXIM;
 347:../../lpc11cx4-library/lpc_chip_11cxx_lib/inc/ssp_11xx.h **** }
 348:../../lpc11cx4-library/lpc_chip_11cxx_lib/inc/ssp_11xx.h **** 
 349:../../lpc11cx4-library/lpc_chip_11cxx_lib/inc/ssp_11xx.h **** /**
 350:../../lpc11cx4-library/lpc_chip_11cxx_lib/inc/ssp_11xx.h ****  * @brief	Disable interrupt for the SSP
 351:../../lpc11cx4-library/lpc_chip_11cxx_lib/inc/ssp_11xx.h ****  * @param	pSSP		: The base of SSP peripheral on the chip
 352:../../lpc11cx4-library/lpc_chip_11cxx_lib/inc/ssp_11xx.h ****  * @return	 Nothing
 353:../../lpc11cx4-library/lpc_chip_11cxx_lib/inc/ssp_11xx.h ****  */
 354:../../lpc11cx4-library/lpc_chip_11cxx_lib/inc/ssp_11xx.h **** STATIC INLINE void Chip_SSP_Int_Disable(LPC_SSP_T *pSSP)
 355:../../lpc11cx4-library/lpc_chip_11cxx_lib/inc/ssp_11xx.h **** {
 356:../../lpc11cx4-library/lpc_chip_11cxx_lib/inc/ssp_11xx.h **** 	pSSP->IMSC &= (~SSP_TXIM);
 357:../../lpc11cx4-library/lpc_chip_11cxx_lib/inc/ssp_11xx.h **** }
 358:../../lpc11cx4-library/lpc_chip_11cxx_lib/inc/ssp_11xx.h **** 
 359:../../lpc11cx4-library/lpc_chip_11cxx_lib/inc/ssp_11xx.h **** /**
 360:../../lpc11cx4-library/lpc_chip_11cxx_lib/inc/ssp_11xx.h ****  * @brief	Get received SSP data
 361:../../lpc11cx4-library/lpc_chip_11cxx_lib/inc/ssp_11xx.h ****  * @param	pSSP	: The base of SSP peripheral on the chip
 362:../../lpc11cx4-library/lpc_chip_11cxx_lib/inc/ssp_11xx.h ****  * @return	 SSP 16-bit data received
 363:../../lpc11cx4-library/lpc_chip_11cxx_lib/inc/ssp_11xx.h ****  */
 364:../../lpc11cx4-library/lpc_chip_11cxx_lib/inc/ssp_11xx.h **** STATIC INLINE uint16_t Chip_SSP_ReceiveFrame(LPC_SSP_T *pSSP)
 365:../../lpc11cx4-library/lpc_chip_11cxx_lib/inc/ssp_11xx.h **** {
 366:../../lpc11cx4-library/lpc_chip_11cxx_lib/inc/ssp_11xx.h **** 	return (uint16_t) (SSP_DR_BITMASK(pSSP->DR));
 170              		.loc 2 366 0
 171 0010 8368     		ldr	r3, [r0, #8]	@ _29, pSSP_10(D)->DR
 172              	.LVL7:
 173              	.LBE248:
 174              	.LBE247:
 175              	.LBB249:
 176              	.LBB245:
 284:../../lpc11cx4-library/lpc_chip_11cxx_lib/inc/ssp_11xx.h **** }
 177              		.loc 2 284 0
 178 0012 C368     		ldr	r3, [r0, #12]	@ _30, pSSP_10(D)->SR
 179              	.LVL8:
 180              	.LBE245:
 181              	.LBE249:
 182              		.loc 1 183 0
 183 0014 1A42     		tst	r2, r3	@ tmp201, _30
 184 0016 FBD1     		bne	.L52	@,
 185              	.LVL9:
 186              	.L5:
 187              	.LBB250:
 188              	.LBB251:
 336:../../lpc11cx4-library/lpc_chip_11cxx_lib/inc/ssp_11xx.h **** }
ARM GAS  /tmp/ccGKa4GA.s 			page 14


 189              		.loc 2 336 0
 190 0018 0323     		movs	r3, #3	@ tmp203,
 191 001a 0362     		str	r3, [r0, #32]	@ tmp203, pSSP_10(D)->ICR
 192              	.LVL10:
 193              	.LBE251:
 194              	.LBE250:
 195              	.LBB252:
 196              	.LBB253:
 322:../../lpc11cx4-library/lpc_chip_11cxx_lib/inc/ssp_11xx.h **** }
 197              		.loc 2 322 0
 198 001c 0268     		ldr	r2, [r0]	@ _32, pSSP_10(D)->CR0
 199              	.LVL11:
 200              	.LBE253:
 201              	.LBE252:
 184:../../lpc11cx4-library/lpc_chip_11cxx_lib/src/ssp_11xx.c **** 		Chip_SSP_ReceiveFrame(pSSP);
 185:../../lpc11cx4-library/lpc_chip_11cxx_lib/src/ssp_11xx.c **** 	}
 186:../../lpc11cx4-library/lpc_chip_11cxx_lib/src/ssp_11xx.c **** 
 187:../../lpc11cx4-library/lpc_chip_11cxx_lib/src/ssp_11xx.c **** 	/* Clear status */
 188:../../lpc11cx4-library/lpc_chip_11cxx_lib/src/ssp_11xx.c **** 	Chip_SSP_ClearIntPending(pSSP, SSP_INT_CLEAR_BITMASK);
 189:../../lpc11cx4-library/lpc_chip_11cxx_lib/src/ssp_11xx.c **** 
 190:../../lpc11cx4-library/lpc_chip_11cxx_lib/src/ssp_11xx.c **** 	if (Chip_SSP_GetDataSize(pSSP) > SSP_BITS_8) {
 202              		.loc 1 190 0
 203 001e 0C33     		adds	r3, r3, #12	@ tmp208,
 204 0020 1340     		ands	r3, r2	@ tmp209, _32
 205 0022 072B     		cmp	r3, #7	@ tmp209,
 206 0024 43D8     		bhi	.L7	@,
 207              	.LBB254:
 208              	.LBB255:
 284:../../lpc11cx4-library/lpc_chip_11cxx_lib/inc/ssp_11xx.h **** }
 209              		.loc 2 284 0
 210 0026 0222     		movs	r2, #2	@ tmp251,
 211 0028 9046     		mov	r8, r2	@ tmp251, tmp251
 212              	.LBE255:
 213              	.LBE254:
 214              	.LBB258:
 215              	.LBB259:
 216              	.LBB260:
 217              	.LBB261:
 367:../../lpc11cx4-library/lpc_chip_11cxx_lib/inc/ssp_11xx.h **** }
 368:../../lpc11cx4-library/lpc_chip_11cxx_lib/inc/ssp_11xx.h **** 
 369:../../lpc11cx4-library/lpc_chip_11cxx_lib/inc/ssp_11xx.h **** /**
 370:../../lpc11cx4-library/lpc_chip_11cxx_lib/inc/ssp_11xx.h ****  * @brief	Send SSP 16-bit data
 371:../../lpc11cx4-library/lpc_chip_11cxx_lib/inc/ssp_11xx.h ****  * @param	pSSP	: The base of SSP peripheral on the chip
 372:../../lpc11cx4-library/lpc_chip_11cxx_lib/inc/ssp_11xx.h ****  * @param	tx_data	: SSP 16-bit data to be transmited
 373:../../lpc11cx4-library/lpc_chip_11cxx_lib/inc/ssp_11xx.h ****  * @return	 Nothing
 374:../../lpc11cx4-library/lpc_chip_11cxx_lib/inc/ssp_11xx.h ****  */
 375:../../lpc11cx4-library/lpc_chip_11cxx_lib/inc/ssp_11xx.h **** STATIC INLINE void Chip_SSP_SendFrame(LPC_SSP_T *pSSP, uint16_t tx_data)
 376:../../lpc11cx4-library/lpc_chip_11cxx_lib/inc/ssp_11xx.h **** {
 377:../../lpc11cx4-library/lpc_chip_11cxx_lib/inc/ssp_11xx.h **** 	pSSP->DR = SSP_DR_BITMASK(tx_data);
 218              		.loc 2 377 0
 219 002a FD32     		adds	r2, r2, #253	@ tmp252,
 220 002c 9146     		mov	r9, r2	@ tmp252, tmp252
 221              	.LBE261:
 222              	.LBE260:
 223              	.LBE259:
 224              	.LBE258:
 225              	.LBB268:
ARM GAS  /tmp/ccGKa4GA.s 			page 15


 226              	.LBB269:
 311:../../lpc11cx4-library/lpc_chip_11cxx_lib/inc/ssp_11xx.h **** }
 227              		.loc 2 311 0
 228 002e FE3A     		subs	r2, r2, #254	@ tmp253,
 229 0030 9446     		mov	ip, r2	@ tmp253, tmp253
 230              	.LBE269:
 231              	.LBE268:
 232              	.LBB272:
 233              	.LBB273:
 234              	.LBB274:
 235              	.LBB275:
 284:../../lpc11cx4-library/lpc_chip_11cxx_lib/inc/ssp_11xx.h **** }
 236              		.loc 2 284 0
 237 0032 0426     		movs	r6, #4	@ tmp254,
 238 0034 CB68     		ldr	r3, [r1, #12]	@ xf_setup_13(D)->rx_cnt, xf_setup_13(D)->rx_cnt
 239 0036 0C69     		ldr	r4, [r1, #16]	@ prephitmp_81, xf_setup_13(D)->length
 240              	.L8:
 241              	.LBE275:
 242              	.LBE274:
 243              	.LBE273:
 244              	.LBE272:
 191:../../lpc11cx4-library/lpc_chip_11cxx_lib/src/ssp_11xx.c **** 		while (xf_setup->rx_cnt < xf_setup->length || xf_setup->tx_cnt < xf_setup->length) {
 192:../../lpc11cx4-library/lpc_chip_11cxx_lib/src/ssp_11xx.c **** 			/* write data to buffer */
 193:../../lpc11cx4-library/lpc_chip_11cxx_lib/src/ssp_11xx.c **** 			if (( Chip_SSP_GetStatus(pSSP, SSP_STAT_TNF) == SET) && ( xf_setup->tx_cnt < xf_setup->length) )
 194:../../lpc11cx4-library/lpc_chip_11cxx_lib/src/ssp_11xx.c **** 				SSP_Write2BFifo(pSSP, xf_setup);
 195:../../lpc11cx4-library/lpc_chip_11cxx_lib/src/ssp_11xx.c **** 			}
 196:../../lpc11cx4-library/lpc_chip_11cxx_lib/src/ssp_11xx.c **** 
 197:../../lpc11cx4-library/lpc_chip_11cxx_lib/src/ssp_11xx.c **** 			/* Check overrun error */
 198:../../lpc11cx4-library/lpc_chip_11cxx_lib/src/ssp_11xx.c **** 			if (Chip_SSP_GetRawIntStatus(pSSP, SSP_RORRIS) == SET) {
 199:../../lpc11cx4-library/lpc_chip_11cxx_lib/src/ssp_11xx.c **** 				return ERROR;
 200:../../lpc11cx4-library/lpc_chip_11cxx_lib/src/ssp_11xx.c **** 			}
 201:../../lpc11cx4-library/lpc_chip_11cxx_lib/src/ssp_11xx.c **** 
 202:../../lpc11cx4-library/lpc_chip_11cxx_lib/src/ssp_11xx.c **** 			/* Check for any data available in RX FIFO */
 203:../../lpc11cx4-library/lpc_chip_11cxx_lib/src/ssp_11xx.c **** 			SSP_Read2BFifo(pSSP, xf_setup);
 204:../../lpc11cx4-library/lpc_chip_11cxx_lib/src/ssp_11xx.c **** 		}
 205:../../lpc11cx4-library/lpc_chip_11cxx_lib/src/ssp_11xx.c **** 	}
 206:../../lpc11cx4-library/lpc_chip_11cxx_lib/src/ssp_11xx.c **** 	else {
 207:../../lpc11cx4-library/lpc_chip_11cxx_lib/src/ssp_11xx.c **** 		while (xf_setup->rx_cnt < xf_setup->length || xf_setup->tx_cnt < xf_setup->length) {
 245              		.loc 1 207 0
 246 0038 A342     		cmp	r3, r4	@ xf_setup_13(D)->rx_cnt, prephitmp_81
 247 003a 28D3     		bcc	.L31	@,
 248              	.L70:
 249              		.loc 1 207 0 is_stmt 0 discriminator 1
 250 003c 4A68     		ldr	r2, [r1, #4]	@ _21, xf_setup_13(D)->tx_cnt
 251 003e 1700     		movs	r7, r2	@ <retval>, _21
 252 0040 A242     		cmp	r2, r4	@ _21, prephitmp_81
 253 0042 00D3     		bcc	.LCB158	@
 254 0044 6FE0     		b	.L33	@long jump	@
 255              	.LCB158:
 256              	.LVL12:
 208:../../lpc11cx4-library/lpc_chip_11cxx_lib/src/ssp_11xx.c **** 			/* write data to buffer */
 209:../../lpc11cx4-library/lpc_chip_11cxx_lib/src/ssp_11xx.c **** 			if (( Chip_SSP_GetStatus(pSSP, SSP_STAT_TNF) == SET) && ( xf_setup->tx_cnt < xf_setup->length) )
 257              		.loc 1 209 0 is_stmt 1
 258 0046 4746     		mov	r7, r8	@ tmp251, tmp251
 259              	.LBB283:
 260              	.LBB256:
 284:../../lpc11cx4-library/lpc_chip_11cxx_lib/inc/ssp_11xx.h **** }
ARM GAS  /tmp/ccGKa4GA.s 			page 16


 261              		.loc 2 284 0
 262 0048 C568     		ldr	r5, [r0, #12]	@ _100, pSSP_10(D)->SR
 263              	.LVL13:
 264              	.LBE256:
 265              	.LBE283:
 266              		.loc 1 209 0
 267 004a 2F42     		tst	r7, r5	@ tmp251, _100
 268 004c 08D0     		beq	.L23	@,
 269              	.L35:
 270 004e 0D68     		ldr	r5, [r1]	@ _28, MEM[(void * *)xf_setup_13(D)]
 271              	.LVL14:
 272              	.LBB284:
 273              	.LBB266:
  62:../../lpc11cx4-library/lpc_chip_11cxx_lib/src/ssp_11xx.c **** 		Chip_SSP_SendFrame(pSSP, (*(uint8_t *) ((uint32_t) xf_setup->tx_data + xf_setup->tx_cnt)));
 274              		.loc 1 62 0
 275 0050 002D     		cmp	r5, #0	@ _28,
 276 0052 00D1     		bne	.LCB182	@
 277 0054 73E0     		b	.L24	@long jump	@
 278              	.LCB182:
 279              	.LVL15:
 280              	.LBB263:
 281              	.LBB264:
 282              		.loc 2 377 0
 283 0056 AA5C     		ldrb	r2, [r5, r2]	@ _62, *_60
 284              	.LVL16:
 285 0058 8260     		str	r2, [r0, #8]	@ _62,
 286              	.LVL17:
 287              	.L25:
 288              	.LBE264:
 289              	.LBE263:
  69:../../lpc11cx4-library/lpc_chip_11cxx_lib/src/ssp_11xx.c **** }
 290              		.loc 1 69 0
 291 005a 4A68     		ldr	r2, [r1, #4]	@ tmp270, MEM[(uint32_t *)xf_setup_13(D) + 4B]
 292 005c 0132     		adds	r2, r2, #1	@ tmp226,
 293 005e 4A60     		str	r2, [r1, #4]	@ tmp226, MEM[(uint32_t *)xf_setup_13(D) + 4B]
 294              	.LVL18:
 295              	.L23:
 296              	.LBE266:
 297              	.LBE284:
 210:../../lpc11cx4-library/lpc_chip_11cxx_lib/src/ssp_11xx.c **** 				SSP_Write1BFifo(pSSP, xf_setup);
 211:../../lpc11cx4-library/lpc_chip_11cxx_lib/src/ssp_11xx.c **** 			}
 212:../../lpc11cx4-library/lpc_chip_11cxx_lib/src/ssp_11xx.c **** 
 213:../../lpc11cx4-library/lpc_chip_11cxx_lib/src/ssp_11xx.c **** 			/* Check overrun error */
 214:../../lpc11cx4-library/lpc_chip_11cxx_lib/src/ssp_11xx.c **** 			if (Chip_SSP_GetRawIntStatus(pSSP, SSP_RORRIS) == SET) {
 298              		.loc 1 214 0
 299 0060 6546     		mov	r5, ip	@ tmp253, tmp253
 300              	.LBB285:
 301              	.LBB270:
 311:../../lpc11cx4-library/lpc_chip_11cxx_lib/inc/ssp_11xx.h **** }
 302              		.loc 2 311 0
 303 0062 8269     		ldr	r2, [r0, #24]	@ _65, pSSP_10(D)->RIS
 304              	.LVL19:
 305              	.LBE270:
 306              	.LBE285:
 307              		.loc 1 214 0
 308 0064 1542     		tst	r5, r2	@ tmp253, _65
 309 0066 1DD1     		bne	.L26	@,
ARM GAS  /tmp/ccGKa4GA.s 			page 17


 310              	.L71:
 311              	.LVL20:
 312              	.LBB286:
 313              	.LBB282:
 314              	.LBB278:
 315              	.LBB276:
 284:../../lpc11cx4-library/lpc_chip_11cxx_lib/inc/ssp_11xx.h **** }
 316              		.loc 2 284 0
 317 0068 C268     		ldr	r2, [r0, #12]	@ _126,
 318              	.LVL21:
 319              	.LBE276:
 320              	.LBE278:
  93:../../lpc11cx4-library/lpc_chip_11cxx_lib/src/ssp_11xx.c **** 		   (xf_setup->rx_cnt < xf_setup->length)) {
 321              		.loc 1 93 0
 322 006a 1642     		tst	r6, r2	@ tmp254, _126
 323 006c E4D0     		beq	.L8	@,
 324              	.L66:
 325 006e A342     		cmp	r3, r4	@ xf_setup_13(D)->rx_cnt, prephitmp_81
 326 0070 E2D2     		bcs	.L8	@,
 327              	.LVL22:
  96:../../lpc11cx4-library/lpc_chip_11cxx_lib/src/ssp_11xx.c **** 			*(uint8_t *) ((uint32_t) xf_setup->rx_data + xf_setup->rx_cnt) = rDat;
 328              		.loc 1 96 0
 329 0072 8A68     		ldr	r2, [r1, #8]	@ _68, xf_setup_13(D)->rx_data
 330              	.LBB279:
 331              	.LBB280:
 366:../../lpc11cx4-library/lpc_chip_11cxx_lib/inc/ssp_11xx.h **** }
 332              		.loc 2 366 0
 333 0074 8568     		ldr	r5, [r0, #8]	@ _67, pSSP_10(D)->DR
 334              	.LVL23:
 335              	.LBE280:
 336              	.LBE279:
  96:../../lpc11cx4-library/lpc_chip_11cxx_lib/src/ssp_11xx.c **** 			*(uint8_t *) ((uint32_t) xf_setup->rx_data + xf_setup->rx_cnt) = rDat;
 337              		.loc 1 96 0
 338 0076 002A     		cmp	r2, #0	@ _68,
 339 0078 02D0     		beq	.L28	@,
  97:../../lpc11cx4-library/lpc_chip_11cxx_lib/src/ssp_11xx.c **** 		}
 340              		.loc 1 97 0
 341 007a D554     		strb	r5, [r2, r3]	@ _67, *_72
 342 007c CB68     		ldr	r3, [r1, #12]	@ xf_setup_13(D)->rx_cnt, xf_setup_13(D)->rx_cnt
 343 007e 0C69     		ldr	r4, [r1, #16]	@ prephitmp_81, xf_setup_13(D)->length
 344              	.L28:
 100:../../lpc11cx4-library/lpc_chip_11cxx_lib/src/ssp_11xx.c **** 	}
 345              		.loc 1 100 0
 346 0080 0133     		adds	r3, r3, #1	@ xf_setup_13(D)->rx_cnt,
 347 0082 CB60     		str	r3, [r1, #12]	@ xf_setup_13(D)->rx_cnt, xf_setup_13(D)->rx_cnt
 348              	.LVL24:
 349              	.LBB281:
 350              	.LBB277:
 284:../../lpc11cx4-library/lpc_chip_11cxx_lib/inc/ssp_11xx.h **** }
 351              		.loc 2 284 0
 352 0084 C268     		ldr	r2, [r0, #12]	@ _76,
 353              	.LVL25:
 354              	.LBE277:
 355              	.LBE281:
  93:../../lpc11cx4-library/lpc_chip_11cxx_lib/src/ssp_11xx.c **** 		   (xf_setup->rx_cnt < xf_setup->length)) {
 356              		.loc 1 93 0
 357 0086 1642     		tst	r6, r2	@ tmp254, _76
ARM GAS  /tmp/ccGKa4GA.s 			page 18


 358 0088 F1D1     		bne	.L66	@,
 359              	.LBE282:
 360              	.LBE286:
 207:../../lpc11cx4-library/lpc_chip_11cxx_lib/src/ssp_11xx.c **** 			/* write data to buffer */
 361              		.loc 1 207 0
 362 008a A342     		cmp	r3, r4	@ xf_setup_13(D)->rx_cnt, prephitmp_81
 363 008c D6D2     		bcs	.L70	@,
 364              	.L31:
 365              	.LVL26:
 209:../../lpc11cx4-library/lpc_chip_11cxx_lib/src/ssp_11xx.c **** 				SSP_Write1BFifo(pSSP, xf_setup);
 366              		.loc 1 209 0
 367 008e 4546     		mov	r5, r8	@ tmp251, tmp251
 368              	.LBB287:
 369              	.LBB257:
 284:../../lpc11cx4-library/lpc_chip_11cxx_lib/inc/ssp_11xx.h **** }
 370              		.loc 2 284 0
 371 0090 C268     		ldr	r2, [r0, #12]	@ _56, pSSP_10(D)->SR
 372              	.LVL27:
 373              	.LBE257:
 374              	.LBE287:
 209:../../lpc11cx4-library/lpc_chip_11cxx_lib/src/ssp_11xx.c **** 				SSP_Write1BFifo(pSSP, xf_setup);
 375              		.loc 1 209 0
 376 0092 1542     		tst	r5, r2	@ tmp251, _56
 377 0094 E4D0     		beq	.L23	@,
 209:../../lpc11cx4-library/lpc_chip_11cxx_lib/src/ssp_11xx.c **** 				SSP_Write1BFifo(pSSP, xf_setup);
 378              		.loc 1 209 0 is_stmt 0 discriminator 1
 379 0096 4A68     		ldr	r2, [r1, #4]	@ _21, xf_setup_13(D)->tx_cnt
 380 0098 A242     		cmp	r2, r4	@ _21, prephitmp_81
 381 009a D8D3     		bcc	.L35	@,
 382              	.LVL28:
 383              		.loc 1 214 0 is_stmt 1
 384 009c 6546     		mov	r5, ip	@ tmp253, tmp253
 385              	.LBB288:
 386              	.LBB271:
 311:../../lpc11cx4-library/lpc_chip_11cxx_lib/inc/ssp_11xx.h **** }
 387              		.loc 2 311 0
 388 009e 8269     		ldr	r2, [r0, #24]	@ _65, pSSP_10(D)->RIS
 389              	.LVL29:
 390              	.LBE271:
 391              	.LBE288:
 392              		.loc 1 214 0
 393 00a0 1542     		tst	r5, r2	@ tmp253, _65
 394 00a2 E1D0     		beq	.L71	@,
 395              	.LVL30:
 396              	.L26:
 199:../../lpc11cx4-library/lpc_chip_11cxx_lib/src/ssp_11xx.c **** 			}
 397              		.loc 1 199 0
 398 00a4 0020     		movs	r0, #0	@ <retval>,
 399              	.L4:
 215:../../lpc11cx4-library/lpc_chip_11cxx_lib/src/ssp_11xx.c **** 				return ERROR;
 216:../../lpc11cx4-library/lpc_chip_11cxx_lib/src/ssp_11xx.c **** 			}
 217:../../lpc11cx4-library/lpc_chip_11cxx_lib/src/ssp_11xx.c **** 
 218:../../lpc11cx4-library/lpc_chip_11cxx_lib/src/ssp_11xx.c **** 			/* Check for any data available in RX FIFO */
 219:../../lpc11cx4-library/lpc_chip_11cxx_lib/src/ssp_11xx.c **** 			SSP_Read1BFifo(pSSP, xf_setup);
 220:../../lpc11cx4-library/lpc_chip_11cxx_lib/src/ssp_11xx.c **** 		}
 221:../../lpc11cx4-library/lpc_chip_11cxx_lib/src/ssp_11xx.c **** 	}
 222:../../lpc11cx4-library/lpc_chip_11cxx_lib/src/ssp_11xx.c **** 	if (xf_setup->tx_data) {
ARM GAS  /tmp/ccGKa4GA.s 			page 19


 223:../../lpc11cx4-library/lpc_chip_11cxx_lib/src/ssp_11xx.c **** 		return xf_setup->tx_cnt;
 224:../../lpc11cx4-library/lpc_chip_11cxx_lib/src/ssp_11xx.c **** 	}
 225:../../lpc11cx4-library/lpc_chip_11cxx_lib/src/ssp_11xx.c **** 	else if (xf_setup->rx_data) {
 226:../../lpc11cx4-library/lpc_chip_11cxx_lib/src/ssp_11xx.c **** 		return xf_setup->rx_cnt;
 227:../../lpc11cx4-library/lpc_chip_11cxx_lib/src/ssp_11xx.c **** 	}
 228:../../lpc11cx4-library/lpc_chip_11cxx_lib/src/ssp_11xx.c **** 
 229:../../lpc11cx4-library/lpc_chip_11cxx_lib/src/ssp_11xx.c **** 	return 0;
 230:../../lpc11cx4-library/lpc_chip_11cxx_lib/src/ssp_11xx.c **** }
 400              		.loc 1 230 0
 401              		@ sp needed	@
 402 00a6 0CBC     		pop	{r2, r3}
 403 00a8 9046     		mov	r8, r2
 404 00aa 9946     		mov	r9, r3
 405 00ac F0BD     		pop	{r4, r5, r6, r7, pc}
 406              	.LVL31:
 407              	.L7:
 408              	.LBB289:
 409              	.LBB290:
 284:../../lpc11cx4-library/lpc_chip_11cxx_lib/inc/ssp_11xx.h **** }
 410              		.loc 2 284 0
 411 00ae 0222     		movs	r2, #2	@ tmp247,
 412 00b0 9046     		mov	r8, r2	@ tmp247, tmp247
 413              	.LBE290:
 414              	.LBE289:
 415              	.LBB293:
 416              	.LBB294:
 417              	.LBB295:
 418              	.LBB296:
 419              		.loc 2 377 0
 420 00b2 244A     		ldr	r2, .L74	@ tmp248,
 421              	.LBE296:
 422              	.LBE295:
 423              	.LBE294:
 424              	.LBE293:
 425              	.LBB306:
 426              	.LBB307:
 427              	.LBB308:
 428              	.LBB309:
 284:../../lpc11cx4-library/lpc_chip_11cxx_lib/inc/ssp_11xx.h **** }
 429              		.loc 2 284 0
 430 00b4 0426     		movs	r6, #4	@ tmp250,
 431              	.LBE309:
 432              	.LBE308:
 433              	.LBE307:
 434              	.LBE306:
 435              	.LBB317:
 436              	.LBB303:
 437              	.LBB299:
 438              	.LBB297:
 439              		.loc 2 377 0
 440 00b6 9146     		mov	r9, r2	@ tmp248, tmp248
 441              	.LBE297:
 442              	.LBE299:
 443              	.LBE303:
 444              	.LBE317:
 445              	.LBB318:
 446              	.LBB319:
ARM GAS  /tmp/ccGKa4GA.s 			page 20


 311:../../lpc11cx4-library/lpc_chip_11cxx_lib/inc/ssp_11xx.h **** }
 447              		.loc 2 311 0
 448 00b8 0122     		movs	r2, #1	@ tmp249,
 449 00ba 9446     		mov	ip, r2	@ tmp249, tmp249
 450 00bc 0D69     		ldr	r5, [r1, #16]	@ pretmp_84, xf_setup_13(D)->length
 451 00be CB68     		ldr	r3, [r1, #12]	@ prephitmp_17, xf_setup_13(D)->rx_cnt
 452              	.L9:
 453              	.LBE319:
 454              	.LBE318:
 191:../../lpc11cx4-library/lpc_chip_11cxx_lib/src/ssp_11xx.c **** 			/* write data to buffer */
 455              		.loc 1 191 0
 456 00c0 9D42     		cmp	r5, r3	@ pretmp_84, prephitmp_17
 457 00c2 28D8     		bhi	.L19	@,
 458              	.L73:
 191:../../lpc11cx4-library/lpc_chip_11cxx_lib/src/ssp_11xx.c **** 			/* write data to buffer */
 459              		.loc 1 191 0 is_stmt 0 discriminator 1
 460 00c4 4A68     		ldr	r2, [r1, #4]	@ _16, xf_setup_13(D)->tx_cnt
 461 00c6 1700     		movs	r7, r2	@ <retval>, _16
 462 00c8 AA42     		cmp	r2, r5	@ _16, pretmp_84
 463 00ca 2CD2     		bcs	.L33	@,
 464              	.LVL32:
 193:../../lpc11cx4-library/lpc_chip_11cxx_lib/src/ssp_11xx.c **** 				SSP_Write2BFifo(pSSP, xf_setup);
 465              		.loc 1 193 0 is_stmt 1
 466 00cc 4746     		mov	r7, r8	@ tmp247, tmp247
 467              	.LBB321:
 468              	.LBB291:
 284:../../lpc11cx4-library/lpc_chip_11cxx_lib/inc/ssp_11xx.h **** }
 469              		.loc 2 284 0
 470 00ce C468     		ldr	r4, [r0, #12]	@ _124, pSSP_10(D)->SR
 471              	.LVL33:
 472              	.LBE291:
 473              	.LBE321:
 193:../../lpc11cx4-library/lpc_chip_11cxx_lib/src/ssp_11xx.c **** 				SSP_Write2BFifo(pSSP, xf_setup);
 474              		.loc 1 193 0
 475 00d0 2742     		tst	r7, r4	@ tmp247, _124
 476 00d2 07D0     		beq	.L10	@,
 477              	.L34:
 478 00d4 0C68     		ldr	r4, [r1]	@ _27, MEM[(void * *)xf_setup_13(D)]
 479              	.LVL34:
 480              	.LBB322:
 481              	.LBB304:
  48:../../lpc11cx4-library/lpc_chip_11cxx_lib/src/ssp_11xx.c **** 		Chip_SSP_SendFrame(pSSP, (*(uint16_t *) ((uint32_t) xf_setup->tx_data +
 482              		.loc 1 48 0
 483 00d6 002C     		cmp	r4, #0	@ _27,
 484 00d8 2ED0     		beq	.L11	@,
 485              	.LVL35:
 486              	.LBB300:
 487              	.LBB301:
 488              		.loc 2 377 0
 489 00da A25A     		ldrh	r2, [r4, r2]	@ _41, *_39
 490              	.LVL36:
 491 00dc 8260     		str	r2, [r0, #8]	@ _41,
 492              	.LVL37:
 493              	.L12:
 494              	.LBE301:
 495              	.LBE300:
  56:../../lpc11cx4-library/lpc_chip_11cxx_lib/src/ssp_11xx.c **** }
ARM GAS  /tmp/ccGKa4GA.s 			page 21


 496              		.loc 1 56 0
 497 00de 4A68     		ldr	r2, [r1, #4]	@ tmp265, MEM[(uint32_t *)xf_setup_13(D) + 4B]
 498 00e0 0232     		adds	r2, r2, #2	@ tmp213,
 499 00e2 4A60     		str	r2, [r1, #4]	@ tmp213, MEM[(uint32_t *)xf_setup_13(D) + 4B]
 500              	.LVL38:
 501              	.L10:
 502              	.LBE304:
 503              	.LBE322:
 198:../../lpc11cx4-library/lpc_chip_11cxx_lib/src/ssp_11xx.c **** 				return ERROR;
 504              		.loc 1 198 0
 505 00e4 6446     		mov	r4, ip	@ tmp249, tmp249
 506              	.LBB323:
 507              	.LBB320:
 311:../../lpc11cx4-library/lpc_chip_11cxx_lib/inc/ssp_11xx.h **** }
 508              		.loc 2 311 0
 509 00e6 8269     		ldr	r2, [r0, #24]	@ _44, pSSP_10(D)->RIS
 510              	.LVL39:
 511              	.LBE320:
 512              	.LBE323:
 198:../../lpc11cx4-library/lpc_chip_11cxx_lib/src/ssp_11xx.c **** 				return ERROR;
 513              		.loc 1 198 0
 514 00e8 1442     		tst	r4, r2	@ tmp249, _44
 515 00ea DBD1     		bne	.L26	@,
 516              	.LVL40:
 517              	.LBB324:
 518              	.LBB316:
 519              	.LBB312:
 520              	.LBB310:
 284:../../lpc11cx4-library/lpc_chip_11cxx_lib/inc/ssp_11xx.h **** }
 521              		.loc 2 284 0
 522 00ec C268     		ldr	r2, [r0, #12]	@ _118, pSSP_10(D)->SR
 523              	.LVL41:
 524              	.LBE310:
 525              	.LBE312:
  77:../../lpc11cx4-library/lpc_chip_11cxx_lib/src/ssp_11xx.c **** 		   (xf_setup->rx_cnt < xf_setup->length)) {
 526              		.loc 1 77 0
 527 00ee 1642     		tst	r6, r2	@ tmp250, _118
 528 00f0 E6D0     		beq	.L9	@,
 529 00f2 9D42     		cmp	r5, r3	@ pretmp_84, prephitmp_17
 530 00f4 E4D9     		bls	.L9	@,
 531 00f6 8C68     		ldr	r4, [r1, #8]	@ pretmp_107, xf_setup_13(D)->rx_data
 532 00f8 01E0     		b	.L18	@
 533              	.L72:
 534 00fa AB42     		cmp	r3, r5	@ prephitmp_17, pretmp_84
 535 00fc 08D2     		bcs	.L65	@,
 536              	.L18:
 537              	.LVL42:
 538              	.LBB313:
 539              	.LBB314:
 366:../../lpc11cx4-library/lpc_chip_11cxx_lib/inc/ssp_11xx.h **** }
 540              		.loc 2 366 0
 541 00fe 8268     		ldr	r2, [r0, #8]	@ _46, pSSP_10(D)->DR
 542 0100 92B2     		uxth	r2, r2	@ _47, _46
 543              	.LVL43:
 544              	.LBE314:
 545              	.LBE313:
  80:../../lpc11cx4-library/lpc_chip_11cxx_lib/src/ssp_11xx.c **** 			*(uint16_t *) ((uint32_t) xf_setup->rx_data + xf_setup->rx_cnt) = rDat;
ARM GAS  /tmp/ccGKa4GA.s 			page 22


 546              		.loc 1 80 0
 547 0102 002C     		cmp	r4, #0	@ pretmp_107,
 548 0104 00D0     		beq	.L16	@,
  81:../../lpc11cx4-library/lpc_chip_11cxx_lib/src/ssp_11xx.c **** 		}
 549              		.loc 1 81 0
 550 0106 E252     		strh	r2, [r4, r3]	@ _47, MEM[base: pretmp_107, index: _114, offset: 0B]
 551              	.L16:
 552              	.LBB315:
 553              	.LBB311:
 284:../../lpc11cx4-library/lpc_chip_11cxx_lib/inc/ssp_11xx.h **** }
 554              		.loc 2 284 0
 555 0108 C268     		ldr	r2, [r0, #12]	@ _54, pSSP_10(D)->SR
 556              	.LBE311:
 557              	.LBE315:
  84:../../lpc11cx4-library/lpc_chip_11cxx_lib/src/ssp_11xx.c **** 	}
 558              		.loc 1 84 0
 559 010a 0233     		adds	r3, r3, #2	@ prephitmp_17,
 560              	.LVL44:
  77:../../lpc11cx4-library/lpc_chip_11cxx_lib/src/ssp_11xx.c **** 		   (xf_setup->rx_cnt < xf_setup->length)) {
 561              		.loc 1 77 0
 562 010c 1642     		tst	r6, r2	@ tmp250, _54
 563 010e F4D1     		bne	.L72	@,
 564              	.L65:
 565 0110 CB60     		str	r3, [r1, #12]	@ prephitmp_17, xf_setup_13(D)->rx_cnt
 566              	.LBE316:
 567              	.LBE324:
 191:../../lpc11cx4-library/lpc_chip_11cxx_lib/src/ssp_11xx.c **** 			/* write data to buffer */
 568              		.loc 1 191 0
 569 0112 9D42     		cmp	r5, r3	@ pretmp_84, prephitmp_17
 570 0114 D6D9     		bls	.L73	@,
 571              	.L19:
 572              	.LVL45:
 193:../../lpc11cx4-library/lpc_chip_11cxx_lib/src/ssp_11xx.c **** 				SSP_Write2BFifo(pSSP, xf_setup);
 573              		.loc 1 193 0
 574 0116 4446     		mov	r4, r8	@ tmp247, tmp247
 575              	.LBB325:
 576              	.LBB292:
 284:../../lpc11cx4-library/lpc_chip_11cxx_lib/inc/ssp_11xx.h **** }
 577              		.loc 2 284 0
 578 0118 C268     		ldr	r2, [r0, #12]	@ _35, pSSP_10(D)->SR
 579              	.LVL46:
 580              	.LBE292:
 581              	.LBE325:
 193:../../lpc11cx4-library/lpc_chip_11cxx_lib/src/ssp_11xx.c **** 				SSP_Write2BFifo(pSSP, xf_setup);
 582              		.loc 1 193 0
 583 011a 1442     		tst	r4, r2	@ tmp247, _35
 584 011c E2D0     		beq	.L10	@,
 193:../../lpc11cx4-library/lpc_chip_11cxx_lib/src/ssp_11xx.c **** 				SSP_Write2BFifo(pSSP, xf_setup);
 585              		.loc 1 193 0 is_stmt 0 discriminator 1
 586 011e 4A68     		ldr	r2, [r1, #4]	@ _16, xf_setup_13(D)->tx_cnt
 587 0120 AA42     		cmp	r2, r5	@ _16, pretmp_84
 588 0122 DFD2     		bcs	.L10	@,
 589 0124 D6E7     		b	.L34	@
 590              	.L33:
 222:../../lpc11cx4-library/lpc_chip_11cxx_lib/src/ssp_11xx.c **** 		return xf_setup->tx_cnt;
 591              		.loc 1 222 0 is_stmt 1
 592 0126 0B68     		ldr	r3, [r1]	@ tmp267, xf_setup_13(D)->tx_data
ARM GAS  /tmp/ccGKa4GA.s 			page 23


 223:../../lpc11cx4-library/lpc_chip_11cxx_lib/src/ssp_11xx.c **** 	}
 593              		.loc 1 223 0
 594 0128 3800     		movs	r0, r7	@ <retval>, <retval>
 595              	.LVL47:
 222:../../lpc11cx4-library/lpc_chip_11cxx_lib/src/ssp_11xx.c **** 		return xf_setup->tx_cnt;
 596              		.loc 1 222 0
 597 012a 002B     		cmp	r3, #0	@ tmp267,
 598 012c BBD1     		bne	.L4	@,
 225:../../lpc11cx4-library/lpc_chip_11cxx_lib/src/ssp_11xx.c **** 		return xf_setup->rx_cnt;
 599              		.loc 1 225 0
 600 012e 8B68     		ldr	r3, [r1, #8]	@ tmp272, xf_setup_13(D)->rx_data
 601 0130 002B     		cmp	r3, #0	@ tmp272,
 602 0132 B7D0     		beq	.L26	@,
 226:../../lpc11cx4-library/lpc_chip_11cxx_lib/src/ssp_11xx.c **** 	}
 603              		.loc 1 226 0
 604 0134 C868     		ldr	r0, [r1, #12]	@ <retval>, xf_setup_13(D)->rx_cnt
 605 0136 B6E7     		b	.L4	@
 606              	.LVL48:
 607              	.L11:
 608              	.LBB326:
 609              	.LBB305:
 610              	.LBB302:
 611              	.LBB298:
 612              		.loc 2 377 0
 613 0138 4A46     		mov	r2, r9	@ tmp248, tmp248
 614 013a 8260     		str	r2, [r0, #8]	@ tmp248,
 615 013c CFE7     		b	.L12	@
 616              	.LVL49:
 617              	.L24:
 618              	.LBE298:
 619              	.LBE302:
 620              	.LBE305:
 621              	.LBE326:
 622              	.LBB327:
 623              	.LBB267:
 624              	.LBB265:
 625              	.LBB262:
 626 013e 4A46     		mov	r2, r9	@ tmp252, tmp252
 627 0140 8260     		str	r2, [r0, #8]	@ tmp252,
 628 0142 8AE7     		b	.L25	@
 629              	.L75:
 630              		.align	2
 631              	.L74:
 632 0144 FFFF0000 		.word	65535
 633              	.LBE262:
 634              	.LBE265:
 635              	.LBE267:
 636              	.LBE327:
 637              		.cfi_endproc
 638              	.LFE207:
 639              		.size	Chip_SSP_RWFrames_Blocking, .-Chip_SSP_RWFrames_Blocking
 640              		.section	.text.Chip_SSP_WriteFrames_Blocking,"ax",%progbits
 641              		.align	1
 642              		.p2align 2,,3
 643              		.global	Chip_SSP_WriteFrames_Blocking
 644              		.syntax unified
 645              		.code	16
ARM GAS  /tmp/ccGKa4GA.s 			page 24


 646              		.thumb_func
 647              		.fpu softvfp
 648              		.type	Chip_SSP_WriteFrames_Blocking, %function
 649              	Chip_SSP_WriteFrames_Blocking:
 650              	.LFB208:
 231:../../lpc11cx4-library/lpc_chip_11cxx_lib/src/ssp_11xx.c **** 
 232:../../lpc11cx4-library/lpc_chip_11cxx_lib/src/ssp_11xx.c **** /* SSP Polling Write in blocking mode */
 233:../../lpc11cx4-library/lpc_chip_11cxx_lib/src/ssp_11xx.c **** uint32_t Chip_SSP_WriteFrames_Blocking(LPC_SSP_T *pSSP, uint8_t *buffer, uint32_t buffer_len)
 234:../../lpc11cx4-library/lpc_chip_11cxx_lib/src/ssp_11xx.c **** {
 651              		.loc 1 234 0
 652              		.cfi_startproc
 653              		@ args = 0, pretend = 0, frame = 0
 654              		@ frame_needed = 0, uses_anonymous_args = 0
 655              	.LVL50:
 656 0000 F0B5     		push	{r4, r5, r6, r7, lr}	@
 657              		.cfi_def_cfa_offset 20
 658              		.cfi_offset 4, -20
 659              		.cfi_offset 5, -16
 660              		.cfi_offset 6, -12
 661              		.cfi_offset 7, -8
 662              		.cfi_offset 14, -4
 663 0002 4746     		mov	r7, r8	@,
 664 0004 CE46     		mov	lr, r9	@,
 665 0006 0300     		movs	r3, r0	@ pSSP, pSSP
 666              	.LBB328:
 667              	.LBB329:
 284:../../lpc11cx4-library/lpc_chip_11cxx_lib/inc/ssp_11xx.h **** }
 668              		.loc 2 284 0
 669 0008 C068     		ldr	r0, [r0, #12]	@ _97, pSSP_25(D)->SR
 670              	.LVL51:
 671              	.LBE329:
 672              	.LBE328:
 673              		.loc 1 234 0
 674 000a 80B5     		push	{r7, lr}	@
 675              		.cfi_def_cfa_offset 28
 676              		.cfi_offset 8, -28
 677              		.cfi_offset 9, -24
 678              		.loc 1 234 0
 679 000c 8846     		mov	r8, r1	@ buffer, buffer
 235:../../lpc11cx4-library/lpc_chip_11cxx_lib/src/ssp_11xx.c **** 	uint32_t tx_cnt = 0, rx_cnt = 0;
 236:../../lpc11cx4-library/lpc_chip_11cxx_lib/src/ssp_11xx.c **** 
 237:../../lpc11cx4-library/lpc_chip_11cxx_lib/src/ssp_11xx.c **** 	/* Clear all remaining frames in RX FIFO */
 238:../../lpc11cx4-library/lpc_chip_11cxx_lib/src/ssp_11xx.c **** 	while (Chip_SSP_GetStatus(pSSP, SSP_STAT_RNE)) {
 680              		.loc 1 238 0
 681 000e 4107     		lsls	r1, r0, #29	@ tmp183, _97,
 682 0010 04D5     		bpl	.L77	@,
 683              	.LVL52:
 684              	.LBB332:
 685              	.LBB330:
 284:../../lpc11cx4-library/lpc_chip_11cxx_lib/inc/ssp_11xx.h **** }
 686              		.loc 2 284 0
 687 0012 0424     		movs	r4, #4	@ tmp151,
 688              	.L105:
 689              	.LVL53:
 690              	.LBE330:
 691              	.LBE332:
 692              	.LBB333:
ARM GAS  /tmp/ccGKa4GA.s 			page 25


 693              	.LBB334:
 366:../../lpc11cx4-library/lpc_chip_11cxx_lib/inc/ssp_11xx.h **** }
 694              		.loc 2 366 0
 695 0014 9868     		ldr	r0, [r3, #8]	@ _38, pSSP_25(D)->DR
 696              	.LVL54:
 697              	.LBE334:
 698              	.LBE333:
 699              	.LBB335:
 700              	.LBB331:
 284:../../lpc11cx4-library/lpc_chip_11cxx_lib/inc/ssp_11xx.h **** }
 701              		.loc 2 284 0
 702 0016 D868     		ldr	r0, [r3, #12]	@ _39, pSSP_25(D)->SR
 703              	.LVL55:
 704              	.LBE331:
 705              	.LBE335:
 706              		.loc 1 238 0
 707 0018 0442     		tst	r4, r0	@ tmp151, _39
 708 001a FBD1     		bne	.L105	@,
 709              	.LVL56:
 710              	.L77:
 711              	.LBB336:
 712              	.LBB337:
 336:../../lpc11cx4-library/lpc_chip_11cxx_lib/inc/ssp_11xx.h **** }
 713              		.loc 2 336 0
 714 001c 0320     		movs	r0, #3	@ tmp153,
 715 001e 1862     		str	r0, [r3, #32]	@ tmp153, pSSP_25(D)->ICR
 716              	.LVL57:
 717              	.LBE337:
 718              	.LBE336:
 719              	.LBB338:
 720              	.LBB339:
 322:../../lpc11cx4-library/lpc_chip_11cxx_lib/inc/ssp_11xx.h **** }
 721              		.loc 2 322 0
 722 0020 1C68     		ldr	r4, [r3]	@ _41, pSSP_25(D)->CR0
 723              	.LVL58:
 724              	.LBE339:
 725              	.LBE338:
 239:../../lpc11cx4-library/lpc_chip_11cxx_lib/src/ssp_11xx.c **** 		Chip_SSP_ReceiveFrame(pSSP);
 240:../../lpc11cx4-library/lpc_chip_11cxx_lib/src/ssp_11xx.c **** 	}
 241:../../lpc11cx4-library/lpc_chip_11cxx_lib/src/ssp_11xx.c **** 
 242:../../lpc11cx4-library/lpc_chip_11cxx_lib/src/ssp_11xx.c **** 	/* Clear status */
 243:../../lpc11cx4-library/lpc_chip_11cxx_lib/src/ssp_11xx.c **** 	Chip_SSP_ClearIntPending(pSSP, SSP_INT_CLEAR_BITMASK);
 244:../../lpc11cx4-library/lpc_chip_11cxx_lib/src/ssp_11xx.c **** 
 245:../../lpc11cx4-library/lpc_chip_11cxx_lib/src/ssp_11xx.c **** 	if (Chip_SSP_GetDataSize(pSSP) > SSP_BITS_8) {
 726              		.loc 1 245 0
 727 0022 0C30     		adds	r0, r0, #12	@ tmp158,
 728 0024 2040     		ands	r0, r4	@ tmp159, _41
 729 0026 0024     		movs	r4, #0	@ rx_cnt,
 730 0028 0728     		cmp	r0, #7	@ tmp159,
 731 002a 2DD8     		bhi	.L79	@,
 732              	.LBB340:
 733              	.LBB341:
 734              	.LBB342:
 284:../../lpc11cx4-library/lpc_chip_11cxx_lib/inc/ssp_11xx.h **** }
 735              		.loc 2 284 0
 736 002c 0221     		movs	r1, #2	@ tmp180,
 737              	.LBE342:
ARM GAS  /tmp/ccGKa4GA.s 			page 26


 738              	.LBE341:
 739              	.LBE340:
 740 002e 0020     		movs	r0, #0	@ <retval>,
 741              	.LBB367:
 742              	.LBB346:
 743              	.LBB343:
 744 0030 8C46     		mov	ip, r1	@ tmp180, tmp180
 745              	.LBE343:
 746              	.LBE346:
 747              	.LBB347:
 748              	.LBB348:
 311:../../lpc11cx4-library/lpc_chip_11cxx_lib/inc/ssp_11xx.h **** }
 749              		.loc 2 311 0
 750 0032 0127     		movs	r7, #1	@ tmp181,
 751              	.LBE348:
 752              	.LBE347:
 753              	.LBB351:
 754              	.LBB352:
 284:../../lpc11cx4-library/lpc_chip_11cxx_lib/inc/ssp_11xx.h **** }
 755              		.loc 2 284 0
 756 0034 0426     		movs	r6, #4	@ tmp182,
 757              	.LVL59:
 758              	.L80:
 759              	.LBE352:
 760              	.LBE351:
 246:../../lpc11cx4-library/lpc_chip_11cxx_lib/src/ssp_11xx.c **** 		uint16_t *wdata16;
 247:../../lpc11cx4-library/lpc_chip_11cxx_lib/src/ssp_11xx.c **** 
 248:../../lpc11cx4-library/lpc_chip_11cxx_lib/src/ssp_11xx.c **** 		wdata16 = (uint16_t *) buffer;
 249:../../lpc11cx4-library/lpc_chip_11cxx_lib/src/ssp_11xx.c **** 
 250:../../lpc11cx4-library/lpc_chip_11cxx_lib/src/ssp_11xx.c **** 		while (tx_cnt < buffer_len || rx_cnt < buffer_len) {
 251:../../lpc11cx4-library/lpc_chip_11cxx_lib/src/ssp_11xx.c **** 			/* write data to buffer */
 252:../../lpc11cx4-library/lpc_chip_11cxx_lib/src/ssp_11xx.c **** 			if ((Chip_SSP_GetStatus(pSSP, SSP_STAT_TNF) == SET) && (tx_cnt < buffer_len)) {
 253:../../lpc11cx4-library/lpc_chip_11cxx_lib/src/ssp_11xx.c **** 				Chip_SSP_SendFrame(pSSP, *wdata16);
 254:../../lpc11cx4-library/lpc_chip_11cxx_lib/src/ssp_11xx.c **** 				wdata16++;
 255:../../lpc11cx4-library/lpc_chip_11cxx_lib/src/ssp_11xx.c **** 				tx_cnt += 2;
 256:../../lpc11cx4-library/lpc_chip_11cxx_lib/src/ssp_11xx.c **** 			}
 257:../../lpc11cx4-library/lpc_chip_11cxx_lib/src/ssp_11xx.c **** 
 258:../../lpc11cx4-library/lpc_chip_11cxx_lib/src/ssp_11xx.c **** 			/* Check overrun error */
 259:../../lpc11cx4-library/lpc_chip_11cxx_lib/src/ssp_11xx.c **** 			if (Chip_SSP_GetRawIntStatus(pSSP, SSP_RORRIS) == SET) {
 260:../../lpc11cx4-library/lpc_chip_11cxx_lib/src/ssp_11xx.c **** 				return ERROR;
 261:../../lpc11cx4-library/lpc_chip_11cxx_lib/src/ssp_11xx.c **** 			}
 262:../../lpc11cx4-library/lpc_chip_11cxx_lib/src/ssp_11xx.c **** 
 263:../../lpc11cx4-library/lpc_chip_11cxx_lib/src/ssp_11xx.c **** 			/* Check for any data available in RX FIFO */
 264:../../lpc11cx4-library/lpc_chip_11cxx_lib/src/ssp_11xx.c **** 			while (Chip_SSP_GetStatus(pSSP, SSP_STAT_RNE) == SET) {
 265:../../lpc11cx4-library/lpc_chip_11cxx_lib/src/ssp_11xx.c **** 				Chip_SSP_ReceiveFrame(pSSP);	/* read dummy data */
 266:../../lpc11cx4-library/lpc_chip_11cxx_lib/src/ssp_11xx.c **** 				rx_cnt += 2;
 267:../../lpc11cx4-library/lpc_chip_11cxx_lib/src/ssp_11xx.c **** 			}
 268:../../lpc11cx4-library/lpc_chip_11cxx_lib/src/ssp_11xx.c **** 		}
 269:../../lpc11cx4-library/lpc_chip_11cxx_lib/src/ssp_11xx.c **** 	}
 270:../../lpc11cx4-library/lpc_chip_11cxx_lib/src/ssp_11xx.c **** 	else {
 271:../../lpc11cx4-library/lpc_chip_11cxx_lib/src/ssp_11xx.c **** 		uint8_t *wdata8;
 272:../../lpc11cx4-library/lpc_chip_11cxx_lib/src/ssp_11xx.c **** 
 273:../../lpc11cx4-library/lpc_chip_11cxx_lib/src/ssp_11xx.c **** 		wdata8 = buffer;
 274:../../lpc11cx4-library/lpc_chip_11cxx_lib/src/ssp_11xx.c **** 
 275:../../lpc11cx4-library/lpc_chip_11cxx_lib/src/ssp_11xx.c **** 		while (tx_cnt < buffer_len || rx_cnt < buffer_len) {
 761              		.loc 1 275 0
 762 0036 9042     		cmp	r0, r2	@ <retval>, buffer_len
ARM GAS  /tmp/ccGKa4GA.s 			page 27


 763 0038 13D3     		bcc	.L91	@,
 764              	.L116:
 765              		.loc 1 275 0 is_stmt 0 discriminator 1
 766 003a 9442     		cmp	r4, r2	@ rx_cnt, buffer_len
 767 003c 20D2     		bcs	.L76	@,
 768              	.LVL60:
 769              	.LBB355:
 770              	.LBB344:
 284:../../lpc11cx4-library/lpc_chip_11cxx_lib/inc/ssp_11xx.h **** }
 771              		.loc 2 284 0 is_stmt 1
 772 003e DD68     		ldr	r5, [r3, #12]	@ _91, pSSP_25(D)->SR
 773              	.LVL61:
 774              	.L96:
 775              	.LBE344:
 776              	.LBE355:
 777              	.LBB356:
 778              	.LBB349:
 311:../../lpc11cx4-library/lpc_chip_11cxx_lib/inc/ssp_11xx.h **** }
 779              		.loc 2 311 0
 780 0040 9D69     		ldr	r5, [r3, #24]	@ _55, pSSP_25(D)->RIS
 781              	.LVL62:
 782              	.LBE349:
 783              	.LBE356:
 276:../../lpc11cx4-library/lpc_chip_11cxx_lib/src/ssp_11xx.c **** 			/* write data to buffer */
 277:../../lpc11cx4-library/lpc_chip_11cxx_lib/src/ssp_11xx.c **** 			if ((Chip_SSP_GetStatus(pSSP, SSP_STAT_TNF) == SET) && (tx_cnt < buffer_len)) {
 278:../../lpc11cx4-library/lpc_chip_11cxx_lib/src/ssp_11xx.c **** 				Chip_SSP_SendFrame(pSSP, *wdata8);
 279:../../lpc11cx4-library/lpc_chip_11cxx_lib/src/ssp_11xx.c **** 				wdata8++;
 280:../../lpc11cx4-library/lpc_chip_11cxx_lib/src/ssp_11xx.c **** 				tx_cnt++;
 281:../../lpc11cx4-library/lpc_chip_11cxx_lib/src/ssp_11xx.c **** 			}
 282:../../lpc11cx4-library/lpc_chip_11cxx_lib/src/ssp_11xx.c **** 
 283:../../lpc11cx4-library/lpc_chip_11cxx_lib/src/ssp_11xx.c **** 			/* Check overrun error */
 284:../../lpc11cx4-library/lpc_chip_11cxx_lib/src/ssp_11xx.c **** 			if (Chip_SSP_GetRawIntStatus(pSSP, SSP_RORRIS) == SET) {
 784              		.loc 1 284 0
 785 0042 2F42     		tst	r7, r5	@ tmp181, _55
 786 0044 1BD1     		bne	.L88	@,
 787              	.L117:
 788              	.LVL63:
 789              	.LBB357:
 790              	.LBB353:
 284:../../lpc11cx4-library/lpc_chip_11cxx_lib/inc/ssp_11xx.h **** }
 791              		.loc 2 284 0
 792 0046 DD68     		ldr	r5, [r3, #12]	@ _85, pSSP_25(D)->SR
 793              	.LVL64:
 794              	.LBE353:
 795              	.LBE357:
 285:../../lpc11cx4-library/lpc_chip_11cxx_lib/src/ssp_11xx.c **** 				return ERROR;
 286:../../lpc11cx4-library/lpc_chip_11cxx_lib/src/ssp_11xx.c **** 			}
 287:../../lpc11cx4-library/lpc_chip_11cxx_lib/src/ssp_11xx.c **** 
 288:../../lpc11cx4-library/lpc_chip_11cxx_lib/src/ssp_11xx.c **** 			/* Check for any data available in RX FIFO */
 289:../../lpc11cx4-library/lpc_chip_11cxx_lib/src/ssp_11xx.c **** 			while (Chip_SSP_GetStatus(pSSP, SSP_STAT_RNE) == SET && rx_cnt < buffer_len) {
 796              		.loc 1 289 0
 797 0048 2E42     		tst	r6, r5	@ tmp182, _85
 798 004a F4D0     		beq	.L80	@,
 799 004c 9442     		cmp	r4, r2	@ rx_cnt, buffer_len
 800 004e F2D2     		bcs	.L80	@,
 801              	.L90:
 802              	.LVL65:
ARM GAS  /tmp/ccGKa4GA.s 			page 28


 803              	.LBB358:
 804              	.LBB359:
 366:../../lpc11cx4-library/lpc_chip_11cxx_lib/inc/ssp_11xx.h **** }
 805              		.loc 2 366 0
 806 0050 9D68     		ldr	r5, [r3, #8]	@ _57, pSSP_25(D)->DR
 807              	.LVL66:
 808              	.LBE359:
 809              	.LBE358:
 810              	.LBB360:
 811              	.LBB354:
 284:../../lpc11cx4-library/lpc_chip_11cxx_lib/inc/ssp_11xx.h **** }
 812              		.loc 2 284 0
 813 0052 DD68     		ldr	r5, [r3, #12]	@ _58, pSSP_25(D)->SR
 814              	.LBE354:
 815              	.LBE360:
 290:../../lpc11cx4-library/lpc_chip_11cxx_lib/src/ssp_11xx.c **** 				Chip_SSP_ReceiveFrame(pSSP);	/* read dummy data */
 291:../../lpc11cx4-library/lpc_chip_11cxx_lib/src/ssp_11xx.c **** 				rx_cnt++;
 816              		.loc 1 291 0
 817 0054 0134     		adds	r4, r4, #1	@ rx_cnt,
 818              	.LVL67:
 289:../../lpc11cx4-library/lpc_chip_11cxx_lib/src/ssp_11xx.c **** 				Chip_SSP_ReceiveFrame(pSSP);	/* read dummy data */
 819              		.loc 1 289 0
 820 0056 2E42     		tst	r6, r5	@ tmp182, _58
 821 0058 EDD0     		beq	.L80	@,
 289:../../lpc11cx4-library/lpc_chip_11cxx_lib/src/ssp_11xx.c **** 				Chip_SSP_ReceiveFrame(pSSP);	/* read dummy data */
 822              		.loc 1 289 0 is_stmt 0 discriminator 1
 823 005a A242     		cmp	r2, r4	@ buffer_len, rx_cnt
 824 005c F8D1     		bne	.L90	@,
 275:../../lpc11cx4-library/lpc_chip_11cxx_lib/src/ssp_11xx.c **** 			/* write data to buffer */
 825              		.loc 1 275 0 is_stmt 1
 826 005e 9042     		cmp	r0, r2	@ <retval>, buffer_len
 827 0060 EBD2     		bcs	.L116	@,
 828              	.L91:
 829              	.LVL68:
 277:../../lpc11cx4-library/lpc_chip_11cxx_lib/src/ssp_11xx.c **** 				Chip_SSP_SendFrame(pSSP, *wdata8);
 830              		.loc 1 277 0
 831 0062 6146     		mov	r1, ip	@ tmp180, tmp180
 832              	.LBB361:
 833              	.LBB345:
 284:../../lpc11cx4-library/lpc_chip_11cxx_lib/inc/ssp_11xx.h **** }
 834              		.loc 2 284 0
 835 0064 DD68     		ldr	r5, [r3, #12]	@ _89, pSSP_25(D)->SR
 836              	.LVL69:
 837              	.LBE345:
 838              	.LBE361:
 277:../../lpc11cx4-library/lpc_chip_11cxx_lib/src/ssp_11xx.c **** 				Chip_SSP_SendFrame(pSSP, *wdata8);
 839              		.loc 1 277 0
 840 0066 2942     		tst	r1, r5	@ tmp180, _89
 841 0068 EAD0     		beq	.L96	@,
 842              	.LVL70:
 843              	.LBB362:
 844              	.LBB363:
 845              		.loc 2 377 0
 846 006a 4146     		mov	r1, r8	@ buffer, buffer
 847 006c 0D78     		ldrb	r5, [r1]	@ _54, *wdata8_13
 848              	.LBE363:
 849              	.LBE362:
ARM GAS  /tmp/ccGKa4GA.s 			page 29


 279:../../lpc11cx4-library/lpc_chip_11cxx_lib/src/ssp_11xx.c **** 				tx_cnt++;
 850              		.loc 1 279 0
 851 006e 0121     		movs	r1, #1	@ tmp188,
 852 0070 8946     		mov	r9, r1	@ tmp188, tmp188
 853              	.LBB365:
 854              	.LBB364:
 855              		.loc 2 377 0
 856 0072 9D60     		str	r5, [r3, #8]	@ _54, pSSP_25(D)->DR
 857              	.LVL71:
 858              	.LBE364:
 859              	.LBE365:
 860              	.LBB366:
 861              	.LBB350:
 311:../../lpc11cx4-library/lpc_chip_11cxx_lib/inc/ssp_11xx.h **** }
 862              		.loc 2 311 0
 863 0074 9D69     		ldr	r5, [r3, #24]	@ _55, pSSP_25(D)->RIS
 864              	.LBE350:
 865              	.LBE366:
 279:../../lpc11cx4-library/lpc_chip_11cxx_lib/src/ssp_11xx.c **** 				tx_cnt++;
 866              		.loc 1 279 0
 867 0076 C844     		add	r8, r8, r9	@ buffer, tmp188
 868              	.LVL72:
 280:../../lpc11cx4-library/lpc_chip_11cxx_lib/src/ssp_11xx.c **** 			}
 869              		.loc 1 280 0
 870 0078 0130     		adds	r0, r0, #1	@ <retval>,
 871              	.LVL73:
 284:../../lpc11cx4-library/lpc_chip_11cxx_lib/src/ssp_11xx.c **** 				return ERROR;
 872              		.loc 1 284 0
 873 007a 2F42     		tst	r7, r5	@ tmp181, _55
 874 007c E3D0     		beq	.L117	@,
 875              	.LVL74:
 876              	.L88:
 877              	.LBE367:
 878              	.LBB368:
 260:../../lpc11cx4-library/lpc_chip_11cxx_lib/src/ssp_11xx.c **** 			}
 879              		.loc 1 260 0
 880 007e 0020     		movs	r0, #0	@ <retval>,
 881              	.LVL75:
 882              	.L76:
 883              	.LBE368:
 292:../../lpc11cx4-library/lpc_chip_11cxx_lib/src/ssp_11xx.c **** 			}
 293:../../lpc11cx4-library/lpc_chip_11cxx_lib/src/ssp_11xx.c **** 		}
 294:../../lpc11cx4-library/lpc_chip_11cxx_lib/src/ssp_11xx.c **** 	}
 295:../../lpc11cx4-library/lpc_chip_11cxx_lib/src/ssp_11xx.c **** 
 296:../../lpc11cx4-library/lpc_chip_11cxx_lib/src/ssp_11xx.c **** 	return tx_cnt;
 297:../../lpc11cx4-library/lpc_chip_11cxx_lib/src/ssp_11xx.c **** 
 298:../../lpc11cx4-library/lpc_chip_11cxx_lib/src/ssp_11xx.c **** }
 884              		.loc 1 298 0
 885              		@ sp needed	@
 886              	.LVL76:
 887 0080 0CBC     		pop	{r2, r3}
 888 0082 9046     		mov	r8, r2
 889 0084 9946     		mov	r9, r3
 890 0086 F0BD     		pop	{r4, r5, r6, r7, pc}
 891              	.LVL77:
 892              	.L79:
 893              	.LBB391:
ARM GAS  /tmp/ccGKa4GA.s 			page 30


 894              	.LBB369:
 895              	.LBB370:
 284:../../lpc11cx4-library/lpc_chip_11cxx_lib/inc/ssp_11xx.h **** }
 896              		.loc 2 284 0
 897 0088 0221     		movs	r1, #2	@ tmp177,
 898              	.LBE370:
 899              	.LBE369:
 900              	.LBE391:
 901 008a 0020     		movs	r0, #0	@ <retval>,
 902              	.LBB392:
 903              	.LBB374:
 904              	.LBB371:
 905 008c 8C46     		mov	ip, r1	@ tmp177, tmp177
 906              	.LBE371:
 907              	.LBE374:
 908              	.LBB375:
 909              	.LBB376:
 311:../../lpc11cx4-library/lpc_chip_11cxx_lib/inc/ssp_11xx.h **** }
 910              		.loc 2 311 0
 911 008e 0127     		movs	r7, #1	@ tmp178,
 912              	.LBE376:
 913              	.LBE375:
 914              	.LBB378:
 915              	.LBB379:
 284:../../lpc11cx4-library/lpc_chip_11cxx_lib/inc/ssp_11xx.h **** }
 916              		.loc 2 284 0
 917 0090 0426     		movs	r6, #4	@ tmp179,
 918              	.LVL78:
 919              	.L81:
 920              	.LBE379:
 921              	.LBE378:
 250:../../lpc11cx4-library/lpc_chip_11cxx_lib/src/ssp_11xx.c **** 			/* write data to buffer */
 922              		.loc 1 250 0
 923 0092 9042     		cmp	r0, r2	@ <retval>, buffer_len
 924 0094 0BD3     		bcc	.L86	@,
 250:../../lpc11cx4-library/lpc_chip_11cxx_lib/src/ssp_11xx.c **** 			/* write data to buffer */
 925              		.loc 1 250 0 is_stmt 0 discriminator 1
 926 0096 9442     		cmp	r4, r2	@ rx_cnt, buffer_len
 927 0098 F2D2     		bcs	.L76	@,
 928              	.LVL79:
 929              	.LBB381:
 930              	.LBB372:
 284:../../lpc11cx4-library/lpc_chip_11cxx_lib/inc/ssp_11xx.h **** }
 931              		.loc 2 284 0 is_stmt 1
 932 009a DD68     		ldr	r5, [r3, #12]	@ _6, pSSP_25(D)->SR
 933              	.LVL80:
 934              	.L94:
 935              	.LBE372:
 936              	.LBE381:
 937              	.LBB382:
 938              	.LBB377:
 311:../../lpc11cx4-library/lpc_chip_11cxx_lib/inc/ssp_11xx.h **** }
 939              		.loc 2 311 0
 940 009c 9D69     		ldr	r5, [r3, #24]	@ _47, pSSP_25(D)->RIS
 941              	.LVL81:
 942              	.LBE377:
 943              	.LBE382:
ARM GAS  /tmp/ccGKa4GA.s 			page 31


 259:../../lpc11cx4-library/lpc_chip_11cxx_lib/src/ssp_11xx.c **** 				return ERROR;
 944              		.loc 1 259 0
 945 009e 2F42     		tst	r7, r5	@ tmp178, _47
 946 00a0 EDD1     		bne	.L88	@,
 947              	.LVL82:
 948              	.L113:
 949              	.LBB383:
 950              	.LBB380:
 284:../../lpc11cx4-library/lpc_chip_11cxx_lib/inc/ssp_11xx.h **** }
 951              		.loc 2 284 0
 952 00a2 DD68     		ldr	r5, [r3, #12]	@ _50,
 953              	.LVL83:
 954              	.LBE380:
 955              	.LBE383:
 264:../../lpc11cx4-library/lpc_chip_11cxx_lib/src/ssp_11xx.c **** 				Chip_SSP_ReceiveFrame(pSSP);	/* read dummy data */
 956              		.loc 1 264 0
 957 00a4 2E42     		tst	r6, r5	@ tmp179, _50
 958 00a6 F4D0     		beq	.L81	@,
 959              	.LVL84:
 960              	.LBB384:
 961              	.LBB385:
 366:../../lpc11cx4-library/lpc_chip_11cxx_lib/inc/ssp_11xx.h **** }
 962              		.loc 2 366 0
 963 00a8 9D68     		ldr	r5, [r3, #8]	@ _49, pSSP_25(D)->DR
 964              	.LVL85:
 965              	.LBE385:
 966              	.LBE384:
 266:../../lpc11cx4-library/lpc_chip_11cxx_lib/src/ssp_11xx.c **** 			}
 967              		.loc 1 266 0
 968 00aa 0234     		adds	r4, r4, #2	@ rx_cnt,
 969              	.LVL86:
 970 00ac F9E7     		b	.L113	@
 971              	.LVL87:
 972              	.L86:
 252:../../lpc11cx4-library/lpc_chip_11cxx_lib/src/ssp_11xx.c **** 				Chip_SSP_SendFrame(pSSP, *wdata16);
 973              		.loc 1 252 0
 974 00ae 6146     		mov	r1, ip	@ tmp177, tmp177
 975              	.LBB386:
 976              	.LBB373:
 284:../../lpc11cx4-library/lpc_chip_11cxx_lib/inc/ssp_11xx.h **** }
 977              		.loc 2 284 0
 978 00b0 DD68     		ldr	r5, [r3, #12]	@ _70, pSSP_25(D)->SR
 979              	.LVL88:
 980              	.LBE373:
 981              	.LBE386:
 252:../../lpc11cx4-library/lpc_chip_11cxx_lib/src/ssp_11xx.c **** 				Chip_SSP_SendFrame(pSSP, *wdata16);
 982              		.loc 1 252 0
 983 00b2 2942     		tst	r1, r5	@ tmp177, _70
 984 00b4 F2D0     		beq	.L94	@,
 985              	.LVL89:
 986              	.LBB387:
 987              	.LBB388:
 988              		.loc 2 377 0
 989 00b6 4146     		mov	r1, r8	@ wdata16, wdata16
 990 00b8 0D88     		ldrh	r5, [r1]	@ _46, *wdata16_11
 991              	.LBE388:
 992              	.LBE387:
ARM GAS  /tmp/ccGKa4GA.s 			page 32


 254:../../lpc11cx4-library/lpc_chip_11cxx_lib/src/ssp_11xx.c **** 				tx_cnt += 2;
 993              		.loc 1 254 0
 994 00ba 0221     		movs	r1, #2	@ tmp191,
 995 00bc 8946     		mov	r9, r1	@ tmp191, tmp191
 996              	.LBB390:
 997              	.LBB389:
 998              		.loc 2 377 0
 999 00be 9D60     		str	r5, [r3, #8]	@ _46, pSSP_25(D)->DR
 1000              	.LVL90:
 1001              	.LBE389:
 1002              	.LBE390:
 254:../../lpc11cx4-library/lpc_chip_11cxx_lib/src/ssp_11xx.c **** 				tx_cnt += 2;
 1003              		.loc 1 254 0
 1004 00c0 C844     		add	r8, r8, r9	@ wdata16, tmp191
 1005              	.LVL91:
 255:../../lpc11cx4-library/lpc_chip_11cxx_lib/src/ssp_11xx.c **** 			}
 1006              		.loc 1 255 0
 1007 00c2 0230     		adds	r0, r0, #2	@ <retval>,
 1008              	.LVL92:
 1009 00c4 EAE7     		b	.L94	@
 1010              	.LBE392:
 1011              		.cfi_endproc
 1012              	.LFE208:
 1013              		.size	Chip_SSP_WriteFrames_Blocking, .-Chip_SSP_WriteFrames_Blocking
 1014 00c6 C046     		.section	.text.Chip_SSP_ReadFrames_Blocking,"ax",%progbits
 1015              		.align	1
 1016              		.p2align 2,,3
 1017              		.global	Chip_SSP_ReadFrames_Blocking
 1018              		.syntax unified
 1019              		.code	16
 1020              		.thumb_func
 1021              		.fpu softvfp
 1022              		.type	Chip_SSP_ReadFrames_Blocking, %function
 1023              	Chip_SSP_ReadFrames_Blocking:
 1024              	.LFB209:
 299:../../lpc11cx4-library/lpc_chip_11cxx_lib/src/ssp_11xx.c **** 
 300:../../lpc11cx4-library/lpc_chip_11cxx_lib/src/ssp_11xx.c **** /* SSP Polling Read in blocking mode */
 301:../../lpc11cx4-library/lpc_chip_11cxx_lib/src/ssp_11xx.c **** uint32_t Chip_SSP_ReadFrames_Blocking(LPC_SSP_T *pSSP, uint8_t *buffer, uint32_t buffer_len)
 302:../../lpc11cx4-library/lpc_chip_11cxx_lib/src/ssp_11xx.c **** {
 1025              		.loc 1 302 0
 1026              		.cfi_startproc
 1027              		@ args = 0, pretend = 0, frame = 0
 1028              		@ frame_needed = 0, uses_anonymous_args = 0
 1029              	.LVL93:
 1030 0000 F0B5     		push	{r4, r5, r6, r7, lr}	@
 1031              		.cfi_def_cfa_offset 20
 1032              		.cfi_offset 4, -20
 1033              		.cfi_offset 5, -16
 1034              		.cfi_offset 6, -12
 1035              		.cfi_offset 7, -8
 1036              		.cfi_offset 14, -4
 1037 0002 CE46     		mov	lr, r9	@,
 1038 0004 4746     		mov	r7, r8	@,
 1039              	.LBB393:
 1040              	.LBB394:
 284:../../lpc11cx4-library/lpc_chip_11cxx_lib/inc/ssp_11xx.h **** }
 1041              		.loc 2 284 0
ARM GAS  /tmp/ccGKa4GA.s 			page 33


 1042 0006 C368     		ldr	r3, [r0, #12]	@ _109, pSSP_26(D)->SR
 1043              	.LVL94:
 1044              	.LBE394:
 1045              	.LBE393:
 1046              		.loc 1 302 0
 1047 0008 80B5     		push	{r7, lr}	@
 1048              		.cfi_def_cfa_offset 28
 1049              		.cfi_offset 8, -28
 1050              		.cfi_offset 9, -24
 303:../../lpc11cx4-library/lpc_chip_11cxx_lib/src/ssp_11xx.c **** 	uint32_t rx_cnt = 0, tx_cnt = 0;
 304:../../lpc11cx4-library/lpc_chip_11cxx_lib/src/ssp_11xx.c **** 
 305:../../lpc11cx4-library/lpc_chip_11cxx_lib/src/ssp_11xx.c **** 	/* Clear all remaining frames in RX FIFO */
 306:../../lpc11cx4-library/lpc_chip_11cxx_lib/src/ssp_11xx.c **** 	while (Chip_SSP_GetStatus(pSSP, SSP_STAT_RNE)) {
 1051              		.loc 1 306 0
 1052 000a 5B07     		lsls	r3, r3, #29	@ tmp211, _109,
 1053 000c 04D5     		bpl	.L119	@,
 1054              	.LBB397:
 1055              	.LBB395:
 284:../../lpc11cx4-library/lpc_chip_11cxx_lib/inc/ssp_11xx.h **** }
 1056              		.loc 2 284 0
 1057 000e 0424     		movs	r4, #4	@ tmp173,
 1058              	.L149:
 1059              	.LVL95:
 1060              	.LBE395:
 1061              	.LBE397:
 1062              	.LBB398:
 1063              	.LBB399:
 366:../../lpc11cx4-library/lpc_chip_11cxx_lib/inc/ssp_11xx.h **** }
 1064              		.loc 2 366 0
 1065 0010 8368     		ldr	r3, [r0, #8]	@ _43, pSSP_26(D)->DR
 1066              	.LVL96:
 1067              	.LBE399:
 1068              	.LBE398:
 1069              	.LBB400:
 1070              	.LBB396:
 284:../../lpc11cx4-library/lpc_chip_11cxx_lib/inc/ssp_11xx.h **** }
 1071              		.loc 2 284 0
 1072 0012 C368     		ldr	r3, [r0, #12]	@ _44, pSSP_26(D)->SR
 1073              	.LVL97:
 1074              	.LBE396:
 1075              	.LBE400:
 1076              		.loc 1 306 0
 1077 0014 1C42     		tst	r4, r3	@ tmp173, _44
 1078 0016 FBD1     		bne	.L149	@,
 1079              	.LVL98:
 1080              	.L119:
 1081              	.LBB401:
 1082              	.LBB402:
 336:../../lpc11cx4-library/lpc_chip_11cxx_lib/inc/ssp_11xx.h **** }
 1083              		.loc 2 336 0
 1084 0018 0323     		movs	r3, #3	@ tmp175,
 1085 001a 0362     		str	r3, [r0, #32]	@ tmp175, pSSP_26(D)->ICR
 1086              	.LVL99:
 1087              	.LBE402:
 1088              	.LBE401:
 1089              	.LBB403:
 1090              	.LBB404:
ARM GAS  /tmp/ccGKa4GA.s 			page 34


 322:../../lpc11cx4-library/lpc_chip_11cxx_lib/inc/ssp_11xx.h **** }
 1091              		.loc 2 322 0
 1092 001c 0468     		ldr	r4, [r0]	@ _47, pSSP_26(D)->CR0
 1093              	.LVL100:
 1094              	.LBE404:
 1095              	.LBE403:
 307:../../lpc11cx4-library/lpc_chip_11cxx_lib/src/ssp_11xx.c **** 		Chip_SSP_ReceiveFrame(pSSP);
 308:../../lpc11cx4-library/lpc_chip_11cxx_lib/src/ssp_11xx.c **** 	}
 309:../../lpc11cx4-library/lpc_chip_11cxx_lib/src/ssp_11xx.c **** 
 310:../../lpc11cx4-library/lpc_chip_11cxx_lib/src/ssp_11xx.c **** 	/* Clear status */
 311:../../lpc11cx4-library/lpc_chip_11cxx_lib/src/ssp_11xx.c **** 	Chip_SSP_ClearIntPending(pSSP, SSP_INT_CLEAR_BITMASK);
 312:../../lpc11cx4-library/lpc_chip_11cxx_lib/src/ssp_11xx.c **** 
 313:../../lpc11cx4-library/lpc_chip_11cxx_lib/src/ssp_11xx.c **** 	if (Chip_SSP_GetDataSize(pSSP) > SSP_BITS_8) {
 1096              		.loc 1 313 0
 1097 001e 0C33     		adds	r3, r3, #12	@ tmp180,
 1098 0020 2340     		ands	r3, r4	@ tmp181, _47
 1099 0022 0026     		movs	r6, #0	@ tx_cnt,
 1100 0024 072B     		cmp	r3, #7	@ tmp181,
 1101 0026 31D8     		bhi	.L121	@,
 1102              	.LBB405:
 1103              	.LBB406:
 1104              	.LBB407:
 284:../../lpc11cx4-library/lpc_chip_11cxx_lib/inc/ssp_11xx.h **** }
 1105              		.loc 2 284 0
 1106 0028 0224     		movs	r4, #2	@ tmp207,
 1107 002a A446     		mov	ip, r4	@ tmp207, tmp207
 1108              	.LBE407:
 1109              	.LBE406:
 1110              	.LBB410:
 1111              	.LBB411:
 1112              		.loc 2 377 0
 1113 002c FD34     		adds	r4, r4, #253	@ tmp208,
 1114 002e A046     		mov	r8, r4	@ tmp208, tmp208
 1115              	.LBE411:
 1116              	.LBE410:
 1117              	.LBB414:
 1118              	.LBB415:
 311:../../lpc11cx4-library/lpc_chip_11cxx_lib/inc/ssp_11xx.h **** }
 1119              		.loc 2 311 0
 1120 0030 FE3C     		subs	r4, r4, #254	@ tmp209,
 1121              	.LBE415:
 1122              	.LBE414:
 1123              	.LBE405:
 1124 0032 0023     		movs	r3, #0	@ <retval>,
 1125              	.LBB434:
 1126              	.LBB419:
 1127              	.LBB416:
 1128 0034 A146     		mov	r9, r4	@ tmp209, tmp209
 1129              	.LBE416:
 1130              	.LBE419:
 1131              	.LBB420:
 1132              	.LBB421:
 284:../../lpc11cx4-library/lpc_chip_11cxx_lib/inc/ssp_11xx.h **** }
 1133              		.loc 2 284 0
 1134 0036 0425     		movs	r5, #4	@ tmp210,
 1135              	.LVL101:
 1136              	.L122:
ARM GAS  /tmp/ccGKa4GA.s 			page 35


 1137              	.LBE421:
 1138              	.LBE420:
 314:../../lpc11cx4-library/lpc_chip_11cxx_lib/src/ssp_11xx.c **** 		uint16_t *rdata16;
 315:../../lpc11cx4-library/lpc_chip_11cxx_lib/src/ssp_11xx.c **** 
 316:../../lpc11cx4-library/lpc_chip_11cxx_lib/src/ssp_11xx.c **** 		rdata16 = (uint16_t *) buffer;
 317:../../lpc11cx4-library/lpc_chip_11cxx_lib/src/ssp_11xx.c **** 
 318:../../lpc11cx4-library/lpc_chip_11cxx_lib/src/ssp_11xx.c **** 		while (tx_cnt < buffer_len || rx_cnt < buffer_len) {
 319:../../lpc11cx4-library/lpc_chip_11cxx_lib/src/ssp_11xx.c **** 			/* write data to buffer */
 320:../../lpc11cx4-library/lpc_chip_11cxx_lib/src/ssp_11xx.c **** 			if ((Chip_SSP_GetStatus(pSSP, SSP_STAT_TNF) == SET) && (tx_cnt < buffer_len)) {
 321:../../lpc11cx4-library/lpc_chip_11cxx_lib/src/ssp_11xx.c **** 				Chip_SSP_SendFrame(pSSP, 0xFFFF);	/* just send dummy data */
 322:../../lpc11cx4-library/lpc_chip_11cxx_lib/src/ssp_11xx.c **** 				tx_cnt += 2;
 323:../../lpc11cx4-library/lpc_chip_11cxx_lib/src/ssp_11xx.c **** 			}
 324:../../lpc11cx4-library/lpc_chip_11cxx_lib/src/ssp_11xx.c **** 
 325:../../lpc11cx4-library/lpc_chip_11cxx_lib/src/ssp_11xx.c **** 			/* Check overrun error */
 326:../../lpc11cx4-library/lpc_chip_11cxx_lib/src/ssp_11xx.c **** 			if (Chip_SSP_GetRawIntStatus(pSSP, SSP_RORRIS) == SET) {
 327:../../lpc11cx4-library/lpc_chip_11cxx_lib/src/ssp_11xx.c **** 				return ERROR;
 328:../../lpc11cx4-library/lpc_chip_11cxx_lib/src/ssp_11xx.c **** 			}
 329:../../lpc11cx4-library/lpc_chip_11cxx_lib/src/ssp_11xx.c **** 
 330:../../lpc11cx4-library/lpc_chip_11cxx_lib/src/ssp_11xx.c **** 			/* Check for any data available in RX FIFO */
 331:../../lpc11cx4-library/lpc_chip_11cxx_lib/src/ssp_11xx.c **** 			while (Chip_SSP_GetStatus(pSSP, SSP_STAT_RNE) == SET && rx_cnt < buffer_len) {
 332:../../lpc11cx4-library/lpc_chip_11cxx_lib/src/ssp_11xx.c **** 				*rdata16 = Chip_SSP_ReceiveFrame(pSSP);
 333:../../lpc11cx4-library/lpc_chip_11cxx_lib/src/ssp_11xx.c **** 				rdata16++;
 334:../../lpc11cx4-library/lpc_chip_11cxx_lib/src/ssp_11xx.c **** 				rx_cnt += 2;
 335:../../lpc11cx4-library/lpc_chip_11cxx_lib/src/ssp_11xx.c **** 			}
 336:../../lpc11cx4-library/lpc_chip_11cxx_lib/src/ssp_11xx.c **** 		}
 337:../../lpc11cx4-library/lpc_chip_11cxx_lib/src/ssp_11xx.c **** 	}
 338:../../lpc11cx4-library/lpc_chip_11cxx_lib/src/ssp_11xx.c **** 	else {
 339:../../lpc11cx4-library/lpc_chip_11cxx_lib/src/ssp_11xx.c **** 		uint8_t *rdata8;
 340:../../lpc11cx4-library/lpc_chip_11cxx_lib/src/ssp_11xx.c **** 
 341:../../lpc11cx4-library/lpc_chip_11cxx_lib/src/ssp_11xx.c **** 		rdata8 = buffer;
 342:../../lpc11cx4-library/lpc_chip_11cxx_lib/src/ssp_11xx.c **** 
 343:../../lpc11cx4-library/lpc_chip_11cxx_lib/src/ssp_11xx.c **** 		while (tx_cnt < buffer_len || rx_cnt < buffer_len) {
 1139              		.loc 1 343 0
 1140 0038 9642     		cmp	r6, r2	@ tx_cnt, buffer_len
 1141 003a 16D3     		bcc	.L133	@,
 1142              	.L161:
 1143              		.loc 1 343 0 is_stmt 0 discriminator 1
 1144 003c 9342     		cmp	r3, r2	@ <retval>, buffer_len
 1145 003e 20D2     		bcs	.L118	@,
 1146              	.LVL102:
 1147              	.LBB424:
 1148              	.LBB408:
 284:../../lpc11cx4-library/lpc_chip_11cxx_lib/inc/ssp_11xx.h **** }
 1149              		.loc 2 284 0 is_stmt 1
 1150 0040 C468     		ldr	r4, [r0, #12]	@ _1, pSSP_26(D)->SR
 1151              	.LVL103:
 1152              	.L137:
 1153              	.LBE408:
 1154              	.LBE424:
 344:../../lpc11cx4-library/lpc_chip_11cxx_lib/src/ssp_11xx.c **** 			/* write data to buffer */
 345:../../lpc11cx4-library/lpc_chip_11cxx_lib/src/ssp_11xx.c **** 			if ((Chip_SSP_GetStatus(pSSP, SSP_STAT_TNF) == SET) && (tx_cnt < buffer_len)) {
 346:../../lpc11cx4-library/lpc_chip_11cxx_lib/src/ssp_11xx.c **** 				Chip_SSP_SendFrame(pSSP, 0xFF);	/* just send dummy data		 */
 347:../../lpc11cx4-library/lpc_chip_11cxx_lib/src/ssp_11xx.c **** 				tx_cnt++;
 348:../../lpc11cx4-library/lpc_chip_11cxx_lib/src/ssp_11xx.c **** 			}
 349:../../lpc11cx4-library/lpc_chip_11cxx_lib/src/ssp_11xx.c **** 
 350:../../lpc11cx4-library/lpc_chip_11cxx_lib/src/ssp_11xx.c **** 			/* Check overrun error */
 351:../../lpc11cx4-library/lpc_chip_11cxx_lib/src/ssp_11xx.c **** 			if (Chip_SSP_GetRawIntStatus(pSSP, SSP_RORRIS) == SET) {
ARM GAS  /tmp/ccGKa4GA.s 			page 36


 1155              		.loc 1 351 0
 1156 0042 4F46     		mov	r7, r9	@ tmp209, tmp209
 1157              	.LBB425:
 1158              	.LBB417:
 311:../../lpc11cx4-library/lpc_chip_11cxx_lib/inc/ssp_11xx.h **** }
 1159              		.loc 2 311 0
 1160 0044 8469     		ldr	r4, [r0, #24]	@ _60, pSSP_26(D)->RIS
 1161              	.LVL104:
 1162              	.LBE417:
 1163              	.LBE425:
 1164              		.loc 1 351 0
 1165 0046 2742     		tst	r7, r4	@ tmp209, _60
 1166 0048 1AD1     		bne	.L130	@,
 1167              	.L162:
 1168              	.LVL105:
 1169              	.LBB426:
 1170              	.LBB422:
 284:../../lpc11cx4-library/lpc_chip_11cxx_lib/inc/ssp_11xx.h **** }
 1171              		.loc 2 284 0
 1172 004a C468     		ldr	r4, [r0, #12]	@ _102, pSSP_26(D)->SR
 1173              	.LVL106:
 1174              	.LBE422:
 1175              	.LBE426:
 352:../../lpc11cx4-library/lpc_chip_11cxx_lib/src/ssp_11xx.c **** 				return ERROR;
 353:../../lpc11cx4-library/lpc_chip_11cxx_lib/src/ssp_11xx.c **** 			}
 354:../../lpc11cx4-library/lpc_chip_11cxx_lib/src/ssp_11xx.c **** 
 355:../../lpc11cx4-library/lpc_chip_11cxx_lib/src/ssp_11xx.c **** 			/* Check for any data available in RX FIFO */
 356:../../lpc11cx4-library/lpc_chip_11cxx_lib/src/ssp_11xx.c **** 			while (Chip_SSP_GetStatus(pSSP, SSP_STAT_RNE) == SET && rx_cnt < buffer_len) {
 1176              		.loc 1 356 0
 1177 004c 2542     		tst	r5, r4	@ tmp210, _102
 1178 004e F3D0     		beq	.L122	@,
 1179 0050 9342     		cmp	r3, r2	@ <retval>, buffer_len
 1180 0052 F1D2     		bcs	.L122	@,
 1181              	.L132:
 1182              	.LVL107:
 1183              	.LBB427:
 1184              	.LBB428:
 366:../../lpc11cx4-library/lpc_chip_11cxx_lib/inc/ssp_11xx.h **** }
 1185              		.loc 2 366 0
 1186 0054 8468     		ldr	r4, [r0, #8]	@ _62, pSSP_26(D)->DR
 1187              	.LVL108:
 1188              	.LBE428:
 1189              	.LBE427:
 357:../../lpc11cx4-library/lpc_chip_11cxx_lib/src/ssp_11xx.c **** 				*rdata8 = Chip_SSP_ReceiveFrame(pSSP);
 358:../../lpc11cx4-library/lpc_chip_11cxx_lib/src/ssp_11xx.c **** 				rdata8++;
 359:../../lpc11cx4-library/lpc_chip_11cxx_lib/src/ssp_11xx.c **** 				rx_cnt++;
 1190              		.loc 1 359 0
 1191 0056 0133     		adds	r3, r3, #1	@ <retval>,
 1192              	.LVL109:
 357:../../lpc11cx4-library/lpc_chip_11cxx_lib/src/ssp_11xx.c **** 				*rdata8 = Chip_SSP_ReceiveFrame(pSSP);
 1193              		.loc 1 357 0
 1194 0058 0C70     		strb	r4, [r1]	@ _62, MEM[base: rdata8_105, offset: 0B]
 1195              	.LBB429:
 1196              	.LBB423:
 284:../../lpc11cx4-library/lpc_chip_11cxx_lib/inc/ssp_11xx.h **** }
 1197              		.loc 2 284 0
 1198 005a C468     		ldr	r4, [r0, #12]	@ _63, pSSP_26(D)->SR
ARM GAS  /tmp/ccGKa4GA.s 			page 37


 1199              	.LBE423:
 1200              	.LBE429:
 358:../../lpc11cx4-library/lpc_chip_11cxx_lib/src/ssp_11xx.c **** 				rx_cnt++;
 1201              		.loc 1 358 0
 1202 005c 0131     		adds	r1, r1, #1	@ buffer,
 1203              	.LVL110:
 356:../../lpc11cx4-library/lpc_chip_11cxx_lib/src/ssp_11xx.c **** 				*rdata8 = Chip_SSP_ReceiveFrame(pSSP);
 1204              		.loc 1 356 0
 1205 005e 2542     		tst	r5, r4	@ tmp210, _63
 1206 0060 EAD0     		beq	.L122	@,
 356:../../lpc11cx4-library/lpc_chip_11cxx_lib/src/ssp_11xx.c **** 				*rdata8 = Chip_SSP_ReceiveFrame(pSSP);
 1207              		.loc 1 356 0 is_stmt 0 discriminator 1
 1208 0062 9A42     		cmp	r2, r3	@ buffer_len, <retval>
 1209 0064 F6D1     		bne	.L132	@,
 343:../../lpc11cx4-library/lpc_chip_11cxx_lib/src/ssp_11xx.c **** 			/* write data to buffer */
 1210              		.loc 1 343 0 is_stmt 1
 1211 0066 9642     		cmp	r6, r2	@ tx_cnt, buffer_len
 1212 0068 E8D2     		bcs	.L161	@,
 1213              	.L133:
 1214              	.LVL111:
 345:../../lpc11cx4-library/lpc_chip_11cxx_lib/src/ssp_11xx.c **** 				Chip_SSP_SendFrame(pSSP, 0xFF);	/* just send dummy data		 */
 1215              		.loc 1 345 0
 1216 006a 6746     		mov	r7, ip	@ tmp207, tmp207
 1217              	.LBB430:
 1218              	.LBB409:
 284:../../lpc11cx4-library/lpc_chip_11cxx_lib/inc/ssp_11xx.h **** }
 1219              		.loc 2 284 0
 1220 006c C468     		ldr	r4, [r0, #12]	@ _93, pSSP_26(D)->SR
 1221              	.LVL112:
 1222              	.LBE409:
 1223              	.LBE430:
 345:../../lpc11cx4-library/lpc_chip_11cxx_lib/src/ssp_11xx.c **** 				Chip_SSP_SendFrame(pSSP, 0xFF);	/* just send dummy data		 */
 1224              		.loc 1 345 0
 1225 006e 2742     		tst	r7, r4	@ tmp207, _93
 1226 0070 E7D0     		beq	.L137	@,
 1227              	.LVL113:
 1228              	.LBB431:
 1229              	.LBB412:
 1230              		.loc 2 377 0
 1231 0072 4446     		mov	r4, r8	@ tmp208, tmp208
 1232              	.LBE412:
 1233              	.LBE431:
 351:../../lpc11cx4-library/lpc_chip_11cxx_lib/src/ssp_11xx.c **** 				return ERROR;
 1234              		.loc 1 351 0
 1235 0074 4F46     		mov	r7, r9	@ tmp209, tmp209
 1236              	.LBB432:
 1237              	.LBB413:
 1238              		.loc 2 377 0
 1239 0076 8460     		str	r4, [r0, #8]	@ tmp208, pSSP_26(D)->DR
 1240              	.LVL114:
 1241              	.LBE413:
 1242              	.LBE432:
 1243              	.LBB433:
 1244              	.LBB418:
 311:../../lpc11cx4-library/lpc_chip_11cxx_lib/inc/ssp_11xx.h **** }
 1245              		.loc 2 311 0
 1246 0078 8469     		ldr	r4, [r0, #24]	@ _60, pSSP_26(D)->RIS
ARM GAS  /tmp/ccGKa4GA.s 			page 38


 1247              	.LBE418:
 1248              	.LBE433:
 347:../../lpc11cx4-library/lpc_chip_11cxx_lib/src/ssp_11xx.c **** 			}
 1249              		.loc 1 347 0
 1250 007a 0136     		adds	r6, r6, #1	@ tx_cnt,
 1251              	.LVL115:
 351:../../lpc11cx4-library/lpc_chip_11cxx_lib/src/ssp_11xx.c **** 				return ERROR;
 1252              		.loc 1 351 0
 1253 007c 2742     		tst	r7, r4	@ tmp209, _60
 1254 007e E4D0     		beq	.L162	@,
 1255              	.LVL116:
 1256              	.L130:
 1257              	.LBE434:
 1258              	.LBB435:
 327:../../lpc11cx4-library/lpc_chip_11cxx_lib/src/ssp_11xx.c **** 			}
 1259              		.loc 1 327 0
 1260 0080 0023     		movs	r3, #0	@ <retval>,
 1261              	.LVL117:
 1262              	.L118:
 1263              	.LBE435:
 360:../../lpc11cx4-library/lpc_chip_11cxx_lib/src/ssp_11xx.c **** 			}
 361:../../lpc11cx4-library/lpc_chip_11cxx_lib/src/ssp_11xx.c **** 		}
 362:../../lpc11cx4-library/lpc_chip_11cxx_lib/src/ssp_11xx.c **** 	}
 363:../../lpc11cx4-library/lpc_chip_11cxx_lib/src/ssp_11xx.c **** 
 364:../../lpc11cx4-library/lpc_chip_11cxx_lib/src/ssp_11xx.c **** 	return rx_cnt;
 365:../../lpc11cx4-library/lpc_chip_11cxx_lib/src/ssp_11xx.c **** 
 366:../../lpc11cx4-library/lpc_chip_11cxx_lib/src/ssp_11xx.c **** }
 1264              		.loc 1 366 0
 1265 0082 1800     		movs	r0, r3	@, <retval>
 1266              	.LVL118:
 1267              		@ sp needed	@
 1268              	.LVL119:
 1269 0084 0CBC     		pop	{r2, r3}
 1270 0086 9046     		mov	r8, r2
 1271 0088 9946     		mov	r9, r3
 1272 008a F0BD     		pop	{r4, r5, r6, r7, pc}
 1273              	.LVL120:
 1274              	.L121:
 1275              	.LBB466:
 1276              	.LBB436:
 1277              	.LBB437:
 284:../../lpc11cx4-library/lpc_chip_11cxx_lib/inc/ssp_11xx.h **** }
 1278              		.loc 2 284 0
 1279 008c 0224     		movs	r4, #2	@ tmp203,
 1280 008e A446     		mov	ip, r4	@ tmp203, tmp203
 1281              	.LBE437:
 1282              	.LBE436:
 1283              	.LBB440:
 1284              	.LBB441:
 1285              		.loc 2 377 0
 1286 0090 124C     		ldr	r4, .L164	@ tmp204,
 1287              	.LBE441:
 1288              	.LBE440:
 1289              	.LBE466:
 1290 0092 0023     		movs	r3, #0	@ <retval>,
 1291              	.LBB467:
 1292              	.LBB445:
ARM GAS  /tmp/ccGKa4GA.s 			page 39


 1293              	.LBB442:
 1294 0094 A046     		mov	r8, r4	@ tmp204, tmp204
 1295              	.LBE442:
 1296              	.LBE445:
 1297              	.LBB446:
 1298              	.LBB447:
 311:../../lpc11cx4-library/lpc_chip_11cxx_lib/inc/ssp_11xx.h **** }
 1299              		.loc 2 311 0
 1300 0096 0124     		movs	r4, #1	@ tmp205,
 1301              	.LBE447:
 1302              	.LBE446:
 1303              	.LBB450:
 1304              	.LBB451:
 284:../../lpc11cx4-library/lpc_chip_11cxx_lib/inc/ssp_11xx.h **** }
 1305              		.loc 2 284 0
 1306 0098 0425     		movs	r5, #4	@ tmp206,
 1307              	.LBE451:
 1308              	.LBE450:
 1309              	.LBB454:
 1310              	.LBB448:
 311:../../lpc11cx4-library/lpc_chip_11cxx_lib/inc/ssp_11xx.h **** }
 1311              		.loc 2 311 0
 1312 009a A146     		mov	r9, r4	@ tmp205, tmp205
 1313              	.LVL121:
 1314              	.L123:
 1315              	.LBE448:
 1316              	.LBE454:
 318:../../lpc11cx4-library/lpc_chip_11cxx_lib/src/ssp_11xx.c **** 			/* write data to buffer */
 1317              		.loc 1 318 0
 1318 009c 9642     		cmp	r6, r2	@ tx_cnt, buffer_len
 1319 009e 14D3     		bcc	.L128	@,
 1320              	.L163:
 318:../../lpc11cx4-library/lpc_chip_11cxx_lib/src/ssp_11xx.c **** 			/* write data to buffer */
 1321              		.loc 1 318 0 is_stmt 0 discriminator 1
 1322 00a0 9342     		cmp	r3, r2	@ <retval>, buffer_len
 1323 00a2 EED2     		bcs	.L118	@,
 1324              	.LVL122:
 1325              	.LBB455:
 1326              	.LBB438:
 284:../../lpc11cx4-library/lpc_chip_11cxx_lib/inc/ssp_11xx.h **** }
 1327              		.loc 2 284 0 is_stmt 1
 1328 00a4 C468     		ldr	r4, [r0, #12]	@ _17, pSSP_26(D)->SR
 1329              	.LVL123:
 1330              	.L136:
 1331              	.LBE438:
 1332              	.LBE455:
 326:../../lpc11cx4-library/lpc_chip_11cxx_lib/src/ssp_11xx.c **** 				return ERROR;
 1333              		.loc 1 326 0
 1334 00a6 4F46     		mov	r7, r9	@ tmp205, tmp205
 1335              	.LBB456:
 1336              	.LBB449:
 311:../../lpc11cx4-library/lpc_chip_11cxx_lib/inc/ssp_11xx.h **** }
 1337              		.loc 2 311 0
 1338 00a8 8469     		ldr	r4, [r0, #24]	@ _52, pSSP_26(D)->RIS
 1339              	.LVL124:
 1340              	.LBE449:
 1341              	.LBE456:
ARM GAS  /tmp/ccGKa4GA.s 			page 40


 326:../../lpc11cx4-library/lpc_chip_11cxx_lib/src/ssp_11xx.c **** 				return ERROR;
 1342              		.loc 1 326 0
 1343 00aa 2742     		tst	r7, r4	@ tmp205, _52
 1344 00ac E8D1     		bne	.L130	@,
 1345              	.LVL125:
 1346              	.LBB457:
 1347              	.LBB452:
 284:../../lpc11cx4-library/lpc_chip_11cxx_lib/inc/ssp_11xx.h **** }
 1348              		.loc 2 284 0
 1349 00ae C468     		ldr	r4, [r0, #12]	@ _112,
 1350              	.LVL126:
 1351              	.LBE452:
 1352              	.LBE457:
 331:../../lpc11cx4-library/lpc_chip_11cxx_lib/src/ssp_11xx.c **** 				*rdata16 = Chip_SSP_ReceiveFrame(pSSP);
 1353              		.loc 1 331 0
 1354 00b0 2542     		tst	r5, r4	@ tmp206, _112
 1355 00b2 F3D0     		beq	.L123	@,
 1356              	.L158:
 1357 00b4 9342     		cmp	r3, r2	@ <retval>, buffer_len
 1358 00b6 F1D2     		bcs	.L123	@,
 1359              	.LVL127:
 1360              	.LBB458:
 1361              	.LBB459:
 366:../../lpc11cx4-library/lpc_chip_11cxx_lib/inc/ssp_11xx.h **** }
 1362              		.loc 2 366 0
 1363 00b8 8468     		ldr	r4, [r0, #8]	@ _54, pSSP_26(D)->DR
 1364              	.LVL128:
 1365              	.LBE459:
 1366              	.LBE458:
 334:../../lpc11cx4-library/lpc_chip_11cxx_lib/src/ssp_11xx.c **** 			}
 1367              		.loc 1 334 0
 1368 00ba 0233     		adds	r3, r3, #2	@ <retval>,
 1369              	.LVL129:
 1370              	.LBB461:
 1371              	.LBB460:
 366:../../lpc11cx4-library/lpc_chip_11cxx_lib/inc/ssp_11xx.h **** }
 1372              		.loc 2 366 0
 1373 00bc 0C80     		strh	r4, [r1]	@ _54, MEM[base: rdata16_95, offset: 0B]
 1374              	.LBE460:
 1375              	.LBE461:
 1376              	.LBB462:
 1377              	.LBB453:
 284:../../lpc11cx4-library/lpc_chip_11cxx_lib/inc/ssp_11xx.h **** }
 1378              		.loc 2 284 0
 1379 00be C468     		ldr	r4, [r0, #12]	@ _56,
 1380              	.LBE453:
 1381              	.LBE462:
 333:../../lpc11cx4-library/lpc_chip_11cxx_lib/src/ssp_11xx.c **** 				rx_cnt += 2;
 1382              		.loc 1 333 0
 1383 00c0 0231     		adds	r1, r1, #2	@ rdata16,
 1384              	.LVL130:
 331:../../lpc11cx4-library/lpc_chip_11cxx_lib/src/ssp_11xx.c **** 				*rdata16 = Chip_SSP_ReceiveFrame(pSSP);
 1385              		.loc 1 331 0
 1386 00c2 2542     		tst	r5, r4	@ tmp206, _56
 1387 00c4 F6D1     		bne	.L158	@,
 318:../../lpc11cx4-library/lpc_chip_11cxx_lib/src/ssp_11xx.c **** 			/* write data to buffer */
 1388              		.loc 1 318 0
ARM GAS  /tmp/ccGKa4GA.s 			page 41


 1389 00c6 9642     		cmp	r6, r2	@ tx_cnt, buffer_len
 1390 00c8 EAD2     		bcs	.L163	@,
 1391              	.L128:
 1392              	.LVL131:
 320:../../lpc11cx4-library/lpc_chip_11cxx_lib/src/ssp_11xx.c **** 				Chip_SSP_SendFrame(pSSP, 0xFFFF);	/* just send dummy data */
 1393              		.loc 1 320 0
 1394 00ca 6746     		mov	r7, ip	@ tmp203, tmp203
 1395              	.LBB463:
 1396              	.LBB439:
 284:../../lpc11cx4-library/lpc_chip_11cxx_lib/inc/ssp_11xx.h **** }
 1397              		.loc 2 284 0
 1398 00cc C468     		ldr	r4, [r0, #12]	@ _110, pSSP_26(D)->SR
 1399              	.LVL132:
 1400              	.LBE439:
 1401              	.LBE463:
 320:../../lpc11cx4-library/lpc_chip_11cxx_lib/src/ssp_11xx.c **** 				Chip_SSP_SendFrame(pSSP, 0xFFFF);	/* just send dummy data */
 1402              		.loc 1 320 0
 1403 00ce 2742     		tst	r7, r4	@ tmp203, _110
 1404 00d0 E9D0     		beq	.L136	@,
 1405              	.LVL133:
 1406              	.LBB464:
 1407              	.LBB443:
 1408              		.loc 2 377 0
 1409 00d2 4446     		mov	r4, r8	@ tmp204, tmp204
 1410              	.LBE443:
 1411              	.LBE464:
 322:../../lpc11cx4-library/lpc_chip_11cxx_lib/src/ssp_11xx.c **** 			}
 1412              		.loc 1 322 0
 1413 00d4 0236     		adds	r6, r6, #2	@ tx_cnt,
 1414              	.LVL134:
 1415              	.LBB465:
 1416              	.LBB444:
 1417              		.loc 2 377 0
 1418 00d6 8460     		str	r4, [r0, #8]	@ tmp204, pSSP_26(D)->DR
 1419              	.LVL135:
 1420 00d8 E5E7     		b	.L136	@
 1421              	.L165:
 1422 00da C046     		.align	2
 1423              	.L164:
 1424 00dc FFFF0000 		.word	65535
 1425              	.LBE444:
 1426              	.LBE465:
 1427              	.LBE467:
 1428              		.cfi_endproc
 1429              	.LFE209:
 1430              		.size	Chip_SSP_ReadFrames_Blocking, .-Chip_SSP_ReadFrames_Blocking
 1431              		.section	.text.Chip_SSP_Int_FlushData,"ax",%progbits
 1432              		.align	1
 1433              		.p2align 2,,3
 1434              		.global	Chip_SSP_Int_FlushData
 1435              		.syntax unified
 1436              		.code	16
 1437              		.thumb_func
 1438              		.fpu softvfp
 1439              		.type	Chip_SSP_Int_FlushData, %function
 1440              	Chip_SSP_Int_FlushData:
 1441              	.LFB210:
ARM GAS  /tmp/ccGKa4GA.s 			page 42


 367:../../lpc11cx4-library/lpc_chip_11cxx_lib/src/ssp_11xx.c **** 
 368:../../lpc11cx4-library/lpc_chip_11cxx_lib/src/ssp_11xx.c **** /* Clean all data in RX FIFO of SSP */
 369:../../lpc11cx4-library/lpc_chip_11cxx_lib/src/ssp_11xx.c **** void Chip_SSP_Int_FlushData(LPC_SSP_T *pSSP)
 370:../../lpc11cx4-library/lpc_chip_11cxx_lib/src/ssp_11xx.c **** {
 1442              		.loc 1 370 0
 1443              		.cfi_startproc
 1444              		@ args = 0, pretend = 0, frame = 0
 1445              		@ frame_needed = 0, uses_anonymous_args = 0
 1446              		@ link register save eliminated.
 1447              	.LVL136:
 1448              	.LBB468:
 1449              	.LBB469:
 284:../../lpc11cx4-library/lpc_chip_11cxx_lib/inc/ssp_11xx.h **** }
 1450              		.loc 2 284 0
 1451 0000 C368     		ldr	r3, [r0, #12]	@ _6, pSSP_4(D)->SR
 1452              	.LVL137:
 1453              	.LBE469:
 1454              	.LBE468:
 371:../../lpc11cx4-library/lpc_chip_11cxx_lib/src/ssp_11xx.c **** 	if (Chip_SSP_GetStatus(pSSP, SSP_STAT_BSY)) {
 1455              		.loc 1 371 0
 1456 0002 DB06     		lsls	r3, r3, #27	@ tmp129, _6,
 1457 0004 03D5     		bpl	.L167	@,
 1458              	.LBB470:
 1459              	.LBB471:
 284:../../lpc11cx4-library/lpc_chip_11cxx_lib/inc/ssp_11xx.h **** }
 1460              		.loc 2 284 0 discriminator 1
 1461 0006 1022     		movs	r2, #16	@ tmp122,
 1462              	.L176:
 1463              	.LVL138:
 1464 0008 C368     		ldr	r3, [r0, #12]	@ _8, pSSP_4(D)->SR
 1465              	.LVL139:
 1466              	.LBE471:
 1467              	.LBE470:
 372:../../lpc11cx4-library/lpc_chip_11cxx_lib/src/ssp_11xx.c **** 		while (Chip_SSP_GetStatus(pSSP, SSP_STAT_BSY)) {}
 1468              		.loc 1 372 0 discriminator 1
 1469 000a 1A42     		tst	r2, r3	@ tmp122, _8
 1470 000c FCD1     		bne	.L176	@,
 1471              	.L167:
 1472              	.LVL140:
 1473              	.LBB472:
 1474              	.LBB473:
 284:../../lpc11cx4-library/lpc_chip_11cxx_lib/inc/ssp_11xx.h **** }
 1475              		.loc 2 284 0
 1476 000e C368     		ldr	r3, [r0, #12]	@ _15, pSSP_4(D)->SR
 1477              	.LVL141:
 1478              	.LBE473:
 1479              	.LBE472:
 373:../../lpc11cx4-library/lpc_chip_11cxx_lib/src/ssp_11xx.c **** 	}
 374:../../lpc11cx4-library/lpc_chip_11cxx_lib/src/ssp_11xx.c **** 
 375:../../lpc11cx4-library/lpc_chip_11cxx_lib/src/ssp_11xx.c **** 	/* Clear all remaining frames in RX FIFO */
 376:../../lpc11cx4-library/lpc_chip_11cxx_lib/src/ssp_11xx.c **** 	while (Chip_SSP_GetStatus(pSSP, SSP_STAT_RNE)) {
 1480              		.loc 1 376 0
 1481 0010 5B07     		lsls	r3, r3, #29	@ tmp130, _15,
 1482 0012 04D5     		bpl	.L169	@,
 1483              	.LBB476:
 1484              	.LBB474:
 284:../../lpc11cx4-library/lpc_chip_11cxx_lib/inc/ssp_11xx.h **** }
ARM GAS  /tmp/ccGKa4GA.s 			page 43


 1485              		.loc 2 284 0
 1486 0014 0422     		movs	r2, #4	@ tmp126,
 1487              	.L175:
 1488              	.LVL142:
 1489              	.LBE474:
 1490              	.LBE476:
 1491              	.LBB477:
 1492              	.LBB478:
 366:../../lpc11cx4-library/lpc_chip_11cxx_lib/inc/ssp_11xx.h **** }
 1493              		.loc 2 366 0
 1494 0016 8368     		ldr	r3, [r0, #8]	@ _10, pSSP_4(D)->DR
 1495              	.LVL143:
 1496              	.LBE478:
 1497              	.LBE477:
 1498              	.LBB479:
 1499              	.LBB475:
 284:../../lpc11cx4-library/lpc_chip_11cxx_lib/inc/ssp_11xx.h **** }
 1500              		.loc 2 284 0
 1501 0018 C368     		ldr	r3, [r0, #12]	@ _11, pSSP_4(D)->SR
 1502              	.LVL144:
 1503              	.LBE475:
 1504              	.LBE479:
 1505              		.loc 1 376 0
 1506 001a 1A42     		tst	r2, r3	@ tmp126, _11
 1507 001c FBD1     		bne	.L175	@,
 1508              	.LVL145:
 1509              	.L169:
 1510              	.LBB480:
 1511              	.LBB481:
 336:../../lpc11cx4-library/lpc_chip_11cxx_lib/inc/ssp_11xx.h **** }
 1512              		.loc 2 336 0
 1513 001e 0323     		movs	r3, #3	@ tmp128,
 1514              	.LBE481:
 1515              	.LBE480:
 377:../../lpc11cx4-library/lpc_chip_11cxx_lib/src/ssp_11xx.c **** 		Chip_SSP_ReceiveFrame(pSSP);
 378:../../lpc11cx4-library/lpc_chip_11cxx_lib/src/ssp_11xx.c **** 	}
 379:../../lpc11cx4-library/lpc_chip_11cxx_lib/src/ssp_11xx.c **** 
 380:../../lpc11cx4-library/lpc_chip_11cxx_lib/src/ssp_11xx.c **** 	/* Clear status */
 381:../../lpc11cx4-library/lpc_chip_11cxx_lib/src/ssp_11xx.c **** 	Chip_SSP_ClearIntPending(pSSP, SSP_INT_CLEAR_BITMASK);
 382:../../lpc11cx4-library/lpc_chip_11cxx_lib/src/ssp_11xx.c **** }
 1516              		.loc 1 382 0
 1517              		@ sp needed	@
 1518              	.LBB483:
 1519              	.LBB482:
 336:../../lpc11cx4-library/lpc_chip_11cxx_lib/inc/ssp_11xx.h **** }
 1520              		.loc 2 336 0
 1521 0020 0362     		str	r3, [r0, #32]	@ tmp128, pSSP_4(D)->ICR
 1522              	.LVL146:
 1523              	.LBE482:
 1524              	.LBE483:
 1525              		.loc 1 382 0
 1526 0022 7047     		bx	lr
 1527              		.cfi_endproc
 1528              	.LFE210:
 1529              		.size	Chip_SSP_Int_FlushData, .-Chip_SSP_Int_FlushData
 1530              		.section	.text.Chip_SSP_Int_RWFrames8Bits,"ax",%progbits
 1531              		.align	1
ARM GAS  /tmp/ccGKa4GA.s 			page 44


 1532              		.p2align 2,,3
 1533              		.global	Chip_SSP_Int_RWFrames8Bits
 1534              		.syntax unified
 1535              		.code	16
 1536              		.thumb_func
 1537              		.fpu softvfp
 1538              		.type	Chip_SSP_Int_RWFrames8Bits, %function
 1539              	Chip_SSP_Int_RWFrames8Bits:
 1540              	.LFB211:
 383:../../lpc11cx4-library/lpc_chip_11cxx_lib/src/ssp_11xx.c **** 
 384:../../lpc11cx4-library/lpc_chip_11cxx_lib/src/ssp_11xx.c **** /* SSP Interrupt Read/Write with 8-bit frame width */
 385:../../lpc11cx4-library/lpc_chip_11cxx_lib/src/ssp_11xx.c **** Status Chip_SSP_Int_RWFrames8Bits(LPC_SSP_T *pSSP, Chip_SSP_DATA_SETUP_T *xf_setup)
 386:../../lpc11cx4-library/lpc_chip_11cxx_lib/src/ssp_11xx.c **** {
 1541              		.loc 1 386 0
 1542              		.cfi_startproc
 1543              		@ args = 0, pretend = 0, frame = 0
 1544              		@ frame_needed = 0, uses_anonymous_args = 0
 1545              	.LVL147:
 1546              	.LBB484:
 1547              	.LBB485:
 311:../../lpc11cx4-library/lpc_chip_11cxx_lib/inc/ssp_11xx.h **** }
 1548              		.loc 2 311 0
 1549 0000 8369     		ldr	r3, [r0, #24]	@ _15, pSSP_5(D)->RIS
 1550              	.LVL148:
 1551              	.LBE485:
 1552              	.LBE484:
 1553              		.loc 1 386 0
 1554 0002 F0B5     		push	{r4, r5, r6, r7, lr}	@
 1555              		.cfi_def_cfa_offset 20
 1556              		.cfi_offset 4, -20
 1557              		.cfi_offset 5, -16
 1558              		.cfi_offset 6, -12
 1559              		.cfi_offset 7, -8
 1560              		.cfi_offset 14, -4
 387:../../lpc11cx4-library/lpc_chip_11cxx_lib/src/ssp_11xx.c **** 	/* Check overrun error in RIS register */
 388:../../lpc11cx4-library/lpc_chip_11cxx_lib/src/ssp_11xx.c **** 	if (Chip_SSP_GetRawIntStatus(pSSP, SSP_RORRIS) == SET) {
 1561              		.loc 1 388 0
 1562 0004 DB07     		lsls	r3, r3, #31	@ tmp188, _15,
 1563 0006 51D4     		bmi	.L190	@,
 389:../../lpc11cx4-library/lpc_chip_11cxx_lib/src/ssp_11xx.c **** 		return ERROR;
 390:../../lpc11cx4-library/lpc_chip_11cxx_lib/src/ssp_11xx.c **** 	}
 391:../../lpc11cx4-library/lpc_chip_11cxx_lib/src/ssp_11xx.c **** 
 392:../../lpc11cx4-library/lpc_chip_11cxx_lib/src/ssp_11xx.c **** 	if ((xf_setup->tx_cnt != xf_setup->length) || (xf_setup->rx_cnt != xf_setup->length)) {
 1564              		.loc 1 392 0
 1565 0008 0A69     		ldr	r2, [r1, #16]	@ _9, xf_setup_7(D)->length
 1566 000a 4B68     		ldr	r3, [r1, #4]	@ tmp190, xf_setup_7(D)->tx_cnt
 1567 000c 9342     		cmp	r3, r2	@ tmp190, _9
 1568 000e 4FD0     		beq	.L184	@,
 1569              	.L189:
 1570              	.LVL149:
 1571              	.LBB486:
 1572              	.LBB487:
 1573              	.LBB488:
 1574              	.LBB489:
 284:../../lpc11cx4-library/lpc_chip_11cxx_lib/inc/ssp_11xx.h **** }
 1575              		.loc 2 284 0
 1576 0010 C368     		ldr	r3, [r0, #12]	@ _73, pSSP_5(D)->SR
ARM GAS  /tmp/ccGKa4GA.s 			page 45


 1577              	.LVL150:
 1578              	.LBE489:
 1579              	.LBE488:
  93:../../lpc11cx4-library/lpc_chip_11cxx_lib/src/ssp_11xx.c **** 		   (xf_setup->rx_cnt < xf_setup->length)) {
 1580              		.loc 1 93 0
 1581 0012 5B07     		lsls	r3, r3, #29	@ tmp189, _73,
 1582 0014 12D5     		bpl	.L188	@,
  94:../../lpc11cx4-library/lpc_chip_11cxx_lib/src/ssp_11xx.c **** 		rDat = Chip_SSP_ReceiveFrame(pSSP);
 1583              		.loc 1 94 0
 1584 0016 CB68     		ldr	r3, [r1, #12]	@ xf_setup_7(D)->rx_cnt, xf_setup_7(D)->rx_cnt
 1585              	.LBB492:
 1586              	.LBB490:
 284:../../lpc11cx4-library/lpc_chip_11cxx_lib/inc/ssp_11xx.h **** }
 1587              		.loc 2 284 0
 1588 0018 0425     		movs	r5, #4	@ tmp166,
 1589              	.LBE490:
 1590              	.LBE492:
  93:../../lpc11cx4-library/lpc_chip_11cxx_lib/src/ssp_11xx.c **** 		   (xf_setup->rx_cnt < xf_setup->length)) {
 1591              		.loc 1 93 0
 1592 001a 9A42     		cmp	r2, r3	@ _9, xf_setup_7(D)->rx_cnt
 1593 001c 03D8     		bhi	.L209	@,
 1594 001e 0DE0     		b	.L188	@
 1595              	.L216:
 1596 0020 0A69     		ldr	r2, [r1, #16]	@ tmp195, xf_setup_7(D)->length
 1597 0022 9342     		cmp	r3, r2	@ xf_setup_7(D)->rx_cnt, tmp195
 1598 0024 0AD2     		bcs	.L188	@,
 1599              	.L209:
 1600              	.LVL151:
  96:../../lpc11cx4-library/lpc_chip_11cxx_lib/src/ssp_11xx.c **** 			*(uint8_t *) ((uint32_t) xf_setup->rx_data + xf_setup->rx_cnt) = rDat;
 1601              		.loc 1 96 0
 1602 0026 8A68     		ldr	r2, [r1, #8]	@ _18, xf_setup_7(D)->rx_data
 1603              	.LBB493:
 1604              	.LBB494:
 366:../../lpc11cx4-library/lpc_chip_11cxx_lib/inc/ssp_11xx.h **** }
 1605              		.loc 2 366 0
 1606 0028 8468     		ldr	r4, [r0, #8]	@ _17, pSSP_5(D)->DR
 1607              	.LVL152:
 1608              	.LBE494:
 1609              	.LBE493:
  96:../../lpc11cx4-library/lpc_chip_11cxx_lib/src/ssp_11xx.c **** 			*(uint8_t *) ((uint32_t) xf_setup->rx_data + xf_setup->rx_cnt) = rDat;
 1610              		.loc 1 96 0
 1611 002a 002A     		cmp	r2, #0	@ _18,
 1612 002c 01D0     		beq	.L191	@,
  97:../../lpc11cx4-library/lpc_chip_11cxx_lib/src/ssp_11xx.c **** 		}
 1613              		.loc 1 97 0
 1614 002e D454     		strb	r4, [r2, r3]	@ _17, *_22
 1615 0030 CB68     		ldr	r3, [r1, #12]	@ xf_setup_7(D)->rx_cnt, xf_setup_7(D)->rx_cnt
 1616              	.L191:
 1617              	.LBB495:
 1618              	.LBB491:
 284:../../lpc11cx4-library/lpc_chip_11cxx_lib/inc/ssp_11xx.h **** }
 1619              		.loc 2 284 0
 1620 0032 C268     		ldr	r2, [r0, #12]	@ _26, pSSP_5(D)->SR
 1621              	.LBE491:
 1622              	.LBE495:
 100:../../lpc11cx4-library/lpc_chip_11cxx_lib/src/ssp_11xx.c **** 	}
 1623              		.loc 1 100 0
ARM GAS  /tmp/ccGKa4GA.s 			page 46


 1624 0034 0133     		adds	r3, r3, #1	@ xf_setup_7(D)->rx_cnt,
 1625 0036 CB60     		str	r3, [r1, #12]	@ xf_setup_7(D)->rx_cnt, xf_setup_7(D)->rx_cnt
 1626              	.LVL153:
  93:../../lpc11cx4-library/lpc_chip_11cxx_lib/src/ssp_11xx.c **** 		   (xf_setup->rx_cnt < xf_setup->length)) {
 1627              		.loc 1 93 0
 1628 0038 1542     		tst	r5, r2	@ tmp166, _26
 1629 003a F1D1     		bne	.L216	@,
 1630              	.L188:
 1631              	.LBE487:
 1632              	.LBE486:
 1633              	.LBB496:
 1634              	.LBB497:
 1635              	.LBB498:
 1636              	.LBB499:
 1637              		.loc 2 377 0
 1638 003c FF23     		movs	r3, #255	@ tmp185,
 1639              	.LBE499:
 1640              	.LBE498:
 1641              	.LBE497:
 1642              	.LBE496:
 1643              	.LBB509:
 1644              	.LBB510:
 284:../../lpc11cx4-library/lpc_chip_11cxx_lib/inc/ssp_11xx.h **** }
 1645              		.loc 2 284 0
 1646 003e 0226     		movs	r6, #2	@ tmp181,
 1647              	.LBE510:
 1648              	.LBE509:
 1649              	.LBB513:
 1650              	.LBB506:
 1651              	.LBB502:
 1652              	.LBB500:
 1653              		.loc 2 377 0
 1654 0040 9C46     		mov	ip, r3	@ tmp185, tmp185
 1655              	.LBE500:
 1656              	.LBE502:
 1657              	.LBE506:
 1658              	.LBE513:
 1659              	.LBB514:
 1660              	.LBB515:
 311:../../lpc11cx4-library/lpc_chip_11cxx_lib/inc/ssp_11xx.h **** }
 1661              		.loc 2 311 0
 1662 0042 0127     		movs	r7, #1	@ tmp186,
 1663              	.LBE515:
 1664              	.LBE514:
 1665              	.LBB518:
 1666              	.LBB519:
 1667              	.LBB520:
 1668              	.LBB521:
 284:../../lpc11cx4-library/lpc_chip_11cxx_lib/inc/ssp_11xx.h **** }
 1669              		.loc 2 284 0
 1670 0044 0425     		movs	r5, #4	@ tmp187,
 1671              	.L186:
 1672              	.LVL154:
 1673              	.LBE521:
 1674              	.LBE520:
 1675              	.LBE519:
 1676              	.LBE518:
ARM GAS  /tmp/ccGKa4GA.s 			page 47


 1677              	.LBB529:
 1678              	.LBB511:
 1679 0046 C368     		ldr	r3, [r0, #12]	@ _50, pSSP_5(D)->SR
 1680              	.LVL155:
 1681              	.LBE511:
 1682              	.LBE529:
 393:../../lpc11cx4-library/lpc_chip_11cxx_lib/src/ssp_11xx.c **** 		/* check if RX FIFO contains data */
 394:../../lpc11cx4-library/lpc_chip_11cxx_lib/src/ssp_11xx.c **** 		SSP_Read1BFifo(pSSP, xf_setup);
 395:../../lpc11cx4-library/lpc_chip_11cxx_lib/src/ssp_11xx.c **** 
 396:../../lpc11cx4-library/lpc_chip_11cxx_lib/src/ssp_11xx.c **** 		while ((Chip_SSP_GetStatus(pSSP, SSP_STAT_TNF)) && (xf_setup->tx_cnt != xf_setup->length)) {
 1683              		.loc 1 396 0
 1684 0048 1E42     		tst	r6, r3	@ tmp181, _50
 1685 004a 25D0     		beq	.L200	@,
 1686              	.L217:
 1687              		.loc 1 396 0 is_stmt 0 discriminator 1
 1688 004c 4B68     		ldr	r3, [r1, #4]	@ _12, xf_setup_7(D)->tx_cnt
 1689 004e 0A69     		ldr	r2, [r1, #16]	@ _13, xf_setup_7(D)->length
 1690 0050 9342     		cmp	r3, r2	@ _12, _13
 1691 0052 21D0     		beq	.L200	@,
 1692 0054 0C68     		ldr	r4, [r1]	@ _14, MEM[(void * *)xf_setup_7(D)]
 1693              	.LVL156:
 1694              	.LBB530:
 1695              	.LBB507:
  62:../../lpc11cx4-library/lpc_chip_11cxx_lib/src/ssp_11xx.c **** 		Chip_SSP_SendFrame(pSSP, (*(uint8_t *) ((uint32_t) xf_setup->tx_data + xf_setup->tx_cnt)));
 1696              		.loc 1 62 0 is_stmt 1
 1697 0056 002C     		cmp	r4, #0	@ _14,
 1698 0058 20D0     		beq	.L193	@,
 1699              	.LVL157:
 1700              	.LBB503:
 1701              	.LBB504:
 1702              		.loc 2 377 0
 1703 005a E35C     		ldrb	r3, [r4, r3]	@ _35, *_33
 1704              	.LVL158:
 1705 005c 8360     		str	r3, [r0, #8]	@ _35,
 1706              	.LVL159:
 1707              	.LBE504:
 1708              	.LBE503:
  69:../../lpc11cx4-library/lpc_chip_11cxx_lib/src/ssp_11xx.c **** }
 1709              		.loc 1 69 0
 1710 005e 4B68     		ldr	r3, [r1, #4]	@ tmp198, MEM[(uint32_t *)xf_setup_7(D) + 4B]
 1711              	.LVL160:
 1712 0060 0133     		adds	r3, r3, #1	@ tmp170,
 1713 0062 4B60     		str	r3, [r1, #4]	@ tmp170, MEM[(uint32_t *)xf_setup_7(D) + 4B]
 1714              	.LVL161:
 1715              	.LBE507:
 1716              	.LBE530:
 1717              	.LBB531:
 1718              	.LBB516:
 311:../../lpc11cx4-library/lpc_chip_11cxx_lib/inc/ssp_11xx.h **** }
 1719              		.loc 2 311 0
 1720 0064 8369     		ldr	r3, [r0, #24]	@ _29, pSSP_5(D)->RIS
 1721              	.LVL162:
 1722              	.LBE516:
 1723              	.LBE531:
 397:../../lpc11cx4-library/lpc_chip_11cxx_lib/src/ssp_11xx.c **** 			/* Write data to buffer */
 398:../../lpc11cx4-library/lpc_chip_11cxx_lib/src/ssp_11xx.c **** 			SSP_Write1BFifo(pSSP, xf_setup);
 399:../../lpc11cx4-library/lpc_chip_11cxx_lib/src/ssp_11xx.c **** 
ARM GAS  /tmp/ccGKa4GA.s 			page 48


 400:../../lpc11cx4-library/lpc_chip_11cxx_lib/src/ssp_11xx.c **** 			/* Check overrun error in RIS register */
 401:../../lpc11cx4-library/lpc_chip_11cxx_lib/src/ssp_11xx.c **** 			if (Chip_SSP_GetRawIntStatus(pSSP, SSP_RORRIS) == SET) {
 1724              		.loc 1 401 0
 1725 0066 1F42     		tst	r7, r3	@ tmp186, _29
 1726 0068 20D1     		bne	.L190	@,
 1727              	.LVL163:
 1728              	.L218:
 1729              	.LBB532:
 1730              	.LBB528:
 1731              	.LBB524:
 1732              	.LBB522:
 284:../../lpc11cx4-library/lpc_chip_11cxx_lib/inc/ssp_11xx.h **** }
 1733              		.loc 2 284 0
 1734 006a C368     		ldr	r3, [r0, #12]	@ _77, pSSP_5(D)->SR
 1735              	.LVL164:
 1736              	.LBE522:
 1737              	.LBE524:
  93:../../lpc11cx4-library/lpc_chip_11cxx_lib/src/ssp_11xx.c **** 		   (xf_setup->rx_cnt < xf_setup->length)) {
 1738              		.loc 1 93 0
 1739 006c 1D42     		tst	r5, r3	@ tmp187, _77
 1740 006e EAD0     		beq	.L186	@,
  94:../../lpc11cx4-library/lpc_chip_11cxx_lib/src/ssp_11xx.c **** 		rDat = Chip_SSP_ReceiveFrame(pSSP);
 1741              		.loc 1 94 0
 1742 0070 CB68     		ldr	r3, [r1, #12]	@ xf_setup_7(D)->rx_cnt, xf_setup_7(D)->rx_cnt
  93:../../lpc11cx4-library/lpc_chip_11cxx_lib/src/ssp_11xx.c **** 		   (xf_setup->rx_cnt < xf_setup->length)) {
 1743              		.loc 1 93 0
 1744 0072 9A42     		cmp	r2, r3	@ _13, xf_setup_7(D)->rx_cnt
 1745 0074 E7D9     		bls	.L186	@,
 1746              	.L198:
 1747              	.LVL165:
  96:../../lpc11cx4-library/lpc_chip_11cxx_lib/src/ssp_11xx.c **** 			*(uint8_t *) ((uint32_t) xf_setup->rx_data + xf_setup->rx_cnt) = rDat;
 1748              		.loc 1 96 0
 1749 0076 8A68     		ldr	r2, [r1, #8]	@ _39, xf_setup_7(D)->rx_data
 1750              	.LBB525:
 1751              	.LBB526:
 366:../../lpc11cx4-library/lpc_chip_11cxx_lib/inc/ssp_11xx.h **** }
 1752              		.loc 2 366 0
 1753 0078 8468     		ldr	r4, [r0, #8]	@ _38, pSSP_5(D)->DR
 1754              	.LVL166:
 1755              	.LBE526:
 1756              	.LBE525:
  96:../../lpc11cx4-library/lpc_chip_11cxx_lib/src/ssp_11xx.c **** 			*(uint8_t *) ((uint32_t) xf_setup->rx_data + xf_setup->rx_cnt) = rDat;
 1757              		.loc 1 96 0
 1758 007a 002A     		cmp	r2, #0	@ _39,
 1759 007c 01D0     		beq	.L197	@,
  97:../../lpc11cx4-library/lpc_chip_11cxx_lib/src/ssp_11xx.c **** 		}
 1760              		.loc 1 97 0
 1761 007e D454     		strb	r4, [r2, r3]	@ _38, *_43
 1762 0080 CB68     		ldr	r3, [r1, #12]	@ xf_setup_7(D)->rx_cnt, xf_setup_7(D)->rx_cnt
 1763              	.L197:
 1764              	.LBB527:
 1765              	.LBB523:
 284:../../lpc11cx4-library/lpc_chip_11cxx_lib/inc/ssp_11xx.h **** }
 1766              		.loc 2 284 0
 1767 0082 C268     		ldr	r2, [r0, #12]	@ _47, pSSP_5(D)->SR
 1768              	.LBE523:
 1769              	.LBE527:
ARM GAS  /tmp/ccGKa4GA.s 			page 49


 100:../../lpc11cx4-library/lpc_chip_11cxx_lib/src/ssp_11xx.c **** 	}
 1770              		.loc 1 100 0
 1771 0084 0133     		adds	r3, r3, #1	@ xf_setup_7(D)->rx_cnt,
 1772 0086 CB60     		str	r3, [r1, #12]	@ xf_setup_7(D)->rx_cnt, xf_setup_7(D)->rx_cnt
 1773              	.LVL167:
  93:../../lpc11cx4-library/lpc_chip_11cxx_lib/src/ssp_11xx.c **** 		   (xf_setup->rx_cnt < xf_setup->length)) {
 1774              		.loc 1 93 0
 1775 0088 1542     		tst	r5, r2	@ tmp187, _47
 1776 008a DCD0     		beq	.L186	@,
 1777 008c 0A69     		ldr	r2, [r1, #16]	@ tmp199, xf_setup_7(D)->length
 1778 008e 9342     		cmp	r3, r2	@ xf_setup_7(D)->rx_cnt, tmp199
 1779 0090 F1D3     		bcc	.L198	@,
 1780              	.LVL168:
 1781              	.LBE528:
 1782              	.LBE532:
 1783              	.LBB533:
 1784              	.LBB512:
 284:../../lpc11cx4-library/lpc_chip_11cxx_lib/inc/ssp_11xx.h **** }
 1785              		.loc 2 284 0
 1786 0092 C368     		ldr	r3, [r0, #12]	@ _50, pSSP_5(D)->SR
 1787              	.LVL169:
 1788              	.LBE512:
 1789              	.LBE533:
 396:../../lpc11cx4-library/lpc_chip_11cxx_lib/src/ssp_11xx.c **** 			/* Write data to buffer */
 1790              		.loc 1 396 0
 1791 0094 1E42     		tst	r6, r3	@ tmp181, _50
 1792 0096 D9D1     		bne	.L217	@,
 1793              	.LVL170:
 1794              	.L200:
 402:../../lpc11cx4-library/lpc_chip_11cxx_lib/src/ssp_11xx.c **** 				return ERROR;
 403:../../lpc11cx4-library/lpc_chip_11cxx_lib/src/ssp_11xx.c **** 			}
 404:../../lpc11cx4-library/lpc_chip_11cxx_lib/src/ssp_11xx.c **** 
 405:../../lpc11cx4-library/lpc_chip_11cxx_lib/src/ssp_11xx.c **** 			/*  Check for any data available in RX FIFO */
 406:../../lpc11cx4-library/lpc_chip_11cxx_lib/src/ssp_11xx.c **** 			SSP_Read1BFifo(pSSP, xf_setup);
 407:../../lpc11cx4-library/lpc_chip_11cxx_lib/src/ssp_11xx.c **** 		}
 408:../../lpc11cx4-library/lpc_chip_11cxx_lib/src/ssp_11xx.c **** 
 409:../../lpc11cx4-library/lpc_chip_11cxx_lib/src/ssp_11xx.c **** 		return SUCCESS;
 1795              		.loc 1 409 0
 1796 0098 0120     		movs	r0, #1	@ <retval>,
 1797              	.LVL171:
 1798 009a 08E0     		b	.L183	@
 1799              	.LVL172:
 1800              	.L193:
 1801              	.LBB534:
 1802              	.LBB508:
 1803              	.LBB505:
 1804              	.LBB501:
 1805              		.loc 2 377 0
 1806 009c 6346     		mov	r3, ip	@ tmp185, tmp185
 1807 009e 8360     		str	r3, [r0, #8]	@ tmp185,
 1808              	.LBE501:
 1809              	.LBE505:
  69:../../lpc11cx4-library/lpc_chip_11cxx_lib/src/ssp_11xx.c **** }
 1810              		.loc 1 69 0
 1811 00a0 4B68     		ldr	r3, [r1, #4]	@ tmp198, MEM[(uint32_t *)xf_setup_7(D) + 4B]
 1812 00a2 0133     		adds	r3, r3, #1	@ tmp170,
 1813 00a4 4B60     		str	r3, [r1, #4]	@ tmp170, MEM[(uint32_t *)xf_setup_7(D) + 4B]
ARM GAS  /tmp/ccGKa4GA.s 			page 50


 1814              	.LVL173:
 1815              	.LBE508:
 1816              	.LBE534:
 1817              	.LBB535:
 1818              	.LBB517:
 311:../../lpc11cx4-library/lpc_chip_11cxx_lib/inc/ssp_11xx.h **** }
 1819              		.loc 2 311 0
 1820 00a6 8369     		ldr	r3, [r0, #24]	@ _29, pSSP_5(D)->RIS
 1821              	.LVL174:
 1822              	.LBE517:
 1823              	.LBE535:
 401:../../lpc11cx4-library/lpc_chip_11cxx_lib/src/ssp_11xx.c **** 				return ERROR;
 1824              		.loc 1 401 0
 1825 00a8 1F42     		tst	r7, r3	@ tmp186, _29
 1826 00aa DED0     		beq	.L218	@,
 1827              	.LVL175:
 1828              	.L190:
 389:../../lpc11cx4-library/lpc_chip_11cxx_lib/src/ssp_11xx.c **** 	}
 1829              		.loc 1 389 0
 1830 00ac 0020     		movs	r0, #0	@ <retval>,
 1831              	.LVL176:
 1832              	.L183:
 410:../../lpc11cx4-library/lpc_chip_11cxx_lib/src/ssp_11xx.c **** 	}
 411:../../lpc11cx4-library/lpc_chip_11cxx_lib/src/ssp_11xx.c **** 
 412:../../lpc11cx4-library/lpc_chip_11cxx_lib/src/ssp_11xx.c **** 	return ERROR;
 413:../../lpc11cx4-library/lpc_chip_11cxx_lib/src/ssp_11xx.c **** }
 1833              		.loc 1 413 0
 1834              		@ sp needed	@
 1835 00ae F0BD     		pop	{r4, r5, r6, r7, pc}
 1836              	.LVL177:
 1837              	.L184:
 392:../../lpc11cx4-library/lpc_chip_11cxx_lib/src/ssp_11xx.c **** 		/* check if RX FIFO contains data */
 1838              		.loc 1 392 0 discriminator 1
 1839 00b0 CB68     		ldr	r3, [r1, #12]	@ tmp193, xf_setup_7(D)->rx_cnt
 1840 00b2 9A42     		cmp	r2, r3	@ _9, tmp193
 1841 00b4 ACD1     		bne	.L189	@,
 1842 00b6 F9E7     		b	.L190	@
 1843              		.cfi_endproc
 1844              	.LFE211:
 1845              		.size	Chip_SSP_Int_RWFrames8Bits, .-Chip_SSP_Int_RWFrames8Bits
 1846              		.section	.text.Chip_SSP_Int_RWFrames16Bits,"ax",%progbits
 1847              		.align	1
 1848              		.p2align 2,,3
 1849              		.global	Chip_SSP_Int_RWFrames16Bits
 1850              		.syntax unified
 1851              		.code	16
 1852              		.thumb_func
 1853              		.fpu softvfp
 1854              		.type	Chip_SSP_Int_RWFrames16Bits, %function
 1855              	Chip_SSP_Int_RWFrames16Bits:
 1856              	.LFB212:
 414:../../lpc11cx4-library/lpc_chip_11cxx_lib/src/ssp_11xx.c **** 
 415:../../lpc11cx4-library/lpc_chip_11cxx_lib/src/ssp_11xx.c **** /* SSP Interrupt Read/Write with 16-bit frame width */
 416:../../lpc11cx4-library/lpc_chip_11cxx_lib/src/ssp_11xx.c **** Status Chip_SSP_Int_RWFrames16Bits(LPC_SSP_T *pSSP, Chip_SSP_DATA_SETUP_T *xf_setup)
 417:../../lpc11cx4-library/lpc_chip_11cxx_lib/src/ssp_11xx.c **** {
 1857              		.loc 1 417 0
 1858              		.cfi_startproc
ARM GAS  /tmp/ccGKa4GA.s 			page 51


 1859              		@ args = 0, pretend = 0, frame = 0
 1860              		@ frame_needed = 0, uses_anonymous_args = 0
 1861              	.LVL178:
 1862 0000 F0B5     		push	{r4, r5, r6, r7, lr}	@
 1863              		.cfi_def_cfa_offset 20
 1864              		.cfi_offset 4, -20
 1865              		.cfi_offset 5, -16
 1866              		.cfi_offset 6, -12
 1867              		.cfi_offset 7, -8
 1868              		.cfi_offset 14, -4
 1869 0002 C646     		mov	lr, r8	@,
 1870              	.LBB536:
 1871              	.LBB537:
 311:../../lpc11cx4-library/lpc_chip_11cxx_lib/inc/ssp_11xx.h **** }
 1872              		.loc 2 311 0
 1873 0004 8369     		ldr	r3, [r0, #24]	@ _14, pSSP_5(D)->RIS
 1874              	.LVL179:
 1875              	.LBE537:
 1876              	.LBE536:
 1877              		.loc 1 417 0
 1878 0006 00B5     		push	{lr}	@
 1879              		.cfi_def_cfa_offset 24
 1880              		.cfi_offset 8, -24
 418:../../lpc11cx4-library/lpc_chip_11cxx_lib/src/ssp_11xx.c **** 	/* Check overrun error in RIS register */
 419:../../lpc11cx4-library/lpc_chip_11cxx_lib/src/ssp_11xx.c **** 	if (Chip_SSP_GetRawIntStatus(pSSP, SSP_RORRIS) == SET) {
 1881              		.loc 1 419 0
 1882 0008 DB07     		lsls	r3, r3, #31	@ tmp176, _14,
 1883 000a 52D4     		bmi	.L228	@,
 420:../../lpc11cx4-library/lpc_chip_11cxx_lib/src/ssp_11xx.c **** 		return ERROR;
 421:../../lpc11cx4-library/lpc_chip_11cxx_lib/src/ssp_11xx.c **** 	}
 422:../../lpc11cx4-library/lpc_chip_11cxx_lib/src/ssp_11xx.c **** 
 423:../../lpc11cx4-library/lpc_chip_11cxx_lib/src/ssp_11xx.c **** 	if ((xf_setup->tx_cnt != xf_setup->length) || (xf_setup->rx_cnt != xf_setup->length)) {
 1884              		.loc 1 423 0
 1885 000c 0D69     		ldr	r5, [r1, #16]	@ _9, xf_setup_7(D)->length
 1886 000e 4B68     		ldr	r3, [r1, #4]	@ tmp178, xf_setup_7(D)->tx_cnt
 1887 0010 AB42     		cmp	r3, r5	@ tmp178, _9
 1888 0012 52D0     		beq	.L222	@,
 1889              	.L227:
 1890              	.LVL180:
 1891              	.LBB538:
 1892              	.LBB539:
 1893              	.LBB540:
 1894              	.LBB541:
 284:../../lpc11cx4-library/lpc_chip_11cxx_lib/inc/ssp_11xx.h **** }
 1895              		.loc 2 284 0
 1896 0014 C368     		ldr	r3, [r0, #12]	@ _73, pSSP_5(D)->SR
 1897              	.LVL181:
 1898              	.LBE541:
 1899              	.LBE540:
  77:../../lpc11cx4-library/lpc_chip_11cxx_lib/src/ssp_11xx.c **** 		   (xf_setup->rx_cnt < xf_setup->length)) {
 1900              		.loc 1 77 0
 1901 0016 5B07     		lsls	r3, r3, #29	@ tmp177, _73,
 1902 0018 11D5     		bpl	.L226	@,
  78:../../lpc11cx4-library/lpc_chip_11cxx_lib/src/ssp_11xx.c **** 		rDat = Chip_SSP_ReceiveFrame(pSSP);
 1903              		.loc 1 78 0
 1904 001a CB68     		ldr	r3, [r1, #12]	@ _23, xf_setup_7(D)->rx_cnt
  77:../../lpc11cx4-library/lpc_chip_11cxx_lib/src/ssp_11xx.c **** 		   (xf_setup->rx_cnt < xf_setup->length)) {
ARM GAS  /tmp/ccGKa4GA.s 			page 52


 1905              		.loc 1 77 0
 1906 001c 9D42     		cmp	r5, r3	@ _9, _23
 1907 001e 0ED9     		bls	.L226	@,
 1908 0020 8C68     		ldr	r4, [r1, #8]	@ pretmp_11, xf_setup_7(D)->rx_data
 1909              	.LBB544:
 1910              	.LBB542:
 284:../../lpc11cx4-library/lpc_chip_11cxx_lib/inc/ssp_11xx.h **** }
 1911              		.loc 2 284 0
 1912 0022 0426     		movs	r6, #4	@ tmp154,
 1913 0024 01E0     		b	.L231	@
 1914              	.L251:
 1915              	.LBE542:
 1916              	.LBE544:
  77:../../lpc11cx4-library/lpc_chip_11cxx_lib/src/ssp_11xx.c **** 		   (xf_setup->rx_cnt < xf_setup->length)) {
 1917              		.loc 1 77 0
 1918 0026 9D42     		cmp	r5, r3	@ _9, _23
 1919 0028 08D9     		bls	.L249	@,
 1920              	.L231:
 1921              	.LVL182:
 1922              	.LBB545:
 1923              	.LBB546:
 366:../../lpc11cx4-library/lpc_chip_11cxx_lib/inc/ssp_11xx.h **** }
 1924              		.loc 2 366 0
 1925 002a 8268     		ldr	r2, [r0, #8]	@ _16, pSSP_5(D)->DR
 1926 002c 92B2     		uxth	r2, r2	@ _17, _16
 1927              	.LVL183:
 1928              	.LBE546:
 1929              	.LBE545:
  80:../../lpc11cx4-library/lpc_chip_11cxx_lib/src/ssp_11xx.c **** 			*(uint16_t *) ((uint32_t) xf_setup->rx_data + xf_setup->rx_cnt) = rDat;
 1930              		.loc 1 80 0
 1931 002e 002C     		cmp	r4, #0	@ pretmp_11,
 1932 0030 00D0     		beq	.L229	@,
  81:../../lpc11cx4-library/lpc_chip_11cxx_lib/src/ssp_11xx.c **** 		}
 1933              		.loc 1 81 0
 1934 0032 E252     		strh	r2, [r4, r3]	@ _17, MEM[base: pretmp_11, index: _68, offset: 0B]
 1935              	.L229:
 1936              	.LBB547:
 1937              	.LBB543:
 284:../../lpc11cx4-library/lpc_chip_11cxx_lib/inc/ssp_11xx.h **** }
 1938              		.loc 2 284 0
 1939 0034 C268     		ldr	r2, [r0, #12]	@ _24, pSSP_5(D)->SR
 1940              	.LBE543:
 1941              	.LBE547:
  84:../../lpc11cx4-library/lpc_chip_11cxx_lib/src/ssp_11xx.c **** 	}
 1942              		.loc 1 84 0
 1943 0036 0233     		adds	r3, r3, #2	@ _23,
 1944              	.LVL184:
  77:../../lpc11cx4-library/lpc_chip_11cxx_lib/src/ssp_11xx.c **** 		   (xf_setup->rx_cnt < xf_setup->length)) {
 1945              		.loc 1 77 0
 1946 0038 1642     		tst	r6, r2	@ tmp154, _24
 1947 003a F4D1     		bne	.L251	@,
 1948              	.L249:
 1949 003c CB60     		str	r3, [r1, #12]	@ _23, xf_setup_7(D)->rx_cnt
 1950              	.L226:
 1951              	.LBE539:
 1952              	.LBE538:
 1953              	.LBB548:
ARM GAS  /tmp/ccGKa4GA.s 			page 53


 1954              	.LBB549:
 1955              	.LBB550:
 1956              	.LBB551:
 1957              		.loc 2 377 0
 1958 003e 214B     		ldr	r3, .L255	@ tmp171,
 1959              	.LBE551:
 1960              	.LBE550:
 1961              	.LBE549:
 1962              	.LBE548:
 1963              	.LBB567:
 1964              	.LBB568:
 284:../../lpc11cx4-library/lpc_chip_11cxx_lib/inc/ssp_11xx.h **** }
 1965              		.loc 2 284 0
 1966 0040 0227     		movs	r7, #2	@ tmp166,
 1967              	.LBE568:
 1968              	.LBE567:
 1969              	.LBB571:
 1970              	.LBB562:
 1971              	.LBB555:
 1972              	.LBB552:
 1973              		.loc 2 377 0
 1974 0042 9846     		mov	r8, r3	@ tmp171, tmp171
 1975              	.LBE552:
 1976              	.LBE555:
 1977              	.LBE562:
 1978              	.LBE571:
 1979              	.LBB572:
 1980              	.LBB573:
 311:../../lpc11cx4-library/lpc_chip_11cxx_lib/inc/ssp_11xx.h **** }
 1981              		.loc 2 311 0
 1982 0044 0123     		movs	r3, #1	@ tmp172,
 1983              	.LBE573:
 1984              	.LBE572:
 1985              	.LBB577:
 1986              	.LBB578:
 1987              	.LBB579:
 1988              	.LBB580:
 284:../../lpc11cx4-library/lpc_chip_11cxx_lib/inc/ssp_11xx.h **** }
 1989              		.loc 2 284 0
 1990 0046 0426     		movs	r6, #4	@ tmp173,
 1991              	.LBE580:
 1992              	.LBE579:
 1993              	.LBE578:
 1994              	.LBE577:
 1995              	.LBB588:
 1996              	.LBB574:
 311:../../lpc11cx4-library/lpc_chip_11cxx_lib/inc/ssp_11xx.h **** }
 1997              		.loc 2 311 0
 1998 0048 9C46     		mov	ip, r3	@ tmp172, tmp172
 1999              	.L224:
 2000              	.LVL185:
 2001              	.LBE574:
 2002              	.LBE588:
 2003              	.LBB589:
 2004              	.LBB569:
 284:../../lpc11cx4-library/lpc_chip_11cxx_lib/inc/ssp_11xx.h **** }
 2005              		.loc 2 284 0
ARM GAS  /tmp/ccGKa4GA.s 			page 54


 2006 004a C368     		ldr	r3, [r0, #12]	@ _46, pSSP_5(D)->SR
 2007              	.LVL186:
 2008              	.LBE569:
 2009              	.LBE589:
 424:../../lpc11cx4-library/lpc_chip_11cxx_lib/src/ssp_11xx.c **** 		/* check if RX FIFO contains data */
 425:../../lpc11cx4-library/lpc_chip_11cxx_lib/src/ssp_11xx.c **** 		SSP_Read2BFifo(pSSP, xf_setup);
 426:../../lpc11cx4-library/lpc_chip_11cxx_lib/src/ssp_11xx.c **** 
 427:../../lpc11cx4-library/lpc_chip_11cxx_lib/src/ssp_11xx.c **** 		while ((Chip_SSP_GetStatus(pSSP, SSP_STAT_TNF)) && (xf_setup->tx_cnt != xf_setup->length)) {
 2010              		.loc 1 427 0
 2011 004c 1F42     		tst	r7, r3	@ tmp166, _46
 2012 004e 25D0     		beq	.L240	@,
 2013              	.L253:
 2014              		.loc 1 427 0 is_stmt 0 discriminator 1
 2015 0050 4B68     		ldr	r3, [r1, #4]	@ _12, xf_setup_7(D)->tx_cnt
 2016 0052 9D42     		cmp	r5, r3	@ _9, _12
 2017 0054 22D0     		beq	.L240	@,
 2018 0056 0A68     		ldr	r2, [r1]	@ _13, MEM[(void * *)xf_setup_7(D)]
 2019              	.LVL187:
 2020              	.LBB590:
 2021              	.LBB563:
  48:../../lpc11cx4-library/lpc_chip_11cxx_lib/src/ssp_11xx.c **** 		Chip_SSP_SendFrame(pSSP, (*(uint16_t *) ((uint32_t) xf_setup->tx_data +
 2022              		.loc 1 48 0 is_stmt 1
 2023 0058 002A     		cmp	r2, #0	@ _13,
 2024 005a 21D0     		beq	.L232	@,
 2025              	.LVL188:
 2026              	.LBB556:
 2027              	.LBB557:
 2028              		.loc 2 377 0
 2029 005c D35A     		ldrh	r3, [r2, r3]	@ _33, *_31
 2030              	.LVL189:
 2031              	.LBE557:
 2032              	.LBE556:
 2033              	.LBE563:
 2034              	.LBE590:
 428:../../lpc11cx4-library/lpc_chip_11cxx_lib/src/ssp_11xx.c **** 			/* Write data to buffer */
 429:../../lpc11cx4-library/lpc_chip_11cxx_lib/src/ssp_11xx.c **** 			SSP_Write2BFifo(pSSP, xf_setup);
 430:../../lpc11cx4-library/lpc_chip_11cxx_lib/src/ssp_11xx.c **** 
 431:../../lpc11cx4-library/lpc_chip_11cxx_lib/src/ssp_11xx.c **** 			/* Check overrun error in RIS register */
 432:../../lpc11cx4-library/lpc_chip_11cxx_lib/src/ssp_11xx.c **** 			if (Chip_SSP_GetRawIntStatus(pSSP, SSP_RORRIS) == SET) {
 2035              		.loc 1 432 0
 2036 005e 6246     		mov	r2, ip	@ tmp172, tmp172
 2037              	.LVL190:
 2038              	.LBB591:
 2039              	.LBB564:
 2040              	.LBB559:
 2041              	.LBB558:
 2042              		.loc 2 377 0
 2043 0060 8360     		str	r3, [r0, #8]	@ _33,
 2044              	.LVL191:
 2045              	.LBE558:
 2046              	.LBE559:
  56:../../lpc11cx4-library/lpc_chip_11cxx_lib/src/ssp_11xx.c **** }
 2047              		.loc 1 56 0
 2048 0062 4B68     		ldr	r3, [r1, #4]	@ tmp185, MEM[(uint32_t *)xf_setup_7(D) + 4B]
 2049              	.LVL192:
 2050 0064 0233     		adds	r3, r3, #2	@ tmp157,
 2051 0066 4B60     		str	r3, [r1, #4]	@ tmp157, MEM[(uint32_t *)xf_setup_7(D) + 4B]
ARM GAS  /tmp/ccGKa4GA.s 			page 55


 2052              	.LVL193:
 2053              	.LBE564:
 2054              	.LBE591:
 2055              	.LBB592:
 2056              	.LBB575:
 311:../../lpc11cx4-library/lpc_chip_11cxx_lib/inc/ssp_11xx.h **** }
 2057              		.loc 2 311 0
 2058 0068 8369     		ldr	r3, [r0, #24]	@ _27, pSSP_5(D)->RIS
 2059              	.LVL194:
 2060              	.LBE575:
 2061              	.LBE592:
 2062              		.loc 1 432 0
 2063 006a 1A42     		tst	r2, r3	@ tmp172, _27
 2064 006c 21D1     		bne	.L228	@,
 2065              	.LVL195:
 2066              	.L254:
 2067              	.LBB593:
 2068              	.LBB587:
 2069              	.LBB583:
 2070              	.LBB581:
 284:../../lpc11cx4-library/lpc_chip_11cxx_lib/inc/ssp_11xx.h **** }
 2071              		.loc 2 284 0
 2072 006e C368     		ldr	r3, [r0, #12]	@ _76, pSSP_5(D)->SR
 2073              	.LVL196:
 2074              	.LBE581:
 2075              	.LBE583:
  77:../../lpc11cx4-library/lpc_chip_11cxx_lib/src/ssp_11xx.c **** 		   (xf_setup->rx_cnt < xf_setup->length)) {
 2076              		.loc 1 77 0
 2077 0070 1E42     		tst	r6, r3	@ tmp173, _76
 2078 0072 EAD0     		beq	.L224	@,
  78:../../lpc11cx4-library/lpc_chip_11cxx_lib/src/ssp_11xx.c **** 		rDat = Chip_SSP_ReceiveFrame(pSSP);
 2079              		.loc 1 78 0
 2080 0074 CB68     		ldr	r3, [r1, #12]	@ _43, xf_setup_7(D)->rx_cnt
  77:../../lpc11cx4-library/lpc_chip_11cxx_lib/src/ssp_11xx.c **** 		   (xf_setup->rx_cnt < xf_setup->length)) {
 2081              		.loc 1 77 0
 2082 0076 9D42     		cmp	r5, r3	@ _9, _43
 2083 0078 E7D9     		bls	.L224	@,
 2084 007a 8C68     		ldr	r4, [r1, #8]	@ pretmp_65, xf_setup_7(D)->rx_data
 2085 007c 01E0     		b	.L238	@
 2086              	.L252:
 2087 007e 9D42     		cmp	r5, r3	@ _9, _43
 2088 0080 08D9     		bls	.L250	@,
 2089              	.L238:
 2090              	.LVL197:
 2091              	.LBB584:
 2092              	.LBB585:
 366:../../lpc11cx4-library/lpc_chip_11cxx_lib/inc/ssp_11xx.h **** }
 2093              		.loc 2 366 0
 2094 0082 8268     		ldr	r2, [r0, #8]	@ _36, pSSP_5(D)->DR
 2095 0084 92B2     		uxth	r2, r2	@ _37, _36
 2096              	.LVL198:
 2097              	.LBE585:
 2098              	.LBE584:
  80:../../lpc11cx4-library/lpc_chip_11cxx_lib/src/ssp_11xx.c **** 			*(uint16_t *) ((uint32_t) xf_setup->rx_data + xf_setup->rx_cnt) = rDat;
 2099              		.loc 1 80 0
 2100 0086 002C     		cmp	r4, #0	@ pretmp_65,
 2101 0088 00D0     		beq	.L236	@,
ARM GAS  /tmp/ccGKa4GA.s 			page 56


  81:../../lpc11cx4-library/lpc_chip_11cxx_lib/src/ssp_11xx.c **** 		}
 2102              		.loc 1 81 0
 2103 008a E252     		strh	r2, [r4, r3]	@ _37, MEM[base: pretmp_65, index: _74, offset: 0B]
 2104              	.L236:
 2105              	.LBB586:
 2106              	.LBB582:
 284:../../lpc11cx4-library/lpc_chip_11cxx_lib/inc/ssp_11xx.h **** }
 2107              		.loc 2 284 0
 2108 008c C268     		ldr	r2, [r0, #12]	@ _44, pSSP_5(D)->SR
 2109              	.LBE582:
 2110              	.LBE586:
  84:../../lpc11cx4-library/lpc_chip_11cxx_lib/src/ssp_11xx.c **** 	}
 2111              		.loc 1 84 0
 2112 008e 0233     		adds	r3, r3, #2	@ _43,
 2113              	.LVL199:
  77:../../lpc11cx4-library/lpc_chip_11cxx_lib/src/ssp_11xx.c **** 		   (xf_setup->rx_cnt < xf_setup->length)) {
 2114              		.loc 1 77 0
 2115 0090 1642     		tst	r6, r2	@ tmp173, _44
 2116 0092 F4D1     		bne	.L252	@,
 2117              	.L250:
 2118 0094 CB60     		str	r3, [r1, #12]	@ _43, xf_setup_7(D)->rx_cnt
 2119              	.LVL200:
 2120              	.LBE587:
 2121              	.LBE593:
 2122              	.LBB594:
 2123              	.LBB570:
 284:../../lpc11cx4-library/lpc_chip_11cxx_lib/inc/ssp_11xx.h **** }
 2124              		.loc 2 284 0
 2125 0096 C368     		ldr	r3, [r0, #12]	@ _46, pSSP_5(D)->SR
 2126              	.LVL201:
 2127              	.LBE570:
 2128              	.LBE594:
 427:../../lpc11cx4-library/lpc_chip_11cxx_lib/src/ssp_11xx.c **** 			/* Write data to buffer */
 2129              		.loc 1 427 0
 2130 0098 1F42     		tst	r7, r3	@ tmp166, _46
 2131 009a D9D1     		bne	.L253	@,
 2132              	.LVL202:
 2133              	.L240:
 433:../../lpc11cx4-library/lpc_chip_11cxx_lib/src/ssp_11xx.c **** 				return ERROR;
 434:../../lpc11cx4-library/lpc_chip_11cxx_lib/src/ssp_11xx.c **** 			}
 435:../../lpc11cx4-library/lpc_chip_11cxx_lib/src/ssp_11xx.c **** 
 436:../../lpc11cx4-library/lpc_chip_11cxx_lib/src/ssp_11xx.c **** 			/*  Check for any data available in RX FIFO			 */
 437:../../lpc11cx4-library/lpc_chip_11cxx_lib/src/ssp_11xx.c **** 			SSP_Read2BFifo(pSSP, xf_setup);
 438:../../lpc11cx4-library/lpc_chip_11cxx_lib/src/ssp_11xx.c **** 		}
 439:../../lpc11cx4-library/lpc_chip_11cxx_lib/src/ssp_11xx.c **** 
 440:../../lpc11cx4-library/lpc_chip_11cxx_lib/src/ssp_11xx.c **** 		return SUCCESS;
 2134              		.loc 1 440 0
 2135 009c 0120     		movs	r0, #1	@ <retval>,
 2136              	.LVL203:
 2137 009e 09E0     		b	.L221	@
 2138              	.LVL204:
 2139              	.L232:
 2140              	.LBB595:
 2141              	.LBB565:
 2142              	.LBB560:
 2143              	.LBB553:
 2144              		.loc 2 377 0
ARM GAS  /tmp/ccGKa4GA.s 			page 57


 2145 00a0 4346     		mov	r3, r8	@ tmp171, tmp171
 2146              	.LBE553:
 2147              	.LBE560:
 2148              	.LBE565:
 2149              	.LBE595:
 432:../../lpc11cx4-library/lpc_chip_11cxx_lib/src/ssp_11xx.c **** 				return ERROR;
 2150              		.loc 1 432 0
 2151 00a2 6246     		mov	r2, ip	@ tmp172, tmp172
 2152              	.LBB596:
 2153              	.LBB566:
 2154              	.LBB561:
 2155              	.LBB554:
 2156              		.loc 2 377 0
 2157 00a4 8360     		str	r3, [r0, #8]	@ tmp171,
 2158              	.LBE554:
 2159              	.LBE561:
  56:../../lpc11cx4-library/lpc_chip_11cxx_lib/src/ssp_11xx.c **** }
 2160              		.loc 1 56 0
 2161 00a6 4B68     		ldr	r3, [r1, #4]	@ tmp185, MEM[(uint32_t *)xf_setup_7(D) + 4B]
 2162 00a8 0233     		adds	r3, r3, #2	@ tmp157,
 2163 00aa 4B60     		str	r3, [r1, #4]	@ tmp157, MEM[(uint32_t *)xf_setup_7(D) + 4B]
 2164              	.LVL205:
 2165              	.LBE566:
 2166              	.LBE596:
 2167              	.LBB597:
 2168              	.LBB576:
 311:../../lpc11cx4-library/lpc_chip_11cxx_lib/inc/ssp_11xx.h **** }
 2169              		.loc 2 311 0
 2170 00ac 8369     		ldr	r3, [r0, #24]	@ _27, pSSP_5(D)->RIS
 2171              	.LVL206:
 2172              	.LBE576:
 2173              	.LBE597:
 432:../../lpc11cx4-library/lpc_chip_11cxx_lib/src/ssp_11xx.c **** 				return ERROR;
 2174              		.loc 1 432 0
 2175 00ae 1A42     		tst	r2, r3	@ tmp172, _27
 2176 00b0 DDD0     		beq	.L254	@,
 2177              	.LVL207:
 2178              	.L228:
 420:../../lpc11cx4-library/lpc_chip_11cxx_lib/src/ssp_11xx.c **** 	}
 2179              		.loc 1 420 0
 2180 00b2 0020     		movs	r0, #0	@ <retval>,
 2181              	.LVL208:
 2182              	.L221:
 441:../../lpc11cx4-library/lpc_chip_11cxx_lib/src/ssp_11xx.c **** 	}
 442:../../lpc11cx4-library/lpc_chip_11cxx_lib/src/ssp_11xx.c **** 
 443:../../lpc11cx4-library/lpc_chip_11cxx_lib/src/ssp_11xx.c **** 	return ERROR;
 444:../../lpc11cx4-library/lpc_chip_11cxx_lib/src/ssp_11xx.c **** }
 2183              		.loc 1 444 0
 2184              		@ sp needed	@
 2185 00b4 04BC     		pop	{r2}
 2186 00b6 9046     		mov	r8, r2
 2187 00b8 F0BD     		pop	{r4, r5, r6, r7, pc}
 2188              	.LVL209:
 2189              	.L222:
 423:../../lpc11cx4-library/lpc_chip_11cxx_lib/src/ssp_11xx.c **** 		/* check if RX FIFO contains data */
 2190              		.loc 1 423 0 discriminator 1
 2191 00ba CB68     		ldr	r3, [r1, #12]	@ tmp182, xf_setup_7(D)->rx_cnt
ARM GAS  /tmp/ccGKa4GA.s 			page 58


 2192 00bc 9D42     		cmp	r5, r3	@ _9, tmp182
 2193 00be A9D1     		bne	.L227	@,
 2194 00c0 F7E7     		b	.L228	@
 2195              	.L256:
 2196 00c2 C046     		.align	2
 2197              	.L255:
 2198 00c4 FFFF0000 		.word	65535
 2199              		.cfi_endproc
 2200              	.LFE212:
 2201              		.size	Chip_SSP_Int_RWFrames16Bits, .-Chip_SSP_Int_RWFrames16Bits
 2202              		.section	.text.Chip_SSP_SetMaster,"ax",%progbits
 2203              		.align	1
 2204              		.p2align 2,,3
 2205              		.global	Chip_SSP_SetMaster
 2206              		.syntax unified
 2207              		.code	16
 2208              		.thumb_func
 2209              		.fpu softvfp
 2210              		.type	Chip_SSP_SetMaster, %function
 2211              	Chip_SSP_SetMaster:
 2212              	.LFB213:
 445:../../lpc11cx4-library/lpc_chip_11cxx_lib/src/ssp_11xx.c **** 
 446:../../lpc11cx4-library/lpc_chip_11cxx_lib/src/ssp_11xx.c **** /* Set the SSP operating modes, master or slave */
 447:../../lpc11cx4-library/lpc_chip_11cxx_lib/src/ssp_11xx.c **** void Chip_SSP_SetMaster(LPC_SSP_T *pSSP, bool master)
 448:../../lpc11cx4-library/lpc_chip_11cxx_lib/src/ssp_11xx.c **** {
 2213              		.loc 1 448 0
 2214              		.cfi_startproc
 2215              		@ args = 0, pretend = 0, frame = 0
 2216              		@ frame_needed = 0, uses_anonymous_args = 0
 2217              		@ link register save eliminated.
 2218              	.LVL210:
 2219              	.LBB598:
 2220              	.LBB599:
 378:../../lpc11cx4-library/lpc_chip_11cxx_lib/inc/ssp_11xx.h **** }
 379:../../lpc11cx4-library/lpc_chip_11cxx_lib/inc/ssp_11xx.h **** 
 380:../../lpc11cx4-library/lpc_chip_11cxx_lib/inc/ssp_11xx.h **** /**
 381:../../lpc11cx4-library/lpc_chip_11cxx_lib/inc/ssp_11xx.h ****  * @brief	Set up output clocks per bit for SSP bus
 382:../../lpc11cx4-library/lpc_chip_11cxx_lib/inc/ssp_11xx.h ****  * @param	pSSP		: The base of SSP peripheral on the chip
 383:../../lpc11cx4-library/lpc_chip_11cxx_lib/inc/ssp_11xx.h ****  * @param	clk_rate	fs: The number of prescaler-output clocks per bit on the bus, minus one
 384:../../lpc11cx4-library/lpc_chip_11cxx_lib/inc/ssp_11xx.h ****  * @param	prescale	: The factor by which the Prescaler divides the SSP peripheral clock PCLK
 385:../../lpc11cx4-library/lpc_chip_11cxx_lib/inc/ssp_11xx.h ****  * @return	 Nothing
 386:../../lpc11cx4-library/lpc_chip_11cxx_lib/inc/ssp_11xx.h ****  * @note	The bit frequency is PCLK / (prescale x[clk_rate+1])
 387:../../lpc11cx4-library/lpc_chip_11cxx_lib/inc/ssp_11xx.h ****  */
 388:../../lpc11cx4-library/lpc_chip_11cxx_lib/inc/ssp_11xx.h **** void Chip_SSP_SetClockRate(LPC_SSP_T *pSSP, uint32_t clk_rate, uint32_t prescale);
 389:../../lpc11cx4-library/lpc_chip_11cxx_lib/inc/ssp_11xx.h **** 
 390:../../lpc11cx4-library/lpc_chip_11cxx_lib/inc/ssp_11xx.h **** /**
 391:../../lpc11cx4-library/lpc_chip_11cxx_lib/inc/ssp_11xx.h ****  * @brief	Set up the SSP frame format
 392:../../lpc11cx4-library/lpc_chip_11cxx_lib/inc/ssp_11xx.h ****  * @param	pSSP		: The base of SSP peripheral on the chip
 393:../../lpc11cx4-library/lpc_chip_11cxx_lib/inc/ssp_11xx.h ****  * @param	bits		: The number of bits transferred in each frame, should be SSP_BITS_4 to SSP_BITS_16
 394:../../lpc11cx4-library/lpc_chip_11cxx_lib/inc/ssp_11xx.h ****  * @param	frameFormat	: Frame format, should be :
 395:../../lpc11cx4-library/lpc_chip_11cxx_lib/inc/ssp_11xx.h ****  *							- SSP_FRAMEFORMAT_SPI
 396:../../lpc11cx4-library/lpc_chip_11cxx_lib/inc/ssp_11xx.h ****  *							- SSP_FRAME_FORMAT_TI
 397:../../lpc11cx4-library/lpc_chip_11cxx_lib/inc/ssp_11xx.h ****  *							- SSP_FRAMEFORMAT_MICROWIRE
 398:../../lpc11cx4-library/lpc_chip_11cxx_lib/inc/ssp_11xx.h ****  * @param	clockMode	: Select Clock polarity and Clock phase, should be :
 399:../../lpc11cx4-library/lpc_chip_11cxx_lib/inc/ssp_11xx.h ****  *							- SSP_CLOCK_CPHA0_CPOL0
 400:../../lpc11cx4-library/lpc_chip_11cxx_lib/inc/ssp_11xx.h ****  *							- SSP_CLOCK_CPHA0_CPOL1
 401:../../lpc11cx4-library/lpc_chip_11cxx_lib/inc/ssp_11xx.h ****  *							- SSP_CLOCK_CPHA1_CPOL0
ARM GAS  /tmp/ccGKa4GA.s 			page 59


 402:../../lpc11cx4-library/lpc_chip_11cxx_lib/inc/ssp_11xx.h ****  *							- SSP_CLOCK_CPHA1_CPOL1
 403:../../lpc11cx4-library/lpc_chip_11cxx_lib/inc/ssp_11xx.h ****  * @return	 Nothing
 404:../../lpc11cx4-library/lpc_chip_11cxx_lib/inc/ssp_11xx.h ****  * @note	Note: The clockFormat is only used in SPI mode
 405:../../lpc11cx4-library/lpc_chip_11cxx_lib/inc/ssp_11xx.h ****  */
 406:../../lpc11cx4-library/lpc_chip_11cxx_lib/inc/ssp_11xx.h **** STATIC INLINE void Chip_SSP_SetFormat(LPC_SSP_T *pSSP, uint32_t bits, uint32_t frameFormat, uint32_
 407:../../lpc11cx4-library/lpc_chip_11cxx_lib/inc/ssp_11xx.h **** {
 408:../../lpc11cx4-library/lpc_chip_11cxx_lib/inc/ssp_11xx.h **** 	pSSP->CR0 = (pSSP->CR0 & ~0xFF) | bits | frameFormat | clockMode;
 409:../../lpc11cx4-library/lpc_chip_11cxx_lib/inc/ssp_11xx.h **** }
 410:../../lpc11cx4-library/lpc_chip_11cxx_lib/inc/ssp_11xx.h **** 
 411:../../lpc11cx4-library/lpc_chip_11cxx_lib/inc/ssp_11xx.h **** /**
 412:../../lpc11cx4-library/lpc_chip_11cxx_lib/inc/ssp_11xx.h ****  * @brief	Set the SSP working as master or slave mode
 413:../../lpc11cx4-library/lpc_chip_11cxx_lib/inc/ssp_11xx.h ****  * @param	pSSP	: The base of SSP peripheral on the chip
 414:../../lpc11cx4-library/lpc_chip_11cxx_lib/inc/ssp_11xx.h ****  * @param	mode	: Operating mode, should be
 415:../../lpc11cx4-library/lpc_chip_11cxx_lib/inc/ssp_11xx.h ****  *						- SSP_MODE_MASTER
 416:../../lpc11cx4-library/lpc_chip_11cxx_lib/inc/ssp_11xx.h ****  *						- SSP_MODE_SLAVE
 417:../../lpc11cx4-library/lpc_chip_11cxx_lib/inc/ssp_11xx.h ****  * @return	 Nothing
 418:../../lpc11cx4-library/lpc_chip_11cxx_lib/inc/ssp_11xx.h ****  */
 419:../../lpc11cx4-library/lpc_chip_11cxx_lib/inc/ssp_11xx.h **** STATIC INLINE void Chip_SSP_Set_Mode(LPC_SSP_T *pSSP, uint32_t mode)
 420:../../lpc11cx4-library/lpc_chip_11cxx_lib/inc/ssp_11xx.h **** {
 421:../../lpc11cx4-library/lpc_chip_11cxx_lib/inc/ssp_11xx.h **** 	pSSP->CR1 = (pSSP->CR1 & ~(1 << 2)) | mode;
 2221              		.loc 2 421 0
 2222 0000 4368     		ldr	r3, [r0, #4]	@ _5,
 2223 0002 0422     		movs	r2, #4	@ tmp117,
 2224              	.LBE599:
 2225              	.LBE598:
 449:../../lpc11cx4-library/lpc_chip_11cxx_lib/src/ssp_11xx.c **** 	if (master) {
 2226              		.loc 1 449 0
 2227 0004 0029     		cmp	r1, #0	@ master,
 2228 0006 02D1     		bne	.L260	@,
 2229              	.LVL211:
 2230              	.LBB601:
 2231              	.LBB602:
 2232              		.loc 2 421 0
 2233 0008 1343     		orrs	r3, r2	@ _9, tmp118
 2234 000a 4360     		str	r3, [r0, #4]	@ _9,
 2235              	.LVL212:
 2236              	.L257:
 2237              	.LBE602:
 2238              	.LBE601:
 450:../../lpc11cx4-library/lpc_chip_11cxx_lib/src/ssp_11xx.c **** 		Chip_SSP_Set_Mode(pSSP, SSP_MODE_MASTER);
 451:../../lpc11cx4-library/lpc_chip_11cxx_lib/src/ssp_11xx.c **** 	}
 452:../../lpc11cx4-library/lpc_chip_11cxx_lib/src/ssp_11xx.c **** 	else {
 453:../../lpc11cx4-library/lpc_chip_11cxx_lib/src/ssp_11xx.c **** 		Chip_SSP_Set_Mode(pSSP, SSP_MODE_SLAVE);
 454:../../lpc11cx4-library/lpc_chip_11cxx_lib/src/ssp_11xx.c **** 	}
 455:../../lpc11cx4-library/lpc_chip_11cxx_lib/src/ssp_11xx.c **** }
 2239              		.loc 1 455 0
 2240              		@ sp needed	@
 2241 000c 7047     		bx	lr
 2242              	.L260:
 2243              	.LVL213:
 2244              	.LBB603:
 2245              	.LBB600:
 2246              		.loc 2 421 0
 2247 000e 9343     		bics	r3, r2	@ _6, tmp117
 2248 0010 4360     		str	r3, [r0, #4]	@ _6,
 2249 0012 FBE7     		b	.L257	@
 2250              	.LBE600:
ARM GAS  /tmp/ccGKa4GA.s 			page 60


 2251              	.LBE603:
 2252              		.cfi_endproc
 2253              	.LFE213:
 2254              		.size	Chip_SSP_SetMaster, .-Chip_SSP_SetMaster
 2255              		.global	__aeabi_uidiv
 2256              		.section	.text.Chip_SSP_SetBitRate,"ax",%progbits
 2257              		.align	1
 2258              		.p2align 2,,3
 2259              		.global	Chip_SSP_SetBitRate
 2260              		.syntax unified
 2261              		.code	16
 2262              		.thumb_func
 2263              		.fpu softvfp
 2264              		.type	Chip_SSP_SetBitRate, %function
 2265              	Chip_SSP_SetBitRate:
 2266              	.LFB214:
 456:../../lpc11cx4-library/lpc_chip_11cxx_lib/src/ssp_11xx.c **** 
 457:../../lpc11cx4-library/lpc_chip_11cxx_lib/src/ssp_11xx.c **** /* Set the clock frequency for SSP interface */
 458:../../lpc11cx4-library/lpc_chip_11cxx_lib/src/ssp_11xx.c **** void Chip_SSP_SetBitRate(LPC_SSP_T *pSSP, uint32_t bitRate)
 459:../../lpc11cx4-library/lpc_chip_11cxx_lib/src/ssp_11xx.c **** {
 2267              		.loc 1 459 0
 2268              		.cfi_startproc
 2269              		@ args = 0, pretend = 0, frame = 0
 2270              		@ frame_needed = 0, uses_anonymous_args = 0
 2271              	.LVL214:
 2272 0000 F8B5     		push	{r3, r4, r5, r6, r7, lr}	@
 2273              		.cfi_def_cfa_offset 24
 2274              		.cfi_offset 3, -24
 2275              		.cfi_offset 4, -20
 2276              		.cfi_offset 5, -16
 2277              		.cfi_offset 6, -12
 2278              		.cfi_offset 7, -8
 2279              		.cfi_offset 14, -4
 2280 0002 4746     		mov	r7, r8	@,
 2281 0004 CE46     		mov	lr, r9	@,
 2282 0006 80B5     		push	{r7, lr}	@
 2283              		.cfi_def_cfa_offset 32
 2284              		.cfi_offset 8, -32
 2285              		.cfi_offset 9, -28
 2286              		.loc 1 459 0
 2287 0008 8846     		mov	r8, r1	@ bitRate, bitRate
 2288 000a 0700     		movs	r7, r0	@ pSSP, pSSP
 2289              	.LVL215:
 2290              	.LBB604:
 2291              	.LBB605:
 152:../../lpc11cx4-library/lpc_chip_11cxx_lib/src/ssp_11xx.c **** 
 2292              		.loc 1 152 0
 2293 000c FFF7FEFF 		bl	Chip_Clock_GetMainClockRate	@
 2294              	.LVL216:
 154:../../lpc11cx4-library/lpc_chip_11cxx_lib/src/ssp_11xx.c **** 		sspCLK /= Chip_Clock_GetSSP0ClockDiv();
 2295              		.loc 1 154 0
 2296 0010 184B     		ldr	r3, .L271	@ tmp126,
 2297 0012 9F42     		cmp	r7, r3	@ pSSP, tmp126
 2298 0014 24D0     		beq	.L270	@,
 2299              	.LBB606:
 2300              	.LBB607:
 2301              		.file 3 "../../lpc11cx4-library/lpc_chip_11cxx_lib/inc/clock_11xx.h"
ARM GAS  /tmp/ccGKa4GA.s 			page 61


   1:../../lpc11cx4-library/lpc_chip_11cxx_lib/inc/clock_11xx.h **** /*
   2:../../lpc11cx4-library/lpc_chip_11cxx_lib/inc/clock_11xx.h ****  * @brief LPC11XX Clock control functions
   3:../../lpc11cx4-library/lpc_chip_11cxx_lib/inc/clock_11xx.h ****  *
   4:../../lpc11cx4-library/lpc_chip_11cxx_lib/inc/clock_11xx.h ****  * @note
   5:../../lpc11cx4-library/lpc_chip_11cxx_lib/inc/clock_11xx.h ****  * Copyright(C) NXP Semiconductors, 2012
   6:../../lpc11cx4-library/lpc_chip_11cxx_lib/inc/clock_11xx.h ****  * All rights reserved.
   7:../../lpc11cx4-library/lpc_chip_11cxx_lib/inc/clock_11xx.h ****  *
   8:../../lpc11cx4-library/lpc_chip_11cxx_lib/inc/clock_11xx.h ****  * @par
   9:../../lpc11cx4-library/lpc_chip_11cxx_lib/inc/clock_11xx.h ****  * Software that is described herein is for illustrative purposes only
  10:../../lpc11cx4-library/lpc_chip_11cxx_lib/inc/clock_11xx.h ****  * which provides customers with programming information regarding the
  11:../../lpc11cx4-library/lpc_chip_11cxx_lib/inc/clock_11xx.h ****  * LPC products.  This software is supplied "AS IS" without any warranties of
  12:../../lpc11cx4-library/lpc_chip_11cxx_lib/inc/clock_11xx.h ****  * any kind, and NXP Semiconductors and its licensor disclaim any and
  13:../../lpc11cx4-library/lpc_chip_11cxx_lib/inc/clock_11xx.h ****  * all warranties, express or implied, including all implied warranties of
  14:../../lpc11cx4-library/lpc_chip_11cxx_lib/inc/clock_11xx.h ****  * merchantability, fitness for a particular purpose and non-infringement of
  15:../../lpc11cx4-library/lpc_chip_11cxx_lib/inc/clock_11xx.h ****  * intellectual property rights.  NXP Semiconductors assumes no responsibility
  16:../../lpc11cx4-library/lpc_chip_11cxx_lib/inc/clock_11xx.h ****  * or liability for the use of the software, conveys no license or rights under any
  17:../../lpc11cx4-library/lpc_chip_11cxx_lib/inc/clock_11xx.h ****  * patent, copyright, mask work right, or any other intellectual property rights in
  18:../../lpc11cx4-library/lpc_chip_11cxx_lib/inc/clock_11xx.h ****  * or to any products. NXP Semiconductors reserves the right to make changes
  19:../../lpc11cx4-library/lpc_chip_11cxx_lib/inc/clock_11xx.h ****  * in the software without notification. NXP Semiconductors also makes no
  20:../../lpc11cx4-library/lpc_chip_11cxx_lib/inc/clock_11xx.h ****  * representation or warranty that such application will be suitable for the
  21:../../lpc11cx4-library/lpc_chip_11cxx_lib/inc/clock_11xx.h ****  * specified use without further testing or modification.
  22:../../lpc11cx4-library/lpc_chip_11cxx_lib/inc/clock_11xx.h ****  *
  23:../../lpc11cx4-library/lpc_chip_11cxx_lib/inc/clock_11xx.h ****  * @par
  24:../../lpc11cx4-library/lpc_chip_11cxx_lib/inc/clock_11xx.h ****  * Permission to use, copy, modify, and distribute this software and its
  25:../../lpc11cx4-library/lpc_chip_11cxx_lib/inc/clock_11xx.h ****  * documentation is hereby granted, under NXP Semiconductors' and its
  26:../../lpc11cx4-library/lpc_chip_11cxx_lib/inc/clock_11xx.h ****  * licensor's relevant copyrights in the software, without fee, provided that it
  27:../../lpc11cx4-library/lpc_chip_11cxx_lib/inc/clock_11xx.h ****  * is used in conjunction with NXP Semiconductors microcontrollers.  This
  28:../../lpc11cx4-library/lpc_chip_11cxx_lib/inc/clock_11xx.h ****  * copyright, permission, and disclaimer notice must appear in all copies of
  29:../../lpc11cx4-library/lpc_chip_11cxx_lib/inc/clock_11xx.h ****  * this code.
  30:../../lpc11cx4-library/lpc_chip_11cxx_lib/inc/clock_11xx.h ****  */
  31:../../lpc11cx4-library/lpc_chip_11cxx_lib/inc/clock_11xx.h **** 
  32:../../lpc11cx4-library/lpc_chip_11cxx_lib/inc/clock_11xx.h **** #ifndef __CLOCK_11XX_H_
  33:../../lpc11cx4-library/lpc_chip_11cxx_lib/inc/clock_11xx.h **** #define __CLOCK_11XX_H_
  34:../../lpc11cx4-library/lpc_chip_11cxx_lib/inc/clock_11xx.h **** 
  35:../../lpc11cx4-library/lpc_chip_11cxx_lib/inc/clock_11xx.h **** #ifdef __cplusplus
  36:../../lpc11cx4-library/lpc_chip_11cxx_lib/inc/clock_11xx.h **** extern "C" {
  37:../../lpc11cx4-library/lpc_chip_11cxx_lib/inc/clock_11xx.h **** #endif
  38:../../lpc11cx4-library/lpc_chip_11cxx_lib/inc/clock_11xx.h **** 
  39:../../lpc11cx4-library/lpc_chip_11cxx_lib/inc/clock_11xx.h **** /** @defgroup CLOCK_11XX CHIP: LPC11xx Clock Control block driver
  40:../../lpc11cx4-library/lpc_chip_11cxx_lib/inc/clock_11xx.h ****  * @ingroup CHIP_11XX_Drivers
  41:../../lpc11cx4-library/lpc_chip_11cxx_lib/inc/clock_11xx.h ****  * @{
  42:../../lpc11cx4-library/lpc_chip_11cxx_lib/inc/clock_11xx.h ****  */
  43:../../lpc11cx4-library/lpc_chip_11cxx_lib/inc/clock_11xx.h **** 
  44:../../lpc11cx4-library/lpc_chip_11cxx_lib/inc/clock_11xx.h **** /** Internal oscillator frequency */
  45:../../lpc11cx4-library/lpc_chip_11cxx_lib/inc/clock_11xx.h **** #define SYSCTL_IRC_FREQ (12000000)
  46:../../lpc11cx4-library/lpc_chip_11cxx_lib/inc/clock_11xx.h **** 
  47:../../lpc11cx4-library/lpc_chip_11cxx_lib/inc/clock_11xx.h **** /**
  48:../../lpc11cx4-library/lpc_chip_11cxx_lib/inc/clock_11xx.h ****  * @brief	Set System PLL divider values
  49:../../lpc11cx4-library/lpc_chip_11cxx_lib/inc/clock_11xx.h ****  * @param	msel    : PLL feedback divider value. M = msel + 1.
  50:../../lpc11cx4-library/lpc_chip_11cxx_lib/inc/clock_11xx.h ****  * @param	psel    : PLL post divider value. P =  (1<<psel).
  51:../../lpc11cx4-library/lpc_chip_11cxx_lib/inc/clock_11xx.h ****  * @return	Nothing
  52:../../lpc11cx4-library/lpc_chip_11cxx_lib/inc/clock_11xx.h ****  * @note	See the user manual for how to setup the PLL.
  53:../../lpc11cx4-library/lpc_chip_11cxx_lib/inc/clock_11xx.h ****  */
  54:../../lpc11cx4-library/lpc_chip_11cxx_lib/inc/clock_11xx.h **** STATIC INLINE void Chip_Clock_SetupSystemPLL(uint8_t msel, uint8_t psel)
  55:../../lpc11cx4-library/lpc_chip_11cxx_lib/inc/clock_11xx.h **** {
  56:../../lpc11cx4-library/lpc_chip_11cxx_lib/inc/clock_11xx.h **** 	LPC_SYSCTL->SYSPLLCTRL = (msel & 0x1F) | ((psel & 0x3) << 5);
  57:../../lpc11cx4-library/lpc_chip_11cxx_lib/inc/clock_11xx.h **** }
ARM GAS  /tmp/ccGKa4GA.s 			page 62


  58:../../lpc11cx4-library/lpc_chip_11cxx_lib/inc/clock_11xx.h **** 
  59:../../lpc11cx4-library/lpc_chip_11cxx_lib/inc/clock_11xx.h **** /**
  60:../../lpc11cx4-library/lpc_chip_11cxx_lib/inc/clock_11xx.h ****  * @brief	Read System PLL lock status
  61:../../lpc11cx4-library/lpc_chip_11cxx_lib/inc/clock_11xx.h ****  * @return	true of the PLL is locked. false if not locked
  62:../../lpc11cx4-library/lpc_chip_11cxx_lib/inc/clock_11xx.h ****  */
  63:../../lpc11cx4-library/lpc_chip_11cxx_lib/inc/clock_11xx.h **** STATIC INLINE bool Chip_Clock_IsSystemPLLLocked(void)
  64:../../lpc11cx4-library/lpc_chip_11cxx_lib/inc/clock_11xx.h **** {
  65:../../lpc11cx4-library/lpc_chip_11cxx_lib/inc/clock_11xx.h **** 	return (bool) ((LPC_SYSCTL->SYSPLLSTAT & 1) != 0);
  66:../../lpc11cx4-library/lpc_chip_11cxx_lib/inc/clock_11xx.h **** }
  67:../../lpc11cx4-library/lpc_chip_11cxx_lib/inc/clock_11xx.h **** 
  68:../../lpc11cx4-library/lpc_chip_11cxx_lib/inc/clock_11xx.h **** /**
  69:../../lpc11cx4-library/lpc_chip_11cxx_lib/inc/clock_11xx.h ****  * Clock sources for system and USB PLLs
  70:../../lpc11cx4-library/lpc_chip_11cxx_lib/inc/clock_11xx.h ****  */
  71:../../lpc11cx4-library/lpc_chip_11cxx_lib/inc/clock_11xx.h **** typedef enum CHIP_SYSCTL_PLLCLKSRC {
  72:../../lpc11cx4-library/lpc_chip_11cxx_lib/inc/clock_11xx.h **** 	SYSCTL_PLLCLKSRC_IRC = 0,		/*!< Internal oscillator in */
  73:../../lpc11cx4-library/lpc_chip_11cxx_lib/inc/clock_11xx.h **** 	SYSCTL_PLLCLKSRC_MAINOSC,		/*!< Crystal (main) oscillator in */
  74:../../lpc11cx4-library/lpc_chip_11cxx_lib/inc/clock_11xx.h **** #if defined(CHIP_LPC11AXX)
  75:../../lpc11cx4-library/lpc_chip_11cxx_lib/inc/clock_11xx.h **** 	SYSCTL_PLLCLKSRC_EXT_CLKIN,	/*!< External clock in (11Axx only) */
  76:../../lpc11cx4-library/lpc_chip_11cxx_lib/inc/clock_11xx.h **** #else
  77:../../lpc11cx4-library/lpc_chip_11cxx_lib/inc/clock_11xx.h **** 	SYSCTL_PLLCLKSRC_RESERVED1,	/*!< Reserved */
  78:../../lpc11cx4-library/lpc_chip_11cxx_lib/inc/clock_11xx.h **** #endif
  79:../../lpc11cx4-library/lpc_chip_11cxx_lib/inc/clock_11xx.h **** 	SYSCTL_PLLCLKSRC_RESERVED2,	/*!< Reserved */
  80:../../lpc11cx4-library/lpc_chip_11cxx_lib/inc/clock_11xx.h **** } CHIP_SYSCTL_PLLCLKSRC_T;
  81:../../lpc11cx4-library/lpc_chip_11cxx_lib/inc/clock_11xx.h **** 
  82:../../lpc11cx4-library/lpc_chip_11cxx_lib/inc/clock_11xx.h **** /**
  83:../../lpc11cx4-library/lpc_chip_11cxx_lib/inc/clock_11xx.h ****  * @brief	Set System PLL clock source
  84:../../lpc11cx4-library/lpc_chip_11cxx_lib/inc/clock_11xx.h ****  * @param	src	: Clock source for system PLL
  85:../../lpc11cx4-library/lpc_chip_11cxx_lib/inc/clock_11xx.h ****  * @return	Nothing
  86:../../lpc11cx4-library/lpc_chip_11cxx_lib/inc/clock_11xx.h ****  * @note	This function will also toggle the clock source update register
  87:../../lpc11cx4-library/lpc_chip_11cxx_lib/inc/clock_11xx.h ****  * to update the clock source.
  88:../../lpc11cx4-library/lpc_chip_11cxx_lib/inc/clock_11xx.h ****  */
  89:../../lpc11cx4-library/lpc_chip_11cxx_lib/inc/clock_11xx.h **** void Chip_Clock_SetSystemPLLSource(CHIP_SYSCTL_PLLCLKSRC_T src);
  90:../../lpc11cx4-library/lpc_chip_11cxx_lib/inc/clock_11xx.h **** 
  91:../../lpc11cx4-library/lpc_chip_11cxx_lib/inc/clock_11xx.h **** #if defined(CHIP_LPC11UXX)
  92:../../lpc11cx4-library/lpc_chip_11cxx_lib/inc/clock_11xx.h **** /**
  93:../../lpc11cx4-library/lpc_chip_11cxx_lib/inc/clock_11xx.h ****  * @brief	Set USB PLL divider values
  94:../../lpc11cx4-library/lpc_chip_11cxx_lib/inc/clock_11xx.h ****  * @param	msel    : PLL feedback divider value. M = msel + 1.
  95:../../lpc11cx4-library/lpc_chip_11cxx_lib/inc/clock_11xx.h ****  * @param	psel    : PLL post divider value. P = (1<<psel).
  96:../../lpc11cx4-library/lpc_chip_11cxx_lib/inc/clock_11xx.h ****  * @return	Nothing
  97:../../lpc11cx4-library/lpc_chip_11cxx_lib/inc/clock_11xx.h ****  * @note	See the user manual for how to setup the PLL.
  98:../../lpc11cx4-library/lpc_chip_11cxx_lib/inc/clock_11xx.h ****  */
  99:../../lpc11cx4-library/lpc_chip_11cxx_lib/inc/clock_11xx.h **** STATIC INLINE void Chip_Clock_SetupUSBPLL(uint8_t msel, uint8_t psel)
 100:../../lpc11cx4-library/lpc_chip_11cxx_lib/inc/clock_11xx.h **** {
 101:../../lpc11cx4-library/lpc_chip_11cxx_lib/inc/clock_11xx.h **** 	LPC_SYSCTL->USBPLLCTRL = (msel & 0x1F) | ((psel & 0x3) << 5);
 102:../../lpc11cx4-library/lpc_chip_11cxx_lib/inc/clock_11xx.h **** }
 103:../../lpc11cx4-library/lpc_chip_11cxx_lib/inc/clock_11xx.h **** 
 104:../../lpc11cx4-library/lpc_chip_11cxx_lib/inc/clock_11xx.h **** /**
 105:../../lpc11cx4-library/lpc_chip_11cxx_lib/inc/clock_11xx.h ****  * @brief	Read USB PLL lock status
 106:../../lpc11cx4-library/lpc_chip_11cxx_lib/inc/clock_11xx.h ****  * @return	true of the PLL is locked. false if not locked
 107:../../lpc11cx4-library/lpc_chip_11cxx_lib/inc/clock_11xx.h ****  */
 108:../../lpc11cx4-library/lpc_chip_11cxx_lib/inc/clock_11xx.h **** STATIC INLINE bool Chip_Clock_IsUSBPLLLocked(void)
 109:../../lpc11cx4-library/lpc_chip_11cxx_lib/inc/clock_11xx.h **** {
 110:../../lpc11cx4-library/lpc_chip_11cxx_lib/inc/clock_11xx.h **** 	return (bool) ((LPC_SYSCTL->USBPLLSTAT & 1) != 0);
 111:../../lpc11cx4-library/lpc_chip_11cxx_lib/inc/clock_11xx.h **** }
 112:../../lpc11cx4-library/lpc_chip_11cxx_lib/inc/clock_11xx.h **** 
 113:../../lpc11cx4-library/lpc_chip_11cxx_lib/inc/clock_11xx.h **** /**
 114:../../lpc11cx4-library/lpc_chip_11cxx_lib/inc/clock_11xx.h ****  * @brief	Set USB PLL clock source
ARM GAS  /tmp/ccGKa4GA.s 			page 63


 115:../../lpc11cx4-library/lpc_chip_11cxx_lib/inc/clock_11xx.h ****  * @param	src	: Clock source for USB PLL
 116:../../lpc11cx4-library/lpc_chip_11cxx_lib/inc/clock_11xx.h ****  * @return	Nothing
 117:../../lpc11cx4-library/lpc_chip_11cxx_lib/inc/clock_11xx.h ****  * @note	This function will also toggle the clock source update register
 118:../../lpc11cx4-library/lpc_chip_11cxx_lib/inc/clock_11xx.h ****  * to update the clock source.
 119:../../lpc11cx4-library/lpc_chip_11cxx_lib/inc/clock_11xx.h ****  */
 120:../../lpc11cx4-library/lpc_chip_11cxx_lib/inc/clock_11xx.h **** void Chip_Clock_SetUSBPLLSource(CHIP_SYSCTL_PLLCLKSRC_T src);
 121:../../lpc11cx4-library/lpc_chip_11cxx_lib/inc/clock_11xx.h **** 
 122:../../lpc11cx4-library/lpc_chip_11cxx_lib/inc/clock_11xx.h **** #endif /*defined(CHIP_LPC11UXX)*/
 123:../../lpc11cx4-library/lpc_chip_11cxx_lib/inc/clock_11xx.h **** 
 124:../../lpc11cx4-library/lpc_chip_11cxx_lib/inc/clock_11xx.h **** /**
 125:../../lpc11cx4-library/lpc_chip_11cxx_lib/inc/clock_11xx.h ****  * @brief	Bypass System Oscillator and set oscillator frequency range
 126:../../lpc11cx4-library/lpc_chip_11cxx_lib/inc/clock_11xx.h ****  * @param	bypass	: Flag to bypass oscillator
 127:../../lpc11cx4-library/lpc_chip_11cxx_lib/inc/clock_11xx.h ****  * @param	highfr	: Flag to set oscillator range from 15-25 MHz
 128:../../lpc11cx4-library/lpc_chip_11cxx_lib/inc/clock_11xx.h ****  * @return	Nothing
 129:../../lpc11cx4-library/lpc_chip_11cxx_lib/inc/clock_11xx.h ****  * @note	Sets the PLL input to bypass the oscillator. This would be
 130:../../lpc11cx4-library/lpc_chip_11cxx_lib/inc/clock_11xx.h ****  * used if an external clock that is not an oscillator is attached
 131:../../lpc11cx4-library/lpc_chip_11cxx_lib/inc/clock_11xx.h ****  * to the XTALIN pin.
 132:../../lpc11cx4-library/lpc_chip_11cxx_lib/inc/clock_11xx.h ****  */
 133:../../lpc11cx4-library/lpc_chip_11cxx_lib/inc/clock_11xx.h **** void Chip_Clock_SetPLLBypass(bool bypass, bool highfr);
 134:../../lpc11cx4-library/lpc_chip_11cxx_lib/inc/clock_11xx.h **** 
 135:../../lpc11cx4-library/lpc_chip_11cxx_lib/inc/clock_11xx.h **** /**
 136:../../lpc11cx4-library/lpc_chip_11cxx_lib/inc/clock_11xx.h ****  * Watchdog and low frequency oscillator frequencies plus or minus 40%
 137:../../lpc11cx4-library/lpc_chip_11cxx_lib/inc/clock_11xx.h ****  */
 138:../../lpc11cx4-library/lpc_chip_11cxx_lib/inc/clock_11xx.h **** typedef enum CHIP_WDTLFO_OSC {
 139:../../lpc11cx4-library/lpc_chip_11cxx_lib/inc/clock_11xx.h **** 	WDTLFO_OSC_ILLEGAL,
 140:../../lpc11cx4-library/lpc_chip_11cxx_lib/inc/clock_11xx.h **** 	WDTLFO_OSC_0_60,	/*!< 0.6 MHz watchdog/LFO rate */
 141:../../lpc11cx4-library/lpc_chip_11cxx_lib/inc/clock_11xx.h **** 	WDTLFO_OSC_1_05,	/*!< 1.05 MHz watchdog/LFO rate */
 142:../../lpc11cx4-library/lpc_chip_11cxx_lib/inc/clock_11xx.h **** 	WDTLFO_OSC_1_40,	/*!< 1.4 MHz watchdog/LFO rate */
 143:../../lpc11cx4-library/lpc_chip_11cxx_lib/inc/clock_11xx.h **** 	WDTLFO_OSC_1_75,	/*!< 1.75 MHz watchdog/LFO rate */
 144:../../lpc11cx4-library/lpc_chip_11cxx_lib/inc/clock_11xx.h **** 	WDTLFO_OSC_2_10,	/*!< 2.1 MHz watchdog/LFO rate */
 145:../../lpc11cx4-library/lpc_chip_11cxx_lib/inc/clock_11xx.h **** 	WDTLFO_OSC_2_40,	/*!< 2.4 MHz watchdog/LFO rate */
 146:../../lpc11cx4-library/lpc_chip_11cxx_lib/inc/clock_11xx.h **** 	WDTLFO_OSC_2_70,	/*!< 2.7 MHz watchdog/LFO rate */
 147:../../lpc11cx4-library/lpc_chip_11cxx_lib/inc/clock_11xx.h **** 	WDTLFO_OSC_3_00,	/*!< 3.0 MHz watchdog/LFO rate */
 148:../../lpc11cx4-library/lpc_chip_11cxx_lib/inc/clock_11xx.h **** 	WDTLFO_OSC_3_25,	/*!< 3.25 MHz watchdog/LFO rate */
 149:../../lpc11cx4-library/lpc_chip_11cxx_lib/inc/clock_11xx.h **** 	WDTLFO_OSC_3_50,	/*!< 3.5 MHz watchdog/LFO rate */
 150:../../lpc11cx4-library/lpc_chip_11cxx_lib/inc/clock_11xx.h **** 	WDTLFO_OSC_3_75,	/*!< 3.75 MHz watchdog/LFO rate */
 151:../../lpc11cx4-library/lpc_chip_11cxx_lib/inc/clock_11xx.h **** 	WDTLFO_OSC_4_00,	/*!< 4.0 MHz watchdog/LFO rate */
 152:../../lpc11cx4-library/lpc_chip_11cxx_lib/inc/clock_11xx.h **** 	WDTLFO_OSC_4_20,	/*!< 4.2 MHz watchdog/LFO rate */
 153:../../lpc11cx4-library/lpc_chip_11cxx_lib/inc/clock_11xx.h **** 	WDTLFO_OSC_4_40,	/*!< 4.4 MHz watchdog/LFO rate */
 154:../../lpc11cx4-library/lpc_chip_11cxx_lib/inc/clock_11xx.h **** 	WDTLFO_OSC_4_60		/*!< 4.6 MHz watchdog/LFO rate */
 155:../../lpc11cx4-library/lpc_chip_11cxx_lib/inc/clock_11xx.h **** } CHIP_WDTLFO_OSC_T;
 156:../../lpc11cx4-library/lpc_chip_11cxx_lib/inc/clock_11xx.h **** 
 157:../../lpc11cx4-library/lpc_chip_11cxx_lib/inc/clock_11xx.h **** /**
 158:../../lpc11cx4-library/lpc_chip_11cxx_lib/inc/clock_11xx.h ****  * @brief	Setup Watchdog oscillator rate and divider
 159:../../lpc11cx4-library/lpc_chip_11cxx_lib/inc/clock_11xx.h ****  * @param	wdtclk	: Selected watchdog clock rate
 160:../../lpc11cx4-library/lpc_chip_11cxx_lib/inc/clock_11xx.h ****  * @param	div		: Watchdog divider value, even value between 2 and 64
 161:../../lpc11cx4-library/lpc_chip_11cxx_lib/inc/clock_11xx.h ****  * @return	Nothing
 162:../../lpc11cx4-library/lpc_chip_11cxx_lib/inc/clock_11xx.h ****  * @note	Watchdog rate = selected rate divided by divider rate
 163:../../lpc11cx4-library/lpc_chip_11cxx_lib/inc/clock_11xx.h ****  */
 164:../../lpc11cx4-library/lpc_chip_11cxx_lib/inc/clock_11xx.h **** STATIC INLINE void Chip_Clock_SetWDTOSC(CHIP_WDTLFO_OSC_T wdtclk, uint8_t div)
 165:../../lpc11cx4-library/lpc_chip_11cxx_lib/inc/clock_11xx.h **** {
 166:../../lpc11cx4-library/lpc_chip_11cxx_lib/inc/clock_11xx.h **** 	LPC_SYSCTL->WDTOSCCTRL  = (((uint32_t) wdtclk) << 5) | ((div >> 1) - 1);
 167:../../lpc11cx4-library/lpc_chip_11cxx_lib/inc/clock_11xx.h **** }
 168:../../lpc11cx4-library/lpc_chip_11cxx_lib/inc/clock_11xx.h **** 
 169:../../lpc11cx4-library/lpc_chip_11cxx_lib/inc/clock_11xx.h **** #if defined(CHIP_LPC11AXX)
 170:../../lpc11cx4-library/lpc_chip_11cxx_lib/inc/clock_11xx.h **** /**
 171:../../lpc11cx4-library/lpc_chip_11cxx_lib/inc/clock_11xx.h ****  * @brief	Setup low frequency oscillator rate and divider
ARM GAS  /tmp/ccGKa4GA.s 			page 64


 172:../../lpc11cx4-library/lpc_chip_11cxx_lib/inc/clock_11xx.h ****  * @param	lfoclk	: Selected low frequency clock rate
 173:../../lpc11cx4-library/lpc_chip_11cxx_lib/inc/clock_11xx.h ****  * @param	div		: Low frequency divider value, even value between 2 and 64
 174:../../lpc11cx4-library/lpc_chip_11cxx_lib/inc/clock_11xx.h ****  * @return	Nothing
 175:../../lpc11cx4-library/lpc_chip_11cxx_lib/inc/clock_11xx.h ****  * @note	Low frequency oscillator rate = selected rate divided by divider rate
 176:../../lpc11cx4-library/lpc_chip_11cxx_lib/inc/clock_11xx.h ****  */
 177:../../lpc11cx4-library/lpc_chip_11cxx_lib/inc/clock_11xx.h **** STATIC INLINE void Chip_Clock_SetLFOSC(CHIP_WDTLFO_OSC_T lfoclk, uint8_t div)
 178:../../lpc11cx4-library/lpc_chip_11cxx_lib/inc/clock_11xx.h **** {
 179:../../lpc11cx4-library/lpc_chip_11cxx_lib/inc/clock_11xx.h **** 	LPC_SYSCTL->LFOSCCTRL  = (((uint32_t) lfoclk) << 5) | ((div >> 1) - 1);
 180:../../lpc11cx4-library/lpc_chip_11cxx_lib/inc/clock_11xx.h **** }
 181:../../lpc11cx4-library/lpc_chip_11cxx_lib/inc/clock_11xx.h **** 
 182:../../lpc11cx4-library/lpc_chip_11cxx_lib/inc/clock_11xx.h **** #endif /*CHIP_LPC11AXX*/
 183:../../lpc11cx4-library/lpc_chip_11cxx_lib/inc/clock_11xx.h **** 
 184:../../lpc11cx4-library/lpc_chip_11cxx_lib/inc/clock_11xx.h **** /**
 185:../../lpc11cx4-library/lpc_chip_11cxx_lib/inc/clock_11xx.h ****  * Clock sources for main system clock
 186:../../lpc11cx4-library/lpc_chip_11cxx_lib/inc/clock_11xx.h ****  */
 187:../../lpc11cx4-library/lpc_chip_11cxx_lib/inc/clock_11xx.h **** typedef enum CHIP_SYSCTL_MAINCLKSRC {
 188:../../lpc11cx4-library/lpc_chip_11cxx_lib/inc/clock_11xx.h **** 	SYSCTL_MAINCLKSRC_IRC = 0,		/*!< Internal oscillator */
 189:../../lpc11cx4-library/lpc_chip_11cxx_lib/inc/clock_11xx.h **** 	SYSCTL_MAINCLKSRC_PLLIN,		/*!< System PLL input */
 190:../../lpc11cx4-library/lpc_chip_11cxx_lib/inc/clock_11xx.h **** 	SYSCTL_MAINCLKSRC_LFOSC,		/*!< LF oscillator rate (11Axx only) */
 191:../../lpc11cx4-library/lpc_chip_11cxx_lib/inc/clock_11xx.h **** 	SYSCTL_MAINCLKSRC_WDTOSC = SYSCTL_MAINCLKSRC_LFOSC,	/*!< Watchdog oscillator rate */
 192:../../lpc11cx4-library/lpc_chip_11cxx_lib/inc/clock_11xx.h **** 	SYSCTL_MAINCLKSRC_PLLOUT,		/*!< System PLL output */
 193:../../lpc11cx4-library/lpc_chip_11cxx_lib/inc/clock_11xx.h **** } CHIP_SYSCTL_MAINCLKSRC_T;
 194:../../lpc11cx4-library/lpc_chip_11cxx_lib/inc/clock_11xx.h **** 
 195:../../lpc11cx4-library/lpc_chip_11cxx_lib/inc/clock_11xx.h **** /**
 196:../../lpc11cx4-library/lpc_chip_11cxx_lib/inc/clock_11xx.h ****  * @brief	Set main system clock source
 197:../../lpc11cx4-library/lpc_chip_11cxx_lib/inc/clock_11xx.h ****  * @param	src	: Clock source for main system
 198:../../lpc11cx4-library/lpc_chip_11cxx_lib/inc/clock_11xx.h ****  * @return	Nothing
 199:../../lpc11cx4-library/lpc_chip_11cxx_lib/inc/clock_11xx.h ****  * @note	This function will also toggle the clock source update register
 200:../../lpc11cx4-library/lpc_chip_11cxx_lib/inc/clock_11xx.h ****  * to update the clock source.
 201:../../lpc11cx4-library/lpc_chip_11cxx_lib/inc/clock_11xx.h ****  */
 202:../../lpc11cx4-library/lpc_chip_11cxx_lib/inc/clock_11xx.h **** void Chip_Clock_SetMainClockSource(CHIP_SYSCTL_MAINCLKSRC_T src);
 203:../../lpc11cx4-library/lpc_chip_11cxx_lib/inc/clock_11xx.h **** 
 204:../../lpc11cx4-library/lpc_chip_11cxx_lib/inc/clock_11xx.h **** /**
 205:../../lpc11cx4-library/lpc_chip_11cxx_lib/inc/clock_11xx.h ****  * @brief   Returns the main clock source
 206:../../lpc11cx4-library/lpc_chip_11cxx_lib/inc/clock_11xx.h ****  * @return	Which clock is used for the core clock source?
 207:../../lpc11cx4-library/lpc_chip_11cxx_lib/inc/clock_11xx.h ****  */
 208:../../lpc11cx4-library/lpc_chip_11cxx_lib/inc/clock_11xx.h **** STATIC INLINE CHIP_SYSCTL_MAINCLKSRC_T Chip_Clock_GetMainClockSource(void)
 209:../../lpc11cx4-library/lpc_chip_11cxx_lib/inc/clock_11xx.h **** {
 210:../../lpc11cx4-library/lpc_chip_11cxx_lib/inc/clock_11xx.h **** 	return (CHIP_SYSCTL_MAINCLKSRC_T) (LPC_SYSCTL->MAINCLKSEL);
 211:../../lpc11cx4-library/lpc_chip_11cxx_lib/inc/clock_11xx.h **** }
 212:../../lpc11cx4-library/lpc_chip_11cxx_lib/inc/clock_11xx.h **** 
 213:../../lpc11cx4-library/lpc_chip_11cxx_lib/inc/clock_11xx.h **** /**
 214:../../lpc11cx4-library/lpc_chip_11cxx_lib/inc/clock_11xx.h ****  * @brief	Set system clock divider
 215:../../lpc11cx4-library/lpc_chip_11cxx_lib/inc/clock_11xx.h ****  * @param	div	: divider for system clock
 216:../../lpc11cx4-library/lpc_chip_11cxx_lib/inc/clock_11xx.h ****  * @return	Nothing
 217:../../lpc11cx4-library/lpc_chip_11cxx_lib/inc/clock_11xx.h ****  * @note	Use 0 to disable, or a divider value of 1 to 255. The system clock
 218:../../lpc11cx4-library/lpc_chip_11cxx_lib/inc/clock_11xx.h ****  * rate is the main system clock divided by this value.
 219:../../lpc11cx4-library/lpc_chip_11cxx_lib/inc/clock_11xx.h ****  */
 220:../../lpc11cx4-library/lpc_chip_11cxx_lib/inc/clock_11xx.h **** STATIC INLINE void Chip_Clock_SetSysClockDiv(uint32_t div)
 221:../../lpc11cx4-library/lpc_chip_11cxx_lib/inc/clock_11xx.h **** {
 222:../../lpc11cx4-library/lpc_chip_11cxx_lib/inc/clock_11xx.h **** 	LPC_SYSCTL->SYSAHBCLKDIV  = div;
 223:../../lpc11cx4-library/lpc_chip_11cxx_lib/inc/clock_11xx.h **** }
 224:../../lpc11cx4-library/lpc_chip_11cxx_lib/inc/clock_11xx.h **** 
 225:../../lpc11cx4-library/lpc_chip_11cxx_lib/inc/clock_11xx.h **** /**
 226:../../lpc11cx4-library/lpc_chip_11cxx_lib/inc/clock_11xx.h ****  * System and peripheral clocks
 227:../../lpc11cx4-library/lpc_chip_11cxx_lib/inc/clock_11xx.h ****  */
 228:../../lpc11cx4-library/lpc_chip_11cxx_lib/inc/clock_11xx.h **** typedef enum CHIP_SYSCTL_CLOCK {
ARM GAS  /tmp/ccGKa4GA.s 			page 65


 229:../../lpc11cx4-library/lpc_chip_11cxx_lib/inc/clock_11xx.h **** 	SYSCTL_CLOCK_SYS = 0,				/*!< 0: System clock */
 230:../../lpc11cx4-library/lpc_chip_11cxx_lib/inc/clock_11xx.h **** 	SYSCTL_CLOCK_ROM,					/*!<1:  ROM clock */
 231:../../lpc11cx4-library/lpc_chip_11cxx_lib/inc/clock_11xx.h **** 	SYSCTL_CLOCK_RAM,					/*!< 2: RAM clock */
 232:../../lpc11cx4-library/lpc_chip_11cxx_lib/inc/clock_11xx.h **** 	SYSCTL_CLOCK_FLASHREG,				/*!< 3: FLASH register interface clock */
 233:../../lpc11cx4-library/lpc_chip_11cxx_lib/inc/clock_11xx.h **** 	SYSCTL_CLOCK_FLASHARRAY,			/*!< 4: FLASH array access clock */
 234:../../lpc11cx4-library/lpc_chip_11cxx_lib/inc/clock_11xx.h **** #if defined(CHIP_LPC110X)
 235:../../lpc11cx4-library/lpc_chip_11cxx_lib/inc/clock_11xx.h **** 	SYSCTL_CLOCK_RESERVED5,				/*!< 5: Reserved */
 236:../../lpc11cx4-library/lpc_chip_11cxx_lib/inc/clock_11xx.h **** #else
 237:../../lpc11cx4-library/lpc_chip_11cxx_lib/inc/clock_11xx.h **** 	SYSCTL_CLOCK_I2C,					/*!< 5: I2C clock, not on LPC110x */
 238:../../lpc11cx4-library/lpc_chip_11cxx_lib/inc/clock_11xx.h **** #endif
 239:../../lpc11cx4-library/lpc_chip_11cxx_lib/inc/clock_11xx.h **** 	SYSCTL_CLOCK_GPIO,					/*!< 6: GPIO clock */
 240:../../lpc11cx4-library/lpc_chip_11cxx_lib/inc/clock_11xx.h **** 	SYSCTL_CLOCK_CT16B0,				/*!< 7: 16-bit Counter/timer 0 clock */
 241:../../lpc11cx4-library/lpc_chip_11cxx_lib/inc/clock_11xx.h **** 	SYSCTL_CLOCK_CT16B1,				/*!< 8: 16-bit Counter/timer 1 clock */
 242:../../lpc11cx4-library/lpc_chip_11cxx_lib/inc/clock_11xx.h **** 	SYSCTL_CLOCK_CT32B0,				/*!< 9: 32-bit Counter/timer 0 clock */
 243:../../lpc11cx4-library/lpc_chip_11cxx_lib/inc/clock_11xx.h **** 	SYSCTL_CLOCK_CT32B1,				/*!< 10: 32-bit Counter/timer 1 clock */
 244:../../lpc11cx4-library/lpc_chip_11cxx_lib/inc/clock_11xx.h **** 	SYSCTL_CLOCK_SSP0,					/*!< 11: SSP0 clock */
 245:../../lpc11cx4-library/lpc_chip_11cxx_lib/inc/clock_11xx.h **** 	SYSCTL_CLOCK_UART0,					/*!< 12: UART0 clock */
 246:../../lpc11cx4-library/lpc_chip_11cxx_lib/inc/clock_11xx.h **** 	SYSCTL_CLOCK_ADC,					/*!< 13: ADC clock */
 247:../../lpc11cx4-library/lpc_chip_11cxx_lib/inc/clock_11xx.h **** #if defined(CHIP_LPC11UXX)
 248:../../lpc11cx4-library/lpc_chip_11cxx_lib/inc/clock_11xx.h **** 	SYSCTL_CLOCK_USB,					/*!< 14: USB clock, LPC11Uxx only */
 249:../../lpc11cx4-library/lpc_chip_11cxx_lib/inc/clock_11xx.h **** #else
 250:../../lpc11cx4-library/lpc_chip_11cxx_lib/inc/clock_11xx.h **** 	SYSCTL_CLOCK_RESERVED14,			/*!< 14: Reserved */
 251:../../lpc11cx4-library/lpc_chip_11cxx_lib/inc/clock_11xx.h **** #endif
 252:../../lpc11cx4-library/lpc_chip_11cxx_lib/inc/clock_11xx.h **** 	SYSCTL_CLOCK_WDT,					/*!< 15: Watchdog timer clock */
 253:../../lpc11cx4-library/lpc_chip_11cxx_lib/inc/clock_11xx.h **** 	SYSCTL_CLOCK_IOCON,					/*!< 16: IOCON block clock */
 254:../../lpc11cx4-library/lpc_chip_11cxx_lib/inc/clock_11xx.h **** #if defined(CHIP_LPC11CXX)
 255:../../lpc11cx4-library/lpc_chip_11cxx_lib/inc/clock_11xx.h **** 	SYSCTL_CLOCK_CAN,					/*!< 17: CAN clock, LPC11Cxx only */
 256:../../lpc11cx4-library/lpc_chip_11cxx_lib/inc/clock_11xx.h **** #else
 257:../../lpc11cx4-library/lpc_chip_11cxx_lib/inc/clock_11xx.h **** 	SYSCTL_CLOCK_RESERVED17,			/*!< 17: Reserved */
 258:../../lpc11cx4-library/lpc_chip_11cxx_lib/inc/clock_11xx.h **** #endif
 259:../../lpc11cx4-library/lpc_chip_11cxx_lib/inc/clock_11xx.h **** #if !(defined(CHIP_LPC110X) || defined(CHIP_LPC11XXLV))  
 260:../../lpc11cx4-library/lpc_chip_11cxx_lib/inc/clock_11xx.h **** 	SYSCTL_CLOCK_SSP1,					/*!< 18: SSP1 clock, LPC11A/C/E/Uxx//1125 only */
 261:../../lpc11cx4-library/lpc_chip_11cxx_lib/inc/clock_11xx.h **** #if !defined(CHIP_LPC11CXX)
 262:../../lpc11cx4-library/lpc_chip_11cxx_lib/inc/clock_11xx.h **** 	SYSCTL_CLOCK_PINT,					/*!< 19: GPIO Pin int register interface clock, LPC11A/E/Uxx only */
 263:../../lpc11cx4-library/lpc_chip_11cxx_lib/inc/clock_11xx.h **** #if defined(CHIP_LPC11AXX)
 264:../../lpc11cx4-library/lpc_chip_11cxx_lib/inc/clock_11xx.h **** 	SYSCTL_CLOCK_ACOMP,					/*!< 20: Analog comparator clock, LPC11Axx only */
 265:../../lpc11cx4-library/lpc_chip_11cxx_lib/inc/clock_11xx.h **** 	SYSCTL_CLOCK_DAC,					/*!< 21: DAC clock, LPC11Axx only */
 266:../../lpc11cx4-library/lpc_chip_11cxx_lib/inc/clock_11xx.h **** #else
 267:../../lpc11cx4-library/lpc_chip_11cxx_lib/inc/clock_11xx.h **** 	SYSCTL_CLOCK_RESERVED20,			/*!< 20: Reserved */
 268:../../lpc11cx4-library/lpc_chip_11cxx_lib/inc/clock_11xx.h **** 	SYSCTL_CLOCK_RESERVED21,			/*!< 21: Reserved */
 269:../../lpc11cx4-library/lpc_chip_11cxx_lib/inc/clock_11xx.h **** #endif
 270:../../lpc11cx4-library/lpc_chip_11cxx_lib/inc/clock_11xx.h **** 	SYSCTL_CLOCK_RESERVED22,			/*!< 22: Reserved */
 271:../../lpc11cx4-library/lpc_chip_11cxx_lib/inc/clock_11xx.h **** 	SYSCTL_CLOCK_P0INT,					/*!< 23: GPIO GROUP1 interrupt register clock, LPC11Axx only */
 272:../../lpc11cx4-library/lpc_chip_11cxx_lib/inc/clock_11xx.h **** 	SYSCTL_CLOCK_GROUP0INT = SYSCTL_CLOCK_P0INT,/*!< 23: GPIO GROUP0 interrupt register interface cloc
 273:../../lpc11cx4-library/lpc_chip_11cxx_lib/inc/clock_11xx.h **** 	SYSCTL_CLOCK_P1INT,					/*!< 24: GPIO GROUP1 interrupt register clock, LPC11Axx only */
 274:../../lpc11cx4-library/lpc_chip_11cxx_lib/inc/clock_11xx.h **** 	SYSCTL_CLOCK_GROUP1INT = SYSCTL_CLOCK_P1INT,/*!< 24: GPIO GROUP1 interrupt register interface cloc
 275:../../lpc11cx4-library/lpc_chip_11cxx_lib/inc/clock_11xx.h **** 	SYSCTL_CLOCK_RESERVED25,			/*!< 25: Reserved */
 276:../../lpc11cx4-library/lpc_chip_11cxx_lib/inc/clock_11xx.h **** #if defined(CHIP_LPC11EXX)  || defined(CHIP_LPC11UXX)
 277:../../lpc11cx4-library/lpc_chip_11cxx_lib/inc/clock_11xx.h **** 	SYSCTL_CLOCK_RAM1,					/*!< 26: SRAM block (0x20000000) clock, LPC11E/Uxx only */
 278:../../lpc11cx4-library/lpc_chip_11cxx_lib/inc/clock_11xx.h **** #else
 279:../../lpc11cx4-library/lpc_chip_11cxx_lib/inc/clock_11xx.h **** 	SYSCTL_CLOCK_RESERVED26,			/*!< 26: Reserved */
 280:../../lpc11cx4-library/lpc_chip_11cxx_lib/inc/clock_11xx.h **** #endif
 281:../../lpc11cx4-library/lpc_chip_11cxx_lib/inc/clock_11xx.h **** #if defined(CHIP_LPC11UXX)
 282:../../lpc11cx4-library/lpc_chip_11cxx_lib/inc/clock_11xx.h **** 	SYSCTL_CLOCK_USBRAM,				/*!< 27: USB SRAM block clock, LPC11Uxx only */
 283:../../lpc11cx4-library/lpc_chip_11cxx_lib/inc/clock_11xx.h **** #else
 284:../../lpc11cx4-library/lpc_chip_11cxx_lib/inc/clock_11xx.h **** 	SYSCTL_CLOCK_RESERVED27,			/*!< 27: Reserved */
 285:../../lpc11cx4-library/lpc_chip_11cxx_lib/inc/clock_11xx.h **** #endif
ARM GAS  /tmp/ccGKa4GA.s 			page 66


 286:../../lpc11cx4-library/lpc_chip_11cxx_lib/inc/clock_11xx.h **** #endif /* !defined(CHIP_LPC11CXX) */
 287:../../lpc11cx4-library/lpc_chip_11cxx_lib/inc/clock_11xx.h **** #endif /* !(defined(CHIP_LPC110X) || defined(CHIP_LPC11XXLV)) */
 288:../../lpc11cx4-library/lpc_chip_11cxx_lib/inc/clock_11xx.h **** } CHIP_SYSCTL_CLOCK_T;
 289:../../lpc11cx4-library/lpc_chip_11cxx_lib/inc/clock_11xx.h **** 
 290:../../lpc11cx4-library/lpc_chip_11cxx_lib/inc/clock_11xx.h **** /**
 291:../../lpc11cx4-library/lpc_chip_11cxx_lib/inc/clock_11xx.h ****  * @brief	Enable a system or peripheral clock
 292:../../lpc11cx4-library/lpc_chip_11cxx_lib/inc/clock_11xx.h ****  * @param	clk	: Clock to enable
 293:../../lpc11cx4-library/lpc_chip_11cxx_lib/inc/clock_11xx.h ****  * @return	Nothing
 294:../../lpc11cx4-library/lpc_chip_11cxx_lib/inc/clock_11xx.h ****  */
 295:../../lpc11cx4-library/lpc_chip_11cxx_lib/inc/clock_11xx.h **** STATIC INLINE void Chip_Clock_EnablePeriphClock(CHIP_SYSCTL_CLOCK_T clk)
 296:../../lpc11cx4-library/lpc_chip_11cxx_lib/inc/clock_11xx.h **** {
 297:../../lpc11cx4-library/lpc_chip_11cxx_lib/inc/clock_11xx.h **** 	LPC_SYSCTL->SYSAHBCLKCTRL |= (1 << clk);
 298:../../lpc11cx4-library/lpc_chip_11cxx_lib/inc/clock_11xx.h **** }
 299:../../lpc11cx4-library/lpc_chip_11cxx_lib/inc/clock_11xx.h **** 
 300:../../lpc11cx4-library/lpc_chip_11cxx_lib/inc/clock_11xx.h **** /**
 301:../../lpc11cx4-library/lpc_chip_11cxx_lib/inc/clock_11xx.h ****  * @brief	Disable a system or peripheral clock
 302:../../lpc11cx4-library/lpc_chip_11cxx_lib/inc/clock_11xx.h ****  * @param	clk	: Clock to disable
 303:../../lpc11cx4-library/lpc_chip_11cxx_lib/inc/clock_11xx.h ****  * @return	Nothing
 304:../../lpc11cx4-library/lpc_chip_11cxx_lib/inc/clock_11xx.h ****  */
 305:../../lpc11cx4-library/lpc_chip_11cxx_lib/inc/clock_11xx.h **** STATIC INLINE void Chip_Clock_DisablePeriphClock(CHIP_SYSCTL_CLOCK_T clk)
 306:../../lpc11cx4-library/lpc_chip_11cxx_lib/inc/clock_11xx.h **** {
 307:../../lpc11cx4-library/lpc_chip_11cxx_lib/inc/clock_11xx.h **** 	LPC_SYSCTL->SYSAHBCLKCTRL &= ~(1 << clk);
 308:../../lpc11cx4-library/lpc_chip_11cxx_lib/inc/clock_11xx.h **** }
 309:../../lpc11cx4-library/lpc_chip_11cxx_lib/inc/clock_11xx.h **** 
 310:../../lpc11cx4-library/lpc_chip_11cxx_lib/inc/clock_11xx.h **** /**
 311:../../lpc11cx4-library/lpc_chip_11cxx_lib/inc/clock_11xx.h ****  * @brief	Set SSP0 divider
 312:../../lpc11cx4-library/lpc_chip_11cxx_lib/inc/clock_11xx.h ****  * @param	div	: divider for SSP0 clock
 313:../../lpc11cx4-library/lpc_chip_11cxx_lib/inc/clock_11xx.h ****  * @return	Nothing
 314:../../lpc11cx4-library/lpc_chip_11cxx_lib/inc/clock_11xx.h ****  * @note	Use 0 to disable, or a divider value of 1 to 255. The SSP0 clock
 315:../../lpc11cx4-library/lpc_chip_11cxx_lib/inc/clock_11xx.h ****  * rate is the main system clock divided by this value.
 316:../../lpc11cx4-library/lpc_chip_11cxx_lib/inc/clock_11xx.h ****  */
 317:../../lpc11cx4-library/lpc_chip_11cxx_lib/inc/clock_11xx.h **** STATIC INLINE void Chip_Clock_SetSSP0ClockDiv(uint32_t div)
 318:../../lpc11cx4-library/lpc_chip_11cxx_lib/inc/clock_11xx.h **** {
 319:../../lpc11cx4-library/lpc_chip_11cxx_lib/inc/clock_11xx.h **** 	LPC_SYSCTL->SSP0CLKDIV  = div;
 320:../../lpc11cx4-library/lpc_chip_11cxx_lib/inc/clock_11xx.h **** }
 321:../../lpc11cx4-library/lpc_chip_11cxx_lib/inc/clock_11xx.h **** 
 322:../../lpc11cx4-library/lpc_chip_11cxx_lib/inc/clock_11xx.h **** /**
 323:../../lpc11cx4-library/lpc_chip_11cxx_lib/inc/clock_11xx.h ****  * @brief	Return SSP0 divider
 324:../../lpc11cx4-library/lpc_chip_11cxx_lib/inc/clock_11xx.h ****  * @return	divider for SSP0 clock
 325:../../lpc11cx4-library/lpc_chip_11cxx_lib/inc/clock_11xx.h ****  * @note	A value of 0 means the clock is disabled.
 326:../../lpc11cx4-library/lpc_chip_11cxx_lib/inc/clock_11xx.h ****  */
 327:../../lpc11cx4-library/lpc_chip_11cxx_lib/inc/clock_11xx.h **** STATIC INLINE uint32_t Chip_Clock_GetSSP0ClockDiv(void)
 328:../../lpc11cx4-library/lpc_chip_11cxx_lib/inc/clock_11xx.h **** {
 329:../../lpc11cx4-library/lpc_chip_11cxx_lib/inc/clock_11xx.h **** 	return LPC_SYSCTL->SSP0CLKDIV;
 330:../../lpc11cx4-library/lpc_chip_11cxx_lib/inc/clock_11xx.h **** }
 331:../../lpc11cx4-library/lpc_chip_11cxx_lib/inc/clock_11xx.h **** 
 332:../../lpc11cx4-library/lpc_chip_11cxx_lib/inc/clock_11xx.h **** /**
 333:../../lpc11cx4-library/lpc_chip_11cxx_lib/inc/clock_11xx.h ****  * @brief	Set UART divider clock
 334:../../lpc11cx4-library/lpc_chip_11cxx_lib/inc/clock_11xx.h ****  * @param	div	: divider for UART clock
 335:../../lpc11cx4-library/lpc_chip_11cxx_lib/inc/clock_11xx.h ****  * @return	Nothing
 336:../../lpc11cx4-library/lpc_chip_11cxx_lib/inc/clock_11xx.h ****  * @note	Use 0 to disable, or a divider value of 1 to 255. The UART clock
 337:../../lpc11cx4-library/lpc_chip_11cxx_lib/inc/clock_11xx.h ****  * rate is the main system clock divided by this value.
 338:../../lpc11cx4-library/lpc_chip_11cxx_lib/inc/clock_11xx.h ****  */
 339:../../lpc11cx4-library/lpc_chip_11cxx_lib/inc/clock_11xx.h **** STATIC INLINE void Chip_Clock_SetUARTClockDiv(uint32_t div)
 340:../../lpc11cx4-library/lpc_chip_11cxx_lib/inc/clock_11xx.h **** {
 341:../../lpc11cx4-library/lpc_chip_11cxx_lib/inc/clock_11xx.h **** 	LPC_SYSCTL->USARTCLKDIV  = div;
 342:../../lpc11cx4-library/lpc_chip_11cxx_lib/inc/clock_11xx.h **** }
ARM GAS  /tmp/ccGKa4GA.s 			page 67


 343:../../lpc11cx4-library/lpc_chip_11cxx_lib/inc/clock_11xx.h **** 
 344:../../lpc11cx4-library/lpc_chip_11cxx_lib/inc/clock_11xx.h **** /**
 345:../../lpc11cx4-library/lpc_chip_11cxx_lib/inc/clock_11xx.h ****  * @brief	Return UART divider
 346:../../lpc11cx4-library/lpc_chip_11cxx_lib/inc/clock_11xx.h ****  * @return	divider for UART clock
 347:../../lpc11cx4-library/lpc_chip_11cxx_lib/inc/clock_11xx.h ****  * @note	A value of 0 means the clock is disabled.
 348:../../lpc11cx4-library/lpc_chip_11cxx_lib/inc/clock_11xx.h ****  */
 349:../../lpc11cx4-library/lpc_chip_11cxx_lib/inc/clock_11xx.h **** STATIC INLINE uint32_t Chip_Clock_GetUARTClockDiv(void)
 350:../../lpc11cx4-library/lpc_chip_11cxx_lib/inc/clock_11xx.h **** {
 351:../../lpc11cx4-library/lpc_chip_11cxx_lib/inc/clock_11xx.h **** 	return LPC_SYSCTL->USARTCLKDIV;
 352:../../lpc11cx4-library/lpc_chip_11cxx_lib/inc/clock_11xx.h **** }
 353:../../lpc11cx4-library/lpc_chip_11cxx_lib/inc/clock_11xx.h **** 
 354:../../lpc11cx4-library/lpc_chip_11cxx_lib/inc/clock_11xx.h **** #if defined(CHIP_LPC11CXX) || defined(CHIP_LPC11EXX) || defined(CHIP_LPC11AXX) || defined(CHIP_LPC1
 355:../../lpc11cx4-library/lpc_chip_11cxx_lib/inc/clock_11xx.h **** /**
 356:../../lpc11cx4-library/lpc_chip_11cxx_lib/inc/clock_11xx.h ****  * @brief	Set SSP1 divider clock
 357:../../lpc11cx4-library/lpc_chip_11cxx_lib/inc/clock_11xx.h ****  * @param	div	: divider for SSP1 clock
 358:../../lpc11cx4-library/lpc_chip_11cxx_lib/inc/clock_11xx.h ****  * @return	Nothing
 359:../../lpc11cx4-library/lpc_chip_11cxx_lib/inc/clock_11xx.h ****  * @note	Use 0 to disable, or a divider value of 1 to 255. The SSP1 clock
 360:../../lpc11cx4-library/lpc_chip_11cxx_lib/inc/clock_11xx.h ****  * rate is the main system clock divided by this value.
 361:../../lpc11cx4-library/lpc_chip_11cxx_lib/inc/clock_11xx.h ****  */
 362:../../lpc11cx4-library/lpc_chip_11cxx_lib/inc/clock_11xx.h **** STATIC INLINE void Chip_Clock_SetSSP1ClockDiv(uint32_t div)
 363:../../lpc11cx4-library/lpc_chip_11cxx_lib/inc/clock_11xx.h **** {
 364:../../lpc11cx4-library/lpc_chip_11cxx_lib/inc/clock_11xx.h **** 	LPC_SYSCTL->SSP1CLKDIV  = div;
 365:../../lpc11cx4-library/lpc_chip_11cxx_lib/inc/clock_11xx.h **** }
 366:../../lpc11cx4-library/lpc_chip_11cxx_lib/inc/clock_11xx.h **** 
 367:../../lpc11cx4-library/lpc_chip_11cxx_lib/inc/clock_11xx.h **** /**
 368:../../lpc11cx4-library/lpc_chip_11cxx_lib/inc/clock_11xx.h ****  * @brief	Return SSP1 divider
 369:../../lpc11cx4-library/lpc_chip_11cxx_lib/inc/clock_11xx.h ****  * @return	divider for SSP1 clock
 370:../../lpc11cx4-library/lpc_chip_11cxx_lib/inc/clock_11xx.h ****  * @note	A value of 0 means the clock is disabled.
 371:../../lpc11cx4-library/lpc_chip_11cxx_lib/inc/clock_11xx.h ****  */
 372:../../lpc11cx4-library/lpc_chip_11cxx_lib/inc/clock_11xx.h **** STATIC INLINE uint32_t Chip_Clock_GetSSP1ClockDiv(void)
 373:../../lpc11cx4-library/lpc_chip_11cxx_lib/inc/clock_11xx.h **** {
 374:../../lpc11cx4-library/lpc_chip_11cxx_lib/inc/clock_11xx.h **** 	return LPC_SYSCTL->SSP1CLKDIV;
 2302              		.loc 3 374 0
 2303 0016 9C23     		movs	r3, #156	@ tmp133,
 2304 0018 174A     		ldr	r2, .L271+4	@ tmp132,
 2305 001a D158     		ldr	r1, [r2, r3]	@ _16,
 2306              	.LBE607:
 2307              	.LBE606:
 159:../../lpc11cx4-library/lpc_chip_11cxx_lib/src/ssp_11xx.c **** 	}
 2308              		.loc 1 159 0
 2309 001c FFF7FEFF 		bl	__aeabi_uidiv	@
 2310              	.LVL217:
 2311 0020 8146     		mov	r9, r0	@ sspCLK,
 2312              	.LVL218:
 2313              	.L263:
 2314              	.LBE605:
 2315              	.LBE604:
 460:../../lpc11cx4-library/lpc_chip_11cxx_lib/src/ssp_11xx.c **** 	uint32_t ssp_clk, cr0_div, cmp_clk, prescale;
 461:../../lpc11cx4-library/lpc_chip_11cxx_lib/src/ssp_11xx.c **** 
 462:../../lpc11cx4-library/lpc_chip_11cxx_lib/src/ssp_11xx.c **** 	ssp_clk = Chip_SSP_GetPCLKkRate(pSSP);
 463:../../lpc11cx4-library/lpc_chip_11cxx_lib/src/ssp_11xx.c **** 
 464:../../lpc11cx4-library/lpc_chip_11cxx_lib/src/ssp_11xx.c **** 	cr0_div = 0;
 465:../../lpc11cx4-library/lpc_chip_11cxx_lib/src/ssp_11xx.c **** 	cmp_clk = 0xFFFFFFFF;
 466:../../lpc11cx4-library/lpc_chip_11cxx_lib/src/ssp_11xx.c **** 	prescale = 2;
 467:../../lpc11cx4-library/lpc_chip_11cxx_lib/src/ssp_11xx.c **** 
 468:../../lpc11cx4-library/lpc_chip_11cxx_lib/src/ssp_11xx.c **** 	while (cmp_clk > bitRate) {
 2316              		.loc 1 468 0
ARM GAS  /tmp/ccGKa4GA.s 			page 68


 2317 0022 4346     		mov	r3, r8	@ bitRate, bitRate
 2318 0024 0133     		adds	r3, r3, #1	@ tmp147, bitRate,
 2319 0026 22D0     		beq	.L268	@,
 2320 0028 0226     		movs	r6, #2	@ prescale,
 2321 002a 0024     		movs	r4, #0	@ cr0_div,
 2322              	.LVL219:
 2323              	.L267:
 469:../../lpc11cx4-library/lpc_chip_11cxx_lib/src/ssp_11xx.c **** 		cmp_clk = ssp_clk / ((cr0_div + 1) * prescale);
 2324              		.loc 1 469 0
 2325 002c 3100     		movs	r1, r6	@ tmp137, prescale
 2326 002e 651C     		adds	r5, r4, #1	@ _8, cr0_div,
 2327              	.LVL220:
 2328 0030 6943     		muls	r1, r5	@ tmp137, _8
 2329 0032 4846     		mov	r0, r9	@, sspCLK
 2330 0034 FFF7FEFF 		bl	__aeabi_uidiv	@
 2331              	.LVL221:
 470:../../lpc11cx4-library/lpc_chip_11cxx_lib/src/ssp_11xx.c **** 		if (cmp_clk > bitRate) {
 2332              		.loc 1 470 0
 2333 0038 8045     		cmp	r8, r0	@ bitRate, cmp_clk
 2334 003a 0BD3     		bcc	.L265	@,
 2335 003c 2406     		lsls	r4, r4, #24	@ tmp143, cr0_div,
 2336              	.LVL222:
 2337 003e 240C     		lsrs	r4, r4, #16	@ _42, tmp143,
 2338              	.LVL223:
 2339              	.L264:
 2340              	.LBB611:
 2341              	.LBB612:
 174:../../lpc11cx4-library/lpc_chip_11cxx_lib/src/ssp_11xx.c **** 	pSSP->CR0 = temp | (SSP_CR0_SCR(clk_rate));
 2342              		.loc 1 174 0
 2343 0040 3B68     		ldr	r3, [r7]	@ _19, pSSP_5(D)->CR0
 2344              	.LVL224:
 2345 0042 0E4A     		ldr	r2, .L271+8	@ tmp145,
 2346              	.LBE612:
 2347              	.LBE611:
 471:../../lpc11cx4-library/lpc_chip_11cxx_lib/src/ssp_11xx.c **** 			cr0_div++;
 472:../../lpc11cx4-library/lpc_chip_11cxx_lib/src/ssp_11xx.c **** 			if (cr0_div > 0xFF) {
 473:../../lpc11cx4-library/lpc_chip_11cxx_lib/src/ssp_11xx.c **** 				cr0_div = 0;
 474:../../lpc11cx4-library/lpc_chip_11cxx_lib/src/ssp_11xx.c **** 				prescale += 2;
 475:../../lpc11cx4-library/lpc_chip_11cxx_lib/src/ssp_11xx.c **** 			}
 476:../../lpc11cx4-library/lpc_chip_11cxx_lib/src/ssp_11xx.c **** 		}
 477:../../lpc11cx4-library/lpc_chip_11cxx_lib/src/ssp_11xx.c **** 	}
 478:../../lpc11cx4-library/lpc_chip_11cxx_lib/src/ssp_11xx.c **** 
 479:../../lpc11cx4-library/lpc_chip_11cxx_lib/src/ssp_11xx.c **** 	Chip_SSP_SetClockRate(pSSP, cr0_div, prescale);
 480:../../lpc11cx4-library/lpc_chip_11cxx_lib/src/ssp_11xx.c **** }
 2348              		.loc 1 480 0
 2349              		@ sp needed	@
 2350              	.LBB614:
 2351              	.LBB613:
 174:../../lpc11cx4-library/lpc_chip_11cxx_lib/src/ssp_11xx.c **** 	pSSP->CR0 = temp | (SSP_CR0_SCR(clk_rate));
 2352              		.loc 1 174 0
 2353 0044 1340     		ands	r3, r2	@ temp, tmp145
 2354              	.LVL225:
 175:../../lpc11cx4-library/lpc_chip_11cxx_lib/src/ssp_11xx.c **** 	pSSP->CPSR = prescale;
 2355              		.loc 1 175 0
 2356 0046 1C43     		orrs	r4, r3	@ _23, temp
 2357 0048 3C60     		str	r4, [r7]	@ _23, pSSP_5(D)->CR0
 176:../../lpc11cx4-library/lpc_chip_11cxx_lib/src/ssp_11xx.c **** }
ARM GAS  /tmp/ccGKa4GA.s 			page 69


 2358              		.loc 1 176 0
 2359 004a 3E61     		str	r6, [r7, #16]	@ prescale, pSSP_5(D)->CPSR
 2360              	.LVL226:
 2361              	.LVL227:
 2362              	.LVL228:
 2363              	.LBE613:
 2364              	.LBE614:
 2365              		.loc 1 480 0
 2366 004c 0CBC     		pop	{r2, r3}
 2367 004e 9046     		mov	r8, r2
 2368 0050 9946     		mov	r9, r3
 2369 0052 F8BD     		pop	{r3, r4, r5, r6, r7, pc}
 2370              	.LVL229:
 2371              	.L265:
 2372 0054 2C00     		movs	r4, r5	@ cr0_div, _8
 472:../../lpc11cx4-library/lpc_chip_11cxx_lib/src/ssp_11xx.c **** 				cr0_div = 0;
 2373              		.loc 1 472 0
 2374 0056 FF2D     		cmp	r5, #255	@ cr0_div,
 2375 0058 E8D9     		bls	.L267	@,
 2376              	.LVL230:
 474:../../lpc11cx4-library/lpc_chip_11cxx_lib/src/ssp_11xx.c **** 			}
 2377              		.loc 1 474 0
 2378 005a 0236     		adds	r6, r6, #2	@ prescale,
 2379              	.LVL231:
 473:../../lpc11cx4-library/lpc_chip_11cxx_lib/src/ssp_11xx.c **** 				prescale += 2;
 2380              		.loc 1 473 0
 2381 005c 0024     		movs	r4, #0	@ cr0_div,
 2382              	.LVL232:
 2383 005e E5E7     		b	.L267	@
 2384              	.LVL233:
 2385              	.L270:
 2386              	.LBB615:
 2387              	.LBB610:
 2388              	.LBB608:
 2389              	.LBB609:
 329:../../lpc11cx4-library/lpc_chip_11cxx_lib/inc/clock_11xx.h **** }
 2390              		.loc 3 329 0
 2391 0060 9423     		movs	r3, #148	@ tmp128,
 2392 0062 054A     		ldr	r2, .L271+4	@ tmp127,
 2393 0064 D158     		ldr	r1, [r2, r3]	@ _14,
 2394              	.LBE609:
 2395              	.LBE608:
 155:../../lpc11cx4-library/lpc_chip_11cxx_lib/src/ssp_11xx.c **** 	}
 2396              		.loc 1 155 0
 2397 0066 FFF7FEFF 		bl	__aeabi_uidiv	@
 2398              	.LVL234:
 2399 006a 8146     		mov	r9, r0	@ sspCLK,
 2400              	.LVL235:
 2401 006c D9E7     		b	.L263	@
 2402              	.LVL236:
 2403              	.L268:
 2404              	.LBE610:
 2405              	.LBE615:
 468:../../lpc11cx4-library/lpc_chip_11cxx_lib/src/ssp_11xx.c **** 		cmp_clk = ssp_clk / ((cr0_div + 1) * prescale);
 2406              		.loc 1 468 0
 2407 006e 0024     		movs	r4, #0	@ _42,
 466:../../lpc11cx4-library/lpc_chip_11cxx_lib/src/ssp_11xx.c **** 
ARM GAS  /tmp/ccGKa4GA.s 			page 70


 2408              		.loc 1 466 0
 2409 0070 0226     		movs	r6, #2	@ prescale,
 2410 0072 E5E7     		b	.L264	@
 2411              	.L272:
 2412              		.align	2
 2413              	.L271:
 2414 0074 00000440 		.word	1074003968
 2415 0078 00800440 		.word	1074036736
 2416 007c FF00FFFF 		.word	-65281
 2417              		.cfi_endproc
 2418              	.LFE214:
 2419              		.size	Chip_SSP_SetBitRate, .-Chip_SSP_SetBitRate
 2420              		.section	.text.Chip_SSP_Init,"ax",%progbits
 2421              		.align	1
 2422              		.p2align 2,,3
 2423              		.global	Chip_SSP_Init
 2424              		.syntax unified
 2425              		.code	16
 2426              		.thumb_func
 2427              		.fpu softvfp
 2428              		.type	Chip_SSP_Init, %function
 2429              	Chip_SSP_Init:
 2430              	.LFB215:
 481:../../lpc11cx4-library/lpc_chip_11cxx_lib/src/ssp_11xx.c **** 
 482:../../lpc11cx4-library/lpc_chip_11cxx_lib/src/ssp_11xx.c **** /* Initialize the SSP */
 483:../../lpc11cx4-library/lpc_chip_11cxx_lib/src/ssp_11xx.c **** void Chip_SSP_Init(LPC_SSP_T *pSSP)
 484:../../lpc11cx4-library/lpc_chip_11cxx_lib/src/ssp_11xx.c **** {
 2431              		.loc 1 484 0
 2432              		.cfi_startproc
 2433              		@ args = 0, pretend = 0, frame = 0
 2434              		@ frame_needed = 0, uses_anonymous_args = 0
 2435              	.LVL237:
 2436              	.LBB616:
 2437              	.LBB617:
 109:../../lpc11cx4-library/lpc_chip_11cxx_lib/src/ssp_11xx.c **** 		clkSSP = SYSCTL_CLOCK_SSP0;
 2438              		.loc 1 109 0
 2439 0000 184B     		ldr	r3, .L281	@ tmp126,
 2440              	.LBE617:
 2441              	.LBE616:
 2442              		.loc 1 484 0
 2443 0002 10B5     		push	{r4, lr}	@
 2444              		.cfi_def_cfa_offset 8
 2445              		.cfi_offset 4, -8
 2446              		.cfi_offset 14, -4
 2447              	.LBB619:
 2448              	.LBB618:
 109:../../lpc11cx4-library/lpc_chip_11cxx_lib/src/ssp_11xx.c **** 		clkSSP = SYSCTL_CLOCK_SSP0;
 2449              		.loc 1 109 0
 2450 0004 9842     		cmp	r0, r3	@ pSSP, tmp126
 2451 0006 20D0     		beq	.L280	@,
 2452              	.LVL238:
 2453              	.LBE618:
 2454              	.LBE619:
 2455              	.LBB620:
 2456              	.LBB621:
 297:../../lpc11cx4-library/lpc_chip_11cxx_lib/inc/clock_11xx.h **** }
 2457              		.loc 3 297 0
ARM GAS  /tmp/ccGKa4GA.s 			page 71


 2458 0008 8021     		movs	r1, #128	@ tmp145,
 2459 000a 8022     		movs	r2, #128	@ tmp146,
 2460 000c 164B     		ldr	r3, .L281+4	@ tmp144,
 2461 000e D202     		lsls	r2, r2, #11	@ tmp146, tmp146,
 2462 0010 5C58     		ldr	r4, [r3, r1]	@ _48, MEM[(struct LPC_SYSCTL_T *)1074036736B].SYSAHBCLKCTRL
 2463 0012 2243     		orrs	r2, r4	@ _52, _48
 2464 0014 5A50     		str	r2, [r3, r1]	@ _52, MEM[(struct LPC_SYSCTL_T *)1074036736B].SYSAHBCLKCTRL
 2465              	.LVL239:
 2466              	.LBE621:
 2467              	.LBE620:
 2468              	.LBB623:
 2469              	.LBB624:
 2470              	.LBB625:
 364:../../lpc11cx4-library/lpc_chip_11cxx_lib/inc/clock_11xx.h **** }
 2471              		.loc 3 364 0
 2472 0016 9C22     		movs	r2, #156	@ tmp150,
 2473 0018 7F39     		subs	r1, r1, #127	@ tmp151,
 2474 001a 9950     		str	r1, [r3, r2]	@ tmp151, MEM[(struct LPC_SYSCTL_T *)1074036736B].SSP1CLKDIV
 2475              	.LVL240:
 2476 001c 0331     		adds	r1, r1, #3	@ prephitmp_50,
 2477 001e A13A     		subs	r2, r2, #161	@ prephitmp_49,
 2478              	.LVL241:
 2479              	.L276:
 2480              	.LBE625:
 2481              	.LBE624:
 2482              	.LBE623:
 2483              	.LBB628:
 2484              	.LBB629:
 2485              	.LBB630:
 2486              		.file 4 "../../lpc11cx4-library/lpc_chip_11cxx_lib/inc/sysctl_11xx.h"
   1:../../lpc11cx4-library/lpc_chip_11cxx_lib/inc/sysctl_11xx.h **** /*
   2:../../lpc11cx4-library/lpc_chip_11cxx_lib/inc/sysctl_11xx.h ****  * @brief LPC11XX System Control registers and control functions
   3:../../lpc11cx4-library/lpc_chip_11cxx_lib/inc/sysctl_11xx.h ****  *
   4:../../lpc11cx4-library/lpc_chip_11cxx_lib/inc/sysctl_11xx.h ****  * @note
   5:../../lpc11cx4-library/lpc_chip_11cxx_lib/inc/sysctl_11xx.h ****  * Copyright(C) NXP Semiconductors, 2012
   6:../../lpc11cx4-library/lpc_chip_11cxx_lib/inc/sysctl_11xx.h ****  * All rights reserved.
   7:../../lpc11cx4-library/lpc_chip_11cxx_lib/inc/sysctl_11xx.h ****  *
   8:../../lpc11cx4-library/lpc_chip_11cxx_lib/inc/sysctl_11xx.h ****  * @par
   9:../../lpc11cx4-library/lpc_chip_11cxx_lib/inc/sysctl_11xx.h ****  * Software that is described herein is for illustrative purposes only
  10:../../lpc11cx4-library/lpc_chip_11cxx_lib/inc/sysctl_11xx.h ****  * which provides customers with programming information regarding the
  11:../../lpc11cx4-library/lpc_chip_11cxx_lib/inc/sysctl_11xx.h ****  * LPC products.  This software is supplied "AS IS" without any warranties of
  12:../../lpc11cx4-library/lpc_chip_11cxx_lib/inc/sysctl_11xx.h ****  * any kind, and NXP Semiconductors and its licensor disclaim any and
  13:../../lpc11cx4-library/lpc_chip_11cxx_lib/inc/sysctl_11xx.h ****  * all warranties, express or implied, including all implied warranties of
  14:../../lpc11cx4-library/lpc_chip_11cxx_lib/inc/sysctl_11xx.h ****  * merchantability, fitness for a particular purpose and non-infringement of
  15:../../lpc11cx4-library/lpc_chip_11cxx_lib/inc/sysctl_11xx.h ****  * intellectual property rights.  NXP Semiconductors assumes no responsibility
  16:../../lpc11cx4-library/lpc_chip_11cxx_lib/inc/sysctl_11xx.h ****  * or liability for the use of the software, conveys no license or rights under any
  17:../../lpc11cx4-library/lpc_chip_11cxx_lib/inc/sysctl_11xx.h ****  * patent, copyright, mask work right, or any other intellectual property rights in
  18:../../lpc11cx4-library/lpc_chip_11cxx_lib/inc/sysctl_11xx.h ****  * or to any products. NXP Semiconductors reserves the right to make changes
  19:../../lpc11cx4-library/lpc_chip_11cxx_lib/inc/sysctl_11xx.h ****  * in the software without notification. NXP Semiconductors also makes no
  20:../../lpc11cx4-library/lpc_chip_11cxx_lib/inc/sysctl_11xx.h ****  * representation or warranty that such application will be suitable for the
  21:../../lpc11cx4-library/lpc_chip_11cxx_lib/inc/sysctl_11xx.h ****  * specified use without further testing or modification.
  22:../../lpc11cx4-library/lpc_chip_11cxx_lib/inc/sysctl_11xx.h ****  *
  23:../../lpc11cx4-library/lpc_chip_11cxx_lib/inc/sysctl_11xx.h ****  * @par
  24:../../lpc11cx4-library/lpc_chip_11cxx_lib/inc/sysctl_11xx.h ****  * Permission to use, copy, modify, and distribute this software and its
  25:../../lpc11cx4-library/lpc_chip_11cxx_lib/inc/sysctl_11xx.h ****  * documentation is hereby granted, under NXP Semiconductors' and its
  26:../../lpc11cx4-library/lpc_chip_11cxx_lib/inc/sysctl_11xx.h ****  * licensor's relevant copyrights in the software, without fee, provided that it
  27:../../lpc11cx4-library/lpc_chip_11cxx_lib/inc/sysctl_11xx.h ****  * is used in conjunction with NXP Semiconductors microcontrollers.  This
ARM GAS  /tmp/ccGKa4GA.s 			page 72


  28:../../lpc11cx4-library/lpc_chip_11cxx_lib/inc/sysctl_11xx.h ****  * copyright, permission, and disclaimer notice must appear in all copies of
  29:../../lpc11cx4-library/lpc_chip_11cxx_lib/inc/sysctl_11xx.h ****  * this code.
  30:../../lpc11cx4-library/lpc_chip_11cxx_lib/inc/sysctl_11xx.h ****  */
  31:../../lpc11cx4-library/lpc_chip_11cxx_lib/inc/sysctl_11xx.h **** 
  32:../../lpc11cx4-library/lpc_chip_11cxx_lib/inc/sysctl_11xx.h **** #ifndef __SYSCTL_11XX_H_
  33:../../lpc11cx4-library/lpc_chip_11cxx_lib/inc/sysctl_11xx.h **** #define __SYSCTL_11XX_H_
  34:../../lpc11cx4-library/lpc_chip_11cxx_lib/inc/sysctl_11xx.h **** 
  35:../../lpc11cx4-library/lpc_chip_11cxx_lib/inc/sysctl_11xx.h **** #ifdef __cplusplus
  36:../../lpc11cx4-library/lpc_chip_11cxx_lib/inc/sysctl_11xx.h **** extern "C" {
  37:../../lpc11cx4-library/lpc_chip_11cxx_lib/inc/sysctl_11xx.h **** #endif
  38:../../lpc11cx4-library/lpc_chip_11cxx_lib/inc/sysctl_11xx.h **** 
  39:../../lpc11cx4-library/lpc_chip_11cxx_lib/inc/sysctl_11xx.h **** /** @defgroup SYSCTL_11XX CHIP: LPC11xx System Control block driver
  40:../../lpc11cx4-library/lpc_chip_11cxx_lib/inc/sysctl_11xx.h ****  * @ingroup CHIP_11XX_Drivers
  41:../../lpc11cx4-library/lpc_chip_11cxx_lib/inc/sysctl_11xx.h ****  * @{
  42:../../lpc11cx4-library/lpc_chip_11cxx_lib/inc/sysctl_11xx.h ****  */
  43:../../lpc11cx4-library/lpc_chip_11cxx_lib/inc/sysctl_11xx.h **** 
  44:../../lpc11cx4-library/lpc_chip_11cxx_lib/inc/sysctl_11xx.h **** /**
  45:../../lpc11cx4-library/lpc_chip_11cxx_lib/inc/sysctl_11xx.h ****  * @brief LPC11XX System Control block structure
  46:../../lpc11cx4-library/lpc_chip_11cxx_lib/inc/sysctl_11xx.h ****  */
