ARM GAS  /tmp/ccXw4jW7.s 			page 1


   1              		.cpu cortex-m0
   2              		.eabi_attribute 20, 1	@ Tag_ABI_FP_denormal
   3              		.eabi_attribute 21, 1	@ Tag_ABI_FP_exceptions
   4              		.eabi_attribute 23, 3	@ Tag_ABI_FP_number_model
   5              		.eabi_attribute 24, 1	@ Tag_ABI_align8_needed
   6              		.eabi_attribute 25, 1	@ Tag_ABI_align8_preserved
   7              		.eabi_attribute 26, 1	@ Tag_ABI_enum_size
   8              		.eabi_attribute 30, 2	@ Tag_ABI_optimization_goals
   9              		.eabi_attribute 34, 0	@ Tag_CPU_unaligned_access
  10              		.eabi_attribute 18, 4	@ Tag_ABI_PCS_wchar_t
  11              		.file	"i2c_11xx.c"
  12              	@ GNU C89 (GNU Tools for ARM Embedded Processors) version 6.2.1 20161205 (release) [ARM/embedded-6-
  13              	@	compiled by GNU C version 5.4.0 20160609, GMP version 6.1.0, MPFR version 3.1.4, MPC version 1.0.
  14              	@ GGC heuristics: --param ggc-min-expand=100 --param ggc-min-heapsize=131072
  15              	@ options passed:  -I . -I ../../lpc11cx4-library/lpc_chip_11cxx_lib/inc
  16              	@ -imultilib thumb/v6-m -iprefix /usr/bin/../lib/gcc/arm-none-eabi/6.2.1/
  17              	@ -isysroot /usr/bin/../arm-none-eabi -MD bin/i2c_11xx.d -MF bin/i2c_11xx.d
  18              	@ -MP -MQ bin/i2c_11xx.o -D__USES_INITFINI__ -D CORE_M0
  19              	@ ../../lpc11cx4-library/lpc_chip_11cxx_lib/src/i2c_11xx.c -mcpu=cortex-m0
  20              	@ -mthumb -auxbase-strip bin/i2c_11xx.o -g -ggdb3 -O2 -Wall
  21              	@ -Wstrict-prototypes -Wextra -std=gnu90 -ffunction-sections
  22              	@ -fdata-sections -fverbose-asm
  23              	@ options enabled:  -faggressive-loop-optimizations -falign-jumps
  24              	@ -falign-labels -falign-loops -fauto-inc-dec -fbranch-count-reg
  25              	@ -fcaller-saves -fchkp-check-incomplete-type -fchkp-check-read
  26              	@ -fchkp-check-write -fchkp-instrument-calls -fchkp-narrow-bounds
  27              	@ -fchkp-optimize -fchkp-store-bounds -fchkp-use-static-bounds
  28              	@ -fchkp-use-static-const-bounds -fchkp-use-wrappers
  29              	@ -fcombine-stack-adjustments -fcommon -fcompare-elim -fcprop-registers
  30              	@ -fcrossjumping -fcse-follow-jumps -fdata-sections -fdefer-pop
  31              	@ -fdelete-null-pointer-checks -fdevirtualize -fdevirtualize-speculatively
  32              	@ -fdwarf2-cfi-asm -fearly-inlining -feliminate-unused-debug-types
  33              	@ -fexpensive-optimizations -fforward-propagate -ffunction-cse
  34              	@ -ffunction-sections -fgcse -fgcse-lm -fgnu-runtime -fgnu-unique
  35              	@ -fguess-branch-probability -fhoist-adjacent-loads -fident -fif-conversion
  36              	@ -fif-conversion2 -findirect-inlining -finline -finline-atomics
  37              	@ -finline-functions-called-once -finline-small-functions -fipa-cp
  38              	@ -fipa-cp-alignment -fipa-icf -fipa-icf-functions -fipa-icf-variables
  39              	@ -fipa-profile -fipa-pure-const -fipa-reference -fipa-sra
  40              	@ -fira-hoist-pressure -fira-share-save-slots -fira-share-spill-slots
  41              	@ -fisolate-erroneous-paths-dereference -fivopts -fkeep-static-consts
  42              	@ -fleading-underscore -flifetime-dse -flra-remat -flto-odr-type-merging
  43              	@ -fmath-errno -fmerge-constants -fmerge-debug-strings
  44              	@ -fmove-loop-invariants -fomit-frame-pointer -foptimize-sibling-calls
  45              	@ -foptimize-strlen -fpartial-inlining -fpeephole -fpeephole2 -fplt
  46              	@ -fprefetch-loop-arrays -freg-struct-return -freorder-blocks
  47              	@ -freorder-functions -frerun-cse-after-loop
  48              	@ -fsched-critical-path-heuristic -fsched-dep-count-heuristic
  49              	@ -fsched-group-heuristic -fsched-interblock -fsched-last-insn-heuristic
  50              	@ -fsched-pressure -fsched-rank-heuristic -fsched-spec
  51              	@ -fsched-spec-insn-heuristic -fsched-stalled-insns-dep -fschedule-insns2
  52              	@ -fsection-anchors -fsemantic-interposition -fshow-column -fshrink-wrap
  53              	@ -fsigned-zeros -fsplit-ivs-in-unroller -fsplit-wide-types -fssa-backprop
  54              	@ -fssa-phiopt -fstdarg-opt -fstrict-aliasing -fstrict-overflow
  55              	@ -fstrict-volatile-bitfields -fsync-libcalls -fthread-jumps
  56              	@ -ftoplevel-reorder -ftrapping-math -ftree-bit-ccp -ftree-builtin-call-dce
  57              	@ -ftree-ccp -ftree-ch -ftree-coalesce-vars -ftree-copy-prop -ftree-cselim
ARM GAS  /tmp/ccXw4jW7.s 			page 2


  58              	@ -ftree-dce -ftree-dominator-opts -ftree-dse -ftree-forwprop -ftree-fre
  59              	@ -ftree-loop-if-convert -ftree-loop-im -ftree-loop-ivcanon
  60              	@ -ftree-loop-optimize -ftree-parallelize-loops= -ftree-phiprop -ftree-pre
  61              	@ -ftree-pta -ftree-reassoc -ftree-scev-cprop -ftree-sink -ftree-slsr
  62              	@ -ftree-sra -ftree-switch-conversion -ftree-tail-merge -ftree-ter
  63              	@ -ftree-vrp -funit-at-a-time -fvar-tracking -fvar-tracking-assignments
  64              	@ -fverbose-asm -fzero-initialized-in-bss -mlittle-endian
  65              	@ -mpic-data-is-text-relative -msched-prolog -mthumb
  66              	@ -mvectorize-with-neon-quad
  67              	
  68              		.text
  69              	.Ltext0:
  70              		.cfi_sections	.debug_frame
  71              		.section	.text.Chip_I2C_EventHandler,"ax",%progbits
  72              		.align	1
  73              		.p2align 2,,3
  74              		.global	Chip_I2C_EventHandler
  75              		.syntax unified
  76              		.code	16
  77              		.thumb_func
  78              		.fpu softvfp
  79              		.type	Chip_I2C_EventHandler, %function
  80              	Chip_I2C_EventHandler:
  81              	.LFB212:
  82              		.file 1 "../../lpc11cx4-library/lpc_chip_11cxx_lib/src/i2c_11xx.c"
   1:../../lpc11cx4-library/lpc_chip_11cxx_lib/src/i2c_11xx.c **** /*
   2:../../lpc11cx4-library/lpc_chip_11cxx_lib/src/i2c_11xx.c ****  * @brief LPC11xx I2C driver
   3:../../lpc11cx4-library/lpc_chip_11cxx_lib/src/i2c_11xx.c ****  *
   4:../../lpc11cx4-library/lpc_chip_11cxx_lib/src/i2c_11xx.c ****  * @note
   5:../../lpc11cx4-library/lpc_chip_11cxx_lib/src/i2c_11xx.c ****  * Copyright(C) NXP Semiconductors, 2012
   6:../../lpc11cx4-library/lpc_chip_11cxx_lib/src/i2c_11xx.c ****  * All rights reserved.
   7:../../lpc11cx4-library/lpc_chip_11cxx_lib/src/i2c_11xx.c ****  *
   8:../../lpc11cx4-library/lpc_chip_11cxx_lib/src/i2c_11xx.c ****  * @par
   9:../../lpc11cx4-library/lpc_chip_11cxx_lib/src/i2c_11xx.c ****  * Software that is described herein is for illustrative purposes only
  10:../../lpc11cx4-library/lpc_chip_11cxx_lib/src/i2c_11xx.c ****  * which provides customers with programming information regarding the
  11:../../lpc11cx4-library/lpc_chip_11cxx_lib/src/i2c_11xx.c ****  * LPC products.  This software is supplied "AS IS" without any warranties of
  12:../../lpc11cx4-library/lpc_chip_11cxx_lib/src/i2c_11xx.c ****  * any kind, and NXP Semiconductors and its licensor disclaim any and
  13:../../lpc11cx4-library/lpc_chip_11cxx_lib/src/i2c_11xx.c ****  * all warranties, express or implied, including all implied warranties of
  14:../../lpc11cx4-library/lpc_chip_11cxx_lib/src/i2c_11xx.c ****  * merchantability, fitness for a particular purpose and non-infringement of
  15:../../lpc11cx4-library/lpc_chip_11cxx_lib/src/i2c_11xx.c ****  * intellectual property rights.  NXP Semiconductors assumes no responsibility
  16:../../lpc11cx4-library/lpc_chip_11cxx_lib/src/i2c_11xx.c ****  * or liability for the use of the software, conveys no license or rights under any
  17:../../lpc11cx4-library/lpc_chip_11cxx_lib/src/i2c_11xx.c ****  * patent, copyright, mask work right, or any other intellectual property rights in
  18:../../lpc11cx4-library/lpc_chip_11cxx_lib/src/i2c_11xx.c ****  * or to any products. NXP Semiconductors reserves the right to make changes
  19:../../lpc11cx4-library/lpc_chip_11cxx_lib/src/i2c_11xx.c ****  * in the software without notification. NXP Semiconductors also makes no
  20:../../lpc11cx4-library/lpc_chip_11cxx_lib/src/i2c_11xx.c ****  * representation or warranty that such application will be suitable for the
  21:../../lpc11cx4-library/lpc_chip_11cxx_lib/src/i2c_11xx.c ****  * specified use without further testing or modification.
  22:../../lpc11cx4-library/lpc_chip_11cxx_lib/src/i2c_11xx.c ****  *
  23:../../lpc11cx4-library/lpc_chip_11cxx_lib/src/i2c_11xx.c ****  * @par
  24:../../lpc11cx4-library/lpc_chip_11cxx_lib/src/i2c_11xx.c ****  * Permission to use, copy, modify, and distribute this software and its
  25:../../lpc11cx4-library/lpc_chip_11cxx_lib/src/i2c_11xx.c ****  * documentation is hereby granted, under NXP Semiconductors' and its
  26:../../lpc11cx4-library/lpc_chip_11cxx_lib/src/i2c_11xx.c ****  * licensor's relevant copyrights in the software, without fee, provided that it
  27:../../lpc11cx4-library/lpc_chip_11cxx_lib/src/i2c_11xx.c ****  * is used in conjunction with NXP Semiconductors microcontrollers.  This
  28:../../lpc11cx4-library/lpc_chip_11cxx_lib/src/i2c_11xx.c ****  * copyright, permission, and disclaimer notice must appear in all copies of
  29:../../lpc11cx4-library/lpc_chip_11cxx_lib/src/i2c_11xx.c ****  * this code.
  30:../../lpc11cx4-library/lpc_chip_11cxx_lib/src/i2c_11xx.c ****  */
  31:../../lpc11cx4-library/lpc_chip_11cxx_lib/src/i2c_11xx.c **** 
  32:../../lpc11cx4-library/lpc_chip_11cxx_lib/src/i2c_11xx.c **** #include "chip.h"
ARM GAS  /tmp/ccXw4jW7.s 			page 3


  33:../../lpc11cx4-library/lpc_chip_11cxx_lib/src/i2c_11xx.c **** 
  34:../../lpc11cx4-library/lpc_chip_11cxx_lib/src/i2c_11xx.c **** #if !defined(CHIP_LPC110X)
  35:../../lpc11cx4-library/lpc_chip_11cxx_lib/src/i2c_11xx.c **** 
  36:../../lpc11cx4-library/lpc_chip_11cxx_lib/src/i2c_11xx.c **** /*****************************************************************************
  37:../../lpc11cx4-library/lpc_chip_11cxx_lib/src/i2c_11xx.c ****  * Private types/enumerations/variables
  38:../../lpc11cx4-library/lpc_chip_11cxx_lib/src/i2c_11xx.c ****  ****************************************************************************/
  39:../../lpc11cx4-library/lpc_chip_11cxx_lib/src/i2c_11xx.c **** 
  40:../../lpc11cx4-library/lpc_chip_11cxx_lib/src/i2c_11xx.c **** /* Control flags */
  41:../../lpc11cx4-library/lpc_chip_11cxx_lib/src/i2c_11xx.c **** #define I2C_CON_FLAGS (I2C_CON_AA | I2C_CON_SI | I2C_CON_STO | I2C_CON_STA)
  42:../../lpc11cx4-library/lpc_chip_11cxx_lib/src/i2c_11xx.c **** #define LPC_I2Cx(id)      ((i2c.ip))
  43:../../lpc11cx4-library/lpc_chip_11cxx_lib/src/i2c_11xx.c **** #define SLAVE_ACTIVE(iic) (((iic)->flags & 0xFF00) != 0)
  44:../../lpc11cx4-library/lpc_chip_11cxx_lib/src/i2c_11xx.c **** 
  45:../../lpc11cx4-library/lpc_chip_11cxx_lib/src/i2c_11xx.c **** /* I2C common interface structure */
  46:../../lpc11cx4-library/lpc_chip_11cxx_lib/src/i2c_11xx.c **** struct i2c_interface {
  47:../../lpc11cx4-library/lpc_chip_11cxx_lib/src/i2c_11xx.c **** 	LPC_I2C_T *ip;		/* IP base address of the I2C device */
  48:../../lpc11cx4-library/lpc_chip_11cxx_lib/src/i2c_11xx.c **** 	CHIP_SYSCTL_CLOCK_T clk;	/* Clock used by I2C */
  49:../../lpc11cx4-library/lpc_chip_11cxx_lib/src/i2c_11xx.c **** 	I2C_EVENTHANDLER_T mEvent;	/* Current active Master event handler */
  50:../../lpc11cx4-library/lpc_chip_11cxx_lib/src/i2c_11xx.c **** 	I2C_EVENTHANDLER_T sEvent;	/* Slave transfer events */
  51:../../lpc11cx4-library/lpc_chip_11cxx_lib/src/i2c_11xx.c **** 	I2C_XFER_T *mXfer;	/* Current active xfer pointer */
  52:../../lpc11cx4-library/lpc_chip_11cxx_lib/src/i2c_11xx.c **** 	I2C_XFER_T *sXfer;	/* Pointer to store xfer when bus is busy */
  53:../../lpc11cx4-library/lpc_chip_11cxx_lib/src/i2c_11xx.c **** 	uint32_t flags;		/* Flags used by I2C master and slave */
  54:../../lpc11cx4-library/lpc_chip_11cxx_lib/src/i2c_11xx.c **** };
  55:../../lpc11cx4-library/lpc_chip_11cxx_lib/src/i2c_11xx.c **** 
  56:../../lpc11cx4-library/lpc_chip_11cxx_lib/src/i2c_11xx.c **** /* Slave interface structure */
  57:../../lpc11cx4-library/lpc_chip_11cxx_lib/src/i2c_11xx.c **** struct i2c_slave_interface {
  58:../../lpc11cx4-library/lpc_chip_11cxx_lib/src/i2c_11xx.c **** 	I2C_XFER_T *xfer;
  59:../../lpc11cx4-library/lpc_chip_11cxx_lib/src/i2c_11xx.c **** 	I2C_EVENTHANDLER_T event;
  60:../../lpc11cx4-library/lpc_chip_11cxx_lib/src/i2c_11xx.c **** };
  61:../../lpc11cx4-library/lpc_chip_11cxx_lib/src/i2c_11xx.c **** 
  62:../../lpc11cx4-library/lpc_chip_11cxx_lib/src/i2c_11xx.c **** /* I2C interfaces */
  63:../../lpc11cx4-library/lpc_chip_11cxx_lib/src/i2c_11xx.c **** static struct i2c_interface i2c = 
  64:../../lpc11cx4-library/lpc_chip_11cxx_lib/src/i2c_11xx.c **** 	{LPC_I2C, SYSCTL_CLOCK_I2C, Chip_I2C_EventHandler, NULL, NULL, NULL, 0};
  65:../../lpc11cx4-library/lpc_chip_11cxx_lib/src/i2c_11xx.c **** 
  66:../../lpc11cx4-library/lpc_chip_11cxx_lib/src/i2c_11xx.c **** static struct i2c_slave_interface i2c_slave[I2C_NUM_INTERFACE][I2C_SLAVE_NUM_INTERFACE];
  67:../../lpc11cx4-library/lpc_chip_11cxx_lib/src/i2c_11xx.c **** 
  68:../../lpc11cx4-library/lpc_chip_11cxx_lib/src/i2c_11xx.c **** /*****************************************************************************
  69:../../lpc11cx4-library/lpc_chip_11cxx_lib/src/i2c_11xx.c ****  * Public types/enumerations/variables
  70:../../lpc11cx4-library/lpc_chip_11cxx_lib/src/i2c_11xx.c ****  ****************************************************************************/
  71:../../lpc11cx4-library/lpc_chip_11cxx_lib/src/i2c_11xx.c **** 
  72:../../lpc11cx4-library/lpc_chip_11cxx_lib/src/i2c_11xx.c **** /*****************************************************************************
  73:../../lpc11cx4-library/lpc_chip_11cxx_lib/src/i2c_11xx.c ****  * Private functions
  74:../../lpc11cx4-library/lpc_chip_11cxx_lib/src/i2c_11xx.c ****  ****************************************************************************/
  75:../../lpc11cx4-library/lpc_chip_11cxx_lib/src/i2c_11xx.c ****  
  76:../../lpc11cx4-library/lpc_chip_11cxx_lib/src/i2c_11xx.c **** STATIC INLINE void enableClk(I2C_ID_T id)
  77:../../lpc11cx4-library/lpc_chip_11cxx_lib/src/i2c_11xx.c **** {
  78:../../lpc11cx4-library/lpc_chip_11cxx_lib/src/i2c_11xx.c **** 	UNUSED(id);
  79:../../lpc11cx4-library/lpc_chip_11cxx_lib/src/i2c_11xx.c **** 	Chip_Clock_EnablePeriphClock(i2c.clk);
  80:../../lpc11cx4-library/lpc_chip_11cxx_lib/src/i2c_11xx.c **** }
  81:../../lpc11cx4-library/lpc_chip_11cxx_lib/src/i2c_11xx.c **** 
  82:../../lpc11cx4-library/lpc_chip_11cxx_lib/src/i2c_11xx.c **** STATIC INLINE void disableClk(I2C_ID_T id)
  83:../../lpc11cx4-library/lpc_chip_11cxx_lib/src/i2c_11xx.c **** {
  84:../../lpc11cx4-library/lpc_chip_11cxx_lib/src/i2c_11xx.c **** 	UNUSED(id);
  85:../../lpc11cx4-library/lpc_chip_11cxx_lib/src/i2c_11xx.c **** 	Chip_Clock_DisablePeriphClock(i2c.clk);
  86:../../lpc11cx4-library/lpc_chip_11cxx_lib/src/i2c_11xx.c **** }
  87:../../lpc11cx4-library/lpc_chip_11cxx_lib/src/i2c_11xx.c **** 
  88:../../lpc11cx4-library/lpc_chip_11cxx_lib/src/i2c_11xx.c **** /* Get the ADC Clock Rate */
  89:../../lpc11cx4-library/lpc_chip_11cxx_lib/src/i2c_11xx.c **** STATIC INLINE uint32_t getClkRate(void)
ARM GAS  /tmp/ccXw4jW7.s 			page 4


  90:../../lpc11cx4-library/lpc_chip_11cxx_lib/src/i2c_11xx.c **** {
  91:../../lpc11cx4-library/lpc_chip_11cxx_lib/src/i2c_11xx.c **** 	// return Chip_Clock_GetMainClockRate();
  92:../../lpc11cx4-library/lpc_chip_11cxx_lib/src/i2c_11xx.c **** 	return SystemCoreClock;
  93:../../lpc11cx4-library/lpc_chip_11cxx_lib/src/i2c_11xx.c **** }
  94:../../lpc11cx4-library/lpc_chip_11cxx_lib/src/i2c_11xx.c **** 
  95:../../lpc11cx4-library/lpc_chip_11cxx_lib/src/i2c_11xx.c **** /* Enable I2C and start master transfer */
  96:../../lpc11cx4-library/lpc_chip_11cxx_lib/src/i2c_11xx.c **** STATIC INLINE void startMasterXfer(LPC_I2C_T *pI2C)
  97:../../lpc11cx4-library/lpc_chip_11cxx_lib/src/i2c_11xx.c **** {
  98:../../lpc11cx4-library/lpc_chip_11cxx_lib/src/i2c_11xx.c **** 	/* Reset STA, STO, SI */
  99:../../lpc11cx4-library/lpc_chip_11cxx_lib/src/i2c_11xx.c **** 	pI2C->CONCLR = I2C_CON_SI | I2C_CON_STO | I2C_CON_STA | I2C_CON_AA;
 100:../../lpc11cx4-library/lpc_chip_11cxx_lib/src/i2c_11xx.c **** 
 101:../../lpc11cx4-library/lpc_chip_11cxx_lib/src/i2c_11xx.c **** 	/* Enter to Master Transmitter mode */
 102:../../lpc11cx4-library/lpc_chip_11cxx_lib/src/i2c_11xx.c **** 	pI2C->CONSET = I2C_CON_I2EN | I2C_CON_STA;
 103:../../lpc11cx4-library/lpc_chip_11cxx_lib/src/i2c_11xx.c **** }
 104:../../lpc11cx4-library/lpc_chip_11cxx_lib/src/i2c_11xx.c **** 
 105:../../lpc11cx4-library/lpc_chip_11cxx_lib/src/i2c_11xx.c **** /* Enable I2C and enable slave transfers */
 106:../../lpc11cx4-library/lpc_chip_11cxx_lib/src/i2c_11xx.c **** STATIC INLINE void startSlaverXfer(LPC_I2C_T *pI2C)
 107:../../lpc11cx4-library/lpc_chip_11cxx_lib/src/i2c_11xx.c **** {
 108:../../lpc11cx4-library/lpc_chip_11cxx_lib/src/i2c_11xx.c **** 	/* Reset STA, STO, SI */
 109:../../lpc11cx4-library/lpc_chip_11cxx_lib/src/i2c_11xx.c **** 	pI2C->CONCLR = I2C_CON_SI | I2C_CON_STO | I2C_CON_STA;
 110:../../lpc11cx4-library/lpc_chip_11cxx_lib/src/i2c_11xx.c **** 
 111:../../lpc11cx4-library/lpc_chip_11cxx_lib/src/i2c_11xx.c **** 	/* Enter to Master Transmitter mode */
 112:../../lpc11cx4-library/lpc_chip_11cxx_lib/src/i2c_11xx.c **** 	pI2C->CONSET = I2C_CON_I2EN | I2C_CON_AA;
 113:../../lpc11cx4-library/lpc_chip_11cxx_lib/src/i2c_11xx.c **** }
 114:../../lpc11cx4-library/lpc_chip_11cxx_lib/src/i2c_11xx.c **** 
 115:../../lpc11cx4-library/lpc_chip_11cxx_lib/src/i2c_11xx.c **** /* Check if I2C bus is free */
 116:../../lpc11cx4-library/lpc_chip_11cxx_lib/src/i2c_11xx.c **** STATIC INLINE int isI2CBusFree(LPC_I2C_T *pI2C)
 117:../../lpc11cx4-library/lpc_chip_11cxx_lib/src/i2c_11xx.c **** {
 118:../../lpc11cx4-library/lpc_chip_11cxx_lib/src/i2c_11xx.c **** 	return !(pI2C->CONSET & I2C_CON_STO);
 119:../../lpc11cx4-library/lpc_chip_11cxx_lib/src/i2c_11xx.c **** }
 120:../../lpc11cx4-library/lpc_chip_11cxx_lib/src/i2c_11xx.c **** 
 121:../../lpc11cx4-library/lpc_chip_11cxx_lib/src/i2c_11xx.c **** /* Get current state of the I2C peripheral */
 122:../../lpc11cx4-library/lpc_chip_11cxx_lib/src/i2c_11xx.c **** STATIC INLINE int getCurState(LPC_I2C_T *pI2C)
 123:../../lpc11cx4-library/lpc_chip_11cxx_lib/src/i2c_11xx.c **** {
 124:../../lpc11cx4-library/lpc_chip_11cxx_lib/src/i2c_11xx.c **** 	return (int) (pI2C->STAT & I2C_STAT_CODE_BITMASK);
 125:../../lpc11cx4-library/lpc_chip_11cxx_lib/src/i2c_11xx.c **** }
 126:../../lpc11cx4-library/lpc_chip_11cxx_lib/src/i2c_11xx.c **** 
 127:../../lpc11cx4-library/lpc_chip_11cxx_lib/src/i2c_11xx.c **** /* Check if the active state belongs to master mode*/
 128:../../lpc11cx4-library/lpc_chip_11cxx_lib/src/i2c_11xx.c **** STATIC INLINE int isMasterState(LPC_I2C_T *pI2C)
 129:../../lpc11cx4-library/lpc_chip_11cxx_lib/src/i2c_11xx.c **** {
 130:../../lpc11cx4-library/lpc_chip_11cxx_lib/src/i2c_11xx.c **** 	return getCurState(pI2C) < 0x60;
 131:../../lpc11cx4-library/lpc_chip_11cxx_lib/src/i2c_11xx.c **** }
 132:../../lpc11cx4-library/lpc_chip_11cxx_lib/src/i2c_11xx.c **** 
 133:../../lpc11cx4-library/lpc_chip_11cxx_lib/src/i2c_11xx.c **** /* Set OWN slave address for specific slave ID */
 134:../../lpc11cx4-library/lpc_chip_11cxx_lib/src/i2c_11xx.c **** STATIC void setSlaveAddr(LPC_I2C_T *pI2C, I2C_SLAVE_ID sid, uint8_t addr, uint8_t mask)
 135:../../lpc11cx4-library/lpc_chip_11cxx_lib/src/i2c_11xx.c **** {
 136:../../lpc11cx4-library/lpc_chip_11cxx_lib/src/i2c_11xx.c **** 	uint32_t index = (uint32_t) sid - 1;
 137:../../lpc11cx4-library/lpc_chip_11cxx_lib/src/i2c_11xx.c **** 	pI2C->MASK[index] = mask;
 138:../../lpc11cx4-library/lpc_chip_11cxx_lib/src/i2c_11xx.c **** 	if (sid == I2C_SLAVE_0) {
 139:../../lpc11cx4-library/lpc_chip_11cxx_lib/src/i2c_11xx.c **** 		pI2C->ADR0 = addr;
 140:../../lpc11cx4-library/lpc_chip_11cxx_lib/src/i2c_11xx.c **** 	}
 141:../../lpc11cx4-library/lpc_chip_11cxx_lib/src/i2c_11xx.c **** 	else {
 142:../../lpc11cx4-library/lpc_chip_11cxx_lib/src/i2c_11xx.c **** 		volatile uint32_t *abase = &pI2C->ADR1;
 143:../../lpc11cx4-library/lpc_chip_11cxx_lib/src/i2c_11xx.c **** 		abase[index - 1] = addr;
 144:../../lpc11cx4-library/lpc_chip_11cxx_lib/src/i2c_11xx.c **** 	}
 145:../../lpc11cx4-library/lpc_chip_11cxx_lib/src/i2c_11xx.c **** }
 146:../../lpc11cx4-library/lpc_chip_11cxx_lib/src/i2c_11xx.c **** 
ARM GAS  /tmp/ccXw4jW7.s 			page 5


 147:../../lpc11cx4-library/lpc_chip_11cxx_lib/src/i2c_11xx.c **** /* Match the slave address */
 148:../../lpc11cx4-library/lpc_chip_11cxx_lib/src/i2c_11xx.c **** STATIC int isSlaveAddrMatching(uint8_t addr1, uint8_t addr2, uint8_t mask)
 149:../../lpc11cx4-library/lpc_chip_11cxx_lib/src/i2c_11xx.c **** {
 150:../../lpc11cx4-library/lpc_chip_11cxx_lib/src/i2c_11xx.c **** 	mask |= 1;
 151:../../lpc11cx4-library/lpc_chip_11cxx_lib/src/i2c_11xx.c **** 	return (addr1 & ~mask) == (addr2 & ~mask);
 152:../../lpc11cx4-library/lpc_chip_11cxx_lib/src/i2c_11xx.c **** }
 153:../../lpc11cx4-library/lpc_chip_11cxx_lib/src/i2c_11xx.c **** 
 154:../../lpc11cx4-library/lpc_chip_11cxx_lib/src/i2c_11xx.c **** /* Get the index of the active slave */
 155:../../lpc11cx4-library/lpc_chip_11cxx_lib/src/i2c_11xx.c **** STATIC I2C_SLAVE_ID lookupSlaveIndex(LPC_I2C_T *pI2C, uint8_t slaveAddr)
 156:../../lpc11cx4-library/lpc_chip_11cxx_lib/src/i2c_11xx.c **** {
 157:../../lpc11cx4-library/lpc_chip_11cxx_lib/src/i2c_11xx.c **** 	if (!(slaveAddr >> 1)) {
 158:../../lpc11cx4-library/lpc_chip_11cxx_lib/src/i2c_11xx.c **** 		return I2C_SLAVE_GENERAL;					/* General call address */
 159:../../lpc11cx4-library/lpc_chip_11cxx_lib/src/i2c_11xx.c **** 	}
 160:../../lpc11cx4-library/lpc_chip_11cxx_lib/src/i2c_11xx.c **** 	if (isSlaveAddrMatching(pI2C->ADR0, slaveAddr, pI2C->MASK[0])) {
 161:../../lpc11cx4-library/lpc_chip_11cxx_lib/src/i2c_11xx.c **** 		return I2C_SLAVE_0;
 162:../../lpc11cx4-library/lpc_chip_11cxx_lib/src/i2c_11xx.c **** 	}
 163:../../lpc11cx4-library/lpc_chip_11cxx_lib/src/i2c_11xx.c **** 	if (isSlaveAddrMatching(pI2C->ADR1, slaveAddr, pI2C->MASK[1])) {
 164:../../lpc11cx4-library/lpc_chip_11cxx_lib/src/i2c_11xx.c **** 		return I2C_SLAVE_1;
 165:../../lpc11cx4-library/lpc_chip_11cxx_lib/src/i2c_11xx.c **** 	}
 166:../../lpc11cx4-library/lpc_chip_11cxx_lib/src/i2c_11xx.c **** 	if (isSlaveAddrMatching(pI2C->ADR2, slaveAddr, pI2C->MASK[2])) {
 167:../../lpc11cx4-library/lpc_chip_11cxx_lib/src/i2c_11xx.c **** 		return I2C_SLAVE_2;
 168:../../lpc11cx4-library/lpc_chip_11cxx_lib/src/i2c_11xx.c **** 	}
 169:../../lpc11cx4-library/lpc_chip_11cxx_lib/src/i2c_11xx.c **** 	if (isSlaveAddrMatching(pI2C->ADR3, slaveAddr, pI2C->MASK[3])) {
 170:../../lpc11cx4-library/lpc_chip_11cxx_lib/src/i2c_11xx.c **** 		return I2C_SLAVE_3;
 171:../../lpc11cx4-library/lpc_chip_11cxx_lib/src/i2c_11xx.c **** 	}
 172:../../lpc11cx4-library/lpc_chip_11cxx_lib/src/i2c_11xx.c **** 
 173:../../lpc11cx4-library/lpc_chip_11cxx_lib/src/i2c_11xx.c **** 	/* If everything is fine the code should never come here */
 174:../../lpc11cx4-library/lpc_chip_11cxx_lib/src/i2c_11xx.c **** 	return I2C_SLAVE_GENERAL;
 175:../../lpc11cx4-library/lpc_chip_11cxx_lib/src/i2c_11xx.c **** }
 176:../../lpc11cx4-library/lpc_chip_11cxx_lib/src/i2c_11xx.c **** 
 177:../../lpc11cx4-library/lpc_chip_11cxx_lib/src/i2c_11xx.c **** /* Master transfer state change handler handler */
 178:../../lpc11cx4-library/lpc_chip_11cxx_lib/src/i2c_11xx.c **** int handleMasterXferState(LPC_I2C_T *pI2C, I2C_XFER_T  *xfer)
 179:../../lpc11cx4-library/lpc_chip_11cxx_lib/src/i2c_11xx.c **** {
 180:../../lpc11cx4-library/lpc_chip_11cxx_lib/src/i2c_11xx.c **** 	uint32_t cclr = I2C_CON_FLAGS;
 181:../../lpc11cx4-library/lpc_chip_11cxx_lib/src/i2c_11xx.c **** 	switch (getCurState(pI2C)) {
 182:../../lpc11cx4-library/lpc_chip_11cxx_lib/src/i2c_11xx.c **** 	case 0x08:		/* Start condition on bus */
 183:../../lpc11cx4-library/lpc_chip_11cxx_lib/src/i2c_11xx.c **** 	case 0x10:		/* Repeated start condition */
 184:../../lpc11cx4-library/lpc_chip_11cxx_lib/src/i2c_11xx.c **** 		pI2C->DAT = (xfer->slaveAddr << 1) | (xfer->txSz == 0);
 185:../../lpc11cx4-library/lpc_chip_11cxx_lib/src/i2c_11xx.c **** 		break;
 186:../../lpc11cx4-library/lpc_chip_11cxx_lib/src/i2c_11xx.c **** 
 187:../../lpc11cx4-library/lpc_chip_11cxx_lib/src/i2c_11xx.c **** 	/* Tx handling */
 188:../../lpc11cx4-library/lpc_chip_11cxx_lib/src/i2c_11xx.c **** 	case 0x18:		/* SLA+W sent and ACK received */
 189:../../lpc11cx4-library/lpc_chip_11cxx_lib/src/i2c_11xx.c **** 	case 0x28:		/* DATA sent and ACK received */
 190:../../lpc11cx4-library/lpc_chip_11cxx_lib/src/i2c_11xx.c **** 		if (!xfer->txSz) {
 191:../../lpc11cx4-library/lpc_chip_11cxx_lib/src/i2c_11xx.c **** 			cclr &= ~(xfer->rxSz ? I2C_CON_STA : I2C_CON_STO);
 192:../../lpc11cx4-library/lpc_chip_11cxx_lib/src/i2c_11xx.c **** 		}
 193:../../lpc11cx4-library/lpc_chip_11cxx_lib/src/i2c_11xx.c **** 		else {
 194:../../lpc11cx4-library/lpc_chip_11cxx_lib/src/i2c_11xx.c **** 			pI2C->DAT = *xfer->txBuff++;
 195:../../lpc11cx4-library/lpc_chip_11cxx_lib/src/i2c_11xx.c **** 			xfer->txSz--;
 196:../../lpc11cx4-library/lpc_chip_11cxx_lib/src/i2c_11xx.c **** 		}
 197:../../lpc11cx4-library/lpc_chip_11cxx_lib/src/i2c_11xx.c **** 		break;
 198:../../lpc11cx4-library/lpc_chip_11cxx_lib/src/i2c_11xx.c **** 
 199:../../lpc11cx4-library/lpc_chip_11cxx_lib/src/i2c_11xx.c **** 	/* Rx handling */
 200:../../lpc11cx4-library/lpc_chip_11cxx_lib/src/i2c_11xx.c **** 	case 0x58:		/* Data Received and NACK sent */
 201:../../lpc11cx4-library/lpc_chip_11cxx_lib/src/i2c_11xx.c **** 		cclr &= ~I2C_CON_STO;
 202:../../lpc11cx4-library/lpc_chip_11cxx_lib/src/i2c_11xx.c **** 
 203:../../lpc11cx4-library/lpc_chip_11cxx_lib/src/i2c_11xx.c **** 	case 0x50:		/* Data Received and ACK sent */
ARM GAS  /tmp/ccXw4jW7.s 			page 6


 204:../../lpc11cx4-library/lpc_chip_11cxx_lib/src/i2c_11xx.c **** 		*xfer->rxBuff++ = pI2C->DAT;
 205:../../lpc11cx4-library/lpc_chip_11cxx_lib/src/i2c_11xx.c **** 		xfer->rxSz--;
 206:../../lpc11cx4-library/lpc_chip_11cxx_lib/src/i2c_11xx.c **** 
 207:../../lpc11cx4-library/lpc_chip_11cxx_lib/src/i2c_11xx.c **** 	case 0x40:		/* SLA+R sent and ACK received */
 208:../../lpc11cx4-library/lpc_chip_11cxx_lib/src/i2c_11xx.c **** 		if (xfer->rxSz > 1) {
 209:../../lpc11cx4-library/lpc_chip_11cxx_lib/src/i2c_11xx.c **** 			cclr &= ~I2C_CON_AA;
 210:../../lpc11cx4-library/lpc_chip_11cxx_lib/src/i2c_11xx.c **** 		}
 211:../../lpc11cx4-library/lpc_chip_11cxx_lib/src/i2c_11xx.c **** 		break;
 212:../../lpc11cx4-library/lpc_chip_11cxx_lib/src/i2c_11xx.c **** 
 213:../../lpc11cx4-library/lpc_chip_11cxx_lib/src/i2c_11xx.c **** 	/* NAK Handling */
 214:../../lpc11cx4-library/lpc_chip_11cxx_lib/src/i2c_11xx.c **** 	case 0x20:		/* SLA+W sent NAK received */
 215:../../lpc11cx4-library/lpc_chip_11cxx_lib/src/i2c_11xx.c **** 	case 0x30:		/* DATA sent NAK received */
 216:../../lpc11cx4-library/lpc_chip_11cxx_lib/src/i2c_11xx.c **** 	case 0x48:		/* SLA+R sent NAK received */
 217:../../lpc11cx4-library/lpc_chip_11cxx_lib/src/i2c_11xx.c **** 		xfer->status = I2C_STATUS_NAK;
 218:../../lpc11cx4-library/lpc_chip_11cxx_lib/src/i2c_11xx.c **** 		cclr &= ~I2C_CON_STO;
 219:../../lpc11cx4-library/lpc_chip_11cxx_lib/src/i2c_11xx.c **** 		break;
 220:../../lpc11cx4-library/lpc_chip_11cxx_lib/src/i2c_11xx.c **** 
 221:../../lpc11cx4-library/lpc_chip_11cxx_lib/src/i2c_11xx.c **** 	case 0x38:		/* Arbitration lost */
 222:../../lpc11cx4-library/lpc_chip_11cxx_lib/src/i2c_11xx.c **** 		xfer->status = I2C_STATUS_ARBLOST;
 223:../../lpc11cx4-library/lpc_chip_11cxx_lib/src/i2c_11xx.c **** 		break;
 224:../../lpc11cx4-library/lpc_chip_11cxx_lib/src/i2c_11xx.c **** 
 225:../../lpc11cx4-library/lpc_chip_11cxx_lib/src/i2c_11xx.c **** 	/* Bus Error */
 226:../../lpc11cx4-library/lpc_chip_11cxx_lib/src/i2c_11xx.c **** 	case 0x00:
 227:../../lpc11cx4-library/lpc_chip_11cxx_lib/src/i2c_11xx.c **** 		xfer->status = I2C_STATUS_BUSERR;
 228:../../lpc11cx4-library/lpc_chip_11cxx_lib/src/i2c_11xx.c **** 		cclr &= ~I2C_CON_STO;
 229:../../lpc11cx4-library/lpc_chip_11cxx_lib/src/i2c_11xx.c **** 	}
 230:../../lpc11cx4-library/lpc_chip_11cxx_lib/src/i2c_11xx.c **** 
 231:../../lpc11cx4-library/lpc_chip_11cxx_lib/src/i2c_11xx.c **** 
 232:../../lpc11cx4-library/lpc_chip_11cxx_lib/src/i2c_11xx.c **** 	/* Set clear control flags */
 233:../../lpc11cx4-library/lpc_chip_11cxx_lib/src/i2c_11xx.c **** 	pI2C->CONSET = cclr ^ I2C_CON_FLAGS;
 234:../../lpc11cx4-library/lpc_chip_11cxx_lib/src/i2c_11xx.c **** 	pI2C->CONCLR = cclr;
 235:../../lpc11cx4-library/lpc_chip_11cxx_lib/src/i2c_11xx.c **** 
 236:../../lpc11cx4-library/lpc_chip_11cxx_lib/src/i2c_11xx.c **** 	/* If stopped return 0 */
 237:../../lpc11cx4-library/lpc_chip_11cxx_lib/src/i2c_11xx.c **** 	if (!(cclr & I2C_CON_STO) || (xfer->status == I2C_STATUS_ARBLOST)) {
 238:../../lpc11cx4-library/lpc_chip_11cxx_lib/src/i2c_11xx.c **** 		if (xfer->status == I2C_STATUS_BUSY) {
 239:../../lpc11cx4-library/lpc_chip_11cxx_lib/src/i2c_11xx.c **** 			xfer->status = I2C_STATUS_DONE;
 240:../../lpc11cx4-library/lpc_chip_11cxx_lib/src/i2c_11xx.c **** 		}
 241:../../lpc11cx4-library/lpc_chip_11cxx_lib/src/i2c_11xx.c **** 		return 0;
 242:../../lpc11cx4-library/lpc_chip_11cxx_lib/src/i2c_11xx.c **** 	}
 243:../../lpc11cx4-library/lpc_chip_11cxx_lib/src/i2c_11xx.c **** 	return 1;
 244:../../lpc11cx4-library/lpc_chip_11cxx_lib/src/i2c_11xx.c **** }
 245:../../lpc11cx4-library/lpc_chip_11cxx_lib/src/i2c_11xx.c **** 
 246:../../lpc11cx4-library/lpc_chip_11cxx_lib/src/i2c_11xx.c **** /* Find the slave address of SLA+W or SLA+R */
 247:../../lpc11cx4-library/lpc_chip_11cxx_lib/src/i2c_11xx.c **** I2C_SLAVE_ID getSlaveIndex(LPC_I2C_T *pI2C)
 248:../../lpc11cx4-library/lpc_chip_11cxx_lib/src/i2c_11xx.c **** {
 249:../../lpc11cx4-library/lpc_chip_11cxx_lib/src/i2c_11xx.c **** 	switch (getCurState(pI2C)) {
 250:../../lpc11cx4-library/lpc_chip_11cxx_lib/src/i2c_11xx.c **** 	case 0x60:
 251:../../lpc11cx4-library/lpc_chip_11cxx_lib/src/i2c_11xx.c **** 	case 0x68:
 252:../../lpc11cx4-library/lpc_chip_11cxx_lib/src/i2c_11xx.c **** 	case 0x70:
 253:../../lpc11cx4-library/lpc_chip_11cxx_lib/src/i2c_11xx.c **** 	case 0x78:
 254:../../lpc11cx4-library/lpc_chip_11cxx_lib/src/i2c_11xx.c **** 	case 0xA8:
 255:../../lpc11cx4-library/lpc_chip_11cxx_lib/src/i2c_11xx.c **** 	case 0xB0:
 256:../../lpc11cx4-library/lpc_chip_11cxx_lib/src/i2c_11xx.c **** 		return lookupSlaveIndex(pI2C, pI2C->DAT);
 257:../../lpc11cx4-library/lpc_chip_11cxx_lib/src/i2c_11xx.c **** 	}
 258:../../lpc11cx4-library/lpc_chip_11cxx_lib/src/i2c_11xx.c **** 
 259:../../lpc11cx4-library/lpc_chip_11cxx_lib/src/i2c_11xx.c **** 	/* If everything is fine code should never come here */
 260:../../lpc11cx4-library/lpc_chip_11cxx_lib/src/i2c_11xx.c **** 	return I2C_SLAVE_GENERAL;
ARM GAS  /tmp/ccXw4jW7.s 			page 7


 261:../../lpc11cx4-library/lpc_chip_11cxx_lib/src/i2c_11xx.c **** }
 262:../../lpc11cx4-library/lpc_chip_11cxx_lib/src/i2c_11xx.c **** 
 263:../../lpc11cx4-library/lpc_chip_11cxx_lib/src/i2c_11xx.c **** /* Slave state machine handler */
 264:../../lpc11cx4-library/lpc_chip_11cxx_lib/src/i2c_11xx.c **** int handleSlaveXferState(LPC_I2C_T *pI2C, I2C_XFER_T *xfer)
 265:../../lpc11cx4-library/lpc_chip_11cxx_lib/src/i2c_11xx.c **** {
 266:../../lpc11cx4-library/lpc_chip_11cxx_lib/src/i2c_11xx.c **** 	uint32_t cclr = I2C_CON_FLAGS;
 267:../../lpc11cx4-library/lpc_chip_11cxx_lib/src/i2c_11xx.c **** 	int ret = RET_SLAVE_BUSY;
 268:../../lpc11cx4-library/lpc_chip_11cxx_lib/src/i2c_11xx.c **** 
 269:../../lpc11cx4-library/lpc_chip_11cxx_lib/src/i2c_11xx.c **** 	xfer->status = I2C_STATUS_BUSY;
 270:../../lpc11cx4-library/lpc_chip_11cxx_lib/src/i2c_11xx.c **** 	switch (getCurState(pI2C)) {
 271:../../lpc11cx4-library/lpc_chip_11cxx_lib/src/i2c_11xx.c **** 	case 0x80:		/* SLA: Data received + ACK sent */
 272:../../lpc11cx4-library/lpc_chip_11cxx_lib/src/i2c_11xx.c **** 	case 0x90:		/* GC: Data received + ACK sent */
 273:../../lpc11cx4-library/lpc_chip_11cxx_lib/src/i2c_11xx.c **** 		*xfer->rxBuff++ = pI2C->DAT;
 274:../../lpc11cx4-library/lpc_chip_11cxx_lib/src/i2c_11xx.c **** 		xfer->rxSz--;
 275:../../lpc11cx4-library/lpc_chip_11cxx_lib/src/i2c_11xx.c **** 		ret = RET_SLAVE_RX;
 276:../../lpc11cx4-library/lpc_chip_11cxx_lib/src/i2c_11xx.c **** 		if (xfer->rxSz > 1) {
 277:../../lpc11cx4-library/lpc_chip_11cxx_lib/src/i2c_11xx.c **** 			cclr &= ~I2C_CON_AA;
 278:../../lpc11cx4-library/lpc_chip_11cxx_lib/src/i2c_11xx.c **** 		}
 279:../../lpc11cx4-library/lpc_chip_11cxx_lib/src/i2c_11xx.c **** 		break;
 280:../../lpc11cx4-library/lpc_chip_11cxx_lib/src/i2c_11xx.c **** 
 281:../../lpc11cx4-library/lpc_chip_11cxx_lib/src/i2c_11xx.c **** 	case 0x60:		/* Own SLA+W received */
 282:../../lpc11cx4-library/lpc_chip_11cxx_lib/src/i2c_11xx.c **** 	case 0x68:		/* Own SLA+W received after losing arbitration */
 283:../../lpc11cx4-library/lpc_chip_11cxx_lib/src/i2c_11xx.c **** 	case 0x70:		/* GC+W received */
 284:../../lpc11cx4-library/lpc_chip_11cxx_lib/src/i2c_11xx.c **** 	case 0x78:		/* GC+W received after losing arbitration */
 285:../../lpc11cx4-library/lpc_chip_11cxx_lib/src/i2c_11xx.c **** 		xfer->slaveAddr = pI2C->DAT & ~1;
 286:../../lpc11cx4-library/lpc_chip_11cxx_lib/src/i2c_11xx.c **** 		if (xfer->rxSz > 1) {
 287:../../lpc11cx4-library/lpc_chip_11cxx_lib/src/i2c_11xx.c **** 			cclr &= ~I2C_CON_AA;
 288:../../lpc11cx4-library/lpc_chip_11cxx_lib/src/i2c_11xx.c **** 		}
 289:../../lpc11cx4-library/lpc_chip_11cxx_lib/src/i2c_11xx.c **** 		break;
 290:../../lpc11cx4-library/lpc_chip_11cxx_lib/src/i2c_11xx.c **** 
 291:../../lpc11cx4-library/lpc_chip_11cxx_lib/src/i2c_11xx.c **** 	case 0xA8:		/* SLA+R received */
 292:../../lpc11cx4-library/lpc_chip_11cxx_lib/src/i2c_11xx.c **** 	case 0xB0:		/* SLA+R received after losing arbitration */
 293:../../lpc11cx4-library/lpc_chip_11cxx_lib/src/i2c_11xx.c **** 		xfer->slaveAddr = pI2C->DAT & ~1;
 294:../../lpc11cx4-library/lpc_chip_11cxx_lib/src/i2c_11xx.c **** 
 295:../../lpc11cx4-library/lpc_chip_11cxx_lib/src/i2c_11xx.c **** 	case 0xB8:		/* DATA sent and ACK received */
 296:../../lpc11cx4-library/lpc_chip_11cxx_lib/src/i2c_11xx.c **** 		pI2C->DAT = *xfer->txBuff++;
 297:../../lpc11cx4-library/lpc_chip_11cxx_lib/src/i2c_11xx.c **** 		xfer->txSz--;
 298:../../lpc11cx4-library/lpc_chip_11cxx_lib/src/i2c_11xx.c **** 		if (xfer->txSz > 0) {
 299:../../lpc11cx4-library/lpc_chip_11cxx_lib/src/i2c_11xx.c **** 			cclr &= ~I2C_CON_AA;
 300:../../lpc11cx4-library/lpc_chip_11cxx_lib/src/i2c_11xx.c **** 		}
 301:../../lpc11cx4-library/lpc_chip_11cxx_lib/src/i2c_11xx.c **** 		ret = RET_SLAVE_TX;
 302:../../lpc11cx4-library/lpc_chip_11cxx_lib/src/i2c_11xx.c **** 		break;
 303:../../lpc11cx4-library/lpc_chip_11cxx_lib/src/i2c_11xx.c **** 
 304:../../lpc11cx4-library/lpc_chip_11cxx_lib/src/i2c_11xx.c **** 	case 0xC0:		/* Data transmitted and NAK received */
 305:../../lpc11cx4-library/lpc_chip_11cxx_lib/src/i2c_11xx.c **** 	case 0xC8:		/* Last data transmitted and ACK received */
 306:../../lpc11cx4-library/lpc_chip_11cxx_lib/src/i2c_11xx.c **** 	case 0x88:		/* SLA: Data received + NAK sent */
 307:../../lpc11cx4-library/lpc_chip_11cxx_lib/src/i2c_11xx.c **** 	case 0x98:		/* GC: Data received + NAK sent */
 308:../../lpc11cx4-library/lpc_chip_11cxx_lib/src/i2c_11xx.c **** 	case 0xA0:		/* STOP/Repeated START condition received */
 309:../../lpc11cx4-library/lpc_chip_11cxx_lib/src/i2c_11xx.c **** 		ret = RET_SLAVE_IDLE;
 310:../../lpc11cx4-library/lpc_chip_11cxx_lib/src/i2c_11xx.c **** 		cclr &= ~I2C_CON_AA;
 311:../../lpc11cx4-library/lpc_chip_11cxx_lib/src/i2c_11xx.c **** 		xfer->status = I2C_STATUS_DONE;
 312:../../lpc11cx4-library/lpc_chip_11cxx_lib/src/i2c_11xx.c **** 		if (xfer->slaveAddr & 1) {
 313:../../lpc11cx4-library/lpc_chip_11cxx_lib/src/i2c_11xx.c **** 			cclr &= ~I2C_CON_STA;
 314:../../lpc11cx4-library/lpc_chip_11cxx_lib/src/i2c_11xx.c **** 		}
 315:../../lpc11cx4-library/lpc_chip_11cxx_lib/src/i2c_11xx.c **** 		break;
 316:../../lpc11cx4-library/lpc_chip_11cxx_lib/src/i2c_11xx.c **** 	}
 317:../../lpc11cx4-library/lpc_chip_11cxx_lib/src/i2c_11xx.c **** 
ARM GAS  /tmp/ccXw4jW7.s 			page 8


 318:../../lpc11cx4-library/lpc_chip_11cxx_lib/src/i2c_11xx.c **** 	/* Set clear control flags */
 319:../../lpc11cx4-library/lpc_chip_11cxx_lib/src/i2c_11xx.c **** 	pI2C->CONSET = cclr ^ I2C_CON_FLAGS;
 320:../../lpc11cx4-library/lpc_chip_11cxx_lib/src/i2c_11xx.c **** 	pI2C->CONCLR = cclr;
 321:../../lpc11cx4-library/lpc_chip_11cxx_lib/src/i2c_11xx.c **** 
 322:../../lpc11cx4-library/lpc_chip_11cxx_lib/src/i2c_11xx.c **** 	return ret;
 323:../../lpc11cx4-library/lpc_chip_11cxx_lib/src/i2c_11xx.c **** }
 324:../../lpc11cx4-library/lpc_chip_11cxx_lib/src/i2c_11xx.c **** 
 325:../../lpc11cx4-library/lpc_chip_11cxx_lib/src/i2c_11xx.c **** /*****************************************************************************
 326:../../lpc11cx4-library/lpc_chip_11cxx_lib/src/i2c_11xx.c ****  * Public functions
 327:../../lpc11cx4-library/lpc_chip_11cxx_lib/src/i2c_11xx.c ****  ****************************************************************************/
 328:../../lpc11cx4-library/lpc_chip_11cxx_lib/src/i2c_11xx.c **** 
 329:../../lpc11cx4-library/lpc_chip_11cxx_lib/src/i2c_11xx.c **** /* Chip event handler interrupt based */
 330:../../lpc11cx4-library/lpc_chip_11cxx_lib/src/i2c_11xx.c **** void Chip_I2C_EventHandler(I2C_ID_T id, I2C_EVENT_T event)
 331:../../lpc11cx4-library/lpc_chip_11cxx_lib/src/i2c_11xx.c **** {
  83              		.loc 1 331 0
  84              		.cfi_startproc
  85              		@ args = 0, pretend = 0, frame = 0
  86              		@ frame_needed = 0, uses_anonymous_args = 0
  87              		@ link register save eliminated.
  88              	.LVL0:
 332:../../lpc11cx4-library/lpc_chip_11cxx_lib/src/i2c_11xx.c **** 	UNUSED(id);
 333:../../lpc11cx4-library/lpc_chip_11cxx_lib/src/i2c_11xx.c **** 	struct i2c_interface *iic = &i2c;
 334:../../lpc11cx4-library/lpc_chip_11cxx_lib/src/i2c_11xx.c **** 	volatile I2C_STATUS_T *stat;
 335:../../lpc11cx4-library/lpc_chip_11cxx_lib/src/i2c_11xx.c **** 
 336:../../lpc11cx4-library/lpc_chip_11cxx_lib/src/i2c_11xx.c **** 	/* Only WAIT event needs to be handled */
 337:../../lpc11cx4-library/lpc_chip_11cxx_lib/src/i2c_11xx.c **** 	if (event != I2C_EVENT_WAIT) {
  89              		.loc 1 337 0
  90 0000 0129     		cmp	r1, #1	@ event,
  91 0002 00D0     		beq	.L7	@,
  92              	.L1:
 338:../../lpc11cx4-library/lpc_chip_11cxx_lib/src/i2c_11xx.c **** 		return;
 339:../../lpc11cx4-library/lpc_chip_11cxx_lib/src/i2c_11xx.c **** 	}
 340:../../lpc11cx4-library/lpc_chip_11cxx_lib/src/i2c_11xx.c **** 
 341:../../lpc11cx4-library/lpc_chip_11cxx_lib/src/i2c_11xx.c **** 	stat = &iic->mXfer->status;
 342:../../lpc11cx4-library/lpc_chip_11cxx_lib/src/i2c_11xx.c **** 	/* Wait for the status to change */
 343:../../lpc11cx4-library/lpc_chip_11cxx_lib/src/i2c_11xx.c **** 	while (*stat == I2C_STATUS_BUSY) {
 344:../../lpc11cx4-library/lpc_chip_11cxx_lib/src/i2c_11xx.c **** 	}
 345:../../lpc11cx4-library/lpc_chip_11cxx_lib/src/i2c_11xx.c **** }
  93              		.loc 1 345 0
  94              		@ sp needed	@
  95 0004 7047     		bx	lr
  96              	.L7:
  97              	.LVL1:
  98              	.LBB59:
  99              	.LBB60:
 341:../../lpc11cx4-library/lpc_chip_11cxx_lib/src/i2c_11xx.c **** 	/* Wait for the status to change */
 100              		.loc 1 341 0
 101 0006 034B     		ldr	r3, .L8	@ tmp114,
 102 0008 1A69     		ldr	r2, [r3, #16]	@ _6, i2c.mXfer
 103              	.LVL2:
 104              	.L3:
 343:../../lpc11cx4-library/lpc_chip_11cxx_lib/src/i2c_11xx.c **** 	}
 105              		.loc 1 343 0
 106 000a 137D     		ldrb	r3, [r2, #20]	@ MEM[(volatile I2C_STATUS_T *)_6 + 20B], MEM[(volatile I2C_STATUS_T *)_6 + 20B
 107 000c 042B     		cmp	r3, #4	@ MEM[(volatile I2C_STATUS_T *)_6 + 20B],
 108 000e FCD0     		beq	.L3	@,
 109 0010 F8E7     		b	.L1	@
ARM GAS  /tmp/ccXw4jW7.s 			page 9


 110              	.L9:
 111 0012 C046     		.align	2
 112              	.L8:
 113 0014 00000000 		.word	.LANCHOR0
 114              	.LBE60:
 115              	.LBE59:
 116              		.cfi_endproc
 117              	.LFE212:
 118              		.size	Chip_I2C_EventHandler, .-Chip_I2C_EventHandler
 119              		.section	.text.handleMasterXferState,"ax",%progbits
 120              		.align	1
 121              		.p2align 2,,3
 122              		.global	handleMasterXferState
 123              		.syntax unified
 124              		.code	16
 125              		.thumb_func
 126              		.fpu softvfp
 127              		.type	handleMasterXferState, %function
 128              	handleMasterXferState:
 129              	.LFB209:
 179:../../lpc11cx4-library/lpc_chip_11cxx_lib/src/i2c_11xx.c **** 	uint32_t cclr = I2C_CON_FLAGS;
 130              		.loc 1 179 0
 131              		.cfi_startproc
 132              		@ args = 0, pretend = 0, frame = 0
 133              		@ frame_needed = 0, uses_anonymous_args = 0
 134              	.LVL3:
 135              	.LBB61:
 136              	.LBB62:
 124:../../lpc11cx4-library/lpc_chip_11cxx_lib/src/i2c_11xx.c **** }
 137              		.loc 1 124 0
 138 0000 F823     		movs	r3, #248	@ tmp153,
 139              	.LBE62:
 140              	.LBE61:
 179:../../lpc11cx4-library/lpc_chip_11cxx_lib/src/i2c_11xx.c **** 	uint32_t cclr = I2C_CON_FLAGS;
 141              		.loc 1 179 0
 142 0002 0200     		movs	r2, r0	@ pI2C, pI2C
 143              	.LBB65:
 144              	.LBB63:
 124:../../lpc11cx4-library/lpc_chip_11cxx_lib/src/i2c_11xx.c **** }
 145              		.loc 1 124 0
 146 0004 4068     		ldr	r0, [r0, #4]	@ _53, pI2C_10(D)->STAT
 147              	.LVL4:
 148              	.LBE63:
 149              	.LBE65:
 179:../../lpc11cx4-library/lpc_chip_11cxx_lib/src/i2c_11xx.c **** 	uint32_t cclr = I2C_CON_FLAGS;
 150              		.loc 1 179 0
 151 0006 30B5     		push	{r4, r5, lr}	@
 152              		.cfi_def_cfa_offset 12
 153              		.cfi_offset 4, -12
 154              		.cfi_offset 5, -8
 155              		.cfi_offset 14, -4
 156              	.LBB66:
 157              	.LBB64:
 124:../../lpc11cx4-library/lpc_chip_11cxx_lib/src/i2c_11xx.c **** }
 158              		.loc 1 124 0
 159 0008 0340     		ands	r3, r0	@ tmp154, _53
 160              	.LBE64:
ARM GAS  /tmp/ccXw4jW7.s 			page 10


 161              	.LBE66:
 181:../../lpc11cx4-library/lpc_chip_11cxx_lib/src/i2c_11xx.c **** 	case 0x08:		/* Start condition on bus */
 162              		.loc 1 181 0
 163 000a 582B     		cmp	r3, #88	@ tmp154,
 164 000c 58D8     		bhi	.L11	@,
 165 000e 3D48     		ldr	r0, .L47	@ tmp157,
 166 0010 9B00     		lsls	r3, r3, #2	@ tmp155, tmp154,
 167 0012 C358     		ldr	r3, [r0, r3]	@ tmp158,
 168 0014 9F46     		mov	pc, r3	@ tmp158
 169              		.section	.rodata.handleMasterXferState,"a",%progbits
 170              		.align	2
 171              	.L13:
 172 0000 50000000 		.word	.L12
 173 0004 C0000000 		.word	.L11
 174 0008 C0000000 		.word	.L11
 175 000c C0000000 		.word	.L11
 176 0010 C0000000 		.word	.L11
 177 0014 C0000000 		.word	.L11
 178 0018 C0000000 		.word	.L11
 179 001c C0000000 		.word	.L11
 180 0020 60000000 		.word	.L14
 181 0024 C0000000 		.word	.L11
 182 0028 C0000000 		.word	.L11
 183 002c C0000000 		.word	.L11
 184 0030 C0000000 		.word	.L11
 185 0034 C0000000 		.word	.L11
 186 0038 C0000000 		.word	.L11
 187 003c C0000000 		.word	.L11
 188 0040 60000000 		.word	.L14
 189 0044 C0000000 		.word	.L11
 190 0048 C0000000 		.word	.L11
 191 004c C0000000 		.word	.L11
 192 0050 C0000000 		.word	.L11
 193 0054 C0000000 		.word	.L11
 194 0058 C0000000 		.word	.L11
 195 005c C0000000 		.word	.L11
 196 0060 80000000 		.word	.L15
 197 0064 C0000000 		.word	.L11
 198 0068 C0000000 		.word	.L11
 199 006c C0000000 		.word	.L11
 200 0070 C0000000 		.word	.L11
 201 0074 C0000000 		.word	.L11
 202 0078 C0000000 		.word	.L11
 203 007c C0000000 		.word	.L11
 204 0080 96000000 		.word	.L16
 205 0084 C0000000 		.word	.L11
 206 0088 C0000000 		.word	.L11
 207 008c C0000000 		.word	.L11
 208 0090 C0000000 		.word	.L11
 209 0094 C0000000 		.word	.L11
 210 0098 C0000000 		.word	.L11
 211 009c C0000000 		.word	.L11
 212 00a0 80000000 		.word	.L15
 213 00a4 C0000000 		.word	.L11
 214 00a8 C0000000 		.word	.L11
 215 00ac C0000000 		.word	.L11
 216 00b0 C0000000 		.word	.L11
ARM GAS  /tmp/ccXw4jW7.s 			page 11


 217 00b4 C0000000 		.word	.L11
 218 00b8 C0000000 		.word	.L11
 219 00bc C0000000 		.word	.L11
 220 00c0 96000000 		.word	.L16
 221 00c4 C0000000 		.word	.L11
 222 00c8 C0000000 		.word	.L11
 223 00cc C0000000 		.word	.L11
 224 00d0 C0000000 		.word	.L11
 225 00d4 C0000000 		.word	.L11
 226 00d8 C0000000 		.word	.L11
 227 00dc C0000000 		.word	.L11
 228 00e0 B8000000 		.word	.L17
 229 00e4 C0000000 		.word	.L11
 230 00e8 C0000000 		.word	.L11
 231 00ec C0000000 		.word	.L11
 232 00f0 C0000000 		.word	.L11
 233 00f4 C0000000 		.word	.L11
 234 00f8 C0000000 		.word	.L11
 235 00fc C0000000 		.word	.L11
 236 0100 9C000000 		.word	.L18
 237 0104 C0000000 		.word	.L11
 238 0108 C0000000 		.word	.L11
 239 010c C0000000 		.word	.L11
 240 0110 C0000000 		.word	.L11
 241 0114 C0000000 		.word	.L11
 242 0118 C0000000 		.word	.L11
 243 011c C0000000 		.word	.L11
 244 0120 96000000 		.word	.L16
 245 0124 C0000000 		.word	.L11
 246 0128 C0000000 		.word	.L11
 247 012c C0000000 		.word	.L11
 248 0130 C0000000 		.word	.L11
 249 0134 C0000000 		.word	.L11
 250 0138 C0000000 		.word	.L11
 251 013c C0000000 		.word	.L11
 252 0140 B4000000 		.word	.L19
 253 0144 C0000000 		.word	.L11
 254 0148 C0000000 		.word	.L11
 255 014c C0000000 		.word	.L11
 256 0150 C0000000 		.word	.L11
 257 0154 C0000000 		.word	.L11
 258 0158 C0000000 		.word	.L11
 259 015c C0000000 		.word	.L11
 260 0160 16000000 		.word	.L34
 261              		.section	.text.handleMasterXferState
 262              	.L34:
 201:../../lpc11cx4-library/lpc_chip_11cxx_lib/src/i2c_11xx.c **** 
 263              		.loc 1 201 0
 264 0016 2C24     		movs	r4, #44	@ cclr,
 265              	.L20:
 266              	.LVL5:
 204:../../lpc11cx4-library/lpc_chip_11cxx_lib/src/i2c_11xx.c **** 		xfer->rxSz--;
 267              		.loc 1 204 0
 268 0018 CB68     		ldr	r3, [r1, #12]	@ _32, xfer_11(D)->rxBuff
 269 001a 581C     		adds	r0, r3, #1	@ tmp178, _32,
 270 001c C860     		str	r0, [r1, #12]	@ tmp178, xfer_11(D)->rxBuff
 271 001e 9068     		ldr	r0, [r2, #8]	@ _35, pI2C_10(D)->DAT
ARM GAS  /tmp/ccXw4jW7.s 			page 12


 272 0020 1870     		strb	r0, [r3]	@ _35, *_32
 205:../../lpc11cx4-library/lpc_chip_11cxx_lib/src/i2c_11xx.c **** 
 273              		.loc 1 205 0
 274 0022 0B69     		ldr	r3, [r1, #16]	@ tmp226, xfer_11(D)->rxSz
 275 0024 013B     		subs	r3, r3, #1	@ _39,
 276 0026 0B61     		str	r3, [r1, #16]	@ _39, xfer_11(D)->rxSz
 208:../../lpc11cx4-library/lpc_chip_11cxx_lib/src/i2c_11xx.c **** 			cclr &= ~I2C_CON_AA;
 277              		.loc 1 208 0
 278 0028 012B     		cmp	r3, #1	@ _39,
 279 002a 4EDD     		ble	.L25	@,
 280 002c 0423     		movs	r3, #4	@ tmp181,
 281 002e 2500     		movs	r5, r4	@ cclr, cclr
 282 0030 3C20     		movs	r0, #60	@ tmp182,
 283 0032 9D43     		bics	r5, r3	@ cclr, tmp181
 284 0034 0C33     		adds	r3, r3, #12	@ tmp183,
 285 0036 6840     		eors	r0, r5	@ _101, cclr
 286 0038 2340     		ands	r3, r4	@ _103, cclr
 287              	.L26:
 288              	.LVL6:
 233:../../lpc11cx4-library/lpc_chip_11cxx_lib/src/i2c_11xx.c **** 	pI2C->CONCLR = cclr;
 289              		.loc 1 233 0
 290 003a 1060     		str	r0, [r2]	@ _101, pI2C_10(D)->CONSET
 234:../../lpc11cx4-library/lpc_chip_11cxx_lib/src/i2c_11xx.c **** 
 291              		.loc 1 234 0
 292 003c 9561     		str	r5, [r2, #24]	@ cclr, pI2C_10(D)->CONCLR
 237:../../lpc11cx4-library/lpc_chip_11cxx_lib/src/i2c_11xx.c **** 		if (xfer->status == I2C_STATUS_BUSY) {
 293              		.loc 1 237 0
 294 003e 002B     		cmp	r3, #0	@ _103,
 295 0040 33D1     		bne	.L41	@,
 296              	.LVL7:
 297              	.L28:
 238:../../lpc11cx4-library/lpc_chip_11cxx_lib/src/i2c_11xx.c **** 			xfer->status = I2C_STATUS_DONE;
 298              		.loc 1 238 0
 299 0042 0B7D     		ldrb	r3, [r1, #20]	@ tmp197,
 300 0044 042B     		cmp	r3, #4	@ tmp197,
 301 0046 09D1     		bne	.L42	@,
 239:../../lpc11cx4-library/lpc_chip_11cxx_lib/src/i2c_11xx.c **** 		}
 302              		.loc 1 239 0
 303 0048 0023     		movs	r3, #0	@ tmp198,
 241:../../lpc11cx4-library/lpc_chip_11cxx_lib/src/i2c_11xx.c **** 	}
 304              		.loc 1 241 0
 305 004a 0020     		movs	r0, #0	@ <retval>,
 239:../../lpc11cx4-library/lpc_chip_11cxx_lib/src/i2c_11xx.c **** 		}
 306              		.loc 1 239 0
 307 004c 0B75     		strb	r3, [r1, #20]	@ tmp198, xfer_11(D)->status
 308              	.L10:
 244:../../lpc11cx4-library/lpc_chip_11cxx_lib/src/i2c_11xx.c **** 
 309              		.loc 1 244 0
 310              		@ sp needed	@
 311 004e 30BD     		pop	{r4, r5, pc}
 312              	.LVL8:
 313              	.L12:
 227:../../lpc11cx4-library/lpc_chip_11cxx_lib/src/i2c_11xx.c **** 		cclr &= ~I2C_CON_STO;
 314              		.loc 1 227 0
 315 0050 0323     		movs	r3, #3	@ tmp188,
 316 0052 0B75     		strb	r3, [r1, #20]	@ tmp188, xfer_11(D)->status
 317              	.LVL9:
ARM GAS  /tmp/ccXw4jW7.s 			page 13


 318              	.L27:
 233:../../lpc11cx4-library/lpc_chip_11cxx_lib/src/i2c_11xx.c **** 	pI2C->CONCLR = cclr;
 319              		.loc 1 233 0
 320 0054 1023     		movs	r3, #16	@ tmp216,
 321 0056 1360     		str	r3, [r2]	@ tmp216, pI2C_10(D)->CONSET
 234:../../lpc11cx4-library/lpc_chip_11cxx_lib/src/i2c_11xx.c **** 
 322              		.loc 1 234 0
 323 0058 1C33     		adds	r3, r3, #28	@ tmp217,
 324 005a 9361     		str	r3, [r2, #24]	@ tmp217, pI2C_10(D)->CONCLR
 325              	.LVL10:
 326              	.L42:
 241:../../lpc11cx4-library/lpc_chip_11cxx_lib/src/i2c_11xx.c **** 	}
 327              		.loc 1 241 0
 328 005c 0020     		movs	r0, #0	@ <retval>,
 329 005e F6E7     		b	.L10	@
 330              	.LVL11:
 331              	.L14:
 184:../../lpc11cx4-library/lpc_chip_11cxx_lib/src/i2c_11xx.c **** 		break;
 332              		.loc 1 184 0
 333 0060 8868     		ldr	r0, [r1, #8]	@ tmp163, xfer_11(D)->txSz
 334 0062 0B78     		ldrb	r3, [r1]	@ *xfer_11(D), *xfer_11(D)
 335 0064 4442     		rsbs	r4, r0, #0	@ tmp164, tmp163
 336 0066 6041     		adcs	r0, r0, r4	@ tmp163, tmp163, tmp164
 337 0068 5B00     		lsls	r3, r3, #1	@ tmp160, *xfer_11(D),
 338 006a 0343     		orrs	r3, r0	@ _19, tmp163
 339 006c 9360     		str	r3, [r2, #8]	@ _19, pI2C_10(D)->DAT
 340 006e 087D     		ldrb	r0, [r1, #20]	@ tmp166,
 341 0070 0238     		subs	r0, r0, #2	@ tmp168,
 342 0072 431E     		subs	r3, r0, #1	@ tmp169, tmp168
 343 0074 9841     		sbcs	r0, r0, r3	@ <retval>, tmp168, tmp169
 344              	.L21:
 233:../../lpc11cx4-library/lpc_chip_11cxx_lib/src/i2c_11xx.c **** 	pI2C->CONCLR = cclr;
 345              		.loc 1 233 0
 346 0076 0023     		movs	r3, #0	@ tmp214,
 347 0078 1360     		str	r3, [r2]	@ tmp214, pI2C_10(D)->CONSET
 234:../../lpc11cx4-library/lpc_chip_11cxx_lib/src/i2c_11xx.c **** 
 348              		.loc 1 234 0
 349 007a 3C33     		adds	r3, r3, #60	@ tmp215,
 350 007c 9361     		str	r3, [r2, #24]	@ tmp215, pI2C_10(D)->CONCLR
 351 007e E6E7     		b	.L10	@
 352              	.L15:
 190:../../lpc11cx4-library/lpc_chip_11cxx_lib/src/i2c_11xx.c **** 			cclr &= ~(xfer->rxSz ? I2C_CON_STA : I2C_CON_STO);
 353              		.loc 1 190 0
 354 0080 8B68     		ldr	r3, [r1, #8]	@ _21, xfer_11(D)->txSz
 355 0082 002B     		cmp	r3, #0	@ _21,
 356 0084 27D1     		bne	.L22	@,
 191:../../lpc11cx4-library/lpc_chip_11cxx_lib/src/i2c_11xx.c **** 		}
 357              		.loc 1 191 0
 358 0086 0B69     		ldr	r3, [r1, #16]	@ tmp225, xfer_11(D)->rxSz
 359 0088 002B     		cmp	r3, #0	@ tmp225,
 360 008a 30D0     		beq	.L45	@,
 361              	.LVL12:
 233:../../lpc11cx4-library/lpc_chip_11cxx_lib/src/i2c_11xx.c **** 	pI2C->CONCLR = cclr;
 362              		.loc 1 233 0
 363 008c 2023     		movs	r3, #32	@ tmp218,
 364 008e 1360     		str	r3, [r2]	@ tmp218, pI2C_10(D)->CONSET
 234:../../lpc11cx4-library/lpc_chip_11cxx_lib/src/i2c_11xx.c **** 
ARM GAS  /tmp/ccXw4jW7.s 			page 14


 365              		.loc 1 234 0
 366 0090 043B     		subs	r3, r3, #4	@ tmp219,
 367 0092 9361     		str	r3, [r2, #24]	@ tmp219,
 368 0094 09E0     		b	.L41	@
 369              	.LVL13:
 370              	.L16:
 217:../../lpc11cx4-library/lpc_chip_11cxx_lib/src/i2c_11xx.c **** 		cclr &= ~I2C_CON_STO;
 371              		.loc 1 217 0
 372 0096 0123     		movs	r3, #1	@ tmp184,
 373 0098 0B75     		strb	r3, [r1, #20]	@ tmp184, xfer_11(D)->status
 374              	.LVL14:
 219:../../lpc11cx4-library/lpc_chip_11cxx_lib/src/i2c_11xx.c **** 
 375              		.loc 1 219 0
 376 009a DBE7     		b	.L27	@
 377              	.LVL15:
 378              	.L18:
 208:../../lpc11cx4-library/lpc_chip_11cxx_lib/src/i2c_11xx.c **** 			cclr &= ~I2C_CON_AA;
 379              		.loc 1 208 0
 380 009c 0B69     		ldr	r3, [r1, #16]	@ tmp228, xfer_11(D)->rxSz
 381 009e 012B     		cmp	r3, #1	@ tmp228,
 382 00a0 2ADD     		ble	.L46	@,
 383              	.LVL16:
 233:../../lpc11cx4-library/lpc_chip_11cxx_lib/src/i2c_11xx.c **** 	pI2C->CONCLR = cclr;
 384              		.loc 1 233 0
 385 00a2 0423     		movs	r3, #4	@ tmp222,
 386 00a4 1360     		str	r3, [r2]	@ tmp222, pI2C_10(D)->CONSET
 234:../../lpc11cx4-library/lpc_chip_11cxx_lib/src/i2c_11xx.c **** 
 387              		.loc 1 234 0
 388 00a6 3433     		adds	r3, r3, #52	@ tmp223,
 389 00a8 9361     		str	r3, [r2, #24]	@ tmp223,
 390              	.LVL17:
 391              	.L41:
 392 00aa 087D     		ldrb	r0, [r1, #20]	@ tmp204,
 393 00ac 0238     		subs	r0, r0, #2	@ tmp206,
 394 00ae 431E     		subs	r3, r0, #1	@ tmp207, tmp206
 395 00b0 9841     		sbcs	r0, r0, r3	@ <retval>, tmp206, tmp207
 396 00b2 CCE7     		b	.L10	@
 397              	.LVL18:
 398              	.L19:
 180:../../lpc11cx4-library/lpc_chip_11cxx_lib/src/i2c_11xx.c **** 	switch (getCurState(pI2C)) {
 399              		.loc 1 180 0
 400 00b4 3C24     		movs	r4, #60	@ cclr,
 401 00b6 AFE7     		b	.L20	@
 402              	.L17:
 222:../../lpc11cx4-library/lpc_chip_11cxx_lib/src/i2c_11xx.c **** 		break;
 403              		.loc 1 222 0
 404 00b8 0223     		movs	r3, #2	@ tmp186,
 223:../../lpc11cx4-library/lpc_chip_11cxx_lib/src/i2c_11xx.c **** 
 405              		.loc 1 223 0
 406 00ba 0020     		movs	r0, #0	@ <retval>,
 222:../../lpc11cx4-library/lpc_chip_11cxx_lib/src/i2c_11xx.c **** 		break;
 407              		.loc 1 222 0
 408 00bc 0B75     		strb	r3, [r1, #20]	@ tmp186, xfer_11(D)->status
 223:../../lpc11cx4-library/lpc_chip_11cxx_lib/src/i2c_11xx.c **** 
 409              		.loc 1 223 0
 410 00be DAE7     		b	.L21	@
 411              	.L11:
ARM GAS  /tmp/ccXw4jW7.s 			page 15


 412 00c0 087D     		ldrb	r0, [r1, #20]	@ tmp210,
 413 00c2 0238     		subs	r0, r0, #2	@ tmp212,
 414 00c4 431E     		subs	r3, r0, #1	@ tmp213, tmp212
 415 00c6 9841     		sbcs	r0, r0, r3	@ <retval>, tmp212, tmp213
 416 00c8 D5E7     		b	.L21	@
 417              	.LVL19:
 418              	.L25:
 419 00ca 3C20     		movs	r0, #60	@ tmp190,
 420 00cc 1023     		movs	r3, #16	@ tmp191,
 421 00ce 6040     		eors	r0, r4	@ _101, cclr
 422 00d0 2340     		ands	r3, r4	@ _103, cclr
 208:../../lpc11cx4-library/lpc_chip_11cxx_lib/src/i2c_11xx.c **** 			cclr &= ~I2C_CON_AA;
 423              		.loc 1 208 0
 424 00d2 2500     		movs	r5, r4	@ cclr, cclr
 425 00d4 B1E7     		b	.L26	@
 426              	.LVL20:
 427              	.L22:
 194:../../lpc11cx4-library/lpc_chip_11cxx_lib/src/i2c_11xx.c **** 			xfer->txSz--;
 428              		.loc 1 194 0
 429 00d6 4868     		ldr	r0, [r1, #4]	@ _22, xfer_11(D)->txBuff
 195:../../lpc11cx4-library/lpc_chip_11cxx_lib/src/i2c_11xx.c **** 		}
 430              		.loc 1 195 0
 431 00d8 013B     		subs	r3, r3, #1	@ tmp172,
 194:../../lpc11cx4-library/lpc_chip_11cxx_lib/src/i2c_11xx.c **** 			xfer->txSz--;
 432              		.loc 1 194 0
 433 00da 441C     		adds	r4, r0, #1	@ tmp171, _22,
 434 00dc 4C60     		str	r4, [r1, #4]	@ tmp171, xfer_11(D)->txBuff
 435 00de 0078     		ldrb	r0, [r0]	@ _26, *_22
 436 00e0 9060     		str	r0, [r2, #8]	@ _26, pI2C_10(D)->DAT
 437 00e2 087D     		ldrb	r0, [r1, #20]	@ tmp174,
 195:../../lpc11cx4-library/lpc_chip_11cxx_lib/src/i2c_11xx.c **** 		}
 438              		.loc 1 195 0
 439 00e4 8B60     		str	r3, [r1, #8]	@ tmp172, xfer_11(D)->txSz
 440 00e6 0238     		subs	r0, r0, #2	@ tmp176,
 441 00e8 431E     		subs	r3, r0, #1	@ tmp177, tmp176
 442 00ea 9841     		sbcs	r0, r0, r3	@ <retval>, tmp176, tmp177
 443 00ec C3E7     		b	.L21	@
 444              	.L45:
 445              	.LVL21:
 233:../../lpc11cx4-library/lpc_chip_11cxx_lib/src/i2c_11xx.c **** 	pI2C->CONCLR = cclr;
 446              		.loc 1 233 0
 447 00ee 1023     		movs	r3, #16	@ tmp220,
 448 00f0 1360     		str	r3, [r2]	@ tmp220, pI2C_10(D)->CONSET
 234:../../lpc11cx4-library/lpc_chip_11cxx_lib/src/i2c_11xx.c **** 
 449              		.loc 1 234 0
 450 00f2 1C33     		adds	r3, r3, #28	@ tmp221,
 451 00f4 9361     		str	r3, [r2, #24]	@ tmp221, pI2C_10(D)->CONCLR
 452 00f6 A4E7     		b	.L28	@
 453              	.LVL22:
 454              	.L46:
 233:../../lpc11cx4-library/lpc_chip_11cxx_lib/src/i2c_11xx.c **** 	pI2C->CONCLR = cclr;
 455              		.loc 1 233 0
 456 00f8 0023     		movs	r3, #0	@ tmp201,
 457 00fa 1360     		str	r3, [r2]	@ tmp201, pI2C_10(D)->CONSET
 234:../../lpc11cx4-library/lpc_chip_11cxx_lib/src/i2c_11xx.c **** 
 458              		.loc 1 234 0
 459 00fc 3C33     		adds	r3, r3, #60	@ tmp202,
ARM GAS  /tmp/ccXw4jW7.s 			page 16


 460 00fe 9361     		str	r3, [r2, #24]	@ tmp202,
 461 0100 D3E7     		b	.L41	@
 462              	.L48:
 463 0102 C046     		.align	2
 464              	.L47:
 465 0104 00000000 		.word	.L13
 466              		.cfi_endproc
 467              	.LFE209:
 468              		.size	handleMasterXferState, .-handleMasterXferState
 469              		.section	.text.getSlaveIndex,"ax",%progbits
 470              		.align	1
 471              		.p2align 2,,3
 472              		.global	getSlaveIndex
 473              		.syntax unified
 474              		.code	16
 475              		.thumb_func
 476              		.fpu softvfp
 477              		.type	getSlaveIndex, %function
 478              	getSlaveIndex:
 479              	.LFB210:
 248:../../lpc11cx4-library/lpc_chip_11cxx_lib/src/i2c_11xx.c **** 	switch (getCurState(pI2C)) {
 480              		.loc 1 248 0
 481              		.cfi_startproc
 482              		@ args = 0, pretend = 0, frame = 0
 483              		@ frame_needed = 0, uses_anonymous_args = 0
 484              	.LVL23:
 485              	.LBB83:
 486              	.LBB84:
 124:../../lpc11cx4-library/lpc_chip_11cxx_lib/src/i2c_11xx.c **** }
 487              		.loc 1 124 0
 488 0000 F823     		movs	r3, #248	@ tmp158,
 489 0002 4168     		ldr	r1, [r0, #4]	@ _6, pI2C_3(D)->STAT
 490              	.LVL24:
 491              	.LBE84:
 492              	.LBE83:
 248:../../lpc11cx4-library/lpc_chip_11cxx_lib/src/i2c_11xx.c **** 	switch (getCurState(pI2C)) {
 493              		.loc 1 248 0
 494 0004 10B5     		push	{r4, lr}	@
 495              		.cfi_def_cfa_offset 8
 496              		.cfi_offset 4, -8
 497              		.cfi_offset 14, -4
 248:../../lpc11cx4-library/lpc_chip_11cxx_lib/src/i2c_11xx.c **** 	switch (getCurState(pI2C)) {
 498              		.loc 1 248 0
 499 0006 0200     		movs	r2, r0	@ pI2C, pI2C
 500              	.LBB86:
 501              	.LBB85:
 124:../../lpc11cx4-library/lpc_chip_11cxx_lib/src/i2c_11xx.c **** }
 502              		.loc 1 124 0
 503 0008 0B40     		ands	r3, r1	@ tmp159, _6
 504              	.LBE85:
 505              	.LBE86:
 249:../../lpc11cx4-library/lpc_chip_11cxx_lib/src/i2c_11xx.c **** 	case 0x60:
 506              		.loc 1 249 0
 507 000a 702B     		cmp	r3, #112	@ tmp159,
 508 000c 0CD0     		beq	.L51	@,
 509 000e 07DD     		ble	.L81	@,
 510 0010 A82B     		cmp	r3, #168	@ tmp159,
ARM GAS  /tmp/ccXw4jW7.s 			page 17


 511 0012 09D0     		beq	.L51	@,
 512 0014 B02B     		cmp	r3, #176	@ tmp159,
 513 0016 07D0     		beq	.L51	@,
 514 0018 782B     		cmp	r3, #120	@ tmp159,
 515 001a 05D0     		beq	.L51	@,
 516              	.L53:
 260:../../lpc11cx4-library/lpc_chip_11cxx_lib/src/i2c_11xx.c **** }
 517              		.loc 1 260 0
 518 001c 0020     		movs	r0, #0	@ <retval>,
 519              	.LVL25:
 520              	.L50:
 261:../../lpc11cx4-library/lpc_chip_11cxx_lib/src/i2c_11xx.c **** 
 521              		.loc 1 261 0
 522              		@ sp needed	@
 523 001e 10BD     		pop	{r4, pc}
 524              	.LVL26:
 525              	.L81:
 249:../../lpc11cx4-library/lpc_chip_11cxx_lib/src/i2c_11xx.c **** 	case 0x60:
 526              		.loc 1 249 0
 527 0020 602B     		cmp	r3, #96	@ tmp159,
 528 0022 01D0     		beq	.L51	@,
 529 0024 682B     		cmp	r3, #104	@ tmp159,
 530 0026 F9D1     		bne	.L53	@,
 531              	.L51:
 532              	.LVL27:
 533              	.LBB87:
 534              	.LBB88:
 256:../../lpc11cx4-library/lpc_chip_11cxx_lib/src/i2c_11xx.c **** 	}
 535              		.loc 1 256 0
 536 0028 9368     		ldr	r3, [r2, #8]	@ _10, pI2C_3(D)->DAT
 537              	.LBB89:
 538              	.LBB90:
 174:../../lpc11cx4-library/lpc_chip_11cxx_lib/src/i2c_11xx.c **** }
 539              		.loc 1 174 0
 540 002a 0020     		movs	r0, #0	@ <retval>,
 541              	.LVL28:
 542              	.LBE90:
 543              	.LBE89:
 256:../../lpc11cx4-library/lpc_chip_11cxx_lib/src/i2c_11xx.c **** 	}
 544              		.loc 1 256 0
 545 002c DBB2     		uxtb	r3, r3	@ _11, _10
 546              	.LVL29:
 547              	.LBB102:
 548              	.LBB101:
 157:../../lpc11cx4-library/lpc_chip_11cxx_lib/src/i2c_11xx.c **** 		return I2C_SLAVE_GENERAL;					/* General call address */
 549              		.loc 1 157 0
 550 002e 5908     		lsrs	r1, r3, #1	@ tmp162, _11,
 551 0030 F5D0     		beq	.L50	@,
 552              	.LBB91:
 553              	.LBB92:
 150:../../lpc11cx4-library/lpc_chip_11cxx_lib/src/i2c_11xx.c **** 	return (addr1 & ~mask) == (addr2 & ~mask);
 554              		.loc 1 150 0
 555 0032 0124     		movs	r4, #1	@ tmp163,
 556              	.LBE92:
 557              	.LBE91:
 160:../../lpc11cx4-library/lpc_chip_11cxx_lib/src/i2c_11xx.c **** 		return I2C_SLAVE_0;
 558              		.loc 1 160 0
ARM GAS  /tmp/ccXw4jW7.s 			page 18


 559 0034 D168     		ldr	r1, [r2, #12]	@ _15, pI2C_3(D)->ADR0
 560 0036 106B     		ldr	r0, [r2, #48]	@ _17, pI2C_3(D)->MASK
 561              	.LBB94:
 562              	.LBB93:
 151:../../lpc11cx4-library/lpc_chip_11cxx_lib/src/i2c_11xx.c **** }
 563              		.loc 1 151 0
 564 0038 5940     		eors	r1, r3	@ tmp170, _11
 150:../../lpc11cx4-library/lpc_chip_11cxx_lib/src/i2c_11xx.c **** 	return (addr1 & ~mask) == (addr2 & ~mask);
 565              		.loc 1 150 0
 566 003a 2043     		orrs	r0, r4	@ tmp166, tmp163
 151:../../lpc11cx4-library/lpc_chip_11cxx_lib/src/i2c_11xx.c **** }
 567              		.loc 1 151 0
 568 003c C0B2     		uxtb	r0, r0	@ tmp167, tmp166
 569 003e C9B2     		uxtb	r1, r1	@ tmp171, tmp170
 570 0040 8143     		bics	r1, r0	@ tmp172, tmp167
 571              	.LBE93:
 572              	.LBE94:
 161:../../lpc11cx4-library/lpc_chip_11cxx_lib/src/i2c_11xx.c **** 	}
 573              		.loc 1 161 0
 574 0042 0120     		movs	r0, #1	@ <retval>,
 160:../../lpc11cx4-library/lpc_chip_11cxx_lib/src/i2c_11xx.c **** 		return I2C_SLAVE_0;
 575              		.loc 1 160 0
 576 0044 0029     		cmp	r1, #0	@ tmp172,
 577 0046 EAD0     		beq	.L50	@,
 163:../../lpc11cx4-library/lpc_chip_11cxx_lib/src/i2c_11xx.c **** 		return I2C_SLAVE_1;
 578              		.loc 1 163 0
 579 0048 116A     		ldr	r1, [r2, #32]	@ _25, pI2C_3(D)->ADR1
 580 004a 506B     		ldr	r0, [r2, #52]	@ _27, pI2C_3(D)->MASK
 581              	.LBB95:
 582              	.LBB96:
 151:../../lpc11cx4-library/lpc_chip_11cxx_lib/src/i2c_11xx.c **** }
 583              		.loc 1 151 0
 584 004c 5940     		eors	r1, r3	@ tmp180, _11
 150:../../lpc11cx4-library/lpc_chip_11cxx_lib/src/i2c_11xx.c **** 	return (addr1 & ~mask) == (addr2 & ~mask);
 585              		.loc 1 150 0
 586 004e 2043     		orrs	r0, r4	@ tmp176, tmp163
 151:../../lpc11cx4-library/lpc_chip_11cxx_lib/src/i2c_11xx.c **** }
 587              		.loc 1 151 0
 588 0050 C0B2     		uxtb	r0, r0	@ tmp177, tmp176
 589 0052 C9B2     		uxtb	r1, r1	@ tmp181, tmp180
 590 0054 8143     		bics	r1, r0	@ tmp182, tmp177
 591              	.LBE96:
 592              	.LBE95:
 164:../../lpc11cx4-library/lpc_chip_11cxx_lib/src/i2c_11xx.c **** 	}
 593              		.loc 1 164 0
 594 0056 0220     		movs	r0, #2	@ <retval>,
 163:../../lpc11cx4-library/lpc_chip_11cxx_lib/src/i2c_11xx.c **** 		return I2C_SLAVE_1;
 595              		.loc 1 163 0
 596 0058 0029     		cmp	r1, #0	@ tmp182,
 597 005a E0D0     		beq	.L50	@,
 166:../../lpc11cx4-library/lpc_chip_11cxx_lib/src/i2c_11xx.c **** 		return I2C_SLAVE_2;
 598              		.loc 1 166 0
 599 005c 516A     		ldr	r1, [r2, #36]	@ _35, pI2C_3(D)->ADR2
 600 005e 906B     		ldr	r0, [r2, #56]	@ _37, pI2C_3(D)->MASK
 601              	.LBB97:
 602              	.LBB98:
 151:../../lpc11cx4-library/lpc_chip_11cxx_lib/src/i2c_11xx.c **** }
ARM GAS  /tmp/ccXw4jW7.s 			page 19


 603              		.loc 1 151 0
 604 0060 5940     		eors	r1, r3	@ tmp190, _11
 150:../../lpc11cx4-library/lpc_chip_11cxx_lib/src/i2c_11xx.c **** 	return (addr1 & ~mask) == (addr2 & ~mask);
 605              		.loc 1 150 0
 606 0062 2043     		orrs	r0, r4	@ tmp186, tmp163
 151:../../lpc11cx4-library/lpc_chip_11cxx_lib/src/i2c_11xx.c **** }
 607              		.loc 1 151 0
 608 0064 C0B2     		uxtb	r0, r0	@ tmp187, tmp186
 609 0066 C9B2     		uxtb	r1, r1	@ tmp191, tmp190
 610 0068 8143     		bics	r1, r0	@ tmp192, tmp187
 611              	.LBE98:
 612              	.LBE97:
 167:../../lpc11cx4-library/lpc_chip_11cxx_lib/src/i2c_11xx.c **** 	}
 613              		.loc 1 167 0
 614 006a 0320     		movs	r0, #3	@ <retval>,
 166:../../lpc11cx4-library/lpc_chip_11cxx_lib/src/i2c_11xx.c **** 		return I2C_SLAVE_2;
 615              		.loc 1 166 0
 616 006c 0029     		cmp	r1, #0	@ tmp192,
 617 006e D6D0     		beq	.L50	@,
 169:../../lpc11cx4-library/lpc_chip_11cxx_lib/src/i2c_11xx.c **** 		return I2C_SLAVE_3;
 618              		.loc 1 169 0
 619 0070 906A     		ldr	r0, [r2, #40]	@ _45, pI2C_3(D)->ADR3
 620 0072 D26B     		ldr	r2, [r2, #60]	@ _47, pI2C_3(D)->MASK
 621              	.LVL30:
 622              	.LBB99:
 623              	.LBB100:
 151:../../lpc11cx4-library/lpc_chip_11cxx_lib/src/i2c_11xx.c **** }
 624              		.loc 1 151 0
 625 0074 5840     		eors	r0, r3	@ tmp200, _11
 150:../../lpc11cx4-library/lpc_chip_11cxx_lib/src/i2c_11xx.c **** 	return (addr1 & ~mask) == (addr2 & ~mask);
 626              		.loc 1 150 0
 627 0076 1443     		orrs	r4, r2	@ tmp196, _47
 151:../../lpc11cx4-library/lpc_chip_11cxx_lib/src/i2c_11xx.c **** }
 628              		.loc 1 151 0
 629 0078 E4B2     		uxtb	r4, r4	@ tmp197, tmp196
 630 007a C0B2     		uxtb	r0, r0	@ tmp201, tmp200
 631 007c A043     		bics	r0, r4	@ tmp202, tmp197
 632              	.LBE100:
 633              	.LBE99:
 170:../../lpc11cx4-library/lpc_chip_11cxx_lib/src/i2c_11xx.c **** 	}
 634              		.loc 1 170 0
 635 007e 4342     		rsbs	r3, r0, #0	@ tmp205, tmp202
 636 0080 5841     		adcs	r0, r0, r3	@ tmp204, tmp202, tmp205
 637              	.LVL31:
 638 0082 8000     		lsls	r0, r0, #2	@ <retval>, tmp204,
 639 0084 CBE7     		b	.L50	@
 640              	.LBE101:
 641              	.LBE102:
 642              	.LBE88:
 643              	.LBE87:
 644              		.cfi_endproc
 645              	.LFE210:
 646              		.size	getSlaveIndex, .-getSlaveIndex
 647              		.section	.text.handleSlaveXferState,"ax",%progbits
 648              		.align	1
 649              		.p2align 2,,3
 650              		.global	handleSlaveXferState
ARM GAS  /tmp/ccXw4jW7.s 			page 20


 651              		.syntax unified
 652              		.code	16
 653              		.thumb_func
 654              		.fpu softvfp
 655              		.type	handleSlaveXferState, %function
 656              	handleSlaveXferState:
 657              	.LFB211:
 265:../../lpc11cx4-library/lpc_chip_11cxx_lib/src/i2c_11xx.c **** 	uint32_t cclr = I2C_CON_FLAGS;
 658              		.loc 1 265 0
 659              		.cfi_startproc
 660              		@ args = 0, pretend = 0, frame = 0
 661              		@ frame_needed = 0, uses_anonymous_args = 0
 662              		@ link register save eliminated.
 663              	.LVL32:
 269:../../lpc11cx4-library/lpc_chip_11cxx_lib/src/i2c_11xx.c **** 	switch (getCurState(pI2C)) {
 664              		.loc 1 269 0
 665 0000 0423     		movs	r3, #4	@ tmp139,
 265:../../lpc11cx4-library/lpc_chip_11cxx_lib/src/i2c_11xx.c **** 	uint32_t cclr = I2C_CON_FLAGS;
 666              		.loc 1 265 0
 667 0002 0200     		movs	r2, r0	@ pI2C, pI2C
 668              	.LBB103:
 669              	.LBB104:
 124:../../lpc11cx4-library/lpc_chip_11cxx_lib/src/i2c_11xx.c **** }
 670              		.loc 1 124 0
 671 0004 4068     		ldr	r0, [r0, #4]	@ _42, pI2C_9(D)->STAT
 672              	.LVL33:
 673              	.LBE104:
 674              	.LBE103:
 269:../../lpc11cx4-library/lpc_chip_11cxx_lib/src/i2c_11xx.c **** 	switch (getCurState(pI2C)) {
 675              		.loc 1 269 0
 676 0006 0B75     		strb	r3, [r1, #20]	@ tmp139, xfer_7(D)->status
 677              	.LBB106:
 678              	.LBB105:
 124:../../lpc11cx4-library/lpc_chip_11cxx_lib/src/i2c_11xx.c **** }
 679              		.loc 1 124 0
 680 0008 F433     		adds	r3, r3, #244	@ tmp141,
 681 000a 0340     		ands	r3, r0	@ tmp142, _42
 682              	.LBE105:
 683              	.LBE106:
 270:../../lpc11cx4-library/lpc_chip_11cxx_lib/src/i2c_11xx.c **** 	case 0x80:		/* SLA: Data received + ACK sent */
 684              		.loc 1 270 0
 685 000c 603B     		subs	r3, r3, #96	@ tmp143,
 686 000e 682B     		cmp	r3, #104	@ tmp143,
 687 0010 39D8     		bhi	.L90	@,
 688 0012 2548     		ldr	r0, .L97	@ tmp146,
 689 0014 9B00     		lsls	r3, r3, #2	@ tmp144, tmp143,
 690 0016 C358     		ldr	r3, [r0, r3]	@ tmp147,
 691 0018 9F46     		mov	pc, r3	@ tmp147
 692              		.section	.rodata.handleSlaveXferState,"a",%progbits
 693              		.align	2
 694              	.L85:
 695 0000 42000000 		.word	.L84
 696 0004 86000000 		.word	.L90
 697 0008 86000000 		.word	.L90
 698 000c 86000000 		.word	.L90
 699 0010 86000000 		.word	.L90
 700 0014 86000000 		.word	.L90
ARM GAS  /tmp/ccXw4jW7.s 			page 21


 701 0018 86000000 		.word	.L90
 702 001c 86000000 		.word	.L90
 703 0020 42000000 		.word	.L84
 704 0024 86000000 		.word	.L90
 705 0028 86000000 		.word	.L90
 706 002c 86000000 		.word	.L90
 707 0030 86000000 		.word	.L90
 708 0034 86000000 		.word	.L90
 709 0038 86000000 		.word	.L90
 710 003c 86000000 		.word	.L90
 711 0040 42000000 		.word	.L84
 712 0044 86000000 		.word	.L90
 713 0048 86000000 		.word	.L90
 714 004c 86000000 		.word	.L90
 715 0050 86000000 		.word	.L90
 716 0054 86000000 		.word	.L90
 717 0058 86000000 		.word	.L90
 718 005c 86000000 		.word	.L90
 719 0060 42000000 		.word	.L84
 720 0064 86000000 		.word	.L90
 721 0068 86000000 		.word	.L90
 722 006c 86000000 		.word	.L90
 723 0070 86000000 		.word	.L90
 724 0074 86000000 		.word	.L90
 725 0078 86000000 		.word	.L90
 726 007c 86000000 		.word	.L90
 727 0080 58000000 		.word	.L86
 728 0084 86000000 		.word	.L90
 729 0088 86000000 		.word	.L90
 730 008c 86000000 		.word	.L90
 731 0090 86000000 		.word	.L90
 732 0094 86000000 		.word	.L90
 733 0098 86000000 		.word	.L90
 734 009c 86000000 		.word	.L90
 735 00a0 74000000 		.word	.L87
 736 00a4 86000000 		.word	.L90
 737 00a8 86000000 		.word	.L90
 738 00ac 86000000 		.word	.L90
 739 00b0 86000000 		.word	.L90
 740 00b4 86000000 		.word	.L90
 741 00b8 86000000 		.word	.L90
 742 00bc 86000000 		.word	.L90
 743 00c0 58000000 		.word	.L86
 744 00c4 86000000 		.word	.L90
 745 00c8 86000000 		.word	.L90
 746 00cc 86000000 		.word	.L90
 747 00d0 86000000 		.word	.L90
 748 00d4 86000000 		.word	.L90
 749 00d8 86000000 		.word	.L90
 750 00dc 86000000 		.word	.L90
 751 00e0 74000000 		.word	.L87
 752 00e4 86000000 		.word	.L90
 753 00e8 86000000 		.word	.L90
 754 00ec 86000000 		.word	.L90
 755 00f0 86000000 		.word	.L90
 756 00f4 86000000 		.word	.L90
 757 00f8 86000000 		.word	.L90
ARM GAS  /tmp/ccXw4jW7.s 			page 22


 758 00fc 86000000 		.word	.L90
 759 0100 74000000 		.word	.L87
 760 0104 86000000 		.word	.L90
 761 0108 86000000 		.word	.L90
 762 010c 86000000 		.word	.L90
 763 0110 86000000 		.word	.L90
 764 0114 86000000 		.word	.L90
 765 0118 86000000 		.word	.L90
 766 011c 86000000 		.word	.L90
 767 0120 1A000000 		.word	.L88
 768 0124 86000000 		.word	.L90
 769 0128 86000000 		.word	.L90
 770 012c 86000000 		.word	.L90
 771 0130 86000000 		.word	.L90
 772 0134 86000000 		.word	.L90
 773 0138 86000000 		.word	.L90
 774 013c 86000000 		.word	.L90
 775 0140 1A000000 		.word	.L88
 776 0144 86000000 		.word	.L90
 777 0148 86000000 		.word	.L90
 778 014c 86000000 		.word	.L90
 779 0150 86000000 		.word	.L90
 780 0154 86000000 		.word	.L90
 781 0158 86000000 		.word	.L90
 782 015c 86000000 		.word	.L90
 783 0160 22000000 		.word	.L89
 784 0164 86000000 		.word	.L90
 785 0168 86000000 		.word	.L90
 786 016c 86000000 		.word	.L90
 787 0170 86000000 		.word	.L90
 788 0174 86000000 		.word	.L90
 789 0178 86000000 		.word	.L90
 790 017c 86000000 		.word	.L90
 791 0180 74000000 		.word	.L87
 792 0184 86000000 		.word	.L90
 793 0188 86000000 		.word	.L90
 794 018c 86000000 		.word	.L90
 795 0190 86000000 		.word	.L90
 796 0194 86000000 		.word	.L90
 797 0198 86000000 		.word	.L90
 798 019c 86000000 		.word	.L90
 799 01a0 74000000 		.word	.L87
 800              		.section	.text.handleSlaveXferState
 801              	.L88:
 293:../../lpc11cx4-library/lpc_chip_11cxx_lib/src/i2c_11xx.c **** 
 802              		.loc 1 293 0
 803 001a 0120     		movs	r0, #1	@ tmp158,
 804 001c 9368     		ldr	r3, [r2, #8]	@ _24, pI2C_9(D)->DAT
 805 001e 8343     		bics	r3, r0	@ tmp157, tmp158
 806 0020 0B70     		strb	r3, [r1]	@ tmp157, xfer_7(D)->slaveAddr
 807              	.L89:
 296:../../lpc11cx4-library/lpc_chip_11cxx_lib/src/i2c_11xx.c **** 		xfer->txSz--;
 808              		.loc 1 296 0
 809 0022 4B68     		ldr	r3, [r1, #4]	@ _28, xfer_7(D)->txBuff
 810 0024 581C     		adds	r0, r3, #1	@ tmp160, _28,
 811 0026 4860     		str	r0, [r1, #4]	@ tmp160, xfer_7(D)->txBuff
 812 0028 1B78     		ldrb	r3, [r3]	@ _32, *_28
ARM GAS  /tmp/ccXw4jW7.s 			page 23


 813 002a 9360     		str	r3, [r2, #8]	@ _32, pI2C_9(D)->DAT
 297:../../lpc11cx4-library/lpc_chip_11cxx_lib/src/i2c_11xx.c **** 		if (xfer->txSz > 0) {
 814              		.loc 1 297 0
 815 002c 8B68     		ldr	r3, [r1, #8]	@ tmp175, xfer_7(D)->txSz
 816 002e 013B     		subs	r3, r3, #1	@ _35,
 817 0030 8B60     		str	r3, [r1, #8]	@ _35, xfer_7(D)->txSz
 298:../../lpc11cx4-library/lpc_chip_11cxx_lib/src/i2c_11xx.c **** 			cclr &= ~I2C_CON_AA;
 818              		.loc 1 298 0
 819 0032 002B     		cmp	r3, #0	@ _35,
 820 0034 2BDD     		ble	.L95	@,
 821 0036 0421     		movs	r1, #4	@ prephitmp_47,
 822              	.LVL34:
 301:../../lpc11cx4-library/lpc_chip_11cxx_lib/src/i2c_11xx.c **** 		break;
 823              		.loc 1 301 0
 824 0038 0620     		movs	r0, #6	@ <retval>,
 299:../../lpc11cx4-library/lpc_chip_11cxx_lib/src/i2c_11xx.c **** 		}
 825              		.loc 1 299 0
 826 003a 3823     		movs	r3, #56	@ cclr,
 827              	.LVL35:
 828              	.L83:
 319:../../lpc11cx4-library/lpc_chip_11cxx_lib/src/i2c_11xx.c **** 	pI2C->CONCLR = cclr;
 829              		.loc 1 319 0
 830 003c 1160     		str	r1, [r2]	@ prephitmp_47, pI2C_9(D)->CONSET
 323:../../lpc11cx4-library/lpc_chip_11cxx_lib/src/i2c_11xx.c **** 
 831              		.loc 1 323 0
 832              		@ sp needed	@
 320:../../lpc11cx4-library/lpc_chip_11cxx_lib/src/i2c_11xx.c **** 
 833              		.loc 1 320 0
 834 003e 9361     		str	r3, [r2, #24]	@ cclr, pI2C_9(D)->CONCLR
 323:../../lpc11cx4-library/lpc_chip_11cxx_lib/src/i2c_11xx.c **** 
 835              		.loc 1 323 0
 836 0040 7047     		bx	lr
 837              	.LVL36:
 838              	.L84:
 285:../../lpc11cx4-library/lpc_chip_11cxx_lib/src/i2c_11xx.c **** 		if (xfer->rxSz > 1) {
 839              		.loc 1 285 0
 840 0042 0120     		movs	r0, #1	@ tmp153,
 841 0044 9368     		ldr	r3, [r2, #8]	@ _19, pI2C_9(D)->DAT
 842 0046 8343     		bics	r3, r0	@ tmp152, tmp153
 843 0048 0B70     		strb	r3, [r1]	@ tmp152, xfer_7(D)->slaveAddr
 286:../../lpc11cx4-library/lpc_chip_11cxx_lib/src/i2c_11xx.c **** 			cclr &= ~I2C_CON_AA;
 844              		.loc 1 286 0
 845 004a 0B69     		ldr	r3, [r1, #16]	@ xfer_7(D)->rxSz, xfer_7(D)->rxSz
 846 004c 012B     		cmp	r3, #1	@ xfer_7(D)->rxSz,
 847 004e 1ADD     		ble	.L90	@,
 848 0050 0421     		movs	r1, #4	@ prephitmp_47,
 849              	.LVL37:
 267:../../lpc11cx4-library/lpc_chip_11cxx_lib/src/i2c_11xx.c **** 
 850              		.loc 1 267 0
 851 0052 0020     		movs	r0, #0	@ <retval>,
 287:../../lpc11cx4-library/lpc_chip_11cxx_lib/src/i2c_11xx.c **** 		}
 852              		.loc 1 287 0
 853 0054 3823     		movs	r3, #56	@ cclr,
 854 0056 F1E7     		b	.L83	@
 855              	.LVL38:
 856              	.L86:
 273:../../lpc11cx4-library/lpc_chip_11cxx_lib/src/i2c_11xx.c **** 		xfer->rxSz--;
ARM GAS  /tmp/ccXw4jW7.s 			page 24


 857              		.loc 1 273 0
 858 0058 CB68     		ldr	r3, [r1, #12]	@ _10, xfer_7(D)->rxBuff
 859 005a 581C     		adds	r0, r3, #1	@ tmp148, _10,
 860 005c C860     		str	r0, [r1, #12]	@ tmp148, xfer_7(D)->rxBuff
 861 005e 9068     		ldr	r0, [r2, #8]	@ _13, pI2C_9(D)->DAT
 862 0060 1870     		strb	r0, [r3]	@ _13, *_10
 274:../../lpc11cx4-library/lpc_chip_11cxx_lib/src/i2c_11xx.c **** 		ret = RET_SLAVE_RX;
 863              		.loc 1 274 0
 864 0062 0B69     		ldr	r3, [r1, #16]	@ tmp174, xfer_7(D)->rxSz
 865 0064 013B     		subs	r3, r3, #1	@ _17,
 866 0066 0B61     		str	r3, [r1, #16]	@ _17, xfer_7(D)->rxSz
 867              	.LVL39:
 276:../../lpc11cx4-library/lpc_chip_11cxx_lib/src/i2c_11xx.c **** 			cclr &= ~I2C_CON_AA;
 868              		.loc 1 276 0
 869 0068 012B     		cmp	r3, #1	@ _17,
 870 006a 18DD     		ble	.L96	@,
 871 006c 0421     		movs	r1, #4	@ prephitmp_47,
 872              	.LVL40:
 275:../../lpc11cx4-library/lpc_chip_11cxx_lib/src/i2c_11xx.c **** 		if (xfer->rxSz > 1) {
 873              		.loc 1 275 0
 874 006e 0520     		movs	r0, #5	@ <retval>,
 277:../../lpc11cx4-library/lpc_chip_11cxx_lib/src/i2c_11xx.c **** 		}
 875              		.loc 1 277 0
 876 0070 3823     		movs	r3, #56	@ cclr,
 877 0072 E3E7     		b	.L83	@
 878              	.LVL41:
 879              	.L87:
 311:../../lpc11cx4-library/lpc_chip_11cxx_lib/src/i2c_11xx.c **** 		if (xfer->slaveAddr & 1) {
 880              		.loc 1 311 0
 881 0074 0023     		movs	r3, #0	@ tmp162,
 882 0076 0B75     		strb	r3, [r1, #20]	@ tmp162, xfer_7(D)->status
 312:../../lpc11cx4-library/lpc_chip_11cxx_lib/src/i2c_11xx.c **** 			cclr &= ~I2C_CON_STA;
 883              		.loc 1 312 0
 884 0078 0B78     		ldrb	r3, [r1]	@ *xfer_7(D), *xfer_7(D)
 885 007a DB07     		lsls	r3, r3, #31	@ tmp173, *xfer_7(D),
 886 007c 0BD4     		bmi	.L94	@,
 887 007e 0421     		movs	r1, #4	@ prephitmp_47,
 888              	.LVL42:
 309:../../lpc11cx4-library/lpc_chip_11cxx_lib/src/i2c_11xx.c **** 		cclr &= ~I2C_CON_AA;
 889              		.loc 1 309 0
 890 0080 0220     		movs	r0, #2	@ <retval>,
 310:../../lpc11cx4-library/lpc_chip_11cxx_lib/src/i2c_11xx.c **** 		xfer->status = I2C_STATUS_DONE;
 891              		.loc 1 310 0
 892 0082 3823     		movs	r3, #56	@ cclr,
 893 0084 DAE7     		b	.L83	@
 894              	.LVL43:
 895              	.L90:
 270:../../lpc11cx4-library/lpc_chip_11cxx_lib/src/i2c_11xx.c **** 	case 0x80:		/* SLA: Data received + ACK sent */
 896              		.loc 1 270 0
 897 0086 0021     		movs	r1, #0	@ prephitmp_47,
 898              	.LVL44:
 267:../../lpc11cx4-library/lpc_chip_11cxx_lib/src/i2c_11xx.c **** 
 899              		.loc 1 267 0
 900 0088 0020     		movs	r0, #0	@ <retval>,
 266:../../lpc11cx4-library/lpc_chip_11cxx_lib/src/i2c_11xx.c **** 	int ret = RET_SLAVE_BUSY;
 901              		.loc 1 266 0
 902 008a 3C23     		movs	r3, #60	@ cclr,
ARM GAS  /tmp/ccXw4jW7.s 			page 25


 903 008c D6E7     		b	.L83	@
 904              	.LVL45:
 905              	.L95:
 298:../../lpc11cx4-library/lpc_chip_11cxx_lib/src/i2c_11xx.c **** 			cclr &= ~I2C_CON_AA;
 906              		.loc 1 298 0
 907 008e 0021     		movs	r1, #0	@ prephitmp_47,
 908              	.LVL46:
 301:../../lpc11cx4-library/lpc_chip_11cxx_lib/src/i2c_11xx.c **** 		break;
 909              		.loc 1 301 0
 910 0090 0620     		movs	r0, #6	@ <retval>,
 266:../../lpc11cx4-library/lpc_chip_11cxx_lib/src/i2c_11xx.c **** 	int ret = RET_SLAVE_BUSY;
 911              		.loc 1 266 0
 912 0092 3C23     		movs	r3, #60	@ cclr,
 913 0094 D2E7     		b	.L83	@
 914              	.LVL47:
 915              	.L94:
 916 0096 2421     		movs	r1, #36	@ prephitmp_47,
 917              	.LVL48:
 309:../../lpc11cx4-library/lpc_chip_11cxx_lib/src/i2c_11xx.c **** 		cclr &= ~I2C_CON_AA;
 918              		.loc 1 309 0
 919 0098 0220     		movs	r0, #2	@ <retval>,
 313:../../lpc11cx4-library/lpc_chip_11cxx_lib/src/i2c_11xx.c **** 		}
 920              		.loc 1 313 0
 921 009a 1823     		movs	r3, #24	@ cclr,
 922 009c CEE7     		b	.L83	@
 923              	.LVL49:
 924              	.L96:
 276:../../lpc11cx4-library/lpc_chip_11cxx_lib/src/i2c_11xx.c **** 			cclr &= ~I2C_CON_AA;
 925              		.loc 1 276 0
 926 009e 0021     		movs	r1, #0	@ prephitmp_47,
 927              	.LVL50:
 275:../../lpc11cx4-library/lpc_chip_11cxx_lib/src/i2c_11xx.c **** 		if (xfer->rxSz > 1) {
 928              		.loc 1 275 0
 929 00a0 0520     		movs	r0, #5	@ <retval>,
 266:../../lpc11cx4-library/lpc_chip_11cxx_lib/src/i2c_11xx.c **** 	int ret = RET_SLAVE_BUSY;
 930              		.loc 1 266 0
 931 00a2 3C23     		movs	r3, #60	@ cclr,
 932 00a4 CAE7     		b	.L83	@
 933              	.L98:
 934 00a6 C046     		.align	2
 935              	.L97:
 936 00a8 00000000 		.word	.L85
 937              		.cfi_endproc
 938              	.LFE211:
 939              		.size	handleSlaveXferState, .-handleSlaveXferState
 940              		.section	.text.Chip_I2C_Init,"ax",%progbits
 941              		.align	1
 942              		.p2align 2,,3
 943              		.global	Chip_I2C_Init
 944              		.syntax unified
 945              		.code	16
 946              		.thumb_func
 947              		.fpu softvfp
 948              		.type	Chip_I2C_Init, %function
 949              	Chip_I2C_Init:
 950              	.LFB214:
 346:../../lpc11cx4-library/lpc_chip_11cxx_lib/src/i2c_11xx.c **** 
ARM GAS  /tmp/ccXw4jW7.s 			page 26


 347:../../lpc11cx4-library/lpc_chip_11cxx_lib/src/i2c_11xx.c **** /* Chip polling event handler */
 348:../../lpc11cx4-library/lpc_chip_11cxx_lib/src/i2c_11xx.c **** void Chip_I2C_EventHandlerPolling(I2C_ID_T id, I2C_EVENT_T event)
 349:../../lpc11cx4-library/lpc_chip_11cxx_lib/src/i2c_11xx.c **** {
 350:../../lpc11cx4-library/lpc_chip_11cxx_lib/src/i2c_11xx.c **** 	struct i2c_interface *iic = &i2c;
 351:../../lpc11cx4-library/lpc_chip_11cxx_lib/src/i2c_11xx.c **** 	volatile I2C_STATUS_T *stat;
 352:../../lpc11cx4-library/lpc_chip_11cxx_lib/src/i2c_11xx.c **** 
 353:../../lpc11cx4-library/lpc_chip_11cxx_lib/src/i2c_11xx.c **** 	/* Only WAIT event needs to be handled */
 354:../../lpc11cx4-library/lpc_chip_11cxx_lib/src/i2c_11xx.c **** 	if (event != I2C_EVENT_WAIT) {
 355:../../lpc11cx4-library/lpc_chip_11cxx_lib/src/i2c_11xx.c **** 		return;
 356:../../lpc11cx4-library/lpc_chip_11cxx_lib/src/i2c_11xx.c **** 	}
 357:../../lpc11cx4-library/lpc_chip_11cxx_lib/src/i2c_11xx.c **** 
 358:../../lpc11cx4-library/lpc_chip_11cxx_lib/src/i2c_11xx.c **** 	stat = &iic->mXfer->status;
 359:../../lpc11cx4-library/lpc_chip_11cxx_lib/src/i2c_11xx.c **** 	/* Call the state change handler till xfer is done */
 360:../../lpc11cx4-library/lpc_chip_11cxx_lib/src/i2c_11xx.c **** 	while (*stat == I2C_STATUS_BUSY) {
 361:../../lpc11cx4-library/lpc_chip_11cxx_lib/src/i2c_11xx.c **** 		if (Chip_I2C_IsStateChanged(id)) {
 362:../../lpc11cx4-library/lpc_chip_11cxx_lib/src/i2c_11xx.c **** 			Chip_I2C_MasterStateHandler(id);
 363:../../lpc11cx4-library/lpc_chip_11cxx_lib/src/i2c_11xx.c **** 		}
 364:../../lpc11cx4-library/lpc_chip_11cxx_lib/src/i2c_11xx.c **** 	}
 365:../../lpc11cx4-library/lpc_chip_11cxx_lib/src/i2c_11xx.c **** }
 366:../../lpc11cx4-library/lpc_chip_11cxx_lib/src/i2c_11xx.c **** 
 367:../../lpc11cx4-library/lpc_chip_11cxx_lib/src/i2c_11xx.c **** /* Initializes the LPC_I2C peripheral with specified parameter */
 368:../../lpc11cx4-library/lpc_chip_11cxx_lib/src/i2c_11xx.c **** void Chip_I2C_Init(I2C_ID_T id)
 369:../../lpc11cx4-library/lpc_chip_11cxx_lib/src/i2c_11xx.c **** {
 951              		.loc 1 369 0
 952              		.cfi_startproc
 953              		@ args = 0, pretend = 0, frame = 0
 954              		@ frame_needed = 0, uses_anonymous_args = 0
 955              	.LVL51:
 370:../../lpc11cx4-library/lpc_chip_11cxx_lib/src/i2c_11xx.c **** 
 371:../../lpc11cx4-library/lpc_chip_11cxx_lib/src/i2c_11xx.c **** 	i2c.ip = LPC_I2C;
 372:../../lpc11cx4-library/lpc_chip_11cxx_lib/src/i2c_11xx.c **** 	i2c.clk = SYSCTL_CLOCK_I2C;
 956              		.loc 1 372 0
 957 0000 0522     		movs	r2, #5	@ tmp116,
 371:../../lpc11cx4-library/lpc_chip_11cxx_lib/src/i2c_11xx.c **** 	i2c.clk = SYSCTL_CLOCK_I2C;
 958              		.loc 1 371 0
 959 0002 0B4B     		ldr	r3, .L100	@ tmp113,
 369:../../lpc11cx4-library/lpc_chip_11cxx_lib/src/i2c_11xx.c **** 
 960              		.loc 1 369 0
 961 0004 10B5     		push	{r4, lr}	@
 962              		.cfi_def_cfa_offset 8
 963              		.cfi_offset 4, -8
 964              		.cfi_offset 14, -4
 965              		.loc 1 372 0
 966 0006 1A71     		strb	r2, [r3, #4]	@ tmp116, i2c.clk
 373:../../lpc11cx4-library/lpc_chip_11cxx_lib/src/i2c_11xx.c **** 	i2c.mEvent = Chip_I2C_EventHandler;
 967              		.loc 1 373 0
 968 0008 0A4A     		ldr	r2, .L100+4	@ tmp119,
 371:../../lpc11cx4-library/lpc_chip_11cxx_lib/src/i2c_11xx.c **** 	i2c.clk = SYSCTL_CLOCK_I2C;
 969              		.loc 1 371 0
 970 000a 8021     		movs	r1, #128	@ tmp114,
 971              		.loc 1 373 0
 972 000c 9A60     		str	r2, [r3, #8]	@ tmp119, i2c.mEvent
 374:../../lpc11cx4-library/lpc_chip_11cxx_lib/src/i2c_11xx.c **** 	i2c.sEvent = NULL;
 973              		.loc 1 374 0
 974 000e 0022     		movs	r2, #0	@ tmp121,
 975              	.LBB107:
 976              	.LBB108:
ARM GAS  /tmp/ccXw4jW7.s 			page 27


 977              	.LBB109:
 978              		.file 2 "../../lpc11cx4-library/lpc_chip_11cxx_lib/inc/clock_11xx.h"
   1:../../lpc11cx4-library/lpc_chip_11cxx_lib/inc/clock_11xx.h **** /*
   2:../../lpc11cx4-library/lpc_chip_11cxx_lib/inc/clock_11xx.h ****  * @brief LPC11XX Clock control functions
   3:../../lpc11cx4-library/lpc_chip_11cxx_lib/inc/clock_11xx.h ****  *
   4:../../lpc11cx4-library/lpc_chip_11cxx_lib/inc/clock_11xx.h ****  * @note
   5:../../lpc11cx4-library/lpc_chip_11cxx_lib/inc/clock_11xx.h ****  * Copyright(C) NXP Semiconductors, 2012
   6:../../lpc11cx4-library/lpc_chip_11cxx_lib/inc/clock_11xx.h ****  * All rights reserved.
   7:../../lpc11cx4-library/lpc_chip_11cxx_lib/inc/clock_11xx.h ****  *
   8:../../lpc11cx4-library/lpc_chip_11cxx_lib/inc/clock_11xx.h ****  * @par
   9:../../lpc11cx4-library/lpc_chip_11cxx_lib/inc/clock_11xx.h ****  * Software that is described herein is for illustrative purposes only
  10:../../lpc11cx4-library/lpc_chip_11cxx_lib/inc/clock_11xx.h ****  * which provides customers with programming information regarding the
  11:../../lpc11cx4-library/lpc_chip_11cxx_lib/inc/clock_11xx.h ****  * LPC products.  This software is supplied "AS IS" without any warranties of
  12:../../lpc11cx4-library/lpc_chip_11cxx_lib/inc/clock_11xx.h ****  * any kind, and NXP Semiconductors and its licensor disclaim any and
  13:../../lpc11cx4-library/lpc_chip_11cxx_lib/inc/clock_11xx.h ****  * all warranties, express or implied, including all implied warranties of
  14:../../lpc11cx4-library/lpc_chip_11cxx_lib/inc/clock_11xx.h ****  * merchantability, fitness for a particular purpose and non-infringement of
  15:../../lpc11cx4-library/lpc_chip_11cxx_lib/inc/clock_11xx.h ****  * intellectual property rights.  NXP Semiconductors assumes no responsibility
  16:../../lpc11cx4-library/lpc_chip_11cxx_lib/inc/clock_11xx.h ****  * or liability for the use of the software, conveys no license or rights under any
  17:../../lpc11cx4-library/lpc_chip_11cxx_lib/inc/clock_11xx.h ****  * patent, copyright, mask work right, or any other intellectual property rights in
  18:../../lpc11cx4-library/lpc_chip_11cxx_lib/inc/clock_11xx.h ****  * or to any products. NXP Semiconductors reserves the right to make changes
  19:../../lpc11cx4-library/lpc_chip_11cxx_lib/inc/clock_11xx.h ****  * in the software without notification. NXP Semiconductors also makes no
  20:../../lpc11cx4-library/lpc_chip_11cxx_lib/inc/clock_11xx.h ****  * representation or warranty that such application will be suitable for the
  21:../../lpc11cx4-library/lpc_chip_11cxx_lib/inc/clock_11xx.h ****  * specified use without further testing or modification.
  22:../../lpc11cx4-library/lpc_chip_11cxx_lib/inc/clock_11xx.h ****  *
  23:../../lpc11cx4-library/lpc_chip_11cxx_lib/inc/clock_11xx.h ****  * @par
  24:../../lpc11cx4-library/lpc_chip_11cxx_lib/inc/clock_11xx.h ****  * Permission to use, copy, modify, and distribute this software and its
  25:../../lpc11cx4-library/lpc_chip_11cxx_lib/inc/clock_11xx.h ****  * documentation is hereby granted, under NXP Semiconductors' and its
  26:../../lpc11cx4-library/lpc_chip_11cxx_lib/inc/clock_11xx.h ****  * licensor's relevant copyrights in the software, without fee, provided that it
  27:../../lpc11cx4-library/lpc_chip_11cxx_lib/inc/clock_11xx.h ****  * is used in conjunction with NXP Semiconductors microcontrollers.  This
  28:../../lpc11cx4-library/lpc_chip_11cxx_lib/inc/clock_11xx.h ****  * copyright, permission, and disclaimer notice must appear in all copies of
  29:../../lpc11cx4-library/lpc_chip_11cxx_lib/inc/clock_11xx.h ****  * this code.
  30:../../lpc11cx4-library/lpc_chip_11cxx_lib/inc/clock_11xx.h ****  */
  31:../../lpc11cx4-library/lpc_chip_11cxx_lib/inc/clock_11xx.h **** 
  32:../../lpc11cx4-library/lpc_chip_11cxx_lib/inc/clock_11xx.h **** #ifndef __CLOCK_11XX_H_
  33:../../lpc11cx4-library/lpc_chip_11cxx_lib/inc/clock_11xx.h **** #define __CLOCK_11XX_H_
  34:../../lpc11cx4-library/lpc_chip_11cxx_lib/inc/clock_11xx.h **** 
  35:../../lpc11cx4-library/lpc_chip_11cxx_lib/inc/clock_11xx.h **** #ifdef __cplusplus
  36:../../lpc11cx4-library/lpc_chip_11cxx_lib/inc/clock_11xx.h **** extern "C" {
  37:../../lpc11cx4-library/lpc_chip_11cxx_lib/inc/clock_11xx.h **** #endif
  38:../../lpc11cx4-library/lpc_chip_11cxx_lib/inc/clock_11xx.h **** 
  39:../../lpc11cx4-library/lpc_chip_11cxx_lib/inc/clock_11xx.h **** /** @defgroup CLOCK_11XX CHIP: LPC11xx Clock Control block driver
  40:../../lpc11cx4-library/lpc_chip_11cxx_lib/inc/clock_11xx.h ****  * @ingroup CHIP_11XX_Drivers
  41:../../lpc11cx4-library/lpc_chip_11cxx_lib/inc/clock_11xx.h ****  * @{
  42:../../lpc11cx4-library/lpc_chip_11cxx_lib/inc/clock_11xx.h ****  */
  43:../../lpc11cx4-library/lpc_chip_11cxx_lib/inc/clock_11xx.h **** 
  44:../../lpc11cx4-library/lpc_chip_11cxx_lib/inc/clock_11xx.h **** /** Internal oscillator frequency */
  45:../../lpc11cx4-library/lpc_chip_11cxx_lib/inc/clock_11xx.h **** #define SYSCTL_IRC_FREQ (12000000)
  46:../../lpc11cx4-library/lpc_chip_11cxx_lib/inc/clock_11xx.h **** 
  47:../../lpc11cx4-library/lpc_chip_11cxx_lib/inc/clock_11xx.h **** /**
  48:../../lpc11cx4-library/lpc_chip_11cxx_lib/inc/clock_11xx.h ****  * @brief	Set System PLL divider values
  49:../../lpc11cx4-library/lpc_chip_11cxx_lib/inc/clock_11xx.h ****  * @param	msel    : PLL feedback divider value. M = msel + 1.
  50:../../lpc11cx4-library/lpc_chip_11cxx_lib/inc/clock_11xx.h ****  * @param	psel    : PLL post divider value. P =  (1<<psel).
  51:../../lpc11cx4-library/lpc_chip_11cxx_lib/inc/clock_11xx.h ****  * @return	Nothing
  52:../../lpc11cx4-library/lpc_chip_11cxx_lib/inc/clock_11xx.h ****  * @note	See the user manual for how to setup the PLL.
  53:../../lpc11cx4-library/lpc_chip_11cxx_lib/inc/clock_11xx.h ****  */
  54:../../lpc11cx4-library/lpc_chip_11cxx_lib/inc/clock_11xx.h **** STATIC INLINE void Chip_Clock_SetupSystemPLL(uint8_t msel, uint8_t psel)
  55:../../lpc11cx4-library/lpc_chip_11cxx_lib/inc/clock_11xx.h **** {
ARM GAS  /tmp/ccXw4jW7.s 			page 28


  56:../../lpc11cx4-library/lpc_chip_11cxx_lib/inc/clock_11xx.h **** 	LPC_SYSCTL->SYSPLLCTRL = (msel & 0x1F) | ((psel & 0x3) << 5);
  57:../../lpc11cx4-library/lpc_chip_11cxx_lib/inc/clock_11xx.h **** }
  58:../../lpc11cx4-library/lpc_chip_11cxx_lib/inc/clock_11xx.h **** 
  59:../../lpc11cx4-library/lpc_chip_11cxx_lib/inc/clock_11xx.h **** /**
  60:../../lpc11cx4-library/lpc_chip_11cxx_lib/inc/clock_11xx.h ****  * @brief	Read System PLL lock status
  61:../../lpc11cx4-library/lpc_chip_11cxx_lib/inc/clock_11xx.h ****  * @return	true of the PLL is locked. false if not locked
  62:../../lpc11cx4-library/lpc_chip_11cxx_lib/inc/clock_11xx.h ****  */
  63:../../lpc11cx4-library/lpc_chip_11cxx_lib/inc/clock_11xx.h **** STATIC INLINE bool Chip_Clock_IsSystemPLLLocked(void)
  64:../../lpc11cx4-library/lpc_chip_11cxx_lib/inc/clock_11xx.h **** {
  65:../../lpc11cx4-library/lpc_chip_11cxx_lib/inc/clock_11xx.h **** 	return (bool) ((LPC_SYSCTL->SYSPLLSTAT & 1) != 0);
  66:../../lpc11cx4-library/lpc_chip_11cxx_lib/inc/clock_11xx.h **** }
  67:../../lpc11cx4-library/lpc_chip_11cxx_lib/inc/clock_11xx.h **** 
  68:../../lpc11cx4-library/lpc_chip_11cxx_lib/inc/clock_11xx.h **** /**
  69:../../lpc11cx4-library/lpc_chip_11cxx_lib/inc/clock_11xx.h ****  * Clock sources for system and USB PLLs
  70:../../lpc11cx4-library/lpc_chip_11cxx_lib/inc/clock_11xx.h ****  */
  71:../../lpc11cx4-library/lpc_chip_11cxx_lib/inc/clock_11xx.h **** typedef enum CHIP_SYSCTL_PLLCLKSRC {
  72:../../lpc11cx4-library/lpc_chip_11cxx_lib/inc/clock_11xx.h **** 	SYSCTL_PLLCLKSRC_IRC = 0,		/*!< Internal oscillator in */
  73:../../lpc11cx4-library/lpc_chip_11cxx_lib/inc/clock_11xx.h **** 	SYSCTL_PLLCLKSRC_MAINOSC,		/*!< Crystal (main) oscillator in */
  74:../../lpc11cx4-library/lpc_chip_11cxx_lib/inc/clock_11xx.h **** #if defined(CHIP_LPC11AXX)
  75:../../lpc11cx4-library/lpc_chip_11cxx_lib/inc/clock_11xx.h **** 	SYSCTL_PLLCLKSRC_EXT_CLKIN,	/*!< External clock in (11Axx only) */
  76:../../lpc11cx4-library/lpc_chip_11cxx_lib/inc/clock_11xx.h **** #else
  77:../../lpc11cx4-library/lpc_chip_11cxx_lib/inc/clock_11xx.h **** 	SYSCTL_PLLCLKSRC_RESERVED1,	/*!< Reserved */
  78:../../lpc11cx4-library/lpc_chip_11cxx_lib/inc/clock_11xx.h **** #endif
  79:../../lpc11cx4-library/lpc_chip_11cxx_lib/inc/clock_11xx.h **** 	SYSCTL_PLLCLKSRC_RESERVED2,	/*!< Reserved */
  80:../../lpc11cx4-library/lpc_chip_11cxx_lib/inc/clock_11xx.h **** } CHIP_SYSCTL_PLLCLKSRC_T;
  81:../../lpc11cx4-library/lpc_chip_11cxx_lib/inc/clock_11xx.h **** 
  82:../../lpc11cx4-library/lpc_chip_11cxx_lib/inc/clock_11xx.h **** /**
  83:../../lpc11cx4-library/lpc_chip_11cxx_lib/inc/clock_11xx.h ****  * @brief	Set System PLL clock source
  84:../../lpc11cx4-library/lpc_chip_11cxx_lib/inc/clock_11xx.h ****  * @param	src	: Clock source for system PLL
  85:../../lpc11cx4-library/lpc_chip_11cxx_lib/inc/clock_11xx.h ****  * @return	Nothing
  86:../../lpc11cx4-library/lpc_chip_11cxx_lib/inc/clock_11xx.h ****  * @note	This function will also toggle the clock source update register
  87:../../lpc11cx4-library/lpc_chip_11cxx_lib/inc/clock_11xx.h ****  * to update the clock source.
  88:../../lpc11cx4-library/lpc_chip_11cxx_lib/inc/clock_11xx.h ****  */
  89:../../lpc11cx4-library/lpc_chip_11cxx_lib/inc/clock_11xx.h **** void Chip_Clock_SetSystemPLLSource(CHIP_SYSCTL_PLLCLKSRC_T src);
  90:../../lpc11cx4-library/lpc_chip_11cxx_lib/inc/clock_11xx.h **** 
  91:../../lpc11cx4-library/lpc_chip_11cxx_lib/inc/clock_11xx.h **** #if defined(CHIP_LPC11UXX)
  92:../../lpc11cx4-library/lpc_chip_11cxx_lib/inc/clock_11xx.h **** /**
  93:../../lpc11cx4-library/lpc_chip_11cxx_lib/inc/clock_11xx.h ****  * @brief	Set USB PLL divider values
  94:../../lpc11cx4-library/lpc_chip_11cxx_lib/inc/clock_11xx.h ****  * @param	msel    : PLL feedback divider value. M = msel + 1.
  95:../../lpc11cx4-library/lpc_chip_11cxx_lib/inc/clock_11xx.h ****  * @param	psel    : PLL post divider value. P = (1<<psel).
  96:../../lpc11cx4-library/lpc_chip_11cxx_lib/inc/clock_11xx.h ****  * @return	Nothing
  97:../../lpc11cx4-library/lpc_chip_11cxx_lib/inc/clock_11xx.h ****  * @note	See the user manual for how to setup the PLL.
  98:../../lpc11cx4-library/lpc_chip_11cxx_lib/inc/clock_11xx.h ****  */
  99:../../lpc11cx4-library/lpc_chip_11cxx_lib/inc/clock_11xx.h **** STATIC INLINE void Chip_Clock_SetupUSBPLL(uint8_t msel, uint8_t psel)
 100:../../lpc11cx4-library/lpc_chip_11cxx_lib/inc/clock_11xx.h **** {
 101:../../lpc11cx4-library/lpc_chip_11cxx_lib/inc/clock_11xx.h **** 	LPC_SYSCTL->USBPLLCTRL = (msel & 0x1F) | ((psel & 0x3) << 5);
 102:../../lpc11cx4-library/lpc_chip_11cxx_lib/inc/clock_11xx.h **** }
 103:../../lpc11cx4-library/lpc_chip_11cxx_lib/inc/clock_11xx.h **** 
 104:../../lpc11cx4-library/lpc_chip_11cxx_lib/inc/clock_11xx.h **** /**
 105:../../lpc11cx4-library/lpc_chip_11cxx_lib/inc/clock_11xx.h ****  * @brief	Read USB PLL lock status
 106:../../lpc11cx4-library/lpc_chip_11cxx_lib/inc/clock_11xx.h ****  * @return	true of the PLL is locked. false if not locked
 107:../../lpc11cx4-library/lpc_chip_11cxx_lib/inc/clock_11xx.h ****  */
 108:../../lpc11cx4-library/lpc_chip_11cxx_lib/inc/clock_11xx.h **** STATIC INLINE bool Chip_Clock_IsUSBPLLLocked(void)
 109:../../lpc11cx4-library/lpc_chip_11cxx_lib/inc/clock_11xx.h **** {
 110:../../lpc11cx4-library/lpc_chip_11cxx_lib/inc/clock_11xx.h **** 	return (bool) ((LPC_SYSCTL->USBPLLSTAT & 1) != 0);
 111:../../lpc11cx4-library/lpc_chip_11cxx_lib/inc/clock_11xx.h **** }
 112:../../lpc11cx4-library/lpc_chip_11cxx_lib/inc/clock_11xx.h **** 
ARM GAS  /tmp/ccXw4jW7.s 			page 29


 113:../../lpc11cx4-library/lpc_chip_11cxx_lib/inc/clock_11xx.h **** /**
 114:../../lpc11cx4-library/lpc_chip_11cxx_lib/inc/clock_11xx.h ****  * @brief	Set USB PLL clock source
 115:../../lpc11cx4-library/lpc_chip_11cxx_lib/inc/clock_11xx.h ****  * @param	src	: Clock source for USB PLL
 116:../../lpc11cx4-library/lpc_chip_11cxx_lib/inc/clock_11xx.h ****  * @return	Nothing
 117:../../lpc11cx4-library/lpc_chip_11cxx_lib/inc/clock_11xx.h ****  * @note	This function will also toggle the clock source update register
 118:../../lpc11cx4-library/lpc_chip_11cxx_lib/inc/clock_11xx.h ****  * to update the clock source.
 119:../../lpc11cx4-library/lpc_chip_11cxx_lib/inc/clock_11xx.h ****  */
 120:../../lpc11cx4-library/lpc_chip_11cxx_lib/inc/clock_11xx.h **** void Chip_Clock_SetUSBPLLSource(CHIP_SYSCTL_PLLCLKSRC_T src);
 121:../../lpc11cx4-library/lpc_chip_11cxx_lib/inc/clock_11xx.h **** 
 122:../../lpc11cx4-library/lpc_chip_11cxx_lib/inc/clock_11xx.h **** #endif /*defined(CHIP_LPC11UXX)*/
 123:../../lpc11cx4-library/lpc_chip_11cxx_lib/inc/clock_11xx.h **** 
 124:../../lpc11cx4-library/lpc_chip_11cxx_lib/inc/clock_11xx.h **** /**
 125:../../lpc11cx4-library/lpc_chip_11cxx_lib/inc/clock_11xx.h ****  * @brief	Bypass System Oscillator and set oscillator frequency range
 126:../../lpc11cx4-library/lpc_chip_11cxx_lib/inc/clock_11xx.h ****  * @param	bypass	: Flag to bypass oscillator
 127:../../lpc11cx4-library/lpc_chip_11cxx_lib/inc/clock_11xx.h ****  * @param	highfr	: Flag to set oscillator range from 15-25 MHz
 128:../../lpc11cx4-library/lpc_chip_11cxx_lib/inc/clock_11xx.h ****  * @return	Nothing
 129:../../lpc11cx4-library/lpc_chip_11cxx_lib/inc/clock_11xx.h ****  * @note	Sets the PLL input to bypass the oscillator. This would be
 130:../../lpc11cx4-library/lpc_chip_11cxx_lib/inc/clock_11xx.h ****  * used if an external clock that is not an oscillator is attached
 131:../../lpc11cx4-library/lpc_chip_11cxx_lib/inc/clock_11xx.h ****  * to the XTALIN pin.
 132:../../lpc11cx4-library/lpc_chip_11cxx_lib/inc/clock_11xx.h ****  */
 133:../../lpc11cx4-library/lpc_chip_11cxx_lib/inc/clock_11xx.h **** void Chip_Clock_SetPLLBypass(bool bypass, bool highfr);
 134:../../lpc11cx4-library/lpc_chip_11cxx_lib/inc/clock_11xx.h **** 
 135:../../lpc11cx4-library/lpc_chip_11cxx_lib/inc/clock_11xx.h **** /**
 136:../../lpc11cx4-library/lpc_chip_11cxx_lib/inc/clock_11xx.h ****  * Watchdog and low frequency oscillator frequencies plus or minus 40%
 137:../../lpc11cx4-library/lpc_chip_11cxx_lib/inc/clock_11xx.h ****  */
 138:../../lpc11cx4-library/lpc_chip_11cxx_lib/inc/clock_11xx.h **** typedef enum CHIP_WDTLFO_OSC {
 139:../../lpc11cx4-library/lpc_chip_11cxx_lib/inc/clock_11xx.h **** 	WDTLFO_OSC_ILLEGAL,
 140:../../lpc11cx4-library/lpc_chip_11cxx_lib/inc/clock_11xx.h **** 	WDTLFO_OSC_0_60,	/*!< 0.6 MHz watchdog/LFO rate */
 141:../../lpc11cx4-library/lpc_chip_11cxx_lib/inc/clock_11xx.h **** 	WDTLFO_OSC_1_05,	/*!< 1.05 MHz watchdog/LFO rate */
 142:../../lpc11cx4-library/lpc_chip_11cxx_lib/inc/clock_11xx.h **** 	WDTLFO_OSC_1_40,	/*!< 1.4 MHz watchdog/LFO rate */
 143:../../lpc11cx4-library/lpc_chip_11cxx_lib/inc/clock_11xx.h **** 	WDTLFO_OSC_1_75,	/*!< 1.75 MHz watchdog/LFO rate */
 144:../../lpc11cx4-library/lpc_chip_11cxx_lib/inc/clock_11xx.h **** 	WDTLFO_OSC_2_10,	/*!< 2.1 MHz watchdog/LFO rate */
 145:../../lpc11cx4-library/lpc_chip_11cxx_lib/inc/clock_11xx.h **** 	WDTLFO_OSC_2_40,	/*!< 2.4 MHz watchdog/LFO rate */
 146:../../lpc11cx4-library/lpc_chip_11cxx_lib/inc/clock_11xx.h **** 	WDTLFO_OSC_2_70,	/*!< 2.7 MHz watchdog/LFO rate */
 147:../../lpc11cx4-library/lpc_chip_11cxx_lib/inc/clock_11xx.h **** 	WDTLFO_OSC_3_00,	/*!< 3.0 MHz watchdog/LFO rate */
 148:../../lpc11cx4-library/lpc_chip_11cxx_lib/inc/clock_11xx.h **** 	WDTLFO_OSC_3_25,	/*!< 3.25 MHz watchdog/LFO rate */
 149:../../lpc11cx4-library/lpc_chip_11cxx_lib/inc/clock_11xx.h **** 	WDTLFO_OSC_3_50,	/*!< 3.5 MHz watchdog/LFO rate */
 150:../../lpc11cx4-library/lpc_chip_11cxx_lib/inc/clock_11xx.h **** 	WDTLFO_OSC_3_75,	/*!< 3.75 MHz watchdog/LFO rate */
 151:../../lpc11cx4-library/lpc_chip_11cxx_lib/inc/clock_11xx.h **** 	WDTLFO_OSC_4_00,	/*!< 4.0 MHz watchdog/LFO rate */
 152:../../lpc11cx4-library/lpc_chip_11cxx_lib/inc/clock_11xx.h **** 	WDTLFO_OSC_4_20,	/*!< 4.2 MHz watchdog/LFO rate */
 153:../../lpc11cx4-library/lpc_chip_11cxx_lib/inc/clock_11xx.h **** 	WDTLFO_OSC_4_40,	/*!< 4.4 MHz watchdog/LFO rate */
 154:../../lpc11cx4-library/lpc_chip_11cxx_lib/inc/clock_11xx.h **** 	WDTLFO_OSC_4_60		/*!< 4.6 MHz watchdog/LFO rate */
 155:../../lpc11cx4-library/lpc_chip_11cxx_lib/inc/clock_11xx.h **** } CHIP_WDTLFO_OSC_T;
 156:../../lpc11cx4-library/lpc_chip_11cxx_lib/inc/clock_11xx.h **** 
 157:../../lpc11cx4-library/lpc_chip_11cxx_lib/inc/clock_11xx.h **** /**
 158:../../lpc11cx4-library/lpc_chip_11cxx_lib/inc/clock_11xx.h ****  * @brief	Setup Watchdog oscillator rate and divider
 159:../../lpc11cx4-library/lpc_chip_11cxx_lib/inc/clock_11xx.h ****  * @param	wdtclk	: Selected watchdog clock rate
 160:../../lpc11cx4-library/lpc_chip_11cxx_lib/inc/clock_11xx.h ****  * @param	div		: Watchdog divider value, even value between 2 and 64
 161:../../lpc11cx4-library/lpc_chip_11cxx_lib/inc/clock_11xx.h ****  * @return	Nothing
 162:../../lpc11cx4-library/lpc_chip_11cxx_lib/inc/clock_11xx.h ****  * @note	Watchdog rate = selected rate divided by divider rate
 163:../../lpc11cx4-library/lpc_chip_11cxx_lib/inc/clock_11xx.h ****  */
 164:../../lpc11cx4-library/lpc_chip_11cxx_lib/inc/clock_11xx.h **** STATIC INLINE void Chip_Clock_SetWDTOSC(CHIP_WDTLFO_OSC_T wdtclk, uint8_t div)
 165:../../lpc11cx4-library/lpc_chip_11cxx_lib/inc/clock_11xx.h **** {
 166:../../lpc11cx4-library/lpc_chip_11cxx_lib/inc/clock_11xx.h **** 	LPC_SYSCTL->WDTOSCCTRL  = (((uint32_t) wdtclk) << 5) | ((div >> 1) - 1);
 167:../../lpc11cx4-library/lpc_chip_11cxx_lib/inc/clock_11xx.h **** }
 168:../../lpc11cx4-library/lpc_chip_11cxx_lib/inc/clock_11xx.h **** 
 169:../../lpc11cx4-library/lpc_chip_11cxx_lib/inc/clock_11xx.h **** #if defined(CHIP_LPC11AXX)
ARM GAS  /tmp/ccXw4jW7.s 			page 30


 170:../../lpc11cx4-library/lpc_chip_11cxx_lib/inc/clock_11xx.h **** /**
 171:../../lpc11cx4-library/lpc_chip_11cxx_lib/inc/clock_11xx.h ****  * @brief	Setup low frequency oscillator rate and divider
 172:../../lpc11cx4-library/lpc_chip_11cxx_lib/inc/clock_11xx.h ****  * @param	lfoclk	: Selected low frequency clock rate
 173:../../lpc11cx4-library/lpc_chip_11cxx_lib/inc/clock_11xx.h ****  * @param	div		: Low frequency divider value, even value between 2 and 64
 174:../../lpc11cx4-library/lpc_chip_11cxx_lib/inc/clock_11xx.h ****  * @return	Nothing
 175:../../lpc11cx4-library/lpc_chip_11cxx_lib/inc/clock_11xx.h ****  * @note	Low frequency oscillator rate = selected rate divided by divider rate
 176:../../lpc11cx4-library/lpc_chip_11cxx_lib/inc/clock_11xx.h ****  */
 177:../../lpc11cx4-library/lpc_chip_11cxx_lib/inc/clock_11xx.h **** STATIC INLINE void Chip_Clock_SetLFOSC(CHIP_WDTLFO_OSC_T lfoclk, uint8_t div)
 178:../../lpc11cx4-library/lpc_chip_11cxx_lib/inc/clock_11xx.h **** {
 179:../../lpc11cx4-library/lpc_chip_11cxx_lib/inc/clock_11xx.h **** 	LPC_SYSCTL->LFOSCCTRL  = (((uint32_t) lfoclk) << 5) | ((div >> 1) - 1);
 180:../../lpc11cx4-library/lpc_chip_11cxx_lib/inc/clock_11xx.h **** }
 181:../../lpc11cx4-library/lpc_chip_11cxx_lib/inc/clock_11xx.h **** 
 182:../../lpc11cx4-library/lpc_chip_11cxx_lib/inc/clock_11xx.h **** #endif /*CHIP_LPC11AXX*/
 183:../../lpc11cx4-library/lpc_chip_11cxx_lib/inc/clock_11xx.h **** 
 184:../../lpc11cx4-library/lpc_chip_11cxx_lib/inc/clock_11xx.h **** /**
 185:../../lpc11cx4-library/lpc_chip_11cxx_lib/inc/clock_11xx.h ****  * Clock sources for main system clock
 186:../../lpc11cx4-library/lpc_chip_11cxx_lib/inc/clock_11xx.h ****  */
 187:../../lpc11cx4-library/lpc_chip_11cxx_lib/inc/clock_11xx.h **** typedef enum CHIP_SYSCTL_MAINCLKSRC {
 188:../../lpc11cx4-library/lpc_chip_11cxx_lib/inc/clock_11xx.h **** 	SYSCTL_MAINCLKSRC_IRC = 0,		/*!< Internal oscillator */
 189:../../lpc11cx4-library/lpc_chip_11cxx_lib/inc/clock_11xx.h **** 	SYSCTL_MAINCLKSRC_PLLIN,		/*!< System PLL input */
 190:../../lpc11cx4-library/lpc_chip_11cxx_lib/inc/clock_11xx.h **** 	SYSCTL_MAINCLKSRC_LFOSC,		/*!< LF oscillator rate (11Axx only) */
 191:../../lpc11cx4-library/lpc_chip_11cxx_lib/inc/clock_11xx.h **** 	SYSCTL_MAINCLKSRC_WDTOSC = SYSCTL_MAINCLKSRC_LFOSC,	/*!< Watchdog oscillator rate */
 192:../../lpc11cx4-library/lpc_chip_11cxx_lib/inc/clock_11xx.h **** 	SYSCTL_MAINCLKSRC_PLLOUT,		/*!< System PLL output */
 193:../../lpc11cx4-library/lpc_chip_11cxx_lib/inc/clock_11xx.h **** } CHIP_SYSCTL_MAINCLKSRC_T;
 194:../../lpc11cx4-library/lpc_chip_11cxx_lib/inc/clock_11xx.h **** 
 195:../../lpc11cx4-library/lpc_chip_11cxx_lib/inc/clock_11xx.h **** /**
 196:../../lpc11cx4-library/lpc_chip_11cxx_lib/inc/clock_11xx.h ****  * @brief	Set main system clock source
 197:../../lpc11cx4-library/lpc_chip_11cxx_lib/inc/clock_11xx.h ****  * @param	src	: Clock source for main system
 198:../../lpc11cx4-library/lpc_chip_11cxx_lib/inc/clock_11xx.h ****  * @return	Nothing
 199:../../lpc11cx4-library/lpc_chip_11cxx_lib/inc/clock_11xx.h ****  * @note	This function will also toggle the clock source update register
 200:../../lpc11cx4-library/lpc_chip_11cxx_lib/inc/clock_11xx.h ****  * to update the clock source.
 201:../../lpc11cx4-library/lpc_chip_11cxx_lib/inc/clock_11xx.h ****  */
 202:../../lpc11cx4-library/lpc_chip_11cxx_lib/inc/clock_11xx.h **** void Chip_Clock_SetMainClockSource(CHIP_SYSCTL_MAINCLKSRC_T src);
 203:../../lpc11cx4-library/lpc_chip_11cxx_lib/inc/clock_11xx.h **** 
 204:../../lpc11cx4-library/lpc_chip_11cxx_lib/inc/clock_11xx.h **** /**
 205:../../lpc11cx4-library/lpc_chip_11cxx_lib/inc/clock_11xx.h ****  * @brief   Returns the main clock source
 206:../../lpc11cx4-library/lpc_chip_11cxx_lib/inc/clock_11xx.h ****  * @return	Which clock is used for the core clock source?
 207:../../lpc11cx4-library/lpc_chip_11cxx_lib/inc/clock_11xx.h ****  */
 208:../../lpc11cx4-library/lpc_chip_11cxx_lib/inc/clock_11xx.h **** STATIC INLINE CHIP_SYSCTL_MAINCLKSRC_T Chip_Clock_GetMainClockSource(void)
 209:../../lpc11cx4-library/lpc_chip_11cxx_lib/inc/clock_11xx.h **** {
 210:../../lpc11cx4-library/lpc_chip_11cxx_lib/inc/clock_11xx.h **** 	return (CHIP_SYSCTL_MAINCLKSRC_T) (LPC_SYSCTL->MAINCLKSEL);
 211:../../lpc11cx4-library/lpc_chip_11cxx_lib/inc/clock_11xx.h **** }
 212:../../lpc11cx4-library/lpc_chip_11cxx_lib/inc/clock_11xx.h **** 
 213:../../lpc11cx4-library/lpc_chip_11cxx_lib/inc/clock_11xx.h **** /**
 214:../../lpc11cx4-library/lpc_chip_11cxx_lib/inc/clock_11xx.h ****  * @brief	Set system clock divider
 215:../../lpc11cx4-library/lpc_chip_11cxx_lib/inc/clock_11xx.h ****  * @param	div	: divider for system clock
 216:../../lpc11cx4-library/lpc_chip_11cxx_lib/inc/clock_11xx.h ****  * @return	Nothing
 217:../../lpc11cx4-library/lpc_chip_11cxx_lib/inc/clock_11xx.h ****  * @note	Use 0 to disable, or a divider value of 1 to 255. The system clock
 218:../../lpc11cx4-library/lpc_chip_11cxx_lib/inc/clock_11xx.h ****  * rate is the main system clock divided by this value.
 219:../../lpc11cx4-library/lpc_chip_11cxx_lib/inc/clock_11xx.h ****  */
 220:../../lpc11cx4-library/lpc_chip_11cxx_lib/inc/clock_11xx.h **** STATIC INLINE void Chip_Clock_SetSysClockDiv(uint32_t div)
 221:../../lpc11cx4-library/lpc_chip_11cxx_lib/inc/clock_11xx.h **** {
 222:../../lpc11cx4-library/lpc_chip_11cxx_lib/inc/clock_11xx.h **** 	LPC_SYSCTL->SYSAHBCLKDIV  = div;
 223:../../lpc11cx4-library/lpc_chip_11cxx_lib/inc/clock_11xx.h **** }
 224:../../lpc11cx4-library/lpc_chip_11cxx_lib/inc/clock_11xx.h **** 
 225:../../lpc11cx4-library/lpc_chip_11cxx_lib/inc/clock_11xx.h **** /**
 226:../../lpc11cx4-library/lpc_chip_11cxx_lib/inc/clock_11xx.h ****  * System and peripheral clocks
ARM GAS  /tmp/ccXw4jW7.s 			page 31


 227:../../lpc11cx4-library/lpc_chip_11cxx_lib/inc/clock_11xx.h ****  */
 228:../../lpc11cx4-library/lpc_chip_11cxx_lib/inc/clock_11xx.h **** typedef enum CHIP_SYSCTL_CLOCK {
 229:../../lpc11cx4-library/lpc_chip_11cxx_lib/inc/clock_11xx.h **** 	SYSCTL_CLOCK_SYS = 0,				/*!< 0: System clock */
 230:../../lpc11cx4-library/lpc_chip_11cxx_lib/inc/clock_11xx.h **** 	SYSCTL_CLOCK_ROM,					/*!<1:  ROM clock */
 231:../../lpc11cx4-library/lpc_chip_11cxx_lib/inc/clock_11xx.h **** 	SYSCTL_CLOCK_RAM,					/*!< 2: RAM clock */
 232:../../lpc11cx4-library/lpc_chip_11cxx_lib/inc/clock_11xx.h **** 	SYSCTL_CLOCK_FLASHREG,				/*!< 3: FLASH register interface clock */
 233:../../lpc11cx4-library/lpc_chip_11cxx_lib/inc/clock_11xx.h **** 	SYSCTL_CLOCK_FLASHARRAY,			/*!< 4: FLASH array access clock */
 234:../../lpc11cx4-library/lpc_chip_11cxx_lib/inc/clock_11xx.h **** #if defined(CHIP_LPC110X)
 235:../../lpc11cx4-library/lpc_chip_11cxx_lib/inc/clock_11xx.h **** 	SYSCTL_CLOCK_RESERVED5,				/*!< 5: Reserved */
 236:../../lpc11cx4-library/lpc_chip_11cxx_lib/inc/clock_11xx.h **** #else
 237:../../lpc11cx4-library/lpc_chip_11cxx_lib/inc/clock_11xx.h **** 	SYSCTL_CLOCK_I2C,					/*!< 5: I2C clock, not on LPC110x */
 238:../../lpc11cx4-library/lpc_chip_11cxx_lib/inc/clock_11xx.h **** #endif
 239:../../lpc11cx4-library/lpc_chip_11cxx_lib/inc/clock_11xx.h **** 	SYSCTL_CLOCK_GPIO,					/*!< 6: GPIO clock */
 240:../../lpc11cx4-library/lpc_chip_11cxx_lib/inc/clock_11xx.h **** 	SYSCTL_CLOCK_CT16B0,				/*!< 7: 16-bit Counter/timer 0 clock */
 241:../../lpc11cx4-library/lpc_chip_11cxx_lib/inc/clock_11xx.h **** 	SYSCTL_CLOCK_CT16B1,				/*!< 8: 16-bit Counter/timer 1 clock */
 242:../../lpc11cx4-library/lpc_chip_11cxx_lib/inc/clock_11xx.h **** 	SYSCTL_CLOCK_CT32B0,				/*!< 9: 32-bit Counter/timer 0 clock */
 243:../../lpc11cx4-library/lpc_chip_11cxx_lib/inc/clock_11xx.h **** 	SYSCTL_CLOCK_CT32B1,				/*!< 10: 32-bit Counter/timer 1 clock */
 244:../../lpc11cx4-library/lpc_chip_11cxx_lib/inc/clock_11xx.h **** 	SYSCTL_CLOCK_SSP0,					/*!< 11: SSP0 clock */
 245:../../lpc11cx4-library/lpc_chip_11cxx_lib/inc/clock_11xx.h **** 	SYSCTL_CLOCK_UART0,					/*!< 12: UART0 clock */
 246:../../lpc11cx4-library/lpc_chip_11cxx_lib/inc/clock_11xx.h **** 	SYSCTL_CLOCK_ADC,					/*!< 13: ADC clock */
 247:../../lpc11cx4-library/lpc_chip_11cxx_lib/inc/clock_11xx.h **** #if defined(CHIP_LPC11UXX)
 248:../../lpc11cx4-library/lpc_chip_11cxx_lib/inc/clock_11xx.h **** 	SYSCTL_CLOCK_USB,					/*!< 14: USB clock, LPC11Uxx only */
 249:../../lpc11cx4-library/lpc_chip_11cxx_lib/inc/clock_11xx.h **** #else
 250:../../lpc11cx4-library/lpc_chip_11cxx_lib/inc/clock_11xx.h **** 	SYSCTL_CLOCK_RESERVED14,			/*!< 14: Reserved */
 251:../../lpc11cx4-library/lpc_chip_11cxx_lib/inc/clock_11xx.h **** #endif
 252:../../lpc11cx4-library/lpc_chip_11cxx_lib/inc/clock_11xx.h **** 	SYSCTL_CLOCK_WDT,					/*!< 15: Watchdog timer clock */
 253:../../lpc11cx4-library/lpc_chip_11cxx_lib/inc/clock_11xx.h **** 	SYSCTL_CLOCK_IOCON,					/*!< 16: IOCON block clock */
 254:../../lpc11cx4-library/lpc_chip_11cxx_lib/inc/clock_11xx.h **** #if defined(CHIP_LPC11CXX)
 255:../../lpc11cx4-library/lpc_chip_11cxx_lib/inc/clock_11xx.h **** 	SYSCTL_CLOCK_CAN,					/*!< 17: CAN clock, LPC11Cxx only */
 256:../../lpc11cx4-library/lpc_chip_11cxx_lib/inc/clock_11xx.h **** #else
 257:../../lpc11cx4-library/lpc_chip_11cxx_lib/inc/clock_11xx.h **** 	SYSCTL_CLOCK_RESERVED17,			/*!< 17: Reserved */
 258:../../lpc11cx4-library/lpc_chip_11cxx_lib/inc/clock_11xx.h **** #endif
 259:../../lpc11cx4-library/lpc_chip_11cxx_lib/inc/clock_11xx.h **** #if !(defined(CHIP_LPC110X) || defined(CHIP_LPC11XXLV))  
 260:../../lpc11cx4-library/lpc_chip_11cxx_lib/inc/clock_11xx.h **** 	SYSCTL_CLOCK_SSP1,					/*!< 18: SSP1 clock, LPC11A/C/E/Uxx//1125 only */
 261:../../lpc11cx4-library/lpc_chip_11cxx_lib/inc/clock_11xx.h **** #if !defined(CHIP_LPC11CXX)
 262:../../lpc11cx4-library/lpc_chip_11cxx_lib/inc/clock_11xx.h **** 	SYSCTL_CLOCK_PINT,					/*!< 19: GPIO Pin int register interface clock, LPC11A/E/Uxx only */
 263:../../lpc11cx4-library/lpc_chip_11cxx_lib/inc/clock_11xx.h **** #if defined(CHIP_LPC11AXX)
 264:../../lpc11cx4-library/lpc_chip_11cxx_lib/inc/clock_11xx.h **** 	SYSCTL_CLOCK_ACOMP,					/*!< 20: Analog comparator clock, LPC11Axx only */
 265:../../lpc11cx4-library/lpc_chip_11cxx_lib/inc/clock_11xx.h **** 	SYSCTL_CLOCK_DAC,					/*!< 21: DAC clock, LPC11Axx only */
 266:../../lpc11cx4-library/lpc_chip_11cxx_lib/inc/clock_11xx.h **** #else
 267:../../lpc11cx4-library/lpc_chip_11cxx_lib/inc/clock_11xx.h **** 	SYSCTL_CLOCK_RESERVED20,			/*!< 20: Reserved */
 268:../../lpc11cx4-library/lpc_chip_11cxx_lib/inc/clock_11xx.h **** 	SYSCTL_CLOCK_RESERVED21,			/*!< 21: Reserved */
 269:../../lpc11cx4-library/lpc_chip_11cxx_lib/inc/clock_11xx.h **** #endif
 270:../../lpc11cx4-library/lpc_chip_11cxx_lib/inc/clock_11xx.h **** 	SYSCTL_CLOCK_RESERVED22,			/*!< 22: Reserved */
 271:../../lpc11cx4-library/lpc_chip_11cxx_lib/inc/clock_11xx.h **** 	SYSCTL_CLOCK_P0INT,					/*!< 23: GPIO GROUP1 interrupt register clock, LPC11Axx only */
 272:../../lpc11cx4-library/lpc_chip_11cxx_lib/inc/clock_11xx.h **** 	SYSCTL_CLOCK_GROUP0INT = SYSCTL_CLOCK_P0INT,/*!< 23: GPIO GROUP0 interrupt register interface cloc
 273:../../lpc11cx4-library/lpc_chip_11cxx_lib/inc/clock_11xx.h **** 	SYSCTL_CLOCK_P1INT,					/*!< 24: GPIO GROUP1 interrupt register clock, LPC11Axx only */
 274:../../lpc11cx4-library/lpc_chip_11cxx_lib/inc/clock_11xx.h **** 	SYSCTL_CLOCK_GROUP1INT = SYSCTL_CLOCK_P1INT,/*!< 24: GPIO GROUP1 interrupt register interface cloc
 275:../../lpc11cx4-library/lpc_chip_11cxx_lib/inc/clock_11xx.h **** 	SYSCTL_CLOCK_RESERVED25,			/*!< 25: Reserved */
 276:../../lpc11cx4-library/lpc_chip_11cxx_lib/inc/clock_11xx.h **** #if defined(CHIP_LPC11EXX)  || defined(CHIP_LPC11UXX)
 277:../../lpc11cx4-library/lpc_chip_11cxx_lib/inc/clock_11xx.h **** 	SYSCTL_CLOCK_RAM1,					/*!< 26: SRAM block (0x20000000) clock, LPC11E/Uxx only */
 278:../../lpc11cx4-library/lpc_chip_11cxx_lib/inc/clock_11xx.h **** #else
 279:../../lpc11cx4-library/lpc_chip_11cxx_lib/inc/clock_11xx.h **** 	SYSCTL_CLOCK_RESERVED26,			/*!< 26: Reserved */
 280:../../lpc11cx4-library/lpc_chip_11cxx_lib/inc/clock_11xx.h **** #endif
 281:../../lpc11cx4-library/lpc_chip_11cxx_lib/inc/clock_11xx.h **** #if defined(CHIP_LPC11UXX)
 282:../../lpc11cx4-library/lpc_chip_11cxx_lib/inc/clock_11xx.h **** 	SYSCTL_CLOCK_USBRAM,				/*!< 27: USB SRAM block clock, LPC11Uxx only */
 283:../../lpc11cx4-library/lpc_chip_11cxx_lib/inc/clock_11xx.h **** #else
ARM GAS  /tmp/ccXw4jW7.s 			page 32


 284:../../lpc11cx4-library/lpc_chip_11cxx_lib/inc/clock_11xx.h **** 	SYSCTL_CLOCK_RESERVED27,			/*!< 27: Reserved */
 285:../../lpc11cx4-library/lpc_chip_11cxx_lib/inc/clock_11xx.h **** #endif
 286:../../lpc11cx4-library/lpc_chip_11cxx_lib/inc/clock_11xx.h **** #endif /* !defined(CHIP_LPC11CXX) */
 287:../../lpc11cx4-library/lpc_chip_11cxx_lib/inc/clock_11xx.h **** #endif /* !(defined(CHIP_LPC110X) || defined(CHIP_LPC11XXLV)) */
 288:../../lpc11cx4-library/lpc_chip_11cxx_lib/inc/clock_11xx.h **** } CHIP_SYSCTL_CLOCK_T;
 289:../../lpc11cx4-library/lpc_chip_11cxx_lib/inc/clock_11xx.h **** 
 290:../../lpc11cx4-library/lpc_chip_11cxx_lib/inc/clock_11xx.h **** /**
 291:../../lpc11cx4-library/lpc_chip_11cxx_lib/inc/clock_11xx.h ****  * @brief	Enable a system or peripheral clock
 292:../../lpc11cx4-library/lpc_chip_11cxx_lib/inc/clock_11xx.h ****  * @param	clk	: Clock to enable
 293:../../lpc11cx4-library/lpc_chip_11cxx_lib/inc/clock_11xx.h ****  * @return	Nothing
 294:../../lpc11cx4-library/lpc_chip_11cxx_lib/inc/clock_11xx.h ****  */
 295:../../lpc11cx4-library/lpc_chip_11cxx_lib/inc/clock_11xx.h **** STATIC INLINE void Chip_Clock_EnablePeriphClock(CHIP_SYSCTL_CLOCK_T clk)
 296:../../lpc11cx4-library/lpc_chip_11cxx_lib/inc/clock_11xx.h **** {
 297:../../lpc11cx4-library/lpc_chip_11cxx_lib/inc/clock_11xx.h **** 	LPC_SYSCTL->SYSAHBCLKCTRL |= (1 << clk);
 979              		.loc 2 297 0
 980 0010 2024     		movs	r4, #32	@ tmp130,
 981 0012 0948     		ldr	r0, .L100+8	@ tmp128,
 982              	.LVL52:
 983              	.LBE109:
 984              	.LBE108:
 985              	.LBE107:
 986              		.loc 1 374 0
 987 0014 DA60     		str	r2, [r3, #12]	@ tmp121, i2c.sEvent
 375:../../lpc11cx4-library/lpc_chip_11cxx_lib/src/i2c_11xx.c **** 	i2c.mXfer = NULL;
 988              		.loc 1 375 0
 989 0016 1A61     		str	r2, [r3, #16]	@ tmp121, i2c.mXfer
 376:../../lpc11cx4-library/lpc_chip_11cxx_lib/src/i2c_11xx.c **** 	i2c.sXfer = NULL;
 990              		.loc 1 376 0
 991 0018 5A61     		str	r2, [r3, #20]	@ tmp121, i2c.sXfer
 377:../../lpc11cx4-library/lpc_chip_11cxx_lib/src/i2c_11xx.c **** 	i2c.flags = 0;
 992              		.loc 1 377 0
 993 001a 9A61     		str	r2, [r3, #24]	@ tmp121, i2c.flags
 994              	.LVL53:
 371:../../lpc11cx4-library/lpc_chip_11cxx_lib/src/i2c_11xx.c **** 	i2c.clk = SYSCTL_CLOCK_I2C;
 995              		.loc 1 371 0
 996 001c C905     		lsls	r1, r1, #23	@ tmp114, tmp114,
 997              	.LBB116:
 998              	.LBB113:
 999              	.LBB110:
 1000              		.loc 2 297 0
 1001 001e 8032     		adds	r2, r2, #128	@ tmp129,
 1002              	.LBE110:
 1003              	.LBE113:
 1004              	.LBE116:
 371:../../lpc11cx4-library/lpc_chip_11cxx_lib/src/i2c_11xx.c **** 	i2c.clk = SYSCTL_CLOCK_I2C;
 1005              		.loc 1 371 0
 1006 0020 1960     		str	r1, [r3]	@ tmp114, i2c.ip
 1007              	.LBB117:
 1008              	.LBB114:
 1009              	.LBB111:
 1010              		.loc 2 297 0
 1011 0022 8358     		ldr	r3, [r0, r2]	@ _11, MEM[(struct LPC_SYSCTL_T *)1074036736B].SYSAHBCLKCTRL
 1012              	.LBE111:
 1013              	.LBE114:
 1014              	.LBE117:
 378:../../lpc11cx4-library/lpc_chip_11cxx_lib/src/i2c_11xx.c **** 
 379:../../lpc11cx4-library/lpc_chip_11cxx_lib/src/i2c_11xx.c **** 
ARM GAS  /tmp/ccXw4jW7.s 			page 33


 380:../../lpc11cx4-library/lpc_chip_11cxx_lib/src/i2c_11xx.c **** 	enableClk(id);
 381:../../lpc11cx4-library/lpc_chip_11cxx_lib/src/i2c_11xx.c **** 
 382:../../lpc11cx4-library/lpc_chip_11cxx_lib/src/i2c_11xx.c **** 	/* Set I2C operation to default */
 383:../../lpc11cx4-library/lpc_chip_11cxx_lib/src/i2c_11xx.c **** 	LPC_I2Cx(id)->CONCLR = (I2C_CON_AA | I2C_CON_SI | I2C_CON_STA | I2C_CON_I2EN);
 384:../../lpc11cx4-library/lpc_chip_11cxx_lib/src/i2c_11xx.c **** }
 1015              		.loc 1 384 0
 1016              		@ sp needed	@
 1017              	.LBB118:
 1018              	.LBB115:
 1019              	.LBB112:
 1020              		.loc 2 297 0
 1021 0024 2343     		orrs	r3, r4	@ _12, tmp130
 1022 0026 8350     		str	r3, [r0, r2]	@ _12, MEM[(struct LPC_SYSCTL_T *)1074036736B].SYSAHBCLKCTRL
 1023              	.LVL54:
 1024              	.LBE112:
 1025              	.LBE115:
 1026              	.LBE118:
 383:../../lpc11cx4-library/lpc_chip_11cxx_lib/src/i2c_11xx.c **** }
 1027              		.loc 1 383 0
 1028 0028 6C23     		movs	r3, #108	@ tmp134,
 1029 002a 8B61     		str	r3, [r1, #24]	@ tmp134, MEM[(struct LPC_I2C_T *)1073741824B].CONCLR
 1030              		.loc 1 384 0
 1031 002c 10BD     		pop	{r4, pc}
 1032              	.L101:
 1033 002e C046     		.align	2
 1034              	.L100:
 1035 0030 00000000 		.word	.LANCHOR0
 1036 0034 00000000 		.word	Chip_I2C_EventHandler
 1037 0038 00800440 		.word	1074036736
 1038              		.cfi_endproc
 1039              	.LFE214:
 1040              		.size	Chip_I2C_Init, .-Chip_I2C_Init
 1041              		.section	.text.Chip_I2C_DeInit,"ax",%progbits
 1042              		.align	1
 1043              		.p2align 2,,3
 1044              		.global	Chip_I2C_DeInit
 1045              		.syntax unified
 1046              		.code	16
 1047              		.thumb_func
 1048              		.fpu softvfp
 1049              		.type	Chip_I2C_DeInit, %function
 1050              	Chip_I2C_DeInit:
 1051              	.LFB215:
 385:../../lpc11cx4-library/lpc_chip_11cxx_lib/src/i2c_11xx.c **** 
 386:../../lpc11cx4-library/lpc_chip_11cxx_lib/src/i2c_11xx.c **** /* De-initializes the I2C peripheral registers to their default reset values */
 387:../../lpc11cx4-library/lpc_chip_11cxx_lib/src/i2c_11xx.c **** void Chip_I2C_DeInit(I2C_ID_T id)
 388:../../lpc11cx4-library/lpc_chip_11cxx_lib/src/i2c_11xx.c **** {
 1052              		.loc 1 388 0
 1053              		.cfi_startproc
 1054              		@ args = 0, pretend = 0, frame = 0
 1055              		@ frame_needed = 0, uses_anonymous_args = 0
 1056              	.LVL55:
 389:../../lpc11cx4-library/lpc_chip_11cxx_lib/src/i2c_11xx.c **** 	/* Disable I2C control */
 390:../../lpc11cx4-library/lpc_chip_11cxx_lib/src/i2c_11xx.c **** 	LPC_I2Cx(id)->CONCLR = I2C_CON_I2EN | I2C_CON_SI | I2C_CON_STO | I2C_CON_STA | I2C_CON_AA;
 1057              		.loc 1 390 0
 1058 0000 7C21     		movs	r1, #124	@ tmp120,
 388:../../lpc11cx4-library/lpc_chip_11cxx_lib/src/i2c_11xx.c **** 	/* Disable I2C control */
ARM GAS  /tmp/ccXw4jW7.s 			page 34


 1059              		.loc 1 388 0
 1060 0002 10B5     		push	{r4, lr}	@
 1061              		.cfi_def_cfa_offset 8
 1062              		.cfi_offset 4, -8
 1063              		.cfi_offset 14, -4
 1064              		.loc 1 390 0
 1065 0004 054A     		ldr	r2, .L103	@ tmp119,
 1066              	.LBB119:
 1067              	.LBB120:
 1068              	.LBB121:
 1069              	.LBB122:
 298:../../lpc11cx4-library/lpc_chip_11cxx_lib/inc/clock_11xx.h **** }
 299:../../lpc11cx4-library/lpc_chip_11cxx_lib/inc/clock_11xx.h **** 
 300:../../lpc11cx4-library/lpc_chip_11cxx_lib/inc/clock_11xx.h **** /**
 301:../../lpc11cx4-library/lpc_chip_11cxx_lib/inc/clock_11xx.h ****  * @brief	Disable a system or peripheral clock
 302:../../lpc11cx4-library/lpc_chip_11cxx_lib/inc/clock_11xx.h ****  * @param	clk	: Clock to disable
 303:../../lpc11cx4-library/lpc_chip_11cxx_lib/inc/clock_11xx.h ****  * @return	Nothing
 304:../../lpc11cx4-library/lpc_chip_11cxx_lib/inc/clock_11xx.h ****  */
 305:../../lpc11cx4-library/lpc_chip_11cxx_lib/inc/clock_11xx.h **** STATIC INLINE void Chip_Clock_DisablePeriphClock(CHIP_SYSCTL_CLOCK_T clk)
 306:../../lpc11cx4-library/lpc_chip_11cxx_lib/inc/clock_11xx.h **** {
 307:../../lpc11cx4-library/lpc_chip_11cxx_lib/inc/clock_11xx.h **** 	LPC_SYSCTL->SYSAHBCLKCTRL &= ~(1 << clk);
 1070              		.loc 2 307 0
 1071 0006 0648     		ldr	r0, .L103+4	@ tmp121,
 1072              	.LVL56:
 1073              	.LBE122:
 1074              	.LBE121:
 1075              	.LBE120:
 1076              	.LBE119:
 1077              		.loc 1 390 0
 1078 0008 1368     		ldr	r3, [r2]	@ _2, i2c.ip
 391:../../lpc11cx4-library/lpc_chip_11cxx_lib/src/i2c_11xx.c **** 
 392:../../lpc11cx4-library/lpc_chip_11cxx_lib/src/i2c_11xx.c **** 	disableClk(id);
 393:../../lpc11cx4-library/lpc_chip_11cxx_lib/src/i2c_11xx.c **** }
 1079              		.loc 1 393 0
 1080              		@ sp needed	@
 390:../../lpc11cx4-library/lpc_chip_11cxx_lib/src/i2c_11xx.c **** 
 1081              		.loc 1 390 0
 1082 000a 9961     		str	r1, [r3, #24]	@ tmp120, _2->CONCLR
 1083              	.LVL57:
 1084              	.LBB126:
 1085              	.LBB125:
 1086              	.LBB124:
 1087              	.LBB123:
 1088              		.loc 2 307 0
 1089 000c 1479     		ldrb	r4, [r2, #4]	@ tmp124,
 1090 000e 0122     		movs	r2, #1	@ tmp126,
 1091 0010 A240     		lsls	r2, r2, r4	@ tmp125, tmp126, tmp124
 1092 0012 0431     		adds	r1, r1, #4	@ tmp122,
 1093 0014 4358     		ldr	r3, [r0, r1]	@ _6, MEM[(struct LPC_SYSCTL_T *)1074036736B].SYSAHBCLKCTRL
 1094 0016 9343     		bics	r3, r2	@ _11, tmp125
 1095 0018 4350     		str	r3, [r0, r1]	@ _11, MEM[(struct LPC_SYSCTL_T *)1074036736B].SYSAHBCLKCTRL
 1096              	.LVL58:
 1097              	.LBE123:
 1098              	.LBE124:
 1099              	.LBE125:
 1100              	.LBE126:
 1101              		.loc 1 393 0
ARM GAS  /tmp/ccXw4jW7.s 			page 35


 1102 001a 10BD     		pop	{r4, pc}
 1103              	.L104:
 1104              		.align	2
 1105              	.L103:
 1106 001c 00000000 		.word	.LANCHOR0
 1107 0020 00800440 		.word	1074036736
 1108              		.cfi_endproc
 1109              	.LFE215:
 1110              		.size	Chip_I2C_DeInit, .-Chip_I2C_DeInit
 1111              		.global	__aeabi_uidiv
 1112              		.section	.text.Chip_I2C_SetClockRate,"ax",%progbits
 1113              		.align	1
 1114              		.p2align 2,,3
 1115              		.global	Chip_I2C_SetClockRate
 1116              		.syntax unified
 1117              		.code	16
 1118              		.thumb_func
 1119              		.fpu softvfp
 1120              		.type	Chip_I2C_SetClockRate, %function
 1121              	Chip_I2C_SetClockRate:
 1122              	.LFB216:
 394:../../lpc11cx4-library/lpc_chip_11cxx_lib/src/i2c_11xx.c **** 
 395:../../lpc11cx4-library/lpc_chip_11cxx_lib/src/i2c_11xx.c **** /* Set up clock rate for LPC_I2C peripheral */
 396:../../lpc11cx4-library/lpc_chip_11cxx_lib/src/i2c_11xx.c **** void Chip_I2C_SetClockRate(I2C_ID_T id, uint32_t clockrate)
 397:../../lpc11cx4-library/lpc_chip_11cxx_lib/src/i2c_11xx.c **** {
 1123              		.loc 1 397 0
 1124              		.cfi_startproc
 1125              		@ args = 0, pretend = 0, frame = 0
 1126              		@ frame_needed = 0, uses_anonymous_args = 0
 1127              	.LVL59:
 398:../../lpc11cx4-library/lpc_chip_11cxx_lib/src/i2c_11xx.c **** 	UNUSED(id);
 399:../../lpc11cx4-library/lpc_chip_11cxx_lib/src/i2c_11xx.c **** 	uint32_t SCLValue;
 400:../../lpc11cx4-library/lpc_chip_11cxx_lib/src/i2c_11xx.c **** 
 401:../../lpc11cx4-library/lpc_chip_11cxx_lib/src/i2c_11xx.c **** 	SCLValue = (getClkRate() / clockrate);
 1128              		.loc 1 401 0
 1129 0000 064B     		ldr	r3, .L106	@ tmp118,
 397:../../lpc11cx4-library/lpc_chip_11cxx_lib/src/i2c_11xx.c **** 	UNUSED(id);
 1130              		.loc 1 397 0
 1131 0002 10B5     		push	{r4, lr}	@
 1132              		.cfi_def_cfa_offset 8
 1133              		.cfi_offset 4, -8
 1134              		.cfi_offset 14, -4
 1135              		.loc 1 401 0
 1136 0004 1868     		ldr	r0, [r3]	@, SystemCoreClock
 1137              	.LVL60:
 1138 0006 FFF7FEFF 		bl	__aeabi_uidiv	@
 1139              	.LVL61:
 402:../../lpc11cx4-library/lpc_chip_11cxx_lib/src/i2c_11xx.c **** 	LPC_I2Cx(id)->SCLH = (uint32_t) (SCLValue >> 1);
 1140              		.loc 1 402 0
 1141 000a 054B     		ldr	r3, .L106+4	@ tmp122,
 1142 000c 4208     		lsrs	r2, r0, #1	@ _6, tmp121,
 1143 000e 1B68     		ldr	r3, [r3]	@ _5, i2c.ip
 403:../../lpc11cx4-library/lpc_chip_11cxx_lib/src/i2c_11xx.c **** 	LPC_I2Cx(id)->SCLL = (uint32_t) (SCLValue - LPC_I2Cx(id)->SCLH);
 404:../../lpc11cx4-library/lpc_chip_11cxx_lib/src/i2c_11xx.c **** }
 1144              		.loc 1 404 0
 1145              		@ sp needed	@
 402:../../lpc11cx4-library/lpc_chip_11cxx_lib/src/i2c_11xx.c **** 	LPC_I2Cx(id)->SCLH = (uint32_t) (SCLValue >> 1);
ARM GAS  /tmp/ccXw4jW7.s 			page 36


 1146              		.loc 1 402 0
 1147 0010 1A61     		str	r2, [r3, #16]	@ _6, _5->SCLH
 403:../../lpc11cx4-library/lpc_chip_11cxx_lib/src/i2c_11xx.c **** 	LPC_I2Cx(id)->SCLL = (uint32_t) (SCLValue - LPC_I2Cx(id)->SCLH);
 1148              		.loc 1 403 0
 1149 0012 1A69     		ldr	r2, [r3, #16]	@ _8, _5->SCLH
 1150 0014 801A     		subs	r0, r0, r2	@ _9, tmp121, _8
 1151              	.LVL62:
 1152 0016 5861     		str	r0, [r3, #20]	@ _9, _5->SCLL
 1153              		.loc 1 404 0
 1154 0018 10BD     		pop	{r4, pc}
 1155              	.L107:
 1156 001a C046     		.align	2
 1157              	.L106:
 1158 001c 00000000 		.word	SystemCoreClock
 1159 0020 00000000 		.word	.LANCHOR0
 1160              		.cfi_endproc
 1161              	.LFE216:
 1162              		.size	Chip_I2C_SetClockRate, .-Chip_I2C_SetClockRate
 1163              		.section	.text.Chip_I2C_GetClockRate,"ax",%progbits
 1164              		.align	1
 1165              		.p2align 2,,3
 1166              		.global	Chip_I2C_GetClockRate
 1167              		.syntax unified
 1168              		.code	16
 1169              		.thumb_func
 1170              		.fpu softvfp
 1171              		.type	Chip_I2C_GetClockRate, %function
 1172              	Chip_I2C_GetClockRate:
 1173              	.LFB217:
 405:../../lpc11cx4-library/lpc_chip_11cxx_lib/src/i2c_11xx.c **** 
 406:../../lpc11cx4-library/lpc_chip_11cxx_lib/src/i2c_11xx.c **** /* Get current clock rate for LPC_I2C peripheral */
 407:../../lpc11cx4-library/lpc_chip_11cxx_lib/src/i2c_11xx.c **** uint32_t Chip_I2C_GetClockRate(I2C_ID_T id)
 408:../../lpc11cx4-library/lpc_chip_11cxx_lib/src/i2c_11xx.c **** {
 1174              		.loc 1 408 0
 1175              		.cfi_startproc
 1176              		@ args = 0, pretend = 0, frame = 0
 1177              		@ frame_needed = 0, uses_anonymous_args = 0
 1178              	.LVL63:
 409:../../lpc11cx4-library/lpc_chip_11cxx_lib/src/i2c_11xx.c **** 	UNUSED(id);
 410:../../lpc11cx4-library/lpc_chip_11cxx_lib/src/i2c_11xx.c **** 	return getClkRate() / (LPC_I2Cx(id)->SCLH + LPC_I2Cx(id)->SCLL);
 1179              		.loc 1 410 0
 1180 0000 054B     		ldr	r3, .L109	@ tmp117,
 408:../../lpc11cx4-library/lpc_chip_11cxx_lib/src/i2c_11xx.c **** 	UNUSED(id);
 1181              		.loc 1 408 0
 1182 0002 10B5     		push	{r4, lr}	@
 1183              		.cfi_def_cfa_offset 8
 1184              		.cfi_offset 4, -8
 1185              		.cfi_offset 14, -4
 1186              		.loc 1 410 0
 1187 0004 1B68     		ldr	r3, [r3]	@ _3, i2c.ip
 411:../../lpc11cx4-library/lpc_chip_11cxx_lib/src/i2c_11xx.c **** }
 1188              		.loc 1 411 0
 1189              		@ sp needed	@
 410:../../lpc11cx4-library/lpc_chip_11cxx_lib/src/i2c_11xx.c **** }
 1190              		.loc 1 410 0
 1191 0006 1969     		ldr	r1, [r3, #16]	@ _4, _3->SCLH
 1192 0008 5B69     		ldr	r3, [r3, #20]	@ _5, _3->SCLL
ARM GAS  /tmp/ccXw4jW7.s 			page 37


 1193 000a C918     		adds	r1, r1, r3	@ tmp120, _4, _5
 1194 000c 034B     		ldr	r3, .L109+4	@ tmp119,
 1195 000e 1868     		ldr	r0, [r3]	@, SystemCoreClock
 1196              	.LVL64:
 1197 0010 FFF7FEFF 		bl	__aeabi_uidiv	@
 1198              	.LVL65:
 1199              		.loc 1 411 0
 1200 0014 10BD     		pop	{r4, pc}
 1201              	.L110:
 1202 0016 C046     		.align	2
 1203              	.L109:
 1204 0018 00000000 		.word	.LANCHOR0
 1205 001c 00000000 		.word	SystemCoreClock
 1206              		.cfi_endproc
 1207              	.LFE217:
 1208              		.size	Chip_I2C_GetClockRate, .-Chip_I2C_GetClockRate
 1209              		.section	.text.Chip_I2C_SetMasterEventHandler,"ax",%progbits
 1210              		.align	1
 1211              		.p2align 2,,3
 1212              		.global	Chip_I2C_SetMasterEventHandler
 1213              		.syntax unified
 1214              		.code	16
 1215              		.thumb_func
 1216              		.fpu softvfp
 1217              		.type	Chip_I2C_SetMasterEventHandler, %function
 1218              	Chip_I2C_SetMasterEventHandler:
 1219              	.LFB218:
 412:../../lpc11cx4-library/lpc_chip_11cxx_lib/src/i2c_11xx.c **** 
 413:../../lpc11cx4-library/lpc_chip_11cxx_lib/src/i2c_11xx.c **** /* Set the master event handler */
 414:../../lpc11cx4-library/lpc_chip_11cxx_lib/src/i2c_11xx.c **** int Chip_I2C_SetMasterEventHandler(I2C_ID_T id, I2C_EVENTHANDLER_T event)
 415:../../lpc11cx4-library/lpc_chip_11cxx_lib/src/i2c_11xx.c **** {
 1220              		.loc 1 415 0
 1221              		.cfi_startproc
 1222              		@ args = 0, pretend = 0, frame = 0
 1223              		@ frame_needed = 0, uses_anonymous_args = 0
 1224              		@ link register save eliminated.
 1225              	.LVL66:
 416:../../lpc11cx4-library/lpc_chip_11cxx_lib/src/i2c_11xx.c **** 	UNUSED(id);
 417:../../lpc11cx4-library/lpc_chip_11cxx_lib/src/i2c_11xx.c **** 	struct i2c_interface *iic = &i2c; 
 418:../../lpc11cx4-library/lpc_chip_11cxx_lib/src/i2c_11xx.c **** 	if (!iic->mXfer) {
 1226              		.loc 1 418 0
 1227 0000 064B     		ldr	r3, .L114	@ tmp116,
 1228 0002 1A69     		ldr	r2, [r3, #16]	@ tmp126, i2c.mXfer
 1229 0004 002A     		cmp	r2, #0	@ tmp126,
 1230 0006 05D0     		beq	.L112	@,
 1231 0008 9868     		ldr	r0, [r3, #8]	@ i2c.mEvent, i2c.mEvent
 1232              	.LVL67:
 1233 000a 401A     		subs	r0, r0, r1	@ tmp122, i2c.mEvent, event
 1234 000c 4342     		rsbs	r3, r0, #0	@ <retval>, tmp122
 1235 000e 4341     		adcs	r3, r3, r0	@ <retval>, tmp122
 1236              	.LVL68:
 1237              	.L111:
 419:../../lpc11cx4-library/lpc_chip_11cxx_lib/src/i2c_11xx.c **** 		iic->mEvent = event;
 420:../../lpc11cx4-library/lpc_chip_11cxx_lib/src/i2c_11xx.c **** 	}
 421:../../lpc11cx4-library/lpc_chip_11cxx_lib/src/i2c_11xx.c **** 	return iic->mEvent == event;
 422:../../lpc11cx4-library/lpc_chip_11cxx_lib/src/i2c_11xx.c **** }
 1238              		.loc 1 422 0
ARM GAS  /tmp/ccXw4jW7.s 			page 38


 1239 0010 1800     		movs	r0, r3	@, <retval>
 1240              		@ sp needed	@
 1241 0012 7047     		bx	lr
 1242              	.LVL69:
 1243              	.L112:
 419:../../lpc11cx4-library/lpc_chip_11cxx_lib/src/i2c_11xx.c **** 		iic->mEvent = event;
 1244              		.loc 1 419 0
 1245 0014 9960     		str	r1, [r3, #8]	@ event, i2c.mEvent
 1246 0016 0123     		movs	r3, #1	@ <retval>,
 421:../../lpc11cx4-library/lpc_chip_11cxx_lib/src/i2c_11xx.c **** }
 1247              		.loc 1 421 0
 1248 0018 FAE7     		b	.L111	@
 1249              	.L115:
 1250 001a C046     		.align	2
 1251              	.L114:
 1252 001c 00000000 		.word	.LANCHOR0
 1253              		.cfi_endproc
 1254              	.LFE218:
 1255              		.size	Chip_I2C_SetMasterEventHandler, .-Chip_I2C_SetMasterEventHandler
 1256              		.section	.text.Chip_I2C_GetMasterEventHandler,"ax",%progbits
 1257              		.align	1
 1258              		.p2align 2,,3
 1259              		.global	Chip_I2C_GetMasterEventHandler
 1260              		.syntax unified
 1261              		.code	16
 1262              		.thumb_func
 1263              		.fpu softvfp
 1264              		.type	Chip_I2C_GetMasterEventHandler, %function
 1265              	Chip_I2C_GetMasterEventHandler:
 1266              	.LFB219:
 423:../../lpc11cx4-library/lpc_chip_11cxx_lib/src/i2c_11xx.c **** 
 424:../../lpc11cx4-library/lpc_chip_11cxx_lib/src/i2c_11xx.c **** /* Get the master event handler */
 425:../../lpc11cx4-library/lpc_chip_11cxx_lib/src/i2c_11xx.c **** I2C_EVENTHANDLER_T Chip_I2C_GetMasterEventHandler(I2C_ID_T id)
 426:../../lpc11cx4-library/lpc_chip_11cxx_lib/src/i2c_11xx.c **** {
 1267              		.loc 1 426 0
 1268              		.cfi_startproc
 1269              		@ args = 0, pretend = 0, frame = 0
 1270              		@ frame_needed = 0, uses_anonymous_args = 0
 1271              		@ link register save eliminated.
 1272              	.LVL70:
 427:../../lpc11cx4-library/lpc_chip_11cxx_lib/src/i2c_11xx.c **** 	UNUSED(id);
 428:../../lpc11cx4-library/lpc_chip_11cxx_lib/src/i2c_11xx.c **** 	return i2c.mEvent;
 1273              		.loc 1 428 0
 1274 0000 014B     		ldr	r3, .L117	@ tmp113,
 429:../../lpc11cx4-library/lpc_chip_11cxx_lib/src/i2c_11xx.c **** }
 1275              		.loc 1 429 0
 1276              		@ sp needed	@
 428:../../lpc11cx4-library/lpc_chip_11cxx_lib/src/i2c_11xx.c **** }
 1277              		.loc 1 428 0
 1278 0002 9868     		ldr	r0, [r3, #8]	@ i2c.mEvent, i2c.mEvent
 1279              	.LVL71:
 1280              		.loc 1 429 0
 1281 0004 7047     		bx	lr
 1282              	.L118:
 1283 0006 C046     		.align	2
 1284              	.L117:
 1285 0008 00000000 		.word	.LANCHOR0
ARM GAS  /tmp/ccXw4jW7.s 			page 39


 1286              		.cfi_endproc
 1287              	.LFE219:
 1288              		.size	Chip_I2C_GetMasterEventHandler, .-Chip_I2C_GetMasterEventHandler
 1289              		.section	.text.Chip_I2C_MasterTransfer,"ax",%progbits
 1290              		.align	1
 1291              		.p2align 2,,3
 1292              		.global	Chip_I2C_MasterTransfer
 1293              		.syntax unified
 1294              		.code	16
 1295              		.thumb_func
 1296              		.fpu softvfp
 1297              		.type	Chip_I2C_MasterTransfer, %function
 1298              	Chip_I2C_MasterTransfer:
 1299              	.LFB220:
 430:../../lpc11cx4-library/lpc_chip_11cxx_lib/src/i2c_11xx.c **** 
 431:../../lpc11cx4-library/lpc_chip_11cxx_lib/src/i2c_11xx.c **** /* Transmit and Receive data in master mode */
 432:../../lpc11cx4-library/lpc_chip_11cxx_lib/src/i2c_11xx.c **** int Chip_I2C_MasterTransfer(I2C_ID_T id, I2C_XFER_T *xfer)
 433:../../lpc11cx4-library/lpc_chip_11cxx_lib/src/i2c_11xx.c **** {
 1300              		.loc 1 433 0
 1301              		.cfi_startproc
 1302              		@ args = 0, pretend = 0, frame = 0
 1303              		@ frame_needed = 0, uses_anonymous_args = 0
 1304              	.LVL72:
 1305 0000 70B5     		push	{r4, r5, r6, lr}	@
 1306              		.cfi_def_cfa_offset 16
 1307              		.cfi_offset 4, -16
 1308              		.cfi_offset 5, -12
 1309              		.cfi_offset 6, -8
 1310              		.cfi_offset 14, -4
 434:../../lpc11cx4-library/lpc_chip_11cxx_lib/src/i2c_11xx.c **** 	struct i2c_interface *iic = &i2c;
 435:../../lpc11cx4-library/lpc_chip_11cxx_lib/src/i2c_11xx.c **** 
 436:../../lpc11cx4-library/lpc_chip_11cxx_lib/src/i2c_11xx.c **** 	i2c.mEvent(id, I2C_EVENT_LOCK);
 1311              		.loc 1 436 0
 1312 0002 164C     		ldr	r4, .L128	@ tmp150,
 433:../../lpc11cx4-library/lpc_chip_11cxx_lib/src/i2c_11xx.c **** 	struct i2c_interface *iic = &i2c;
 1313              		.loc 1 433 0
 1314 0004 0D00     		movs	r5, r1	@ xfer, xfer
 1315              		.loc 1 436 0
 1316 0006 A368     		ldr	r3, [r4, #8]	@ tmp152, i2c.mEvent
 1317 0008 0321     		movs	r1, #3	@,
 1318              	.LVL73:
 433:../../lpc11cx4-library/lpc_chip_11cxx_lib/src/i2c_11xx.c **** 	struct i2c_interface *iic = &i2c;
 1319              		.loc 1 433 0
 1320 000a 0600     		movs	r6, r0	@ id, id
 1321              		.loc 1 436 0
 1322 000c 9847     		blx	r3	@ tmp152
 1323              	.LVL74:
 437:../../lpc11cx4-library/lpc_chip_11cxx_lib/src/i2c_11xx.c **** 	xfer->status = I2C_STATUS_BUSY;
 1324              		.loc 1 437 0
 1325 000e 0423     		movs	r3, #4	@ tmp126,
 1326 0010 2B75     		strb	r3, [r5, #20]	@ tmp126, xfer_8(D)->status
 438:../../lpc11cx4-library/lpc_chip_11cxx_lib/src/i2c_11xx.c **** 	iic->mXfer = xfer;
 439:../../lpc11cx4-library/lpc_chip_11cxx_lib/src/i2c_11xx.c **** 	/* If slave xfer not in progress */
 440:../../lpc11cx4-library/lpc_chip_11cxx_lib/src/i2c_11xx.c **** 	if (!iic->sXfer) {
 1327              		.loc 1 440 0
 1328 0012 6369     		ldr	r3, [r4, #20]	@ tmp154, i2c.sXfer
 438:../../lpc11cx4-library/lpc_chip_11cxx_lib/src/i2c_11xx.c **** 	iic->mXfer = xfer;
ARM GAS  /tmp/ccXw4jW7.s 			page 40


 1329              		.loc 1 438 0
 1330 0014 2561     		str	r5, [r4, #16]	@ xfer, i2c.mXfer
 1331              		.loc 1 440 0
 1332 0016 002B     		cmp	r3, #0	@ tmp154,
 1333 0018 19D0     		beq	.L127	@,
 1334              	.L120:
 441:../../lpc11cx4-library/lpc_chip_11cxx_lib/src/i2c_11xx.c **** 		startMasterXfer(iic->ip);
 442:../../lpc11cx4-library/lpc_chip_11cxx_lib/src/i2c_11xx.c **** 	} 
 443:../../lpc11cx4-library/lpc_chip_11cxx_lib/src/i2c_11xx.c **** 	i2c.mEvent(id, I2C_EVENT_WAIT);
 1335              		.loc 1 443 0
 1336 001a 0121     		movs	r1, #1	@,
 1337 001c A368     		ldr	r3, [r4, #8]	@ tmp155, i2c.mEvent
 1338 001e 3000     		movs	r0, r6	@, id
 1339 0020 9847     		blx	r3	@ tmp155
 1340              	.LVL75:
 444:../../lpc11cx4-library/lpc_chip_11cxx_lib/src/i2c_11xx.c **** 	iic->mXfer = 0;
 1341              		.loc 1 444 0
 1342 0022 0023     		movs	r3, #0	@ tmp137,
 1343              	.LBB127:
 1344              	.LBB128:
 118:../../lpc11cx4-library/lpc_chip_11cxx_lib/src/i2c_11xx.c **** }
 1345              		.loc 1 118 0
 1346 0024 1021     		movs	r1, #16	@ tmp139,
 1347 0026 2268     		ldr	r2, [r4]	@ pretmp_2, i2c.ip
 1348              	.LBE128:
 1349              	.LBE127:
 1350              		.loc 1 444 0
 1351 0028 2361     		str	r3, [r4, #16]	@ tmp137, i2c.mXfer
 1352              	.L121:
 1353              	.LVL76:
 1354              	.LBB130:
 1355              	.LBB129:
 118:../../lpc11cx4-library/lpc_chip_11cxx_lib/src/i2c_11xx.c **** }
 1356              		.loc 1 118 0 discriminator 1
 1357 002a 1368     		ldr	r3, [r2]	@ _23, pretmp_2->CONSET
 1358              	.LVL77:
 1359              	.LBE129:
 1360              	.LBE130:
 445:../../lpc11cx4-library/lpc_chip_11cxx_lib/src/i2c_11xx.c **** 
 446:../../lpc11cx4-library/lpc_chip_11cxx_lib/src/i2c_11xx.c **** 	/* Wait for stop condition to appear on bus */
 447:../../lpc11cx4-library/lpc_chip_11cxx_lib/src/i2c_11xx.c **** 	while (!isI2CBusFree(iic->ip)) {}
 1361              		.loc 1 447 0 discriminator 1
 1362 002c 1942     		tst	r1, r3	@ tmp139, _23
 1363 002e FCD1     		bne	.L121	@,
 448:../../lpc11cx4-library/lpc_chip_11cxx_lib/src/i2c_11xx.c **** 
 449:../../lpc11cx4-library/lpc_chip_11cxx_lib/src/i2c_11xx.c **** 	/* Start slave if one is active */
 450:../../lpc11cx4-library/lpc_chip_11cxx_lib/src/i2c_11xx.c **** 	if (SLAVE_ACTIVE(iic)) {
 1364              		.loc 1 450 0
 1365 0030 FF23     		movs	r3, #255	@ tmp144,
 1366 0032 A169     		ldr	r1, [r4, #24]	@ tmp157, i2c.flags
 1367 0034 1B02     		lsls	r3, r3, #8	@ tmp144, tmp144,
 1368 0036 1942     		tst	r1, r3	@ tmp157, tmp144
 1369 0038 03D0     		beq	.L122	@,
 1370              	.LVL78:
 1371              	.LBB131:
 1372              	.LBB132:
 109:../../lpc11cx4-library/lpc_chip_11cxx_lib/src/i2c_11xx.c **** 
ARM GAS  /tmp/ccXw4jW7.s 			page 41


 1373              		.loc 1 109 0
 1374 003a 3823     		movs	r3, #56	@ tmp145,
 1375 003c 9361     		str	r3, [r2, #24]	@ tmp145, pretmp_2->CONCLR
 112:../../lpc11cx4-library/lpc_chip_11cxx_lib/src/i2c_11xx.c **** }
 1376              		.loc 1 112 0
 1377 003e 0C33     		adds	r3, r3, #12	@ tmp146,
 1378 0040 1360     		str	r3, [r2]	@ tmp146, pretmp_2->CONSET
 1379              	.LVL79:
 1380              	.L122:
 1381              	.LBE132:
 1382              	.LBE131:
 451:../../lpc11cx4-library/lpc_chip_11cxx_lib/src/i2c_11xx.c **** 		startSlaverXfer(iic->ip);
 452:../../lpc11cx4-library/lpc_chip_11cxx_lib/src/i2c_11xx.c **** 	}
 453:../../lpc11cx4-library/lpc_chip_11cxx_lib/src/i2c_11xx.c **** 
 454:../../lpc11cx4-library/lpc_chip_11cxx_lib/src/i2c_11xx.c **** 	i2c.mEvent(id, I2C_EVENT_UNLOCK);
 1383              		.loc 1 454 0
 1384 0042 3000     		movs	r0, r6	@, id
 1385 0044 A368     		ldr	r3, [r4, #8]	@ i2c.mEvent, i2c.mEvent
 1386 0046 0421     		movs	r1, #4	@,
 1387 0048 9847     		blx	r3	@ i2c.mEvent
 1388              	.LVL80:
 455:../../lpc11cx4-library/lpc_chip_11cxx_lib/src/i2c_11xx.c **** 	return (int) xfer->status;
 456:../../lpc11cx4-library/lpc_chip_11cxx_lib/src/i2c_11xx.c **** }
 1389              		.loc 1 456 0
 1390              		@ sp needed	@
 455:../../lpc11cx4-library/lpc_chip_11cxx_lib/src/i2c_11xx.c **** 	return (int) xfer->status;
 1391              		.loc 1 455 0
 1392 004a 287D     		ldrb	r0, [r5, #20]	@ tmp149,
 1393              	.LVL81:
 1394              		.loc 1 456 0
 1395 004c 70BD     		pop	{r4, r5, r6, pc}
 1396              	.LVL82:
 1397              	.L127:
 1398              	.LBB133:
 1399              	.LBB134:
  99:../../lpc11cx4-library/lpc_chip_11cxx_lib/src/i2c_11xx.c **** 
 1400              		.loc 1 99 0
 1401 004e 3C22     		movs	r2, #60	@ tmp132,
 1402              	.LBE134:
 1403              	.LBE133:
 441:../../lpc11cx4-library/lpc_chip_11cxx_lib/src/i2c_11xx.c **** 	} 
 1404              		.loc 1 441 0
 1405 0050 2368     		ldr	r3, [r4]	@ _12, i2c.ip
 1406              	.LVL83:
 1407              	.LBB136:
 1408              	.LBB135:
  99:../../lpc11cx4-library/lpc_chip_11cxx_lib/src/i2c_11xx.c **** 
 1409              		.loc 1 99 0
 1410 0052 9A61     		str	r2, [r3, #24]	@ tmp132, _12->CONCLR
 102:../../lpc11cx4-library/lpc_chip_11cxx_lib/src/i2c_11xx.c **** }
 1411              		.loc 1 102 0
 1412 0054 2432     		adds	r2, r2, #36	@ tmp133,
 1413 0056 1A60     		str	r2, [r3]	@ tmp133, _12->CONSET
 1414 0058 DFE7     		b	.L120	@
 1415              	.L129:
 1416 005a C046     		.align	2
 1417              	.L128:
ARM GAS  /tmp/ccXw4jW7.s 			page 42


 1418 005c 00000000 		.word	.LANCHOR0
 1419              	.LBE135:
 1420              	.LBE136:
 1421              		.cfi_endproc
 1422              	.LFE220:
 1423              		.size	Chip_I2C_MasterTransfer, .-Chip_I2C_MasterTransfer
 1424              		.section	.text.Chip_I2C_MasterSend,"ax",%progbits
 1425              		.align	1
 1426              		.p2align 2,,3
 1427              		.global	Chip_I2C_MasterSend
 1428              		.syntax unified
 1429              		.code	16
 1430              		.thumb_func
 1431              		.fpu softvfp
 1432              		.type	Chip_I2C_MasterSend, %function
 1433              	Chip_I2C_MasterSend:
 1434              	.LFB221:
 457:../../lpc11cx4-library/lpc_chip_11cxx_lib/src/i2c_11xx.c **** 
 458:../../lpc11cx4-library/lpc_chip_11cxx_lib/src/i2c_11xx.c **** /* Master tx only */
 459:../../lpc11cx4-library/lpc_chip_11cxx_lib/src/i2c_11xx.c **** int Chip_I2C_MasterSend(I2C_ID_T id, uint8_t slaveAddr, const uint8_t *buff, uint8_t len)
 460:../../lpc11cx4-library/lpc_chip_11cxx_lib/src/i2c_11xx.c **** {
 1435              		.loc 1 460 0
 1436              		.cfi_startproc
 1437              		@ args = 0, pretend = 0, frame = 24
 1438              		@ frame_needed = 0, uses_anonymous_args = 0
 1439              	.LVL84:
 1440 0000 30B5     		push	{r4, r5, lr}	@
 1441              		.cfi_def_cfa_offset 12
 1442              		.cfi_offset 4, -12
 1443              		.cfi_offset 5, -8
 1444              		.cfi_offset 14, -4
 1445 0002 87B0     		sub	sp, sp, #28	@,,
 1446              		.cfi_def_cfa_offset 40
 1447              		.loc 1 460 0
 1448 0004 1D00     		movs	r5, r3	@ len, len
 461:../../lpc11cx4-library/lpc_chip_11cxx_lib/src/i2c_11xx.c **** 	I2C_XFER_T xfer;
 462:../../lpc11cx4-library/lpc_chip_11cxx_lib/src/i2c_11xx.c **** 	xfer.slaveAddr = slaveAddr;
 1449              		.loc 1 462 0
 1450 0006 6B46     		mov	r3, sp	@ tmp129,
 1451              	.LVL85:
 1452 0008 1970     		strb	r1, [r3]	@ slaveAddr, xfer.slaveAddr
 463:../../lpc11cx4-library/lpc_chip_11cxx_lib/src/i2c_11xx.c **** 	xfer.txBuff = buff;
 464:../../lpc11cx4-library/lpc_chip_11cxx_lib/src/i2c_11xx.c **** 	xfer.txSz = len;
 465:../../lpc11cx4-library/lpc_chip_11cxx_lib/src/i2c_11xx.c **** 	xfer.rxSz = 0;
 1453              		.loc 1 465 0
 1454 000a 0023     		movs	r3, #0	@ tmp123,
 460:../../lpc11cx4-library/lpc_chip_11cxx_lib/src/i2c_11xx.c **** 	I2C_XFER_T xfer;
 1455              		.loc 1 460 0
 1456 000c 0400     		movs	r4, r0	@ id, id
 463:../../lpc11cx4-library/lpc_chip_11cxx_lib/src/i2c_11xx.c **** 	xfer.txBuff = buff;
 1457              		.loc 1 463 0
 1458 000e 0192     		str	r2, [sp, #4]	@ buff, xfer.txBuff
 464:../../lpc11cx4-library/lpc_chip_11cxx_lib/src/i2c_11xx.c **** 	xfer.rxSz = 0;
 1459              		.loc 1 464 0
 1460 0010 0295     		str	r5, [sp, #8]	@ len, xfer.txSz
 1461              		.loc 1 465 0
 1462 0012 0493     		str	r3, [sp, #16]	@ tmp123, xfer.rxSz
ARM GAS  /tmp/ccXw4jW7.s 			page 43


 1463              	.LVL86:
 1464              	.L131:
 466:../../lpc11cx4-library/lpc_chip_11cxx_lib/src/i2c_11xx.c **** 	while (Chip_I2C_MasterTransfer(id, &xfer) == I2C_STATUS_ARBLOST) {}
 1465              		.loc 1 466 0 discriminator 1
 1466 0014 6946     		mov	r1, sp	@,
 1467 0016 2000     		movs	r0, r4	@, id
 1468 0018 FFF7FEFF 		bl	Chip_I2C_MasterTransfer	@
 1469              	.LVL87:
 1470 001c 0228     		cmp	r0, #2	@ _13,
 1471 001e F9D0     		beq	.L131	@,
 467:../../lpc11cx4-library/lpc_chip_11cxx_lib/src/i2c_11xx.c **** 	return len - xfer.txSz;
 1472              		.loc 1 467 0
 1473 0020 0298     		ldr	r0, [sp, #8]	@ xfer.txSz, xfer.txSz
 1474 0022 281A     		subs	r0, r5, r0	@ <retval>, len, xfer.txSz
 468:../../lpc11cx4-library/lpc_chip_11cxx_lib/src/i2c_11xx.c **** }
 1475              		.loc 1 468 0
 1476 0024 07B0     		add	sp, sp, #28	@,,
 1477              		@ sp needed	@
 1478 0026 30BD     		pop	{r4, r5, pc}
 1479              		.cfi_endproc
 1480              	.LFE221:
 1481              		.size	Chip_I2C_MasterSend, .-Chip_I2C_MasterSend
 1482              		.section	.text.Chip_I2C_MasterCmdRead,"ax",%progbits
 1483              		.align	1
 1484              		.p2align 2,,3
 1485              		.global	Chip_I2C_MasterCmdRead
 1486              		.syntax unified
 1487              		.code	16
 1488              		.thumb_func
 1489              		.fpu softvfp
 1490              		.type	Chip_I2C_MasterCmdRead, %function
 1491              	Chip_I2C_MasterCmdRead:
 1492              	.LFB222:
 469:../../lpc11cx4-library/lpc_chip_11cxx_lib/src/i2c_11xx.c **** 
 470:../../lpc11cx4-library/lpc_chip_11cxx_lib/src/i2c_11xx.c **** /* Transmit one byte and receive an array of bytes after a repeated start condition is generated in
 471:../../lpc11cx4-library/lpc_chip_11cxx_lib/src/i2c_11xx.c ****  * This function is useful for communicating with the I2C slave registers
 472:../../lpc11cx4-library/lpc_chip_11cxx_lib/src/i2c_11xx.c ****  */
 473:../../lpc11cx4-library/lpc_chip_11cxx_lib/src/i2c_11xx.c **** int Chip_I2C_MasterCmdRead(I2C_ID_T id, uint8_t slaveAddr, uint8_t cmd, uint8_t *buff, int len)
 474:../../lpc11cx4-library/lpc_chip_11cxx_lib/src/i2c_11xx.c **** {
 1493              		.loc 1 474 0
 1494              		.cfi_startproc
 1495              		@ args = 4, pretend = 0, frame = 32
 1496              		@ frame_needed = 0, uses_anonymous_args = 0
 1497              	.LVL88:
 1498 0000 70B5     		push	{r4, r5, r6, lr}	@
 1499              		.cfi_def_cfa_offset 16
 1500              		.cfi_offset 4, -16
 1501              		.cfi_offset 5, -12
 1502              		.cfi_offset 6, -8
 1503              		.cfi_offset 14, -4
 1504 0002 88B0     		sub	sp, sp, #32	@,,
 1505              		.cfi_def_cfa_offset 48
 1506              		.loc 1 474 0
 1507 0004 0500     		movs	r5, r0	@ id, id
 1508 0006 6846     		mov	r0, sp	@ tmp133,
 1509              	.LVL89:
 1510 0008 C271     		strb	r2, [r0, #7]	@ cmd, cmd
ARM GAS  /tmp/ccXw4jW7.s 			page 44


 475:../../lpc11cx4-library/lpc_chip_11cxx_lib/src/i2c_11xx.c **** 	I2C_XFER_T xfer;
 476:../../lpc11cx4-library/lpc_chip_11cxx_lib/src/i2c_11xx.c **** 	xfer.slaveAddr = slaveAddr;
 477:../../lpc11cx4-library/lpc_chip_11cxx_lib/src/i2c_11xx.c **** 	xfer.txBuff = &cmd;
 478:../../lpc11cx4-library/lpc_chip_11cxx_lib/src/i2c_11xx.c **** 	xfer.txSz = 1;
 1511              		.loc 1 478 0
 1512 000a 0122     		movs	r2, #1	@ tmp125,
 1513              	.LVL90:
 474:../../lpc11cx4-library/lpc_chip_11cxx_lib/src/i2c_11xx.c **** 	I2C_XFER_T xfer;
 1514              		.loc 1 474 0
 1515 000c 0C9E     		ldr	r6, [sp, #48]	@ len, len
 476:../../lpc11cx4-library/lpc_chip_11cxx_lib/src/i2c_11xx.c **** 	xfer.txBuff = &cmd;
 1516              		.loc 1 476 0
 1517 000e 02AC     		add	r4, sp, #8	@ tmp132,,
 474:../../lpc11cx4-library/lpc_chip_11cxx_lib/src/i2c_11xx.c **** 	I2C_XFER_T xfer;
 1518              		.loc 1 474 0
 1519 0010 0730     		adds	r0, r0, #7	@ tmp116,
 1520              	.LVL91:
 476:../../lpc11cx4-library/lpc_chip_11cxx_lib/src/i2c_11xx.c **** 	xfer.txBuff = &cmd;
 1521              		.loc 1 476 0
 1522 0012 2170     		strb	r1, [r4]	@ slaveAddr, xfer.slaveAddr
 477:../../lpc11cx4-library/lpc_chip_11cxx_lib/src/i2c_11xx.c **** 	xfer.txSz = 1;
 1523              		.loc 1 477 0
 1524 0014 6060     		str	r0, [r4, #4]	@ tmp116, xfer.txBuff
 1525              		.loc 1 478 0
 1526 0016 A260     		str	r2, [r4, #8]	@ tmp125, xfer.txSz
 479:../../lpc11cx4-library/lpc_chip_11cxx_lib/src/i2c_11xx.c **** 	xfer.rxBuff = buff;
 1527              		.loc 1 479 0
 1528 0018 E360     		str	r3, [r4, #12]	@ buff, xfer.rxBuff
 480:../../lpc11cx4-library/lpc_chip_11cxx_lib/src/i2c_11xx.c **** 	xfer.rxSz = len;
 1529              		.loc 1 480 0
 1530 001a 2661     		str	r6, [r4, #16]	@ len, xfer.rxSz
 1531              	.LVL92:
 1532              	.L135:
 481:../../lpc11cx4-library/lpc_chip_11cxx_lib/src/i2c_11xx.c **** 	while (Chip_I2C_MasterTransfer(id, &xfer) == I2C_STATUS_ARBLOST) {}
 1533              		.loc 1 481 0 discriminator 1
 1534 001c 2100     		movs	r1, r4	@, tmp132
 1535 001e 2800     		movs	r0, r5	@, id
 1536 0020 FFF7FEFF 		bl	Chip_I2C_MasterTransfer	@
 1537              	.LVL93:
 1538 0024 0228     		cmp	r0, #2	@ _13,
 1539 0026 F9D0     		beq	.L135	@,
 482:../../lpc11cx4-library/lpc_chip_11cxx_lib/src/i2c_11xx.c **** 	return len - xfer.rxSz;
 1540              		.loc 1 482 0
 1541 0028 2069     		ldr	r0, [r4, #16]	@ xfer.rxSz, xfer.rxSz
 1542 002a 301A     		subs	r0, r6, r0	@ <retval>, len, xfer.rxSz
 483:../../lpc11cx4-library/lpc_chip_11cxx_lib/src/i2c_11xx.c **** }
 1543              		.loc 1 483 0
 1544 002c 08B0     		add	sp, sp, #32	@,,
 1545              		@ sp needed	@
 1546 002e 70BD     		pop	{r4, r5, r6, pc}
 1547              		.cfi_endproc
 1548              	.LFE222:
 1549              		.size	Chip_I2C_MasterCmdRead, .-Chip_I2C_MasterCmdRead
 1550              		.section	.text.Chip_I2C_MasterRead,"ax",%progbits
 1551              		.align	1
 1552              		.p2align 2,,3
 1553              		.global	Chip_I2C_MasterRead
ARM GAS  /tmp/ccXw4jW7.s 			page 45


 1554              		.syntax unified
 1555              		.code	16
 1556              		.thumb_func
 1557              		.fpu softvfp
 1558              		.type	Chip_I2C_MasterRead, %function
 1559              	Chip_I2C_MasterRead:
 1560              	.LFB223:
 484:../../lpc11cx4-library/lpc_chip_11cxx_lib/src/i2c_11xx.c **** 
 485:../../lpc11cx4-library/lpc_chip_11cxx_lib/src/i2c_11xx.c **** /* Sequential master read */
 486:../../lpc11cx4-library/lpc_chip_11cxx_lib/src/i2c_11xx.c **** int Chip_I2C_MasterRead(I2C_ID_T id, uint8_t slaveAddr, uint8_t *buff, int len)
 487:../../lpc11cx4-library/lpc_chip_11cxx_lib/src/i2c_11xx.c **** {
 1561              		.loc 1 487 0
 1562              		.cfi_startproc
 1563              		@ args = 0, pretend = 0, frame = 24
 1564              		@ frame_needed = 0, uses_anonymous_args = 0
 1565              	.LVL94:
 1566 0000 30B5     		push	{r4, r5, lr}	@
 1567              		.cfi_def_cfa_offset 12
 1568              		.cfi_offset 4, -12
 1569              		.cfi_offset 5, -8
 1570              		.cfi_offset 14, -4
 1571 0002 87B0     		sub	sp, sp, #28	@,,
 1572              		.cfi_def_cfa_offset 40
 1573              		.loc 1 487 0
 1574 0004 1D00     		movs	r5, r3	@ len, len
 488:../../lpc11cx4-library/lpc_chip_11cxx_lib/src/i2c_11xx.c **** 	UNUSED(id);
 489:../../lpc11cx4-library/lpc_chip_11cxx_lib/src/i2c_11xx.c **** 	I2C_XFER_T xfer;
 490:../../lpc11cx4-library/lpc_chip_11cxx_lib/src/i2c_11xx.c **** 	xfer.slaveAddr = slaveAddr;
 1575              		.loc 1 490 0
 1576 0006 6B46     		mov	r3, sp	@ tmp128,
 1577              	.LVL95:
 1578 0008 1970     		strb	r1, [r3]	@ slaveAddr, xfer.slaveAddr
 491:../../lpc11cx4-library/lpc_chip_11cxx_lib/src/i2c_11xx.c **** 	xfer.rxBuff = buff;
 492:../../lpc11cx4-library/lpc_chip_11cxx_lib/src/i2c_11xx.c **** 	xfer.rxSz = len;
 493:../../lpc11cx4-library/lpc_chip_11cxx_lib/src/i2c_11xx.c **** 	xfer.txSz = 0;
 1579              		.loc 1 493 0
 1580 000a 0023     		movs	r3, #0	@ tmp122,
 487:../../lpc11cx4-library/lpc_chip_11cxx_lib/src/i2c_11xx.c **** 	UNUSED(id);
 1581              		.loc 1 487 0
 1582 000c 0400     		movs	r4, r0	@ id, id
 491:../../lpc11cx4-library/lpc_chip_11cxx_lib/src/i2c_11xx.c **** 	xfer.rxBuff = buff;
 1583              		.loc 1 491 0
 1584 000e 0392     		str	r2, [sp, #12]	@ buff, xfer.rxBuff
 492:../../lpc11cx4-library/lpc_chip_11cxx_lib/src/i2c_11xx.c **** 	xfer.txSz = 0;
 1585              		.loc 1 492 0
 1586 0010 0495     		str	r5, [sp, #16]	@ len, xfer.rxSz
 1587              		.loc 1 493 0
 1588 0012 0293     		str	r3, [sp, #8]	@ tmp122, xfer.txSz
 1589              	.LVL96:
 1590              	.L139:
 494:../../lpc11cx4-library/lpc_chip_11cxx_lib/src/i2c_11xx.c **** 	while (Chip_I2C_MasterTransfer(id, &xfer) == I2C_STATUS_ARBLOST) {}
 1591              		.loc 1 494 0 discriminator 1
 1592 0014 6946     		mov	r1, sp	@,
 1593 0016 2000     		movs	r0, r4	@, id
 1594 0018 FFF7FEFF 		bl	Chip_I2C_MasterTransfer	@
 1595              	.LVL97:
 1596 001c 0228     		cmp	r0, #2	@ _12,
ARM GAS  /tmp/ccXw4jW7.s 			page 46


 1597 001e F9D0     		beq	.L139	@,
 495:../../lpc11cx4-library/lpc_chip_11cxx_lib/src/i2c_11xx.c **** 	return len - xfer.rxSz;
 1598              		.loc 1 495 0
 1599 0020 0498     		ldr	r0, [sp, #16]	@ xfer.rxSz, xfer.rxSz
 1600 0022 281A     		subs	r0, r5, r0	@ <retval>, len, xfer.rxSz
 496:../../lpc11cx4-library/lpc_chip_11cxx_lib/src/i2c_11xx.c **** }
 1601              		.loc 1 496 0
 1602 0024 07B0     		add	sp, sp, #28	@,,
 1603              		@ sp needed	@
 1604              	.LVL98:
 1605 0026 30BD     		pop	{r4, r5, pc}
 1606              		.cfi_endproc
 1607              	.LFE223:
 1608              		.size	Chip_I2C_MasterRead, .-Chip_I2C_MasterRead
 1609              		.section	.text.Chip_I2C_IsMasterActive,"ax",%progbits
 1610              		.align	1
 1611              		.p2align 2,,3
 1612              		.global	Chip_I2C_IsMasterActive
 1613              		.syntax unified
 1614              		.code	16
 1615              		.thumb_func
 1616              		.fpu softvfp
 1617              		.type	Chip_I2C_IsMasterActive, %function
 1618              	Chip_I2C_IsMasterActive:
 1619              	.LFB224:
 497:../../lpc11cx4-library/lpc_chip_11cxx_lib/src/i2c_11xx.c **** 
 498:../../lpc11cx4-library/lpc_chip_11cxx_lib/src/i2c_11xx.c **** /* Check if master state is active */
 499:../../lpc11cx4-library/lpc_chip_11cxx_lib/src/i2c_11xx.c **** int Chip_I2C_IsMasterActive(I2C_ID_T id)
 500:../../lpc11cx4-library/lpc_chip_11cxx_lib/src/i2c_11xx.c **** {
 1620              		.loc 1 500 0
 1621              		.cfi_startproc
 1622              		@ args = 0, pretend = 0, frame = 0
 1623              		@ frame_needed = 0, uses_anonymous_args = 0
 1624              		@ link register save eliminated.
 1625              	.LVL99:
 501:../../lpc11cx4-library/lpc_chip_11cxx_lib/src/i2c_11xx.c **** 	UNUSED(id);
 502:../../lpc11cx4-library/lpc_chip_11cxx_lib/src/i2c_11xx.c **** 	return isMasterState(i2c.ip);
 1626              		.loc 1 502 0
 1627 0000 054B     		ldr	r3, .L143	@ tmp117,
 1628              	.LBB137:
 1629              	.LBB138:
 130:../../lpc11cx4-library/lpc_chip_11cxx_lib/src/i2c_11xx.c **** }
 1630              		.loc 1 130 0
 1631 0002 0021     		movs	r1, #0	@ tmp125,
 1632              	.LBE138:
 1633              	.LBE137:
 1634              		.loc 1 502 0
 1635 0004 1B68     		ldr	r3, [r3]	@ _2, i2c.ip
 1636              	.LVL100:
 503:../../lpc11cx4-library/lpc_chip_11cxx_lib/src/i2c_11xx.c **** }
 1637              		.loc 1 503 0
 1638              		@ sp needed	@
 1639              	.LBB142:
 1640              	.LBB141:
 1641              	.LBB139:
 1642              	.LBB140:
 124:../../lpc11cx4-library/lpc_chip_11cxx_lib/src/i2c_11xx.c **** }
ARM GAS  /tmp/ccXw4jW7.s 			page 47


 1643              		.loc 1 124 0
 1644 0006 5A68     		ldr	r2, [r3, #4]	@ _3, _2->STAT
 1645              	.LVL101:
 1646 0008 F823     		movs	r3, #248	@ tmp119,
 1647 000a 1340     		ands	r3, r2	@ tmp120, _3
 1648              	.LBE140:
 1649              	.LBE139:
 130:../../lpc11cx4-library/lpc_chip_11cxx_lib/src/i2c_11xx.c **** }
 1650              		.loc 1 130 0
 1651 000c 5F22     		movs	r2, #95	@ tmp123,
 1652 000e D80F     		lsrs	r0, r3, #31	@ tmp124, tmp120,
 1653              	.LVL102:
 1654 0010 9A42     		cmp	r2, r3	@ tmp123, tmp120
 1655 0012 4841     		adcs	r0, r0, r1	@ tmp122, tmp124, tmp125
 1656              	.LBE141:
 1657              	.LBE142:
 1658              		.loc 1 503 0
 1659 0014 7047     		bx	lr
 1660              	.L144:
 1661 0016 C046     		.align	2
 1662              	.L143:
 1663 0018 00000000 		.word	.LANCHOR0
 1664              		.cfi_endproc
 1665              	.LFE224:
 1666              		.size	Chip_I2C_IsMasterActive, .-Chip_I2C_IsMasterActive
 1667              		.section	.text.Chip_I2C_MasterStateHandler,"ax",%progbits
 1668              		.align	1
 1669              		.p2align 2,,3
 1670              		.global	Chip_I2C_MasterStateHandler
 1671              		.syntax unified
 1672              		.code	16
 1673              		.thumb_func
 1674              		.fpu softvfp
 1675              		.type	Chip_I2C_MasterStateHandler, %function
 1676              	Chip_I2C_MasterStateHandler:
 1677              	.LFB225:
 504:../../lpc11cx4-library/lpc_chip_11cxx_lib/src/i2c_11xx.c **** 
 505:../../lpc11cx4-library/lpc_chip_11cxx_lib/src/i2c_11xx.c **** /* State change handler for master transfer */
 506:../../lpc11cx4-library/lpc_chip_11cxx_lib/src/i2c_11xx.c **** void Chip_I2C_MasterStateHandler(I2C_ID_T id)
 507:../../lpc11cx4-library/lpc_chip_11cxx_lib/src/i2c_11xx.c **** {
 1678              		.loc 1 507 0
 1679              		.cfi_startproc
 1680              		@ args = 0, pretend = 0, frame = 0
 1681              		@ frame_needed = 0, uses_anonymous_args = 0
 1682              	.LVL103:
 1683 0000 70B5     		push	{r4, r5, r6, lr}	@
 1684              		.cfi_def_cfa_offset 16
 1685              		.cfi_offset 4, -16
 1686              		.cfi_offset 5, -12
 1687              		.cfi_offset 6, -8
 1688              		.cfi_offset 14, -4
 508:../../lpc11cx4-library/lpc_chip_11cxx_lib/src/i2c_11xx.c **** 	if (!handleMasterXferState(i2c.ip, i2c.mXfer)) {
 1689              		.loc 1 508 0
 1690 0002 064C     		ldr	r4, .L147	@ tmp115,
 507:../../lpc11cx4-library/lpc_chip_11cxx_lib/src/i2c_11xx.c **** 	if (!handleMasterXferState(i2c.ip, i2c.mXfer)) {
 1691              		.loc 1 507 0
 1692 0004 0500     		movs	r5, r0	@ id, id
ARM GAS  /tmp/ccXw4jW7.s 			page 48


 1693              		.loc 1 508 0
 1694 0006 2169     		ldr	r1, [r4, #16]	@, i2c.mXfer
 1695 0008 2068     		ldr	r0, [r4]	@, i2c.ip
 1696              	.LVL104:
 1697 000a FFF7FEFF 		bl	handleMasterXferState	@
 1698              	.LVL105:
 1699 000e 0028     		cmp	r0, #0	@ _5,
 1700 0010 03D1     		bne	.L145	@,
 1701              	.LVL106:
 1702              	.LBB145:
 1703              	.LBB146:
 509:../../lpc11cx4-library/lpc_chip_11cxx_lib/src/i2c_11xx.c **** 		i2c.mEvent(id, I2C_EVENT_DONE);
 1704              		.loc 1 509 0
 1705 0012 A368     		ldr	r3, [r4, #8]	@ i2c.mEvent, i2c.mEvent
 1706 0014 0221     		movs	r1, #2	@,
 1707 0016 2800     		movs	r0, r5	@, id
 1708 0018 9847     		blx	r3	@ i2c.mEvent
 1709              	.LVL107:
 1710              	.L145:
 1711              	.LBE146:
 1712              	.LBE145:
 510:../../lpc11cx4-library/lpc_chip_11cxx_lib/src/i2c_11xx.c **** 	}
 511:../../lpc11cx4-library/lpc_chip_11cxx_lib/src/i2c_11xx.c **** }
 1713              		.loc 1 511 0
 1714              		@ sp needed	@
 1715 001a 70BD     		pop	{r4, r5, r6, pc}
 1716              	.L148:
 1717              		.align	2
 1718              	.L147:
 1719 001c 00000000 		.word	.LANCHOR0
 1720              		.cfi_endproc
 1721              	.LFE225:
 1722              		.size	Chip_I2C_MasterStateHandler, .-Chip_I2C_MasterStateHandler
 1723              		.section	.text.Chip_I2C_EventHandlerPolling,"ax",%progbits
 1724              		.align	1
 1725              		.p2align 2,,3
 1726              		.global	Chip_I2C_EventHandlerPolling
 1727              		.syntax unified
 1728              		.code	16
 1729              		.thumb_func
 1730              		.fpu softvfp
 1731              		.type	Chip_I2C_EventHandlerPolling, %function
 1732              	Chip_I2C_EventHandlerPolling:
 1733              	.LFB213:
 349:../../lpc11cx4-library/lpc_chip_11cxx_lib/src/i2c_11xx.c **** 	struct i2c_interface *iic = &i2c;
 1734              		.loc 1 349 0
 1735              		.cfi_startproc
 1736              		@ args = 0, pretend = 0, frame = 0
 1737              		@ frame_needed = 0, uses_anonymous_args = 0
 1738              	.LVL108:
 1739 0000 F8B5     		push	{r3, r4, r5, r6, r7, lr}	@
 1740              		.cfi_def_cfa_offset 24
 1741              		.cfi_offset 3, -24
 1742              		.cfi_offset 4, -20
 1743              		.cfi_offset 5, -16
 1744              		.cfi_offset 6, -12
 1745              		.cfi_offset 7, -8
ARM GAS  /tmp/ccXw4jW7.s 			page 49


 1746              		.cfi_offset 14, -4
 349:../../lpc11cx4-library/lpc_chip_11cxx_lib/src/i2c_11xx.c **** 	struct i2c_interface *iic = &i2c;
 1747              		.loc 1 349 0
 1748 0002 0700     		movs	r7, r0	@ id, id
 354:../../lpc11cx4-library/lpc_chip_11cxx_lib/src/i2c_11xx.c **** 		return;
 1749              		.loc 1 354 0
 1750 0004 0129     		cmp	r1, #1	@ event,
 1751 0006 00D0     		beq	.L157	@,
 1752              	.LVL109:
 1753              	.L149:
 365:../../lpc11cx4-library/lpc_chip_11cxx_lib/src/i2c_11xx.c **** 
 1754              		.loc 1 365 0
 1755              		@ sp needed	@
 1756 0008 F8BD     		pop	{r3, r4, r5, r6, r7, pc}
 1757              	.LVL110:
 1758              	.L157:
 1759              	.LBB147:
 1760              	.LBB148:
 512:../../lpc11cx4-library/lpc_chip_11cxx_lib/src/i2c_11xx.c **** 
 513:../../lpc11cx4-library/lpc_chip_11cxx_lib/src/i2c_11xx.c **** /* Setup slave function */
 514:../../lpc11cx4-library/lpc_chip_11cxx_lib/src/i2c_11xx.c **** void Chip_I2C_SlaveSetup(I2C_ID_T id,
 515:../../lpc11cx4-library/lpc_chip_11cxx_lib/src/i2c_11xx.c **** 						 I2C_SLAVE_ID sid,
 516:../../lpc11cx4-library/lpc_chip_11cxx_lib/src/i2c_11xx.c **** 						 I2C_XFER_T *xfer,
 517:../../lpc11cx4-library/lpc_chip_11cxx_lib/src/i2c_11xx.c **** 						 I2C_EVENTHANDLER_T event,
 518:../../lpc11cx4-library/lpc_chip_11cxx_lib/src/i2c_11xx.c **** 						 uint8_t addrMask)
 519:../../lpc11cx4-library/lpc_chip_11cxx_lib/src/i2c_11xx.c **** {
 520:../../lpc11cx4-library/lpc_chip_11cxx_lib/src/i2c_11xx.c **** 	struct i2c_interface *iic = &i2c;
 521:../../lpc11cx4-library/lpc_chip_11cxx_lib/src/i2c_11xx.c **** 	struct i2c_slave_interface *si2c = &i2c_slave[id][sid];
 522:../../lpc11cx4-library/lpc_chip_11cxx_lib/src/i2c_11xx.c **** 	si2c->xfer = xfer;
 523:../../lpc11cx4-library/lpc_chip_11cxx_lib/src/i2c_11xx.c **** 	si2c->event = event;
 524:../../lpc11cx4-library/lpc_chip_11cxx_lib/src/i2c_11xx.c **** 
 525:../../lpc11cx4-library/lpc_chip_11cxx_lib/src/i2c_11xx.c **** 	/* Set up the slave address */
 526:../../lpc11cx4-library/lpc_chip_11cxx_lib/src/i2c_11xx.c **** 	if (sid != I2C_SLAVE_GENERAL) {
 527:../../lpc11cx4-library/lpc_chip_11cxx_lib/src/i2c_11xx.c **** 		setSlaveAddr(iic->ip, sid, xfer->slaveAddr, addrMask);
 528:../../lpc11cx4-library/lpc_chip_11cxx_lib/src/i2c_11xx.c **** 	}
 529:../../lpc11cx4-library/lpc_chip_11cxx_lib/src/i2c_11xx.c **** 
 530:../../lpc11cx4-library/lpc_chip_11cxx_lib/src/i2c_11xx.c **** 	if (!SLAVE_ACTIVE(iic) && !iic->mXfer) {
 531:../../lpc11cx4-library/lpc_chip_11cxx_lib/src/i2c_11xx.c **** 		startSlaverXfer(iic->ip);
 532:../../lpc11cx4-library/lpc_chip_11cxx_lib/src/i2c_11xx.c **** 	}
 533:../../lpc11cx4-library/lpc_chip_11cxx_lib/src/i2c_11xx.c **** 	iic->flags |= 1 << (sid + 8);
 534:../../lpc11cx4-library/lpc_chip_11cxx_lib/src/i2c_11xx.c **** }
 535:../../lpc11cx4-library/lpc_chip_11cxx_lib/src/i2c_11xx.c **** 
 536:../../lpc11cx4-library/lpc_chip_11cxx_lib/src/i2c_11xx.c **** /* I2C Slave event handler */
 537:../../lpc11cx4-library/lpc_chip_11cxx_lib/src/i2c_11xx.c **** void Chip_I2C_SlaveStateHandler(I2C_ID_T id)
 538:../../lpc11cx4-library/lpc_chip_11cxx_lib/src/i2c_11xx.c **** {
 539:../../lpc11cx4-library/lpc_chip_11cxx_lib/src/i2c_11xx.c **** 	int ret;
 540:../../lpc11cx4-library/lpc_chip_11cxx_lib/src/i2c_11xx.c **** 	struct i2c_interface *iic = &i2c;
 541:../../lpc11cx4-library/lpc_chip_11cxx_lib/src/i2c_11xx.c **** 
 542:../../lpc11cx4-library/lpc_chip_11cxx_lib/src/i2c_11xx.c **** 	/* Get the currently addressed slave */
 543:../../lpc11cx4-library/lpc_chip_11cxx_lib/src/i2c_11xx.c **** 	if (!iic->sXfer) {
 544:../../lpc11cx4-library/lpc_chip_11cxx_lib/src/i2c_11xx.c **** 		struct i2c_slave_interface *si2c;
 545:../../lpc11cx4-library/lpc_chip_11cxx_lib/src/i2c_11xx.c **** 
 546:../../lpc11cx4-library/lpc_chip_11cxx_lib/src/i2c_11xx.c **** 		I2C_SLAVE_ID sid = getSlaveIndex(iic->ip);
 547:../../lpc11cx4-library/lpc_chip_11cxx_lib/src/i2c_11xx.c **** 		si2c = &i2c_slave[id][sid];
 548:../../lpc11cx4-library/lpc_chip_11cxx_lib/src/i2c_11xx.c **** 		iic->sXfer = si2c->xfer;
 549:../../lpc11cx4-library/lpc_chip_11cxx_lib/src/i2c_11xx.c **** 		iic->sEvent = si2c->event;
 550:../../lpc11cx4-library/lpc_chip_11cxx_lib/src/i2c_11xx.c **** 	}
ARM GAS  /tmp/ccXw4jW7.s 			page 50


 551:../../lpc11cx4-library/lpc_chip_11cxx_lib/src/i2c_11xx.c **** 
 552:../../lpc11cx4-library/lpc_chip_11cxx_lib/src/i2c_11xx.c **** 	iic->sXfer->slaveAddr |= iic->mXfer != 0;
 553:../../lpc11cx4-library/lpc_chip_11cxx_lib/src/i2c_11xx.c **** 	ret = handleSlaveXferState(iic->ip, iic->sXfer);
 554:../../lpc11cx4-library/lpc_chip_11cxx_lib/src/i2c_11xx.c **** 	if (ret) {
 555:../../lpc11cx4-library/lpc_chip_11cxx_lib/src/i2c_11xx.c **** 		if (iic->sXfer->status == I2C_STATUS_DONE) {
 556:../../lpc11cx4-library/lpc_chip_11cxx_lib/src/i2c_11xx.c **** 			iic->sXfer = 0;
 557:../../lpc11cx4-library/lpc_chip_11cxx_lib/src/i2c_11xx.c **** 		}
 558:../../lpc11cx4-library/lpc_chip_11cxx_lib/src/i2c_11xx.c **** 		iic->sEvent(id, (I2C_EVENT_T) ret);
 559:../../lpc11cx4-library/lpc_chip_11cxx_lib/src/i2c_11xx.c **** 	}
 560:../../lpc11cx4-library/lpc_chip_11cxx_lib/src/i2c_11xx.c **** }
 561:../../lpc11cx4-library/lpc_chip_11cxx_lib/src/i2c_11xx.c **** 
 562:../../lpc11cx4-library/lpc_chip_11cxx_lib/src/i2c_11xx.c **** /* Disable I2C device */
 563:../../lpc11cx4-library/lpc_chip_11cxx_lib/src/i2c_11xx.c **** void Chip_I2C_Disable(I2C_ID_T id)
 564:../../lpc11cx4-library/lpc_chip_11cxx_lib/src/i2c_11xx.c **** {
 565:../../lpc11cx4-library/lpc_chip_11cxx_lib/src/i2c_11xx.c **** 	UNUSED(id);
 566:../../lpc11cx4-library/lpc_chip_11cxx_lib/src/i2c_11xx.c **** 	LPC_I2Cx(id)->CONCLR = I2C_I2CONCLR_I2ENC;
 567:../../lpc11cx4-library/lpc_chip_11cxx_lib/src/i2c_11xx.c **** }
 568:../../lpc11cx4-library/lpc_chip_11cxx_lib/src/i2c_11xx.c **** 
 569:../../lpc11cx4-library/lpc_chip_11cxx_lib/src/i2c_11xx.c **** /* State change checking */
 570:../../lpc11cx4-library/lpc_chip_11cxx_lib/src/i2c_11xx.c **** int Chip_I2C_IsStateChanged(I2C_ID_T id)
 571:../../lpc11cx4-library/lpc_chip_11cxx_lib/src/i2c_11xx.c **** {
 572:../../lpc11cx4-library/lpc_chip_11cxx_lib/src/i2c_11xx.c **** 	UNUSED(id);
 573:../../lpc11cx4-library/lpc_chip_11cxx_lib/src/i2c_11xx.c **** 	return (LPC_I2Cx(id)->CONSET & I2C_CON_SI) != 0;
 1761              		.loc 1 573 0
 1762 000a 0825     		movs	r5, #8	@ tmp125,
 1763              	.LBE148:
 1764              	.LBE147:
 358:../../lpc11cx4-library/lpc_chip_11cxx_lib/src/i2c_11xx.c **** 	/* Call the state change handler till xfer is done */
 1765              		.loc 1 358 0
 1766 000c 064E     		ldr	r6, .L158	@ tmp124,
 1767 000e 3469     		ldr	r4, [r6, #16]	@ _5, i2c.mXfer
 1768              	.LVL111:
 1769              	.L151:
 1770              	.LBB151:
 1771              	.LBB149:
 1772              		.loc 1 573 0
 1773 0010 3268     		ldr	r2, [r6]	@ _9, i2c.ip
 1774              	.L152:
 1775              	.LBE149:
 1776              	.LBE151:
 360:../../lpc11cx4-library/lpc_chip_11cxx_lib/src/i2c_11xx.c **** 		if (Chip_I2C_IsStateChanged(id)) {
 1777              		.loc 1 360 0
 1778 0012 237D     		ldrb	r3, [r4, #20]	@ MEM[(volatile I2C_STATUS_T *)_5 + 20B], MEM[(volatile I2C_STATUS_T *)_5 + 20B
 1779 0014 042B     		cmp	r3, #4	@ MEM[(volatile I2C_STATUS_T *)_5 + 20B],
 1780 0016 F7D1     		bne	.L149	@,
 1781              	.LVL112:
 1782              	.LBB152:
 1783              	.LBB150:
 1784              		.loc 1 573 0
 1785 0018 1368     		ldr	r3, [r2]	@ _10, _9->CONSET
 1786              	.LVL113:
 1787              	.LBE150:
 1788              	.LBE152:
 361:../../lpc11cx4-library/lpc_chip_11cxx_lib/src/i2c_11xx.c **** 			Chip_I2C_MasterStateHandler(id);
 1789              		.loc 1 361 0
 1790 001a 1D42     		tst	r5, r3	@ tmp125, _10
 1791 001c F9D0     		beq	.L152	@,
ARM GAS  /tmp/ccXw4jW7.s 			page 51


 362:../../lpc11cx4-library/lpc_chip_11cxx_lib/src/i2c_11xx.c **** 		}
 1792              		.loc 1 362 0
 1793 001e 3800     		movs	r0, r7	@, id
 1794 0020 FFF7FEFF 		bl	Chip_I2C_MasterStateHandler	@
 1795              	.LVL114:
 1796 0024 F4E7     		b	.L151	@
 1797              	.L159:
 1798 0026 C046     		.align	2
 1799              	.L158:
 1800 0028 00000000 		.word	.LANCHOR0
 1801              		.cfi_endproc
 1802              	.LFE213:
 1803              		.size	Chip_I2C_EventHandlerPolling, .-Chip_I2C_EventHandlerPolling
 1804              		.section	.text.Chip_I2C_SlaveSetup,"ax",%progbits
 1805              		.align	1
 1806              		.p2align 2,,3
 1807              		.global	Chip_I2C_SlaveSetup
 1808              		.syntax unified
 1809              		.code	16
 1810              		.thumb_func
 1811              		.fpu softvfp
 1812              		.type	Chip_I2C_SlaveSetup, %function
 1813              	Chip_I2C_SlaveSetup:
 1814              	.LFB226:
 519:../../lpc11cx4-library/lpc_chip_11cxx_lib/src/i2c_11xx.c **** 	struct i2c_interface *iic = &i2c;
 1815              		.loc 1 519 0
 1816              		.cfi_startproc
 1817              		@ args = 4, pretend = 0, frame = 0
 1818              		@ frame_needed = 0, uses_anonymous_args = 0
 1819              	.LVL115:
 1820 0000 70B5     		push	{r4, r5, r6, lr}	@
 1821              		.cfi_def_cfa_offset 16
 1822              		.cfi_offset 4, -16
 1823              		.cfi_offset 5, -12
 1824              		.cfi_offset 6, -8
 1825              		.cfi_offset 14, -4
 519:../../lpc11cx4-library/lpc_chip_11cxx_lib/src/i2c_11xx.c **** 	struct i2c_interface *iic = &i2c;
 1826              		.loc 1 519 0
 1827 0002 0500     		movs	r5, r0	@ id, id
 1828              	.LVL116:
 1829 0004 04A8     		add	r0, sp, #16	@ tmp136,,
 1830              	.LVL117:
 1831 0006 0678     		ldrb	r6, [r0]	@ addrMask, addrMask
 522:../../lpc11cx4-library/lpc_chip_11cxx_lib/src/i2c_11xx.c **** 	si2c->event = event;
 1832              		.loc 1 522 0
 1833 0008 A800     		lsls	r0, r5, #2	@ tmp139, id,
 1834              	.LVL118:
 1835 000a 4019     		adds	r0, r0, r5	@ tmp140, tmp139, id
 1836 000c 164C     		ldr	r4, .L169	@ tmp137,
 1837 000e 4018     		adds	r0, r0, r1	@ tmp141, tmp140, sid
 1838 0010 C000     		lsls	r0, r0, #3	@ tmp142, tmp141,
 1839 0012 0251     		str	r2, [r0, r4]	@ xfer, MEM[(struct i2c_slave_interface *)&i2c_slave][_4][_6].xfer
 523:../../lpc11cx4-library/lpc_chip_11cxx_lib/src/i2c_11xx.c **** 
 1840              		.loc 1 523 0
 1841 0014 2018     		adds	r0, r4, r0	@ tmp149, tmp137, tmp142
 1842 0016 4360     		str	r3, [r0, #4]	@ event, MEM[(struct i2c_slave_interface *)&i2c_slave][_4][_6].event
 527:../../lpc11cx4-library/lpc_chip_11cxx_lib/src/i2c_11xx.c **** 	}
ARM GAS  /tmp/ccXw4jW7.s 			page 52


 1843              		.loc 1 527 0
 1844 0018 1448     		ldr	r0, .L169+4	@ tmp170,
 526:../../lpc11cx4-library/lpc_chip_11cxx_lib/src/i2c_11xx.c **** 		setSlaveAddr(iic->ip, sid, xfer->slaveAddr, addrMask);
 1845              		.loc 1 526 0
 1846 001a 0029     		cmp	r1, #0	@ sid,
 1847 001c 0DD0     		beq	.L161	@,
 527:../../lpc11cx4-library/lpc_chip_11cxx_lib/src/i2c_11xx.c **** 	}
 1848              		.loc 1 527 0
 1849 001e 1478     		ldrb	r4, [r2]	@ _13, *xfer_8(D)
 1850              	.LBB153:
 1851              	.LBB154:
 137:../../lpc11cx4-library/lpc_chip_11cxx_lib/src/i2c_11xx.c **** 	if (sid == I2C_SLAVE_0) {
 1852              		.loc 1 137 0
 1853 0020 0A00     		movs	r2, r1	@ tmp152, sid
 1854              	.LVL119:
 1855              	.LBE154:
 1856              	.LBE153:
 527:../../lpc11cx4-library/lpc_chip_11cxx_lib/src/i2c_11xx.c **** 	}
 1857              		.loc 1 527 0
 1858 0022 0368     		ldr	r3, [r0]	@ _12, i2c.ip
 1859              	.LVL120:
 1860              	.LBB158:
 1861              	.LBB156:
 137:../../lpc11cx4-library/lpc_chip_11cxx_lib/src/i2c_11xx.c **** 	if (sid == I2C_SLAVE_0) {
 1862              		.loc 1 137 0
 1863 0024 0B32     		adds	r2, r2, #11	@ tmp152,
 1864 0026 9200     		lsls	r2, r2, #2	@ tmp153, tmp152,
 1865 0028 D650     		str	r6, [r2, r3]	@ addrMask, _12->MASK
 138:../../lpc11cx4-library/lpc_chip_11cxx_lib/src/i2c_11xx.c **** 		pI2C->ADR0 = addr;
 1866              		.loc 1 138 0
 1867 002a 0129     		cmp	r1, #1	@ sid,
 1868 002c 13D0     		beq	.L167	@,
 1869              	.LVL121:
 1870              	.LBB155:
 143:../../lpc11cx4-library/lpc_chip_11cxx_lib/src/i2c_11xx.c **** 	}
 1871              		.loc 1 143 0
 1872 002e 104A     		ldr	r2, .L169+8	@ tmp173,
 142:../../lpc11cx4-library/lpc_chip_11cxx_lib/src/i2c_11xx.c **** 		abase[index - 1] = addr;
 1873              		.loc 1 142 0
 1874 0030 2033     		adds	r3, r3, #32	@ abase,
 1875              	.LVL122:
 143:../../lpc11cx4-library/lpc_chip_11cxx_lib/src/i2c_11xx.c **** 	}
 1876              		.loc 1 143 0
 1877 0032 8A18     		adds	r2, r1, r2	@ tmp155, sid, tmp173
 1878 0034 9200     		lsls	r2, r2, #2	@ tmp156, tmp155,
 1879 0036 9B18     		adds	r3, r3, r2	@ _31, abase, tmp156
 1880              	.LVL123:
 1881 0038 1C60     		str	r4, [r3]	@ _13, *_31
 1882              	.LVL124:
 1883              	.L161:
 1884              	.LBE155:
 1885              	.LBE156:
 1886              	.LBE158:
 530:../../lpc11cx4-library/lpc_chip_11cxx_lib/src/i2c_11xx.c **** 		startSlaverXfer(iic->ip);
 1887              		.loc 1 530 0
 1888 003a FF23     		movs	r3, #255	@ tmp159,
 1889 003c 8269     		ldr	r2, [r0, #24]	@ _15, i2c.flags
ARM GAS  /tmp/ccXw4jW7.s 			page 53


 1890 003e 1B02     		lsls	r3, r3, #8	@ tmp159, tmp159,
 1891 0040 1A42     		tst	r2, r3	@ _15, tmp159
 1892 0042 02D1     		bne	.L163	@,
 530:../../lpc11cx4-library/lpc_chip_11cxx_lib/src/i2c_11xx.c **** 		startSlaverXfer(iic->ip);
 1893              		.loc 1 530 0 is_stmt 0 discriminator 1
 1894 0044 0369     		ldr	r3, [r0, #16]	@ tmp174, i2c.mXfer
 1895 0046 002B     		cmp	r3, #0	@ tmp174,
 1896 0048 07D0     		beq	.L168	@,
 1897              	.L163:
 533:../../lpc11cx4-library/lpc_chip_11cxx_lib/src/i2c_11xx.c **** }
 1898              		.loc 1 533 0 is_stmt 1
 1899 004a 0123     		movs	r3, #1	@ tmp168,
 1900 004c 0831     		adds	r1, r1, #8	@ tmp166,
 1901              	.LVL125:
 1902 004e 8B40     		lsls	r3, r3, r1	@ tmp167, tmp168, tmp166
 1903 0050 1343     		orrs	r3, r2	@ tmp169, _15
 1904 0052 8361     		str	r3, [r0, #24]	@ tmp169, i2c.flags
 534:../../lpc11cx4-library/lpc_chip_11cxx_lib/src/i2c_11xx.c **** 
 1905              		.loc 1 534 0
 1906              		@ sp needed	@
 1907              	.LVL126:
 1908 0054 70BD     		pop	{r4, r5, r6, pc}
 1909              	.LVL127:
 1910              	.L167:
 1911              	.LBB159:
 1912              	.LBB157:
 139:../../lpc11cx4-library/lpc_chip_11cxx_lib/src/i2c_11xx.c **** 	}
 1913              		.loc 1 139 0
 1914 0056 DC60     		str	r4, [r3, #12]	@ _13, _12->ADR0
 1915 0058 EFE7     		b	.L161	@
 1916              	.LVL128:
 1917              	.L168:
 1918              	.LBE157:
 1919              	.LBE159:
 1920              	.LBB160:
 1921              	.LBB161:
 109:../../lpc11cx4-library/lpc_chip_11cxx_lib/src/i2c_11xx.c **** 
 1922              		.loc 1 109 0
 1923 005a 3824     		movs	r4, #56	@ tmp163,
 1924              	.LBE161:
 1925              	.LBE160:
 531:../../lpc11cx4-library/lpc_chip_11cxx_lib/src/i2c_11xx.c **** 	}
 1926              		.loc 1 531 0
 1927 005c 0368     		ldr	r3, [r0]	@ _18, i2c.ip
 1928              	.LVL129:
 1929              	.LBB163:
 1930              	.LBB162:
 109:../../lpc11cx4-library/lpc_chip_11cxx_lib/src/i2c_11xx.c **** 
 1931              		.loc 1 109 0
 1932 005e 9C61     		str	r4, [r3, #24]	@ tmp163, _18->CONCLR
 112:../../lpc11cx4-library/lpc_chip_11cxx_lib/src/i2c_11xx.c **** }
 1933              		.loc 1 112 0
 1934 0060 0C34     		adds	r4, r4, #12	@ tmp164,
 1935 0062 1C60     		str	r4, [r3]	@ tmp164, _18->CONSET
 1936 0064 F1E7     		b	.L163	@
 1937              	.L170:
 1938 0066 C046     		.align	2
ARM GAS  /tmp/ccXw4jW7.s 			page 54


 1939              	.L169:
 1940 0068 00000000 		.word	.LANCHOR1
 1941 006c 00000000 		.word	.LANCHOR0
 1942 0070 FEFFFF3F 		.word	1073741822
 1943              	.LBE162:
 1944              	.LBE163:
 1945              		.cfi_endproc
 1946              	.LFE226:
 1947              		.size	Chip_I2C_SlaveSetup, .-Chip_I2C_SlaveSetup
 1948              		.section	.text.Chip_I2C_SlaveStateHandler,"ax",%progbits
 1949              		.align	1
 1950              		.p2align 2,,3
 1951              		.global	Chip_I2C_SlaveStateHandler
 1952              		.syntax unified
 1953              		.code	16
 1954              		.thumb_func
 1955              		.fpu softvfp
 1956              		.type	Chip_I2C_SlaveStateHandler, %function
 1957              	Chip_I2C_SlaveStateHandler:
 1958              	.LFB227:
 538:../../lpc11cx4-library/lpc_chip_11cxx_lib/src/i2c_11xx.c **** 	int ret;
 1959              		.loc 1 538 0
 1960              		.cfi_startproc
 1961              		@ args = 0, pretend = 0, frame = 0
 1962              		@ frame_needed = 0, uses_anonymous_args = 0
 1963              	.LVL130:
 1964 0000 F8B5     		push	{r3, r4, r5, r6, r7, lr}	@
 1965              		.cfi_def_cfa_offset 24
 1966              		.cfi_offset 3, -24
 1967              		.cfi_offset 4, -20
 1968              		.cfi_offset 5, -16
 1969              		.cfi_offset 6, -12
 1970              		.cfi_offset 7, -8
 1971              		.cfi_offset 14, -4
 543:../../lpc11cx4-library/lpc_chip_11cxx_lib/src/i2c_11xx.c **** 		struct i2c_slave_interface *si2c;
 1972              		.loc 1 543 0
 1973 0002 154D     		ldr	r5, .L181	@ tmp165,
 538:../../lpc11cx4-library/lpc_chip_11cxx_lib/src/i2c_11xx.c **** 	int ret;
 1974              		.loc 1 538 0
 1975 0004 0700     		movs	r7, r0	@ id, id
 543:../../lpc11cx4-library/lpc_chip_11cxx_lib/src/i2c_11xx.c **** 		struct i2c_slave_interface *si2c;
 1976              		.loc 1 543 0
 1977 0006 6C69     		ldr	r4, [r5, #20]	@ _5, i2c.sXfer
 1978              	.LBB164:
 546:../../lpc11cx4-library/lpc_chip_11cxx_lib/src/i2c_11xx.c **** 		si2c = &i2c_slave[id][sid];
 1979              		.loc 1 546 0
 1980 0008 2E68     		ldr	r6, [r5]	@ pretmp_39, i2c.ip
 1981              	.LBE164:
 543:../../lpc11cx4-library/lpc_chip_11cxx_lib/src/i2c_11xx.c **** 		struct i2c_slave_interface *si2c;
 1982              		.loc 1 543 0
 1983 000a 002C     		cmp	r4, #0	@ _5,
 1984 000c 15D0     		beq	.L179	@,
 1985              	.LVL131:
 1986              	.L173:
 552:../../lpc11cx4-library/lpc_chip_11cxx_lib/src/i2c_11xx.c **** 	ret = handleSlaveXferState(iic->ip, iic->sXfer);
 1987              		.loc 1 552 0
 1988 000e 2B69     		ldr	r3, [r5, #16]	@ tmp153, i2c.mXfer
ARM GAS  /tmp/ccXw4jW7.s 			page 55


 553:../../lpc11cx4-library/lpc_chip_11cxx_lib/src/i2c_11xx.c **** 	if (ret) {
 1989              		.loc 1 553 0
 1990 0010 2100     		movs	r1, r4	@, _5
 552:../../lpc11cx4-library/lpc_chip_11cxx_lib/src/i2c_11xx.c **** 	ret = handleSlaveXferState(iic->ip, iic->sXfer);
 1991              		.loc 1 552 0
 1992 0012 5A1E     		subs	r2, r3, #1	@ tmp154, tmp153
 1993 0014 9341     		sbcs	r3, r3, r2	@ tmp153, tmp153, tmp154
 1994 0016 2278     		ldrb	r2, [r4]	@ *prephitmp_41, *prephitmp_41
 553:../../lpc11cx4-library/lpc_chip_11cxx_lib/src/i2c_11xx.c **** 	if (ret) {
 1995              		.loc 1 553 0
 1996 0018 3000     		movs	r0, r6	@, pretmp_39
 552:../../lpc11cx4-library/lpc_chip_11cxx_lib/src/i2c_11xx.c **** 	ret = handleSlaveXferState(iic->ip, iic->sXfer);
 1997              		.loc 1 552 0
 1998 001a 1343     		orrs	r3, r2	@ tmp157, *prephitmp_41
 1999 001c 2370     		strb	r3, [r4]	@ tmp157, prephitmp_41->slaveAddr
 553:../../lpc11cx4-library/lpc_chip_11cxx_lib/src/i2c_11xx.c **** 	if (ret) {
 2000              		.loc 1 553 0
 2001 001e FFF7FEFF 		bl	handleSlaveXferState	@
 2002              	.LVL132:
 554:../../lpc11cx4-library/lpc_chip_11cxx_lib/src/i2c_11xx.c **** 		if (iic->sXfer->status == I2C_STATUS_DONE) {
 2003              		.loc 1 554 0
 2004 0022 0028     		cmp	r0, #0	@ ret,
 2005 0024 06D0     		beq	.L171	@,
 555:../../lpc11cx4-library/lpc_chip_11cxx_lib/src/i2c_11xx.c **** 			iic->sXfer = 0;
 2006              		.loc 1 555 0
 2007 0026 237D     		ldrb	r3, [r4, #20]	@ tmp159,
 2008 0028 002B     		cmp	r3, #0	@ tmp159,
 2009 002a 04D0     		beq	.L180	@,
 2010              	.L175:
 558:../../lpc11cx4-library/lpc_chip_11cxx_lib/src/i2c_11xx.c **** 	}
 2011              		.loc 1 558 0
 2012 002c C1B2     		uxtb	r1, r0	@ ret, ret
 2013 002e EB68     		ldr	r3, [r5, #12]	@ i2c.sEvent, i2c.sEvent
 2014 0030 3800     		movs	r0, r7	@, id
 2015              	.LVL133:
 2016 0032 9847     		blx	r3	@ i2c.sEvent
 2017              	.LVL134:
 2018              	.L171:
 560:../../lpc11cx4-library/lpc_chip_11cxx_lib/src/i2c_11xx.c **** 
 2019              		.loc 1 560 0
 2020              		@ sp needed	@
 2021 0034 F8BD     		pop	{r3, r4, r5, r6, r7, pc}
 2022              	.LVL135:
 2023              	.L180:
 556:../../lpc11cx4-library/lpc_chip_11cxx_lib/src/i2c_11xx.c **** 		}
 2024              		.loc 1 556 0
 2025 0036 6B61     		str	r3, [r5, #20]	@ tmp159, i2c.sXfer
 2026 0038 F8E7     		b	.L175	@
 2027              	.LVL136:
 2028              	.L179:
 2029              	.LBB165:
 546:../../lpc11cx4-library/lpc_chip_11cxx_lib/src/i2c_11xx.c **** 		si2c = &i2c_slave[id][sid];
 2030              		.loc 1 546 0
 2031 003a 3000     		movs	r0, r6	@, pretmp_39
 2032              	.LVL137:
 2033 003c FFF7FEFF 		bl	getSlaveIndex	@
 2034              	.LVL138:
ARM GAS  /tmp/ccXw4jW7.s 			page 56


 548:../../lpc11cx4-library/lpc_chip_11cxx_lib/src/i2c_11xx.c **** 		iic->sEvent = si2c->event;
 2035              		.loc 1 548 0
 2036 0040 BB00     		lsls	r3, r7, #2	@ tmp135, id,
 2037 0042 DB19     		adds	r3, r3, r7	@ tmp136, tmp135, id
 2038 0044 054A     		ldr	r2, .L181+4	@ tmp133,
 2039 0046 1818     		adds	r0, r3, r0	@ tmp137, tmp136, tmp131
 2040              	.LVL139:
 2041 0048 C000     		lsls	r0, r0, #3	@ tmp138, tmp137,
 2042 004a 8458     		ldr	r4, [r0, r2]	@ _5, MEM[(struct i2c_slave_interface *)&i2c_slave][_10][_11].xfer
 549:../../lpc11cx4-library/lpc_chip_11cxx_lib/src/i2c_11xx.c **** 	}
 2043              		.loc 1 549 0
 2044 004c 1018     		adds	r0, r2, r0	@ tmp147, tmp133, tmp138
 2045 004e 4368     		ldr	r3, [r0, #4]	@ tmp168, MEM[(struct i2c_slave_interface *)&i2c_slave][_10][_11].event
 548:../../lpc11cx4-library/lpc_chip_11cxx_lib/src/i2c_11xx.c **** 		iic->sEvent = si2c->event;
 2046              		.loc 1 548 0
 2047 0050 6C61     		str	r4, [r5, #20]	@ _5, i2c.sXfer
 549:../../lpc11cx4-library/lpc_chip_11cxx_lib/src/i2c_11xx.c **** 	}
 2048              		.loc 1 549 0
 2049 0052 EB60     		str	r3, [r5, #12]	@ tmp168, i2c.sEvent
 2050 0054 DBE7     		b	.L173	@
 2051              	.L182:
 2052 0056 C046     		.align	2
 2053              	.L181:
 2054 0058 00000000 		.word	.LANCHOR0
 2055 005c 00000000 		.word	.LANCHOR1
 2056              	.LBE165:
 2057              		.cfi_endproc
 2058              	.LFE227:
 2059              		.size	Chip_I2C_SlaveStateHandler, .-Chip_I2C_SlaveStateHandler
 2060              		.section	.text.Chip_I2C_Disable,"ax",%progbits
 2061              		.align	1
 2062              		.p2align 2,,3
 2063              		.global	Chip_I2C_Disable
 2064              		.syntax unified
 2065              		.code	16
 2066              		.thumb_func
 2067              		.fpu softvfp
 2068              		.type	Chip_I2C_Disable, %function
 2069              	Chip_I2C_Disable:
 2070              	.LFB228:
 564:../../lpc11cx4-library/lpc_chip_11cxx_lib/src/i2c_11xx.c **** 	UNUSED(id);
 2071              		.loc 1 564 0
 2072              		.cfi_startproc
 2073              		@ args = 0, pretend = 0, frame = 0
 2074              		@ frame_needed = 0, uses_anonymous_args = 0
 2075              		@ link register save eliminated.
 2076              	.LVL140:
 566:../../lpc11cx4-library/lpc_chip_11cxx_lib/src/i2c_11xx.c **** }
 2077              		.loc 1 566 0
 2078 0000 4022     		movs	r2, #64	@ tmp113,
 2079 0002 024B     		ldr	r3, .L184	@ tmp112,
 567:../../lpc11cx4-library/lpc_chip_11cxx_lib/src/i2c_11xx.c **** 
 2080              		.loc 1 567 0
 2081              		@ sp needed	@
 566:../../lpc11cx4-library/lpc_chip_11cxx_lib/src/i2c_11xx.c **** }
 2082              		.loc 1 566 0
 2083 0004 1B68     		ldr	r3, [r3]	@ _2, i2c.ip
ARM GAS  /tmp/ccXw4jW7.s 			page 57


 2084 0006 9A61     		str	r2, [r3, #24]	@ tmp113, _2->CONCLR
 567:../../lpc11cx4-library/lpc_chip_11cxx_lib/src/i2c_11xx.c **** 
 2085              		.loc 1 567 0
 2086 0008 7047     		bx	lr
 2087              	.L185:
 2088 000a C046     		.align	2
 2089              	.L184:
 2090 000c 00000000 		.word	.LANCHOR0
 2091              		.cfi_endproc
 2092              	.LFE228:
 2093              		.size	Chip_I2C_Disable, .-Chip_I2C_Disable
 2094              		.section	.text.Chip_I2C_IsStateChanged,"ax",%progbits
 2095              		.align	1
 2096              		.p2align 2,,3
 2097              		.global	Chip_I2C_IsStateChanged
 2098              		.syntax unified
 2099              		.code	16
 2100              		.thumb_func
 2101              		.fpu softvfp
 2102              		.type	Chip_I2C_IsStateChanged, %function
 2103              	Chip_I2C_IsStateChanged:
 2104              	.LFB229:
 571:../../lpc11cx4-library/lpc_chip_11cxx_lib/src/i2c_11xx.c **** 	UNUSED(id);
 2105              		.loc 1 571 0
 2106              		.cfi_startproc
 2107              		@ args = 0, pretend = 0, frame = 0
 2108              		@ frame_needed = 0, uses_anonymous_args = 0
 2109              		@ link register save eliminated.
 2110              	.LVL141:
 2111              		.loc 1 573 0
 2112 0000 024B     		ldr	r3, .L187	@ tmp116,
 574:../../lpc11cx4-library/lpc_chip_11cxx_lib/src/i2c_11xx.c **** }
 2113              		.loc 1 574 0
 2114              		@ sp needed	@
 573:../../lpc11cx4-library/lpc_chip_11cxx_lib/src/i2c_11xx.c **** }
 2115              		.loc 1 573 0
 2116 0002 1B68     		ldr	r3, [r3]	@ _2, i2c.ip
 2117 0004 1868     		ldr	r0, [r3]	@ _3, _2->CONSET
 2118              	.LVL142:
 2119 0006 0007     		lsls	r0, r0, #28	@ tmp119, _3,
 2120 0008 C00F     		lsrs	r0, r0, #31	@ tmp120, tmp119,
 2121              		.loc 1 574 0
 2122 000a 7047     		bx	lr
 2123              	.L188:
 2124              		.align	2
 2125              	.L187:
 2126 000c 00000000 		.word	.LANCHOR0
 2127              		.cfi_endproc
 2128              	.LFE229:
 2129              		.size	Chip_I2C_IsStateChanged, .-Chip_I2C_IsStateChanged
 2130              		.section	.bss.i2c_slave,"aw",%nobits
 2131              		.align	2
 2132              		.set	.LANCHOR1,. + 0
 2133              		.type	i2c_slave, %object
 2134              		.size	i2c_slave, 40
 2135              	i2c_slave:
 2136 0000 00000000 		.space	40
ARM GAS  /tmp/ccXw4jW7.s 			page 58


 2136      00000000 
 2136      00000000 
 2136      00000000 
 2136      00000000 
 2137              		.section	.data.i2c,"aw",%progbits
 2138              		.align	2
 2139              		.set	.LANCHOR0,. + 0
 2140              		.type	i2c, %object
 2141              		.size	i2c, 28
 2142              	i2c:
 2143              	@ ip:
 2144 0000 00000040 		.word	1073741824
 2145              	@ clk:
 2146 0004 05       		.byte	5
 2147              	@ mEvent:
 2148 0005 000000   		.space	3
 2149 0008 00000000 		.word	Chip_I2C_EventHandler
 2150              	@ sEvent:
 2151 000c 00000000 		.word	0
 2152              	@ mXfer:
 2153 0010 00000000 		.word	0
 2154              	@ sXfer:
 2155 0014 00000000 		.word	0
 2156              	@ flags:
 2157 0018 00000000 		.word	0
 2158              		.text
 2159              	.Letext0:
 2160              		.file 3 "/usr/arm-none-eabi/include/machine/_default_types.h"
 2161              		.file 4 "/usr/arm-none-eabi/include/sys/_stdint.h"
 2162              		.file 5 "../../lpc11cx4-library/lpc_chip_11cxx_lib/inc/chip.h"
 2163              		.file 6 "../../lpc11cx4-library/lpc_chip_11cxx_lib/inc/sysctl_11xx.h"
 2164              		.file 7 "../../lpc11cx4-library/lpc_chip_11cxx_lib/inc/i2c_11xx.h"
 2165              		.section	.debug_info,"",%progbits
 2166              	.Ldebug_info0:
 2167 0000 2A140000 		.4byte	0x142a
 2168 0004 0400     		.2byte	0x4
 2169 0006 00000000 		.4byte	.Ldebug_abbrev0
 2170 000a 04       		.byte	0x4
 2171 000b 01       		.uleb128 0x1
 2172 000c 25300000 		.4byte	.LASF1280
 2173 0010 01       		.byte	0x1
 2174 0011 1A3D0000 		.4byte	.LASF1281
 2175 0015 81730000 		.4byte	.LASF1282
 2176 0019 90010000 		.4byte	.Ldebug_ranges0+0x190
 2177 001d 00000000 		.4byte	0
 2178 0021 00000000 		.4byte	.Ldebug_line0
 2179 0025 00000000 		.4byte	.Ldebug_macro0
 2180 0029 02       		.uleb128 0x2
 2181 002a 01       		.byte	0x1
 2182 002b 06       		.byte	0x6
 2183 002c 0E1B0000 		.4byte	.LASF1075
 2184 0030 03       		.uleb128 0x3
 2185 0031 37100000 		.4byte	.LASF1080
 2186 0035 03       		.byte	0x3
 2187 0036 2B       		.byte	0x2b
 2188 0037 3B000000 		.4byte	0x3b
 2189 003b 02       		.uleb128 0x2
ARM GAS  /tmp/ccXw4jW7.s 			page 59


 2190 003c 01       		.byte	0x1
 2191 003d 08       		.byte	0x8
 2192 003e 5E1E0000 		.4byte	.LASF1076
 2193 0042 02       		.uleb128 0x2
 2194 0043 02       		.byte	0x2
 2195 0044 05       		.byte	0x5
 2196 0045 97690000 		.4byte	.LASF1077
 2197 0049 02       		.uleb128 0x2
 2198 004a 02       		.byte	0x2
 2199 004b 07       		.byte	0x7
 2200 004c F3770000 		.4byte	.LASF1078
 2201 0050 02       		.uleb128 0x2
 2202 0051 04       		.byte	0x4
 2203 0052 05       		.byte	0x5
 2204 0053 11140000 		.4byte	.LASF1079
 2205 0057 03       		.uleb128 0x3
 2206 0058 D4400000 		.4byte	.LASF1081
 2207 005c 03       		.byte	0x3
 2208 005d 4F       		.byte	0x4f
 2209 005e 62000000 		.4byte	0x62
 2210 0062 02       		.uleb128 0x2
 2211 0063 04       		.byte	0x4
 2212 0064 07       		.byte	0x7
 2213 0065 E6370000 		.4byte	.LASF1082
 2214 0069 02       		.uleb128 0x2
 2215 006a 08       		.byte	0x8
 2216 006b 05       		.byte	0x5
 2217 006c 36410000 		.4byte	.LASF1083
 2218 0070 02       		.uleb128 0x2
 2219 0071 08       		.byte	0x8
 2220 0072 07       		.byte	0x7
 2221 0073 855A0000 		.4byte	.LASF1084
 2222 0077 04       		.uleb128 0x4
 2223 0078 04       		.byte	0x4
 2224 0079 05       		.byte	0x5
 2225 007a 696E7400 		.ascii	"int\000"
 2226 007e 02       		.uleb128 0x2
 2227 007f 04       		.byte	0x4
 2228 0080 07       		.byte	0x7
 2229 0081 39490000 		.4byte	.LASF1085
 2230 0085 03       		.uleb128 0x3
 2231 0086 471B0000 		.4byte	.LASF1086
 2232 008a 04       		.byte	0x4
 2233 008b 18       		.byte	0x18
 2234 008c 30000000 		.4byte	0x30
 2235 0090 05       		.uleb128 0x5
 2236 0091 85000000 		.4byte	0x85
 2237 0095 03       		.uleb128 0x3
 2238 0096 34740000 		.4byte	.LASF1087
 2239 009a 04       		.byte	0x4
 2240 009b 30       		.byte	0x30
 2241 009c 57000000 		.4byte	0x57
 2242 00a0 06       		.uleb128 0x6
 2243 00a1 95000000 		.4byte	0x95
 2244 00a5 05       		.uleb128 0x5
 2245 00a6 A0000000 		.4byte	0xa0
 2246 00aa 05       		.uleb128 0x5
ARM GAS  /tmp/ccXw4jW7.s 			page 60


 2247 00ab 95000000 		.4byte	0x95
 2248 00af 02       		.uleb128 0x2
 2249 00b0 01       		.byte	0x1
 2250 00b1 08       		.byte	0x8
 2251 00b2 71230000 		.4byte	.LASF407
 2252 00b6 02       		.uleb128 0x2
 2253 00b7 01       		.byte	0x1
 2254 00b8 02       		.byte	0x2
 2255 00b9 06220000 		.4byte	.LASF1088
 2256 00bd 02       		.uleb128 0x2
 2257 00be 04       		.byte	0x4
 2258 00bf 07       		.byte	0x7
 2259 00c0 9E010000 		.4byte	.LASF1089
 2260 00c4 07       		.uleb128 0x7
 2261 00c5 A0000000 		.4byte	0xa0
 2262 00c9 D4000000 		.4byte	0xd4
 2263 00cd 08       		.uleb128 0x8
 2264 00ce BD000000 		.4byte	0xbd
 2265 00d2 07       		.byte	0x7
 2266 00d3 00       		.byte	0
 2267 00d4 06       		.uleb128 0x6
 2268 00d5 C4000000 		.4byte	0xc4
 2269 00d9 09       		.uleb128 0x9
 2270 00da 5A570000 		.4byte	.LASF1090
 2271 00de 05       		.byte	0x5
 2272 00df D4       		.byte	0xd4
 2273 00e0 AA000000 		.4byte	0xaa
 2274 00e4 09       		.uleb128 0x9
 2275 00e5 B8110000 		.4byte	.LASF1091
 2276 00e9 05       		.byte	0x5
 2277 00ea E3       		.byte	0xe3
 2278 00eb AA000000 		.4byte	0xaa
 2279 00ef 07       		.uleb128 0x7
 2280 00f0 A0000000 		.4byte	0xa0
 2281 00f4 FF000000 		.4byte	0xff
 2282 00f8 08       		.uleb128 0x8
 2283 00f9 BD000000 		.4byte	0xbd
 2284 00fd 03       		.byte	0x3
 2285 00fe 00       		.byte	0
 2286 00ff 06       		.uleb128 0x6
 2287 0100 EF000000 		.4byte	0xef
 2288 0104 07       		.uleb128 0x7
 2289 0105 A5000000 		.4byte	0xa5
 2290 0109 14010000 		.4byte	0x114
 2291 010d 08       		.uleb128 0x8
 2292 010e BD000000 		.4byte	0xbd
 2293 0112 03       		.byte	0x3
 2294 0113 00       		.byte	0
 2295 0114 05       		.uleb128 0x5
 2296 0115 04010000 		.4byte	0x104
 2297 0119 06       		.uleb128 0x6
 2298 011a 14010000 		.4byte	0x114
 2299 011e 07       		.uleb128 0x7
 2300 011f A5000000 		.4byte	0xa5
 2301 0123 2E010000 		.4byte	0x12e
 2302 0127 08       		.uleb128 0x8
 2303 0128 BD000000 		.4byte	0xbd
ARM GAS  /tmp/ccXw4jW7.s 			page 61


 2304 012c 02       		.byte	0x2
 2305 012d 00       		.byte	0
 2306 012e 05       		.uleb128 0x5
 2307 012f 1E010000 		.4byte	0x11e
 2308 0133 06       		.uleb128 0x6
 2309 0134 2E010000 		.4byte	0x12e
 2310 0138 0A       		.uleb128 0xa
 2311 0139 F803     		.2byte	0x3f8
 2312 013b 06       		.byte	0x6
 2313 013c 2F       		.byte	0x2f
 2314 013d 4D040000 		.4byte	0x44d
 2315 0141 0B       		.uleb128 0xb
 2316 0142 A92E0000 		.4byte	.LASF1092
 2317 0146 06       		.byte	0x6
 2318 0147 30       		.byte	0x30
 2319 0148 A0000000 		.4byte	0xa0
 2320 014c 00       		.byte	0
 2321 014d 0B       		.uleb128 0xb
 2322 014e 8E5F0000 		.4byte	.LASF1093
 2323 0152 06       		.byte	0x6
 2324 0153 31       		.byte	0x31
 2325 0154 A0000000 		.4byte	0xa0
 2326 0158 04       		.byte	0x4
 2327 0159 0B       		.uleb128 0xb
 2328 015a 282E0000 		.4byte	.LASF1094
 2329 015e 06       		.byte	0x6
 2330 015f 32       		.byte	0x32
 2331 0160 A0000000 		.4byte	0xa0
 2332 0164 08       		.byte	0x8
 2333 0165 0B       		.uleb128 0xb
 2334 0166 D8700000 		.4byte	.LASF1095
 2335 016a 06       		.byte	0x6
 2336 016b 33       		.byte	0x33
 2337 016c A5000000 		.4byte	0xa5
 2338 0170 0C       		.byte	0xc
 2339 0171 0B       		.uleb128 0xb
 2340 0172 BF700000 		.4byte	.LASF1096
 2341 0176 06       		.byte	0x6
 2342 0177 34       		.byte	0x34
 2343 0178 A0000000 		.4byte	0xa0
 2344 017c 10       		.byte	0x10
 2345 017d 0B       		.uleb128 0xb
 2346 017e 71350000 		.4byte	.LASF1097
 2347 0182 06       		.byte	0x6
 2348 0183 35       		.byte	0x35
 2349 0184 A5000000 		.4byte	0xa5
 2350 0188 14       		.byte	0x14
 2351 0189 0B       		.uleb128 0xb
 2352 018a 541E0000 		.4byte	.LASF1098
 2353 018e 06       		.byte	0x6
 2354 018f 36       		.byte	0x36
 2355 0190 62040000 		.4byte	0x462
 2356 0194 18       		.byte	0x18
 2357 0195 0B       		.uleb128 0xb
 2358 0196 C0540000 		.4byte	.LASF1099
 2359 019a 06       		.byte	0x6
 2360 019b 37       		.byte	0x37
ARM GAS  /tmp/ccXw4jW7.s 			page 62


 2361 019c A0000000 		.4byte	0xa0
 2362 01a0 20       		.byte	0x20
 2363 01a1 0B       		.uleb128 0xb
 2364 01a2 3E760000 		.4byte	.LASF1100
 2365 01a6 06       		.byte	0x6
 2366 01a7 38       		.byte	0x38
 2367 01a8 A0000000 		.4byte	0xa0
 2368 01ac 24       		.byte	0x24
 2369 01ad 0B       		.uleb128 0xb
 2370 01ae 8C5E0000 		.4byte	.LASF1101
 2371 01b2 06       		.byte	0x6
 2372 01b3 39       		.byte	0x39
 2373 01b4 A0000000 		.4byte	0xa0
 2374 01b8 28       		.byte	0x28
 2375 01b9 0B       		.uleb128 0xb
 2376 01ba A2670000 		.4byte	.LASF1102
 2377 01be 06       		.byte	0x6
 2378 01bf 3A       		.byte	0x3a
 2379 01c0 A0000000 		.4byte	0xa0
 2380 01c4 2C       		.byte	0x2c
 2381 01c5 0B       		.uleb128 0xb
 2382 01c6 BF430000 		.4byte	.LASF1103
 2383 01ca 06       		.byte	0x6
 2384 01cb 3B       		.byte	0x3b
 2385 01cc A0000000 		.4byte	0xa0
 2386 01d0 30       		.byte	0x30
 2387 01d1 0B       		.uleb128 0xb
 2388 01d2 BB220000 		.4byte	.LASF1104
 2389 01d6 06       		.byte	0x6
 2390 01d7 3C       		.byte	0x3c
 2391 01d8 33010000 		.4byte	0x133
 2392 01dc 34       		.byte	0x34
 2393 01dd 0B       		.uleb128 0xb
 2394 01de 6A150000 		.4byte	.LASF1105
 2395 01e2 06       		.byte	0x6
 2396 01e3 3D       		.byte	0x3d
 2397 01e4 A0000000 		.4byte	0xa0
 2398 01e8 40       		.byte	0x40
 2399 01e9 0B       		.uleb128 0xb
 2400 01ea 60490000 		.4byte	.LASF1106
 2401 01ee 06       		.byte	0x6
 2402 01ef 3E       		.byte	0x3e
 2403 01f0 A0000000 		.4byte	0xa0
 2404 01f4 44       		.byte	0x44
 2405 01f5 0B       		.uleb128 0xb
 2406 01f6 721B0000 		.4byte	.LASF1107
 2407 01fa 06       		.byte	0x6
 2408 01fb 3F       		.byte	0x3f
 2409 01fc A0000000 		.4byte	0xa0
 2410 0200 48       		.byte	0x48
 2411 0201 0B       		.uleb128 0xb
 2412 0202 CA4F0000 		.4byte	.LASF1108
 2413 0206 06       		.byte	0x6
 2414 0207 40       		.byte	0x40
 2415 0208 A0000000 		.4byte	0xa0
 2416 020c 4C       		.byte	0x4c
 2417 020d 0B       		.uleb128 0xb
ARM GAS  /tmp/ccXw4jW7.s 			page 63


 2418 020e 6C1E0000 		.4byte	.LASF1109
 2419 0212 06       		.byte	0x6
 2420 0213 41       		.byte	0x41
 2421 0214 81040000 		.4byte	0x481
 2422 0218 50       		.byte	0x50
 2423 0219 0B       		.uleb128 0xb
 2424 021a DA1E0000 		.4byte	.LASF1110
 2425 021e 06       		.byte	0x6
 2426 021f 42       		.byte	0x42
 2427 0220 A0000000 		.4byte	0xa0
 2428 0224 70       		.byte	0x70
 2429 0225 0B       		.uleb128 0xb
 2430 0226 3F530000 		.4byte	.LASF1111
 2431 022a 06       		.byte	0x6
 2432 022b 43       		.byte	0x43
 2433 022c A0000000 		.4byte	0xa0
 2434 0230 74       		.byte	0x74
 2435 0231 0B       		.uleb128 0xb
 2436 0232 9F4C0000 		.4byte	.LASF1112
 2437 0236 06       		.byte	0x6
 2438 0237 44       		.byte	0x44
 2439 0238 A0000000 		.4byte	0xa0
 2440 023c 78       		.byte	0x78
 2441 023d 0B       		.uleb128 0xb
 2442 023e 761E0000 		.4byte	.LASF1113
 2443 0242 06       		.byte	0x6
 2444 0243 45       		.byte	0x45
 2445 0244 A5000000 		.4byte	0xa5
 2446 0248 7C       		.byte	0x7c
 2447 0249 0B       		.uleb128 0xb
 2448 024a 645E0000 		.4byte	.LASF1114
 2449 024e 06       		.byte	0x6
 2450 024f 46       		.byte	0x46
 2451 0250 A0000000 		.4byte	0xa0
 2452 0254 80       		.byte	0x80
 2453 0255 0B       		.uleb128 0xb
 2454 0256 801E0000 		.4byte	.LASF1115
 2455 025a 06       		.byte	0x6
 2456 025b 47       		.byte	0x47
 2457 025c 19010000 		.4byte	0x119
 2458 0260 84       		.byte	0x84
 2459 0261 0B       		.uleb128 0xb
 2460 0262 91710000 		.4byte	.LASF1116
 2461 0266 06       		.byte	0x6
 2462 0267 48       		.byte	0x48
 2463 0268 A0000000 		.4byte	0xa0
 2464 026c 94       		.byte	0x94
 2465 026d 0B       		.uleb128 0xb
 2466 026e D4230000 		.4byte	.LASF1117
 2467 0272 06       		.byte	0x6
 2468 0273 49       		.byte	0x49
 2469 0274 A0000000 		.4byte	0xa0
 2470 0278 98       		.byte	0x98
 2471 0279 0B       		.uleb128 0xb
 2472 027a 79770000 		.4byte	.LASF1118
 2473 027e 06       		.byte	0x6
 2474 027f 4A       		.byte	0x4a
ARM GAS  /tmp/ccXw4jW7.s 			page 64


 2475 0280 A0000000 		.4byte	0xa0
 2476 0284 9C       		.byte	0x9c
 2477 0285 0B       		.uleb128 0xb
 2478 0286 8A1E0000 		.4byte	.LASF1119
 2479 028a 06       		.byte	0x6
 2480 028b 4B       		.byte	0x4b
 2481 028c 86040000 		.4byte	0x486
 2482 0290 A0       		.byte	0xa0
 2483 0291 0B       		.uleb128 0xb
 2484 0292 5A7B0000 		.4byte	.LASF1120
 2485 0296 06       		.byte	0x6
 2486 0297 4C       		.byte	0x4c
 2487 0298 A0000000 		.4byte	0xa0
 2488 029c C0       		.byte	0xc0
 2489 029d 0B       		.uleb128 0xb
 2490 029e 6D310000 		.4byte	.LASF1121
 2491 02a2 06       		.byte	0x6
 2492 02a3 4D       		.byte	0x4d
 2493 02a4 A0000000 		.4byte	0xa0
 2494 02a8 C4       		.byte	0xc4
 2495 02a9 0B       		.uleb128 0xb
 2496 02aa 610A0000 		.4byte	.LASF1122
 2497 02ae 06       		.byte	0x6
 2498 02af 4E       		.byte	0x4e
 2499 02b0 A0000000 		.4byte	0xa0
 2500 02b4 C8       		.byte	0xc8
 2501 02b5 0B       		.uleb128 0xb
 2502 02b6 941E0000 		.4byte	.LASF1123
 2503 02ba 06       		.byte	0x6
 2504 02bb 4F       		.byte	0x4f
 2505 02bc A5000000 		.4byte	0xa5
 2506 02c0 CC       		.byte	0xcc
 2507 02c1 0B       		.uleb128 0xb
 2508 02c2 CB610000 		.4byte	.LASF1124
 2509 02c6 06       		.byte	0x6
 2510 02c7 50       		.byte	0x50
 2511 02c8 A0000000 		.4byte	0xa0
 2512 02cc D0       		.byte	0xd0
 2513 02cd 0B       		.uleb128 0xb
 2514 02ce 87150000 		.4byte	.LASF1125
 2515 02d2 06       		.byte	0x6
 2516 02d3 51       		.byte	0x51
 2517 02d4 A0000000 		.4byte	0xa0
 2518 02d8 D4       		.byte	0xd4
 2519 02d9 0B       		.uleb128 0xb
 2520 02da 26700000 		.4byte	.LASF1126
 2521 02de 06       		.byte	0x6
 2522 02df 52       		.byte	0x52
 2523 02e0 A0000000 		.4byte	0xa0
 2524 02e4 D8       		.byte	0xd8
 2525 02e5 0B       		.uleb128 0xb
 2526 02e6 9E1E0000 		.4byte	.LASF1127
 2527 02ea 06       		.byte	0x6
 2528 02eb 53       		.byte	0x53
 2529 02ec A5000000 		.4byte	0xa5
 2530 02f0 DC       		.byte	0xdc
 2531 02f1 0B       		.uleb128 0xb
ARM GAS  /tmp/ccXw4jW7.s 			page 65


 2532 02f2 21690000 		.4byte	.LASF1128
 2533 02f6 06       		.byte	0x6
 2534 02f7 54       		.byte	0x54
 2535 02f8 A0000000 		.4byte	0xa0
 2536 02fc E0       		.byte	0xe0
 2537 02fd 0B       		.uleb128 0xb
 2538 02fe 311C0000 		.4byte	.LASF1129
 2539 0302 06       		.byte	0x6
 2540 0303 55       		.byte	0x55
 2541 0304 A0000000 		.4byte	0xa0
 2542 0308 E4       		.byte	0xe4
 2543 0309 0B       		.uleb128 0xb
 2544 030a 97760000 		.4byte	.LASF1130
 2545 030e 06       		.byte	0x6
 2546 030f 56       		.byte	0x56
 2547 0310 A0000000 		.4byte	0xa0
 2548 0314 E8       		.byte	0xe8
 2549 0315 0B       		.uleb128 0xb
 2550 0316 A81E0000 		.4byte	.LASF1131
 2551 031a 06       		.byte	0x6
 2552 031b 57       		.byte	0x57
 2553 031c A0040000 		.4byte	0x4a0
 2554 0320 EC       		.byte	0xec
 2555 0321 0C       		.uleb128 0xc
 2556 0322 C1140000 		.4byte	.LASF1132
 2557 0326 06       		.byte	0x6
 2558 0327 58       		.byte	0x58
 2559 0328 67040000 		.4byte	0x467
 2560 032c 0001     		.2byte	0x100
 2561 032e 0C       		.uleb128 0xc
 2562 032f 0A5D0000 		.4byte	.LASF1133
 2563 0333 06       		.byte	0x6
 2564 0334 59       		.byte	0x59
 2565 0335 BA040000 		.4byte	0x4ba
 2566 0339 0801     		.2byte	0x108
 2567 033b 0C       		.uleb128 0xc
 2568 033c 6C060000 		.4byte	.LASF1134
 2569 0340 06       		.byte	0x6
 2570 0341 5A       		.byte	0x5a
 2571 0342 A0000000 		.4byte	0xa0
 2572 0346 5001     		.2byte	0x150
 2573 0348 0C       		.uleb128 0xc
 2574 0349 E87A0000 		.4byte	.LASF1135
 2575 034d 06       		.byte	0x6
 2576 034e 5B       		.byte	0x5b
 2577 034f A0000000 		.4byte	0xa0
 2578 0353 5401     		.2byte	0x154
 2579 0355 0C       		.uleb128 0xc
 2580 0356 155D0000 		.4byte	.LASF1136
 2581 035a 06       		.byte	0x6
 2582 035b 5C       		.byte	0x5c
 2583 035c D4040000 		.4byte	0x4d4
 2584 0360 5801     		.2byte	0x158
 2585 0362 0C       		.uleb128 0xc
 2586 0363 A63C0000 		.4byte	.LASF1137
 2587 0367 06       		.byte	0x6
 2588 0368 5D       		.byte	0x5d
ARM GAS  /tmp/ccXw4jW7.s 			page 66


 2589 0369 A0000000 		.4byte	0xa0
 2590 036d 7001     		.2byte	0x170
 2591 036f 0C       		.uleb128 0xc
 2592 0370 406E0000 		.4byte	.LASF1138
 2593 0374 06       		.byte	0x6
 2594 0375 5E       		.byte	0x5e
 2595 0376 A0000000 		.4byte	0xa0
 2596 037a 7401     		.2byte	0x174
 2597 037c 0C       		.uleb128 0xc
 2598 037d FB110000 		.4byte	.LASF1139
 2599 0381 06       		.byte	0x6
 2600 0382 5F       		.byte	0x5f
 2601 0383 D4000000 		.4byte	0xd4
 2602 0387 7801     		.2byte	0x178
 2603 0389 0C       		.uleb128 0xc
 2604 038a 69320000 		.4byte	.LASF1140
 2605 038e 06       		.byte	0x6
 2606 038f 60       		.byte	0x60
 2607 0390 A0000000 		.4byte	0xa0
 2608 0394 9801     		.2byte	0x198
 2609 0396 0C       		.uleb128 0xc
 2610 0397 855F0000 		.4byte	.LASF1141
 2611 039b 06       		.byte	0x6
 2612 039c 61       		.byte	0x61
 2613 039d A5000000 		.4byte	0xa5
 2614 03a1 9C01     		.2byte	0x19c
 2615 03a3 0C       		.uleb128 0xc
 2616 03a4 205D0000 		.4byte	.LASF1142
 2617 03a8 06       		.byte	0x6
 2618 03a9 62       		.byte	0x62
 2619 03aa F3040000 		.4byte	0x4f3
 2620 03ae A001     		.2byte	0x1a0
 2621 03b0 0C       		.uleb128 0xc
 2622 03b1 A54E0000 		.4byte	.LASF1143
 2623 03b5 06       		.byte	0x6
 2624 03b6 63       		.byte	0x63
 2625 03b7 A0000000 		.4byte	0xa0
 2626 03bb 0002     		.2byte	0x200
 2627 03bd 0C       		.uleb128 0xc
 2628 03be CA6B0000 		.4byte	.LASF1144
 2629 03c2 06       		.byte	0x6
 2630 03c3 64       		.byte	0x64
 2631 03c4 A0000000 		.4byte	0xa0
 2632 03c8 0402     		.2byte	0x204
 2633 03ca 0C       		.uleb128 0xc
 2634 03cb CA700000 		.4byte	.LASF1145
 2635 03cf 06       		.byte	0x6
 2636 03d0 65       		.byte	0x65
 2637 03d1 A0000000 		.4byte	0xa0
 2638 03d5 0802     		.2byte	0x208
 2639 03d7 0C       		.uleb128 0xc
 2640 03d8 6B740000 		.4byte	.LASF1146
 2641 03dc 06       		.byte	0x6
 2642 03dd 66       		.byte	0x66
 2643 03de A0000000 		.4byte	0xa0
 2644 03e2 0C02     		.2byte	0x20c
 2645 03e4 0C       		.uleb128 0xc
ARM GAS  /tmp/ccXw4jW7.s 			page 67


 2646 03e5 2B5D0000 		.4byte	.LASF1147
 2647 03e9 06       		.byte	0x6
 2648 03ea 67       		.byte	0x67
 2649 03eb A5000000 		.4byte	0xa5
 2650 03ef 1002     		.2byte	0x210
 2651 03f1 0C       		.uleb128 0xc
 2652 03f2 D46B0000 		.4byte	.LASF1148
 2653 03f6 06       		.byte	0x6
 2654 03f7 68       		.byte	0x68
 2655 03f8 A0000000 		.4byte	0xa0
 2656 03fc 1402     		.2byte	0x214
 2657 03fe 0C       		.uleb128 0xc
 2658 03ff 365D0000 		.4byte	.LASF1149
 2659 0403 06       		.byte	0x6
 2660 0404 69       		.byte	0x69
 2661 0405 D9040000 		.4byte	0x4d9
 2662 0409 1802     		.2byte	0x218
 2663 040b 0C       		.uleb128 0xc
 2664 040c 4D4D0000 		.4byte	.LASF1150
 2665 0410 06       		.byte	0x6
 2666 0411 6A       		.byte	0x6a
 2667 0412 A0000000 		.4byte	0xa0
 2668 0416 3002     		.2byte	0x230
 2669 0418 0C       		.uleb128 0xc
 2670 0419 635F0000 		.4byte	.LASF1151
 2671 041d 06       		.byte	0x6
 2672 041e 6B       		.byte	0x6b
 2673 041f A0000000 		.4byte	0xa0
 2674 0423 3402     		.2byte	0x234
 2675 0425 0C       		.uleb128 0xc
 2676 0426 DC190000 		.4byte	.LASF1152
 2677 042a 06       		.byte	0x6
 2678 042b 6C       		.byte	0x6c
 2679 042c A0000000 		.4byte	0xa0
 2680 0430 3802     		.2byte	0x238
 2681 0432 0C       		.uleb128 0xc
 2682 0433 415D0000 		.4byte	.LASF1153
 2683 0437 06       		.byte	0x6
 2684 0438 6D       		.byte	0x6d
 2685 0439 0D050000 		.4byte	0x50d
 2686 043d 3C02     		.2byte	0x23c
 2687 043f 0C       		.uleb128 0xc
 2688 0440 A8680000 		.4byte	.LASF1154
 2689 0444 06       		.byte	0x6
 2690 0445 6E       		.byte	0x6e
 2691 0446 A5000000 		.4byte	0xa5
 2692 044a F403     		.2byte	0x3f4
 2693 044c 00       		.byte	0
 2694 044d 07       		.uleb128 0x7
 2695 044e A5000000 		.4byte	0xa5
 2696 0452 5D040000 		.4byte	0x45d
 2697 0456 08       		.uleb128 0x8
 2698 0457 BD000000 		.4byte	0xbd
 2699 045b 01       		.byte	0x1
 2700 045c 00       		.byte	0
 2701 045d 05       		.uleb128 0x5
 2702 045e 4D040000 		.4byte	0x44d
ARM GAS  /tmp/ccXw4jW7.s 			page 68


 2703 0462 06       		.uleb128 0x6
 2704 0463 5D040000 		.4byte	0x45d
 2705 0467 06       		.uleb128 0x6
 2706 0468 5D040000 		.4byte	0x45d
 2707 046c 07       		.uleb128 0x7
 2708 046d A5000000 		.4byte	0xa5
 2709 0471 7C040000 		.4byte	0x47c
 2710 0475 08       		.uleb128 0x8
 2711 0476 BD000000 		.4byte	0xbd
 2712 047a 07       		.byte	0x7
 2713 047b 00       		.byte	0
 2714 047c 05       		.uleb128 0x5
 2715 047d 6C040000 		.4byte	0x46c
 2716 0481 06       		.uleb128 0x6
 2717 0482 7C040000 		.4byte	0x47c
 2718 0486 06       		.uleb128 0x6
 2719 0487 7C040000 		.4byte	0x47c
 2720 048b 07       		.uleb128 0x7
 2721 048c A5000000 		.4byte	0xa5
 2722 0490 9B040000 		.4byte	0x49b
 2723 0494 08       		.uleb128 0x8
 2724 0495 BD000000 		.4byte	0xbd
 2725 0499 04       		.byte	0x4
 2726 049a 00       		.byte	0
 2727 049b 05       		.uleb128 0x5
 2728 049c 8B040000 		.4byte	0x48b
 2729 04a0 06       		.uleb128 0x6
 2730 04a1 9B040000 		.4byte	0x49b
 2731 04a5 07       		.uleb128 0x7
 2732 04a6 A5000000 		.4byte	0xa5
 2733 04aa B5040000 		.4byte	0x4b5
 2734 04ae 08       		.uleb128 0x8
 2735 04af BD000000 		.4byte	0xbd
 2736 04b3 11       		.byte	0x11
 2737 04b4 00       		.byte	0
 2738 04b5 05       		.uleb128 0x5
 2739 04b6 A5040000 		.4byte	0x4a5
 2740 04ba 06       		.uleb128 0x6
 2741 04bb B5040000 		.4byte	0x4b5
 2742 04bf 07       		.uleb128 0x7
 2743 04c0 A5000000 		.4byte	0xa5
 2744 04c4 CF040000 		.4byte	0x4cf
 2745 04c8 08       		.uleb128 0x8
 2746 04c9 BD000000 		.4byte	0xbd
 2747 04cd 05       		.byte	0x5
 2748 04ce 00       		.byte	0
 2749 04cf 05       		.uleb128 0x5
 2750 04d0 BF040000 		.4byte	0x4bf
 2751 04d4 06       		.uleb128 0x6
 2752 04d5 CF040000 		.4byte	0x4cf
 2753 04d9 06       		.uleb128 0x6
 2754 04da CF040000 		.4byte	0x4cf
 2755 04de 07       		.uleb128 0x7
 2756 04df A5000000 		.4byte	0xa5
 2757 04e3 EE040000 		.4byte	0x4ee
 2758 04e7 08       		.uleb128 0x8
 2759 04e8 BD000000 		.4byte	0xbd
ARM GAS  /tmp/ccXw4jW7.s 			page 69


 2760 04ec 17       		.byte	0x17
 2761 04ed 00       		.byte	0
 2762 04ee 05       		.uleb128 0x5
 2763 04ef DE040000 		.4byte	0x4de
 2764 04f3 06       		.uleb128 0x6
 2765 04f4 EE040000 		.4byte	0x4ee
 2766 04f8 07       		.uleb128 0x7
 2767 04f9 A5000000 		.4byte	0xa5
 2768 04fd 08050000 		.4byte	0x508
 2769 0501 08       		.uleb128 0x8
 2770 0502 BD000000 		.4byte	0xbd
 2771 0506 6D       		.byte	0x6d
 2772 0507 00       		.byte	0
 2773 0508 05       		.uleb128 0x5
 2774 0509 F8040000 		.4byte	0x4f8
 2775 050d 06       		.uleb128 0x6
 2776 050e 08050000 		.4byte	0x508
 2777 0512 03       		.uleb128 0x3
 2778 0513 A0100000 		.4byte	.LASF1155
 2779 0517 06       		.byte	0x6
 2780 0518 6F       		.byte	0x6f
 2781 0519 38010000 		.4byte	0x138
 2782 051d 0D       		.uleb128 0xd
 2783 051e 943C0000 		.4byte	.LASF1209
 2784 0522 01       		.byte	0x1
 2785 0523 3B000000 		.4byte	0x3b
 2786 0527 02       		.byte	0x2
 2787 0528 E4       		.byte	0xe4
 2788 0529 A0050000 		.4byte	0x5a0
 2789 052d 0E       		.uleb128 0xe
 2790 052e BC000000 		.4byte	.LASF1156
 2791 0532 00       		.byte	0
 2792 0533 0E       		.uleb128 0xe
 2793 0534 BA3E0000 		.4byte	.LASF1157
 2794 0538 01       		.byte	0x1
 2795 0539 0E       		.uleb128 0xe
 2796 053a 7B010000 		.4byte	.LASF1158
 2797 053e 02       		.byte	0x2
 2798 053f 0E       		.uleb128 0xe
 2799 0540 D0560000 		.4byte	.LASF1159
 2800 0544 03       		.byte	0x3
 2801 0545 0E       		.uleb128 0xe
 2802 0546 26340000 		.4byte	.LASF1160
 2803 054a 04       		.byte	0x4
 2804 054b 0E       		.uleb128 0xe
 2805 054c C45B0000 		.4byte	.LASF1161
 2806 0550 05       		.byte	0x5
 2807 0551 0E       		.uleb128 0xe
 2808 0552 A4340000 		.4byte	.LASF1162
 2809 0556 06       		.byte	0x6
 2810 0557 0E       		.uleb128 0xe
 2811 0558 20740000 		.4byte	.LASF1163
 2812 055c 07       		.byte	0x7
 2813 055d 0E       		.uleb128 0xe
 2814 055e 41070000 		.4byte	.LASF1164
 2815 0562 08       		.byte	0x8
 2816 0563 0E       		.uleb128 0xe
ARM GAS  /tmp/ccXw4jW7.s 			page 70


 2817 0564 3D0E0000 		.4byte	.LASF1165
 2818 0568 09       		.byte	0x9
 2819 0569 0E       		.uleb128 0xe
 2820 056a 510E0000 		.4byte	.LASF1166
 2821 056e 0A       		.byte	0xa
 2822 056f 0E       		.uleb128 0xe
 2823 0570 30240000 		.4byte	.LASF1167
 2824 0574 0B       		.byte	0xb
 2825 0575 0E       		.uleb128 0xe
 2826 0576 B15B0000 		.4byte	.LASF1168
 2827 057a 0C       		.byte	0xc
 2828 057b 0E       		.uleb128 0xe
 2829 057c B9580000 		.4byte	.LASF1169
 2830 0580 0D       		.byte	0xd
 2831 0581 0E       		.uleb128 0xe
 2832 0582 105B0000 		.4byte	.LASF1170
 2833 0586 0E       		.byte	0xe
 2834 0587 0E       		.uleb128 0xe
 2835 0588 F60F0000 		.4byte	.LASF1171
 2836 058c 0F       		.byte	0xf
 2837 058d 0E       		.uleb128 0xe
 2838 058e C93C0000 		.4byte	.LASF1172
 2839 0592 10       		.byte	0x10
 2840 0593 0E       		.uleb128 0xe
 2841 0594 9A7E0000 		.4byte	.LASF1173
 2842 0598 11       		.byte	0x11
 2843 0599 0E       		.uleb128 0xe
 2844 059a 42240000 		.4byte	.LASF1174
 2845 059e 12       		.byte	0x12
 2846 059f 00       		.byte	0
 2847 05a0 0F       		.uleb128 0xf
 2848 05a1 42060000 		.4byte	.LASF1175
 2849 05a5 02       		.byte	0x2
 2850 05a6 2001     		.2byte	0x120
 2851 05a8 1D050000 		.4byte	0x51d
 2852 05ac 10       		.uleb128 0x10
 2853 05ad 40       		.byte	0x40
 2854 05ae 07       		.byte	0x7
 2855 05af 31       		.byte	0x31
 2856 05b0 51060000 		.4byte	0x651
 2857 05b4 0B       		.uleb128 0xb
 2858 05b5 D7280000 		.4byte	.LASF1176
 2859 05b9 07       		.byte	0x7
 2860 05ba 32       		.byte	0x32
 2861 05bb A0000000 		.4byte	0xa0
 2862 05bf 00       		.byte	0
 2863 05c0 0B       		.uleb128 0xb
 2864 05c1 2C0C0000 		.4byte	.LASF1177
 2865 05c5 07       		.byte	0x7
 2866 05c6 33       		.byte	0x33
 2867 05c7 A5000000 		.4byte	0xa5
 2868 05cb 04       		.byte	0x4
 2869 05cc 11       		.uleb128 0x11
 2870 05cd 44415400 		.ascii	"DAT\000"
 2871 05d1 07       		.byte	0x7
 2872 05d2 34       		.byte	0x34
 2873 05d3 A0000000 		.4byte	0xa0
ARM GAS  /tmp/ccXw4jW7.s 			page 71


 2874 05d7 08       		.byte	0x8
 2875 05d8 0B       		.uleb128 0xb
 2876 05d9 4E290000 		.4byte	.LASF1178
 2877 05dd 07       		.byte	0x7
 2878 05de 35       		.byte	0x35
 2879 05df A0000000 		.4byte	0xa0
 2880 05e3 0C       		.byte	0xc
 2881 05e4 0B       		.uleb128 0xb
 2882 05e5 DC010000 		.4byte	.LASF1179
 2883 05e9 07       		.byte	0x7
 2884 05ea 36       		.byte	0x36
 2885 05eb A0000000 		.4byte	0xa0
 2886 05ef 10       		.byte	0x10
 2887 05f0 0B       		.uleb128 0xb
 2888 05f1 E1010000 		.4byte	.LASF1180
 2889 05f5 07       		.byte	0x7
 2890 05f6 37       		.byte	0x37
 2891 05f7 A0000000 		.4byte	0xa0
 2892 05fb 14       		.byte	0x14
 2893 05fc 0B       		.uleb128 0xb
 2894 05fd F4740000 		.4byte	.LASF1181
 2895 0601 07       		.byte	0x7
 2896 0602 38       		.byte	0x38
 2897 0603 A0000000 		.4byte	0xa0
 2898 0607 18       		.byte	0x18
 2899 0608 0B       		.uleb128 0xb
 2900 0609 68370000 		.4byte	.LASF1182
 2901 060d 07       		.byte	0x7
 2902 060e 39       		.byte	0x39
 2903 060f A0000000 		.4byte	0xa0
 2904 0613 1C       		.byte	0x1c
 2905 0614 0B       		.uleb128 0xb
 2906 0615 53290000 		.4byte	.LASF1183
 2907 0619 07       		.byte	0x7
 2908 061a 3A       		.byte	0x3a
 2909 061b A0000000 		.4byte	0xa0
 2910 061f 20       		.byte	0x20
 2911 0620 0B       		.uleb128 0xb
 2912 0621 58290000 		.4byte	.LASF1184
 2913 0625 07       		.byte	0x7
 2914 0626 3B       		.byte	0x3b
 2915 0627 A0000000 		.4byte	0xa0
 2916 062b 24       		.byte	0x24
 2917 062c 0B       		.uleb128 0xb
 2918 062d 5D290000 		.4byte	.LASF1185
 2919 0631 07       		.byte	0x7
 2920 0632 3C       		.byte	0x3c
 2921 0633 A0000000 		.4byte	0xa0
 2922 0637 28       		.byte	0x28
 2923 0638 0B       		.uleb128 0xb
 2924 0639 13750000 		.4byte	.LASF1186
 2925 063d 07       		.byte	0x7
 2926 063e 3D       		.byte	0x3d
 2927 063f A5000000 		.4byte	0xa5
 2928 0643 2C       		.byte	0x2c
 2929 0644 0B       		.uleb128 0xb
 2930 0645 92690000 		.4byte	.LASF1187
ARM GAS  /tmp/ccXw4jW7.s 			page 72


 2931 0649 07       		.byte	0x7
 2932 064a 3E       		.byte	0x3e
 2933 064b FF000000 		.4byte	0xff
 2934 064f 30       		.byte	0x30
 2935 0650 00       		.byte	0
 2936 0651 03       		.uleb128 0x3
 2937 0652 6D5F0000 		.4byte	.LASF1188
 2938 0656 07       		.byte	0x7
 2939 0657 3F       		.byte	0x3f
 2940 0658 AC050000 		.4byte	0x5ac
 2941 065c 12       		.uleb128 0x12
 2942 065d 01       		.byte	0x1
 2943 065e 3B000000 		.4byte	0x3b
 2944 0662 07       		.byte	0x7
 2945 0663 F1       		.byte	0xf1
 2946 0664 8D060000 		.4byte	0x68d
 2947 0668 0E       		.uleb128 0xe
 2948 0669 D8090000 		.4byte	.LASF1189
 2949 066d 00       		.byte	0
 2950 066e 0E       		.uleb128 0xe
 2951 066f 88110000 		.4byte	.LASF1190
 2952 0673 01       		.byte	0x1
 2953 0674 0E       		.uleb128 0xe
 2954 0675 94110000 		.4byte	.LASF1191
 2955 0679 02       		.byte	0x2
 2956 067a 0E       		.uleb128 0xe
 2957 067b A0110000 		.4byte	.LASF1192
 2958 067f 03       		.byte	0x3
 2959 0680 0E       		.uleb128 0xe
 2960 0681 AC110000 		.4byte	.LASF1193
 2961 0685 04       		.byte	0x4
 2962 0686 0E       		.uleb128 0xe
 2963 0687 FB0D0000 		.4byte	.LASF1194
 2964 068b 05       		.byte	0x5
 2965 068c 00       		.byte	0
 2966 068d 03       		.uleb128 0x3
 2967 068e BF390000 		.4byte	.LASF1195
 2968 0692 07       		.byte	0x7
 2969 0693 F8       		.byte	0xf8
 2970 0694 5C060000 		.4byte	0x65c
 2971 0698 12       		.uleb128 0x12
 2972 0699 01       		.byte	0x1
 2973 069a 3B000000 		.4byte	0x3b
 2974 069e 07       		.byte	0x7
 2975 069f FD       		.byte	0xfd
 2976 06a0 C3060000 		.4byte	0x6c3
 2977 06a4 0E       		.uleb128 0xe
 2978 06a5 52390000 		.4byte	.LASF1196
 2979 06a9 00       		.byte	0
 2980 06aa 0E       		.uleb128 0xe
 2981 06ab 746F0000 		.4byte	.LASF1197
 2982 06af 01       		.byte	0x1
 2983 06b0 0E       		.uleb128 0xe
 2984 06b1 C6210000 		.4byte	.LASF1198
 2985 06b5 02       		.byte	0x2
 2986 06b6 0E       		.uleb128 0xe
 2987 06b7 25380000 		.4byte	.LASF1199
ARM GAS  /tmp/ccXw4jW7.s 			page 73


 2988 06bb 03       		.byte	0x3
 2989 06bc 0E       		.uleb128 0xe
 2990 06bd 0B680000 		.4byte	.LASF1200
 2991 06c1 04       		.byte	0x4
 2992 06c2 00       		.byte	0
 2993 06c3 0F       		.uleb128 0xf
 2994 06c4 03460000 		.4byte	.LASF1201
 2995 06c8 07       		.byte	0x7
 2996 06c9 0301     		.2byte	0x103
 2997 06cb 98060000 		.4byte	0x698
 2998 06cf 06       		.uleb128 0x6
 2999 06d0 C3060000 		.4byte	0x6c3
 3000 06d4 13       		.uleb128 0x13
 3001 06d5 18       		.byte	0x18
 3002 06d6 07       		.byte	0x7
 3003 06d7 0801     		.2byte	0x108
 3004 06d9 2C070000 		.4byte	0x72c
 3005 06dd 14       		.uleb128 0x14
 3006 06de 0C650000 		.4byte	.LASF1202
 3007 06e2 07       		.byte	0x7
 3008 06e3 0901     		.2byte	0x109
 3009 06e5 85000000 		.4byte	0x85
 3010 06e9 00       		.byte	0
 3011 06ea 14       		.uleb128 0x14
 3012 06eb 823D0000 		.4byte	.LASF1203
 3013 06ef 07       		.byte	0x7
 3014 06f0 0A01     		.2byte	0x10a
 3015 06f2 2C070000 		.4byte	0x72c
 3016 06f6 04       		.byte	0x4
 3017 06f7 14       		.uleb128 0x14
 3018 06f8 AC790000 		.4byte	.LASF1204
 3019 06fc 07       		.byte	0x7
 3020 06fd 0B01     		.2byte	0x10b
 3021 06ff 77000000 		.4byte	0x77
 3022 0703 08       		.byte	0x8
 3023 0704 14       		.uleb128 0x14
 3024 0705 815C0000 		.4byte	.LASF1205
 3025 0709 07       		.byte	0x7
 3026 070a 0D01     		.2byte	0x10d
 3027 070c 32070000 		.4byte	0x732
 3028 0710 0C       		.byte	0xc
 3029 0711 14       		.uleb128 0x14
 3030 0712 9E780000 		.4byte	.LASF1206
 3031 0716 07       		.byte	0x7
 3032 0717 0E01     		.2byte	0x10e
 3033 0719 77000000 		.4byte	0x77
 3034 071d 10       		.byte	0x10
 3035 071e 14       		.uleb128 0x14
 3036 071f B9380000 		.4byte	.LASF1207
 3037 0723 07       		.byte	0x7
 3038 0724 1001     		.2byte	0x110
 3039 0726 C3060000 		.4byte	0x6c3
 3040 072a 14       		.byte	0x14
 3041 072b 00       		.byte	0
 3042 072c 15       		.uleb128 0x15
 3043 072d 04       		.byte	0x4
 3044 072e 90000000 		.4byte	0x90
ARM GAS  /tmp/ccXw4jW7.s 			page 74


 3045 0732 15       		.uleb128 0x15
 3046 0733 04       		.byte	0x4
 3047 0734 85000000 		.4byte	0x85
 3048 0738 0F       		.uleb128 0xf
 3049 0739 37380000 		.4byte	.LASF1208
 3050 073d 07       		.byte	0x7
 3051 073e 1101     		.2byte	0x111
 3052 0740 D4060000 		.4byte	0x6d4
 3053 0744 16       		.uleb128 0x16
 3054 0745 2F5F0000 		.4byte	.LASF1210
 3055 0749 01       		.byte	0x1
 3056 074a 3B000000 		.4byte	0x3b
 3057 074e 07       		.byte	0x7
 3058 074f 1B01     		.2byte	0x11b
 3059 0751 62070000 		.4byte	0x762
 3060 0755 0E       		.uleb128 0xe
 3061 0756 B4580000 		.4byte	.LASF1211
 3062 075a 00       		.byte	0
 3063 075b 0E       		.uleb128 0xe
 3064 075c 0D4D0000 		.4byte	.LASF1212
 3065 0760 01       		.byte	0x1
 3066 0761 00       		.byte	0
 3067 0762 0F       		.uleb128 0xf
 3068 0763 1D1E0000 		.4byte	.LASF1213
 3069 0767 07       		.byte	0x7
 3070 0768 1E01     		.2byte	0x11e
 3071 076a 44070000 		.4byte	0x744
 3072 076e 17       		.uleb128 0x17
 3073 076f 01       		.byte	0x1
 3074 0770 3B000000 		.4byte	0x3b
 3075 0774 07       		.byte	0x7
 3076 0775 2301     		.2byte	0x123
 3077 0777 A0070000 		.4byte	0x7a0
 3078 077b 0E       		.uleb128 0xe
 3079 077c 12450000 		.4byte	.LASF1214
 3080 0780 01       		.byte	0x1
 3081 0781 0E       		.uleb128 0xe
 3082 0782 40450000 		.4byte	.LASF1215
 3083 0786 02       		.byte	0x2
 3084 0787 0E       		.uleb128 0xe
 3085 0788 724D0000 		.4byte	.LASF1216
 3086 078c 03       		.byte	0x3
 3087 078d 0E       		.uleb128 0xe
 3088 078e AC150000 		.4byte	.LASF1217
 3089 0792 04       		.byte	0x4
 3090 0793 0E       		.uleb128 0xe
 3091 0794 0F2F0000 		.4byte	.LASF1218
 3092 0798 05       		.byte	0x5
 3093 0799 0E       		.uleb128 0xe
 3094 079a 42380000 		.4byte	.LASF1219
 3095 079e 06       		.byte	0x6
 3096 079f 00       		.byte	0
 3097 07a0 0F       		.uleb128 0xf
 3098 07a1 7A500000 		.4byte	.LASF1220
 3099 07a5 07       		.byte	0x7
 3100 07a6 2A01     		.2byte	0x12a
 3101 07a8 6E070000 		.4byte	0x76e
ARM GAS  /tmp/ccXw4jW7.s 			page 75


 3102 07ac 0F       		.uleb128 0xf
 3103 07ad A8650000 		.4byte	.LASF1221
 3104 07b1 07       		.byte	0x7
 3105 07b2 2F01     		.2byte	0x12f
 3106 07b4 B8070000 		.4byte	0x7b8
 3107 07b8 15       		.uleb128 0x15
 3108 07b9 04       		.byte	0x4
 3109 07ba BE070000 		.4byte	0x7be
 3110 07be 18       		.uleb128 0x18
 3111 07bf CE070000 		.4byte	0x7ce
 3112 07c3 19       		.uleb128 0x19
 3113 07c4 62070000 		.4byte	0x762
 3114 07c8 19       		.uleb128 0x19
 3115 07c9 A0070000 		.4byte	0x7a0
 3116 07cd 00       		.byte	0
 3117 07ce 1A       		.uleb128 0x1a
 3118 07cf 9A0C0000 		.4byte	.LASF1222
 3119 07d3 05       		.byte	0x5
 3120 07d4 1D01     		.2byte	0x11d
 3121 07d6 95000000 		.4byte	0x95
 3122 07da 1B       		.uleb128 0x1b
 3123 07db 6C500000 		.4byte	.LASF1228
 3124 07df 1C       		.byte	0x1c
 3125 07e0 01       		.byte	0x1
 3126 07e1 2E       		.byte	0x2e
 3127 07e2 3A080000 		.4byte	0x83a
 3128 07e6 11       		.uleb128 0x11
 3129 07e7 697000   		.ascii	"ip\000"
 3130 07ea 01       		.byte	0x1
 3131 07eb 2F       		.byte	0x2f
 3132 07ec 3A080000 		.4byte	0x83a
 3133 07f0 00       		.byte	0
 3134 07f1 11       		.uleb128 0x11
 3135 07f2 636C6B00 		.ascii	"clk\000"
 3136 07f6 01       		.byte	0x1
 3137 07f7 30       		.byte	0x30
 3138 07f8 A0050000 		.4byte	0x5a0
 3139 07fc 04       		.byte	0x4
 3140 07fd 0B       		.uleb128 0xb
 3141 07fe 725E0000 		.4byte	.LASF1223
 3142 0802 01       		.byte	0x1
 3143 0803 31       		.byte	0x31
 3144 0804 AC070000 		.4byte	0x7ac
 3145 0808 08       		.byte	0x8
 3146 0809 0B       		.uleb128 0xb
 3147 080a 22090000 		.4byte	.LASF1224
 3148 080e 01       		.byte	0x1
 3149 080f 32       		.byte	0x32
 3150 0810 AC070000 		.4byte	0x7ac
 3151 0814 0C       		.byte	0xc
 3152 0815 0B       		.uleb128 0xb
 3153 0816 63080000 		.4byte	.LASF1225
 3154 081a 01       		.byte	0x1
 3155 081b 33       		.byte	0x33
 3156 081c 40080000 		.4byte	0x840
 3157 0820 10       		.byte	0x10
 3158 0821 0B       		.uleb128 0xb
ARM GAS  /tmp/ccXw4jW7.s 			page 76


 3159 0822 383C0000 		.4byte	.LASF1226
 3160 0826 01       		.byte	0x1
 3161 0827 34       		.byte	0x34
 3162 0828 40080000 		.4byte	0x840
 3163 082c 14       		.byte	0x14
 3164 082d 0B       		.uleb128 0xb
 3165 082e A4280000 		.4byte	.LASF1227
 3166 0832 01       		.byte	0x1
 3167 0833 35       		.byte	0x35
 3168 0834 95000000 		.4byte	0x95
 3169 0838 18       		.byte	0x18
 3170 0839 00       		.byte	0
 3171 083a 15       		.uleb128 0x15
 3172 083b 04       		.byte	0x4
 3173 083c 51060000 		.4byte	0x651
 3174 0840 15       		.uleb128 0x15
 3175 0841 04       		.byte	0x4
 3176 0842 38070000 		.4byte	0x738
 3177 0846 1B       		.uleb128 0x1b
 3178 0847 10460000 		.4byte	.LASF1229
 3179 084b 08       		.byte	0x8
 3180 084c 01       		.byte	0x1
 3181 084d 39       		.byte	0x39
 3182 084e 6B080000 		.4byte	0x86b
 3183 0852 0B       		.uleb128 0xb
 3184 0853 40770000 		.4byte	.LASF1230
 3185 0857 01       		.byte	0x1
 3186 0858 3A       		.byte	0x3a
 3187 0859 40080000 		.4byte	0x840
 3188 085d 00       		.byte	0
 3189 085e 0B       		.uleb128 0xb
 3190 085f C4470000 		.4byte	.LASF1231
 3191 0863 01       		.byte	0x1
 3192 0864 3B       		.byte	0x3b
 3193 0865 AC070000 		.4byte	0x7ac
 3194 0869 04       		.byte	0x4
 3195 086a 00       		.byte	0
 3196 086b 1C       		.uleb128 0x1c
 3197 086c 69326300 		.ascii	"i2c\000"
 3198 0870 01       		.byte	0x1
 3199 0871 3F       		.byte	0x3f
 3200 0872 DA070000 		.4byte	0x7da
 3201 0876 05       		.uleb128 0x5
 3202 0877 03       		.byte	0x3
 3203 0878 00000000 		.4byte	i2c
 3204 087c 07       		.uleb128 0x7
 3205 087d 46080000 		.4byte	0x846
 3206 0881 92080000 		.4byte	0x892
 3207 0885 08       		.uleb128 0x8
 3208 0886 BD000000 		.4byte	0xbd
 3209 088a 00       		.byte	0
 3210 088b 08       		.uleb128 0x8
 3211 088c BD000000 		.4byte	0xbd
 3212 0890 04       		.byte	0x4
 3213 0891 00       		.byte	0
 3214 0892 1D       		.uleb128 0x1d
 3215 0893 704F0000 		.4byte	.LASF1232
ARM GAS  /tmp/ccXw4jW7.s 			page 77


 3216 0897 01       		.byte	0x1
 3217 0898 42       		.byte	0x42
 3218 0899 7C080000 		.4byte	0x87c
 3219 089d 05       		.uleb128 0x5
 3220 089e 03       		.byte	0x3
 3221 089f 00000000 		.4byte	i2c_slave
 3222 08a3 1E       		.uleb128 0x1e
 3223 08a4 114E0000 		.4byte	.LASF1259
 3224 08a8 01       		.byte	0x1
 3225 08a9 3A02     		.2byte	0x23a
 3226 08ab 77000000 		.4byte	0x77
 3227 08af 01       		.byte	0x1
 3228 08b0 C0080000 		.4byte	0x8c0
 3229 08b4 1F       		.uleb128 0x1f
 3230 08b5 696400   		.ascii	"id\000"
 3231 08b8 01       		.byte	0x1
 3232 08b9 3A02     		.2byte	0x23a
 3233 08bb 62070000 		.4byte	0x762
 3234 08bf 00       		.byte	0
 3235 08c0 20       		.uleb128 0x20
 3236 08c1 BE7E0000 		.4byte	.LASF1233
 3237 08c5 01       		.byte	0x1
 3238 08c6 3302     		.2byte	0x233
 3239 08c8 00000000 		.4byte	.LFB228
 3240 08cc 10000000 		.4byte	.LFE228-.LFB228
 3241 08d0 01       		.uleb128 0x1
 3242 08d1 9C       		.byte	0x9c
 3243 08d2 E4080000 		.4byte	0x8e4
 3244 08d6 21       		.uleb128 0x21
 3245 08d7 696400   		.ascii	"id\000"
 3246 08da 01       		.byte	0x1
 3247 08db 3302     		.2byte	0x233
 3248 08dd 62070000 		.4byte	0x762
 3249 08e1 01       		.uleb128 0x1
 3250 08e2 50       		.byte	0x50
 3251 08e3 00       		.byte	0
 3252 08e4 20       		.uleb128 0x20
 3253 08e5 62290000 		.4byte	.LASF1234
 3254 08e9 01       		.byte	0x1
 3255 08ea 1902     		.2byte	0x219
 3256 08ec 00000000 		.4byte	.LFB227
 3257 08f0 60000000 		.4byte	.LFE227-.LFB227
 3258 08f4 01       		.uleb128 0x1
 3259 08f5 9C       		.byte	0x9c
 3260 08f6 8D090000 		.4byte	0x98d
 3261 08fa 22       		.uleb128 0x22
 3262 08fb 696400   		.ascii	"id\000"
 3263 08fe 01       		.byte	0x1
 3264 08ff 1902     		.2byte	0x219
 3265 0901 62070000 		.4byte	0x762
 3266 0905 00000000 		.4byte	.LLST59
 3267 0909 23       		.uleb128 0x23
 3268 090a 72657400 		.ascii	"ret\000"
 3269 090e 01       		.byte	0x1
 3270 090f 1B02     		.2byte	0x21b
 3271 0911 77000000 		.4byte	0x77
 3272 0915 3A000000 		.4byte	.LLST60
ARM GAS  /tmp/ccXw4jW7.s 			page 78


 3273 0919 24       		.uleb128 0x24
 3274 091a 69696300 		.ascii	"iic\000"
 3275 091e 01       		.byte	0x1
 3276 091f 1C02     		.2byte	0x21c
 3277 0921 8D090000 		.4byte	0x98d
 3278 0925 06       		.uleb128 0x6
 3279 0926 03       		.byte	0x3
 3280 0927 00000000 		.4byte	i2c
 3281 092b 9F       		.byte	0x9f
 3282 092c 25       		.uleb128 0x25
 3283 092d 78010000 		.4byte	.Ldebug_ranges0+0x178
 3284 0931 66090000 		.4byte	0x966
 3285 0935 26       		.uleb128 0x26
 3286 0936 D52A0000 		.4byte	.LASF1235
 3287 093a 01       		.byte	0x1
 3288 093b 2002     		.2byte	0x220
 3289 093d 93090000 		.4byte	0x993
 3290 0941 58000000 		.4byte	.LLST61
 3291 0945 23       		.uleb128 0x23
 3292 0946 73696400 		.ascii	"sid\000"
 3293 094a 01       		.byte	0x1
 3294 094b 2202     		.2byte	0x222
 3295 094d 8D060000 		.4byte	0x68d
 3296 0951 7A000000 		.4byte	.LLST62
 3297 0955 27       		.uleb128 0x27
 3298 0956 40000000 		.4byte	.LVL138
 3299 095a 4D100000 		.4byte	0x104d
 3300 095e 28       		.uleb128 0x28
 3301 095f 01       		.uleb128 0x1
 3302 0960 50       		.byte	0x50
 3303 0961 02       		.uleb128 0x2
 3304 0962 76       		.byte	0x76
 3305 0963 00       		.sleb128 0
 3306 0964 00       		.byte	0
 3307 0965 00       		.byte	0
 3308 0966 29       		.uleb128 0x29
 3309 0967 22000000 		.4byte	.LVL132
 3310 096b DC0F0000 		.4byte	0xfdc
 3311 096f 80090000 		.4byte	0x980
 3312 0973 28       		.uleb128 0x28
 3313 0974 01       		.uleb128 0x1
 3314 0975 50       		.byte	0x50
 3315 0976 02       		.uleb128 0x2
 3316 0977 76       		.byte	0x76
 3317 0978 00       		.sleb128 0
 3318 0979 28       		.uleb128 0x28
 3319 097a 01       		.uleb128 0x1
 3320 097b 51       		.byte	0x51
 3321 097c 02       		.uleb128 0x2
 3322 097d 74       		.byte	0x74
 3323 097e 00       		.sleb128 0
 3324 097f 00       		.byte	0
 3325 0980 2A       		.uleb128 0x2a
 3326 0981 34000000 		.4byte	.LVL134
 3327 0985 28       		.uleb128 0x28
 3328 0986 01       		.uleb128 0x1
 3329 0987 50       		.byte	0x50
ARM GAS  /tmp/ccXw4jW7.s 			page 79


 3330 0988 02       		.uleb128 0x2
 3331 0989 77       		.byte	0x77
 3332 098a 00       		.sleb128 0
 3333 098b 00       		.byte	0
 3334 098c 00       		.byte	0
 3335 098d 15       		.uleb128 0x15
 3336 098e 04       		.byte	0x4
 3337 098f DA070000 		.4byte	0x7da
 3338 0993 15       		.uleb128 0x15
 3339 0994 04       		.byte	0x4
 3340 0995 46080000 		.4byte	0x846
 3341 0999 20       		.uleb128 0x20
 3342 099a AF4B0000 		.4byte	.LASF1236
 3343 099e 01       		.byte	0x1
 3344 099f 0202     		.2byte	0x202
 3345 09a1 00000000 		.4byte	.LFB226
 3346 09a5 74000000 		.4byte	.LFE226-.LFB226
 3347 09a9 01       		.uleb128 0x1
 3348 09aa 9C       		.byte	0x9c
 3349 09ab 950A0000 		.4byte	0xa95
 3350 09af 22       		.uleb128 0x22
 3351 09b0 696400   		.ascii	"id\000"
 3352 09b3 01       		.byte	0x1
 3353 09b4 0202     		.2byte	0x202
 3354 09b6 62070000 		.4byte	0x762
 3355 09ba 8D000000 		.4byte	.LLST47
 3356 09be 22       		.uleb128 0x22
 3357 09bf 73696400 		.ascii	"sid\000"
 3358 09c3 01       		.byte	0x1
 3359 09c4 0302     		.2byte	0x203
 3360 09c6 8D060000 		.4byte	0x68d
 3361 09ca AE000000 		.4byte	.LLST48
 3362 09ce 2B       		.uleb128 0x2b
 3363 09cf 40770000 		.4byte	.LASF1230
 3364 09d3 01       		.byte	0x1
 3365 09d4 0402     		.2byte	0x204
 3366 09d6 40080000 		.4byte	0x840
 3367 09da DA000000 		.4byte	.LLST49
 3368 09de 2B       		.uleb128 0x2b
 3369 09df C4470000 		.4byte	.LASF1231
 3370 09e3 01       		.byte	0x1
 3371 09e4 0502     		.2byte	0x205
 3372 09e6 AC070000 		.4byte	0x7ac
 3373 09ea 35010000 		.4byte	.LLST50
 3374 09ee 2B       		.uleb128 0x2b
 3375 09ef 7C350000 		.4byte	.LASF1237
 3376 09f3 01       		.byte	0x1
 3377 09f4 0602     		.2byte	0x206
 3378 09f6 85000000 		.4byte	0x85
 3379 09fa 90010000 		.4byte	.LLST51
 3380 09fe 24       		.uleb128 0x24
 3381 09ff 69696300 		.ascii	"iic\000"
 3382 0a03 01       		.byte	0x1
 3383 0a04 0802     		.2byte	0x208
 3384 0a06 8D090000 		.4byte	0x98d
 3385 0a0a 06       		.uleb128 0x6
 3386 0a0b 03       		.byte	0x3
ARM GAS  /tmp/ccXw4jW7.s 			page 80


 3387 0a0c 00000000 		.4byte	i2c
 3388 0a10 9F       		.byte	0x9f
 3389 0a11 26       		.uleb128 0x26
 3390 0a12 D52A0000 		.4byte	.LASF1235
 3391 0a16 01       		.byte	0x1
 3392 0a17 0902     		.2byte	0x209
 3393 0a19 93090000 		.4byte	0x993
 3394 0a1d BC010000 		.4byte	.LLST52
 3395 0a21 2C       		.uleb128 0x2c
 3396 0a22 20110000 		.4byte	0x1120
 3397 0a26 20000000 		.4byte	.LBB153
 3398 0a2a 40010000 		.4byte	.Ldebug_ranges0+0x140
 3399 0a2e 01       		.byte	0x1
 3400 0a2f 0F02     		.2byte	0x20f
 3401 0a31 7C0A0000 		.4byte	0xa7c
 3402 0a35 2D       		.uleb128 0x2d
 3403 0a36 4D110000 		.4byte	0x114d
 3404 0a3a 2C020000 		.4byte	.LLST53
 3405 0a3e 2D       		.uleb128 0x2d
 3406 0a3f 42110000 		.4byte	0x1142
 3407 0a43 4A020000 		.4byte	.LLST54
 3408 0a47 2D       		.uleb128 0x2d
 3409 0a48 37110000 		.4byte	0x1137
 3410 0a4c 68020000 		.4byte	.LLST55
 3411 0a50 2D       		.uleb128 0x2d
 3412 0a51 2C110000 		.4byte	0x112c
 3413 0a55 86020000 		.4byte	.LLST56
 3414 0a59 2E       		.uleb128 0x2e
 3415 0a5a 40010000 		.4byte	.Ldebug_ranges0+0x140
 3416 0a5e 2F       		.uleb128 0x2f
 3417 0a5f 58110000 		.4byte	0x1158
 3418 0a63 B3020000 		.4byte	.LLST57
 3419 0a67 30       		.uleb128 0x30
 3420 0a68 2E000000 		.4byte	.LBB155
 3421 0a6c 0C000000 		.4byte	.LBE155-.LBB155
 3422 0a70 2F       		.uleb128 0x2f
 3423 0a71 64110000 		.4byte	0x1164
 3424 0a75 D5020000 		.4byte	.LLST58
 3425 0a79 00       		.byte	0
 3426 0a7a 00       		.byte	0
 3427 0a7b 00       		.byte	0
 3428 0a7c 31       		.uleb128 0x31
 3429 0a7d CB110000 		.4byte	0x11cb
 3430 0a81 5A000000 		.4byte	.LBB160
 3431 0a85 60010000 		.4byte	.Ldebug_ranges0+0x160
 3432 0a89 01       		.byte	0x1
 3433 0a8a 1302     		.2byte	0x213
 3434 0a8c 32       		.uleb128 0x32
 3435 0a8d D7110000 		.4byte	0x11d7
 3436 0a91 01       		.uleb128 0x1
 3437 0a92 53       		.byte	0x53
 3438 0a93 00       		.byte	0
 3439 0a94 00       		.byte	0
 3440 0a95 33       		.uleb128 0x33
 3441 0a96 B23B0000 		.4byte	.LASF1254
 3442 0a9a 01       		.byte	0x1
 3443 0a9b FA01     		.2byte	0x1fa
ARM GAS  /tmp/ccXw4jW7.s 			page 81


 3444 0a9d 01       		.byte	0x1
 3445 0a9e AE0A0000 		.4byte	0xaae
 3446 0aa2 1F       		.uleb128 0x1f
 3447 0aa3 696400   		.ascii	"id\000"
 3448 0aa6 01       		.byte	0x1
 3449 0aa7 FA01     		.2byte	0x1fa
 3450 0aa9 62070000 		.4byte	0x762
 3451 0aad 00       		.byte	0
 3452 0aae 34       		.uleb128 0x34
 3453 0aaf 7D280000 		.4byte	.LASF1238
 3454 0ab3 01       		.byte	0x1
 3455 0ab4 F301     		.2byte	0x1f3
 3456 0ab6 77000000 		.4byte	0x77
 3457 0aba 00000000 		.4byte	.LFB224
 3458 0abe 1C000000 		.4byte	.LFE224-.LFB224
 3459 0ac2 01       		.uleb128 0x1
 3460 0ac3 9C       		.byte	0x9c
 3461 0ac4 0B0B0000 		.4byte	0xb0b
 3462 0ac8 22       		.uleb128 0x22
 3463 0ac9 696400   		.ascii	"id\000"
 3464 0acc 01       		.byte	0x1
 3465 0acd F301     		.2byte	0x1f3
 3466 0acf 62070000 		.4byte	0x762
 3467 0ad3 08030000 		.4byte	.LLST39
 3468 0ad7 31       		.uleb128 0x31
 3469 0ad8 77110000 		.4byte	0x1177
 3470 0adc 02000000 		.4byte	.LBB137
 3471 0ae0 08010000 		.4byte	.Ldebug_ranges0+0x108
 3472 0ae4 01       		.byte	0x1
 3473 0ae5 F601     		.2byte	0x1f6
 3474 0ae7 2D       		.uleb128 0x2d
 3475 0ae8 87110000 		.4byte	0x1187
 3476 0aec 29030000 		.4byte	.LLST40
 3477 0af0 35       		.uleb128 0x35
 3478 0af1 93110000 		.4byte	0x1193
 3479 0af5 06000000 		.4byte	.LBB139
 3480 0af9 06000000 		.4byte	.LBE139-.LBB139
 3481 0afd 01       		.byte	0x1
 3482 0afe 82       		.byte	0x82
 3483 0aff 2D       		.uleb128 0x2d
 3484 0b00 A3110000 		.4byte	0x11a3
 3485 0b04 29030000 		.4byte	.LLST40
 3486 0b08 00       		.byte	0
 3487 0b09 00       		.byte	0
 3488 0b0a 00       		.byte	0
 3489 0b0b 34       		.uleb128 0x34
 3490 0b0c 893D0000 		.4byte	.LASF1239
 3491 0b10 01       		.byte	0x1
 3492 0b11 E601     		.2byte	0x1e6
 3493 0b13 77000000 		.4byte	0x77
 3494 0b17 00000000 		.4byte	.LFB223
 3495 0b1b 28000000 		.4byte	.LFE223-.LFB223
 3496 0b1f 01       		.uleb128 0x1
 3497 0b20 9C       		.byte	0x9c
 3498 0b21 8A0B0000 		.4byte	0xb8a
 3499 0b25 22       		.uleb128 0x22
 3500 0b26 696400   		.ascii	"id\000"
ARM GAS  /tmp/ccXw4jW7.s 			page 82


 3501 0b29 01       		.byte	0x1
 3502 0b2a E601     		.2byte	0x1e6
 3503 0b2c 62070000 		.4byte	0x762
 3504 0b30 3C030000 		.4byte	.LLST35
 3505 0b34 2B       		.uleb128 0x2b
 3506 0b35 0C650000 		.4byte	.LASF1202
 3507 0b39 01       		.byte	0x1
 3508 0b3a E601     		.2byte	0x1e6
 3509 0b3c 85000000 		.4byte	0x85
 3510 0b40 5D030000 		.4byte	.LLST36
 3511 0b44 2B       		.uleb128 0x2b
 3512 0b45 B4460000 		.4byte	.LASF1240
 3513 0b49 01       		.byte	0x1
 3514 0b4a E601     		.2byte	0x1e6
 3515 0b4c 32070000 		.4byte	0x732
 3516 0b50 7E030000 		.4byte	.LLST37
 3517 0b54 22       		.uleb128 0x22
 3518 0b55 6C656E00 		.ascii	"len\000"
 3519 0b59 01       		.byte	0x1
 3520 0b5a E601     		.2byte	0x1e6
 3521 0b5c 77000000 		.4byte	0x77
 3522 0b60 9F030000 		.4byte	.LLST38
 3523 0b64 36       		.uleb128 0x36
 3524 0b65 40770000 		.4byte	.LASF1230
 3525 0b69 01       		.byte	0x1
 3526 0b6a E901     		.2byte	0x1e9
 3527 0b6c 38070000 		.4byte	0x738
 3528 0b70 02       		.uleb128 0x2
 3529 0b71 91       		.byte	0x91
 3530 0b72 58       		.sleb128 -40
 3531 0b73 27       		.uleb128 0x27
 3532 0b74 1C000000 		.4byte	.LVL97
 3533 0b78 970C0000 		.4byte	0xc97
 3534 0b7c 28       		.uleb128 0x28
 3535 0b7d 01       		.uleb128 0x1
 3536 0b7e 50       		.byte	0x50
 3537 0b7f 02       		.uleb128 0x2
 3538 0b80 74       		.byte	0x74
 3539 0b81 00       		.sleb128 0
 3540 0b82 28       		.uleb128 0x28
 3541 0b83 01       		.uleb128 0x1
 3542 0b84 51       		.byte	0x51
 3543 0b85 02       		.uleb128 0x2
 3544 0b86 7D       		.byte	0x7d
 3545 0b87 00       		.sleb128 0
 3546 0b88 00       		.byte	0
 3547 0b89 00       		.byte	0
 3548 0b8a 34       		.uleb128 0x34
 3549 0b8b 9C560000 		.4byte	.LASF1241
 3550 0b8f 01       		.byte	0x1
 3551 0b90 D901     		.2byte	0x1d9
 3552 0b92 77000000 		.4byte	0x77
 3553 0b96 00000000 		.4byte	.LFB222
 3554 0b9a 30000000 		.4byte	.LFE222-.LFB222
 3555 0b9e 01       		.uleb128 0x1
 3556 0b9f 9C       		.byte	0x9c
 3557 0ba0 180C0000 		.4byte	0xc18
ARM GAS  /tmp/ccXw4jW7.s 			page 83


 3558 0ba4 22       		.uleb128 0x22
 3559 0ba5 696400   		.ascii	"id\000"
 3560 0ba8 01       		.byte	0x1
 3561 0ba9 D901     		.2byte	0x1d9
 3562 0bab 62070000 		.4byte	0x762
 3563 0baf CB030000 		.4byte	.LLST31
 3564 0bb3 2B       		.uleb128 0x2b
 3565 0bb4 0C650000 		.4byte	.LASF1202
 3566 0bb8 01       		.byte	0x1
 3567 0bb9 D901     		.2byte	0x1d9
 3568 0bbb 85000000 		.4byte	0x85
 3569 0bbf EC030000 		.4byte	.LLST32
 3570 0bc3 22       		.uleb128 0x22
 3571 0bc4 636D6400 		.ascii	"cmd\000"
 3572 0bc8 01       		.byte	0x1
 3573 0bc9 D901     		.2byte	0x1d9
 3574 0bcb 85000000 		.4byte	0x85
 3575 0bcf 0D040000 		.4byte	.LLST33
 3576 0bd3 2B       		.uleb128 0x2b
 3577 0bd4 B4460000 		.4byte	.LASF1240
 3578 0bd8 01       		.byte	0x1
 3579 0bd9 D901     		.2byte	0x1d9
 3580 0bdb 32070000 		.4byte	0x732
 3581 0bdf 38040000 		.4byte	.LLST34
 3582 0be3 21       		.uleb128 0x21
 3583 0be4 6C656E00 		.ascii	"len\000"
 3584 0be8 01       		.byte	0x1
 3585 0be9 D901     		.2byte	0x1d9
 3586 0beb 77000000 		.4byte	0x77
 3587 0bef 02       		.uleb128 0x2
 3588 0bf0 91       		.byte	0x91
 3589 0bf1 00       		.sleb128 0
 3590 0bf2 36       		.uleb128 0x36
 3591 0bf3 40770000 		.4byte	.LASF1230
 3592 0bf7 01       		.byte	0x1
 3593 0bf8 DB01     		.2byte	0x1db
 3594 0bfa 38070000 		.4byte	0x738
 3595 0bfe 02       		.uleb128 0x2
 3596 0bff 91       		.byte	0x91
 3597 0c00 58       		.sleb128 -40
 3598 0c01 27       		.uleb128 0x27
 3599 0c02 24000000 		.4byte	.LVL93
 3600 0c06 970C0000 		.4byte	0xc97
 3601 0c0a 28       		.uleb128 0x28
 3602 0c0b 01       		.uleb128 0x1
 3603 0c0c 50       		.byte	0x50
 3604 0c0d 02       		.uleb128 0x2
 3605 0c0e 75       		.byte	0x75
 3606 0c0f 00       		.sleb128 0
 3607 0c10 28       		.uleb128 0x28
 3608 0c11 01       		.uleb128 0x1
 3609 0c12 51       		.byte	0x51
 3610 0c13 02       		.uleb128 0x2
 3611 0c14 74       		.byte	0x74
 3612 0c15 00       		.sleb128 0
 3613 0c16 00       		.byte	0
 3614 0c17 00       		.byte	0
ARM GAS  /tmp/ccXw4jW7.s 			page 84


 3615 0c18 34       		.uleb128 0x34
 3616 0c19 03350000 		.4byte	.LASF1242
 3617 0c1d 01       		.byte	0x1
 3618 0c1e CB01     		.2byte	0x1cb
 3619 0c20 77000000 		.4byte	0x77
 3620 0c24 00000000 		.4byte	.LFB221
 3621 0c28 28000000 		.4byte	.LFE221-.LFB221
 3622 0c2c 01       		.uleb128 0x1
 3623 0c2d 9C       		.byte	0x9c
 3624 0c2e 970C0000 		.4byte	0xc97
 3625 0c32 22       		.uleb128 0x22
 3626 0c33 696400   		.ascii	"id\000"
 3627 0c36 01       		.byte	0x1
 3628 0c37 CB01     		.2byte	0x1cb
 3629 0c39 62070000 		.4byte	0x762
 3630 0c3d 59040000 		.4byte	.LLST27
 3631 0c41 2B       		.uleb128 0x2b
 3632 0c42 0C650000 		.4byte	.LASF1202
 3633 0c46 01       		.byte	0x1
 3634 0c47 CB01     		.2byte	0x1cb
 3635 0c49 85000000 		.4byte	0x85
 3636 0c4d 7A040000 		.4byte	.LLST28
 3637 0c51 2B       		.uleb128 0x2b
 3638 0c52 B4460000 		.4byte	.LASF1240
 3639 0c56 01       		.byte	0x1
 3640 0c57 CB01     		.2byte	0x1cb
 3641 0c59 2C070000 		.4byte	0x72c
 3642 0c5d 9B040000 		.4byte	.LLST29
 3643 0c61 22       		.uleb128 0x22
 3644 0c62 6C656E00 		.ascii	"len\000"
 3645 0c66 01       		.byte	0x1
 3646 0c67 CB01     		.2byte	0x1cb
 3647 0c69 85000000 		.4byte	0x85
 3648 0c6d BC040000 		.4byte	.LLST30
 3649 0c71 36       		.uleb128 0x36
 3650 0c72 40770000 		.4byte	.LASF1230
 3651 0c76 01       		.byte	0x1
 3652 0c77 CD01     		.2byte	0x1cd
 3653 0c79 38070000 		.4byte	0x738
 3654 0c7d 02       		.uleb128 0x2
 3655 0c7e 91       		.byte	0x91
 3656 0c7f 58       		.sleb128 -40
 3657 0c80 27       		.uleb128 0x27
 3658 0c81 1C000000 		.4byte	.LVL87
 3659 0c85 970C0000 		.4byte	0xc97
 3660 0c89 28       		.uleb128 0x28
 3661 0c8a 01       		.uleb128 0x1
 3662 0c8b 50       		.byte	0x50
 3663 0c8c 02       		.uleb128 0x2
 3664 0c8d 74       		.byte	0x74
 3665 0c8e 00       		.sleb128 0
 3666 0c8f 28       		.uleb128 0x28
 3667 0c90 01       		.uleb128 0x1
 3668 0c91 51       		.byte	0x51
 3669 0c92 02       		.uleb128 0x2
 3670 0c93 7D       		.byte	0x7d
 3671 0c94 00       		.sleb128 0
ARM GAS  /tmp/ccXw4jW7.s 			page 85


 3672 0c95 00       		.byte	0
 3673 0c96 00       		.byte	0
 3674 0c97 34       		.uleb128 0x34
 3675 0c98 A4410000 		.4byte	.LASF1243
 3676 0c9c 01       		.byte	0x1
 3677 0c9d B001     		.2byte	0x1b0
 3678 0c9f 77000000 		.4byte	0x77
 3679 0ca3 00000000 		.4byte	.LFB220
 3680 0ca7 60000000 		.4byte	.LFE220-.LFB220
 3681 0cab 01       		.uleb128 0x1
 3682 0cac 9C       		.byte	0x9c
 3683 0cad 770D0000 		.4byte	0xd77
 3684 0cb1 22       		.uleb128 0x22
 3685 0cb2 696400   		.ascii	"id\000"
 3686 0cb5 01       		.byte	0x1
 3687 0cb6 B001     		.2byte	0x1b0
 3688 0cb8 62070000 		.4byte	0x762
 3689 0cbc DD040000 		.4byte	.LLST23
 3690 0cc0 2B       		.uleb128 0x2b
 3691 0cc1 40770000 		.4byte	.LASF1230
 3692 0cc5 01       		.byte	0x1
 3693 0cc6 B001     		.2byte	0x1b0
 3694 0cc8 40080000 		.4byte	0x840
 3695 0ccc FE040000 		.4byte	.LLST24
 3696 0cd0 24       		.uleb128 0x24
 3697 0cd1 69696300 		.ascii	"iic\000"
 3698 0cd5 01       		.byte	0x1
 3699 0cd6 B201     		.2byte	0x1b2
 3700 0cd8 8D090000 		.4byte	0x98d
 3701 0cdc 06       		.uleb128 0x6
 3702 0cdd 03       		.byte	0x3
 3703 0cde 00000000 		.4byte	i2c
 3704 0ce2 9F       		.byte	0x9f
 3705 0ce3 2C       		.uleb128 0x2c
 3706 0ce4 AF110000 		.4byte	0x11af
 3707 0ce8 24000000 		.4byte	.LBB127
 3708 0cec D8000000 		.4byte	.Ldebug_ranges0+0xd8
 3709 0cf0 01       		.byte	0x1
 3710 0cf1 BF01     		.2byte	0x1bf
 3711 0cf3 010D0000 		.4byte	0xd01
 3712 0cf7 2D       		.uleb128 0x2d
 3713 0cf8 BF110000 		.4byte	0x11bf
 3714 0cfc 35050000 		.4byte	.LLST25
 3715 0d00 00       		.byte	0
 3716 0d01 37       		.uleb128 0x37
 3717 0d02 CB110000 		.4byte	0x11cb
 3718 0d06 3A000000 		.4byte	.LBB131
 3719 0d0a 08000000 		.4byte	.LBE131-.LBB131
 3720 0d0e 01       		.byte	0x1
 3721 0d0f C301     		.2byte	0x1c3
 3722 0d11 1F0D0000 		.4byte	0xd1f
 3723 0d15 2D       		.uleb128 0x2d
 3724 0d16 D7110000 		.4byte	0x11d7
 3725 0d1a 4C050000 		.4byte	.LLST26
 3726 0d1e 00       		.byte	0
 3727 0d1f 2C       		.uleb128 0x2c
 3728 0d20 E3110000 		.4byte	0x11e3
ARM GAS  /tmp/ccXw4jW7.s 			page 86


 3729 0d24 4E000000 		.4byte	.LBB133
 3730 0d28 F0000000 		.4byte	.Ldebug_ranges0+0xf0
 3731 0d2c 01       		.byte	0x1
 3732 0d2d B901     		.2byte	0x1b9
 3733 0d2f 3B0D0000 		.4byte	0xd3b
 3734 0d33 32       		.uleb128 0x32
 3735 0d34 EF110000 		.4byte	0x11ef
 3736 0d38 01       		.uleb128 0x1
 3737 0d39 53       		.byte	0x53
 3738 0d3a 00       		.byte	0
 3739 0d3b 38       		.uleb128 0x38
 3740 0d3c 0E000000 		.4byte	.LVL74
 3741 0d40 500D0000 		.4byte	0xd50
 3742 0d44 28       		.uleb128 0x28
 3743 0d45 01       		.uleb128 0x1
 3744 0d46 50       		.byte	0x50
 3745 0d47 02       		.uleb128 0x2
 3746 0d48 76       		.byte	0x76
 3747 0d49 00       		.sleb128 0
 3748 0d4a 28       		.uleb128 0x28
 3749 0d4b 01       		.uleb128 0x1
 3750 0d4c 51       		.byte	0x51
 3751 0d4d 01       		.uleb128 0x1
 3752 0d4e 33       		.byte	0x33
 3753 0d4f 00       		.byte	0
 3754 0d50 38       		.uleb128 0x38
 3755 0d51 22000000 		.4byte	.LVL75
 3756 0d55 650D0000 		.4byte	0xd65
 3757 0d59 28       		.uleb128 0x28
 3758 0d5a 01       		.uleb128 0x1
 3759 0d5b 50       		.byte	0x50
 3760 0d5c 02       		.uleb128 0x2
 3761 0d5d 76       		.byte	0x76
 3762 0d5e 00       		.sleb128 0
 3763 0d5f 28       		.uleb128 0x28
 3764 0d60 01       		.uleb128 0x1
 3765 0d61 51       		.byte	0x51
 3766 0d62 01       		.uleb128 0x1
 3767 0d63 31       		.byte	0x31
 3768 0d64 00       		.byte	0
 3769 0d65 2A       		.uleb128 0x2a
 3770 0d66 4A000000 		.4byte	.LVL80
 3771 0d6a 28       		.uleb128 0x28
 3772 0d6b 01       		.uleb128 0x1
 3773 0d6c 50       		.byte	0x50
 3774 0d6d 02       		.uleb128 0x2
 3775 0d6e 76       		.byte	0x76
 3776 0d6f 00       		.sleb128 0
 3777 0d70 28       		.uleb128 0x28
 3778 0d71 01       		.uleb128 0x1
 3779 0d72 51       		.byte	0x51
 3780 0d73 01       		.uleb128 0x1
 3781 0d74 34       		.byte	0x34
 3782 0d75 00       		.byte	0
 3783 0d76 00       		.byte	0
 3784 0d77 34       		.uleb128 0x34
 3785 0d78 8D0A0000 		.4byte	.LASF1244
ARM GAS  /tmp/ccXw4jW7.s 			page 87


 3786 0d7c 01       		.byte	0x1
 3787 0d7d A901     		.2byte	0x1a9
 3788 0d7f AC070000 		.4byte	0x7ac
 3789 0d83 00000000 		.4byte	.LFB219
 3790 0d87 0C000000 		.4byte	.LFE219-.LFB219
 3791 0d8b 01       		.uleb128 0x1
 3792 0d8c 9C       		.byte	0x9c
 3793 0d8d A10D0000 		.4byte	0xda1
 3794 0d91 22       		.uleb128 0x22
 3795 0d92 696400   		.ascii	"id\000"
 3796 0d95 01       		.byte	0x1
 3797 0d96 A901     		.2byte	0x1a9
 3798 0d98 62070000 		.4byte	0x762
 3799 0d9c 63050000 		.4byte	.LLST22
 3800 0da0 00       		.byte	0
 3801 0da1 34       		.uleb128 0x34
 3802 0da2 7F780000 		.4byte	.LASF1245
 3803 0da6 01       		.byte	0x1
 3804 0da7 9E01     		.2byte	0x19e
 3805 0da9 77000000 		.4byte	0x77
 3806 0dad 00000000 		.4byte	.LFB218
 3807 0db1 20000000 		.4byte	.LFE218-.LFB218
 3808 0db5 01       		.uleb128 0x1
 3809 0db6 9C       		.byte	0x9c
 3810 0db7 EE0D0000 		.4byte	0xdee
 3811 0dbb 22       		.uleb128 0x22
 3812 0dbc 696400   		.ascii	"id\000"
 3813 0dbf 01       		.byte	0x1
 3814 0dc0 9E01     		.2byte	0x19e
 3815 0dc2 62070000 		.4byte	0x762
 3816 0dc6 84050000 		.4byte	.LLST20
 3817 0dca 2B       		.uleb128 0x2b
 3818 0dcb C4470000 		.4byte	.LASF1231
 3819 0dcf 01       		.byte	0x1
 3820 0dd0 9E01     		.2byte	0x19e
 3821 0dd2 AC070000 		.4byte	0x7ac
 3822 0dd6 B0050000 		.4byte	.LLST21
 3823 0dda 24       		.uleb128 0x24
 3824 0ddb 69696300 		.ascii	"iic\000"
 3825 0ddf 01       		.byte	0x1
 3826 0de0 A101     		.2byte	0x1a1
 3827 0de2 8D090000 		.4byte	0x98d
 3828 0de6 06       		.uleb128 0x6
 3829 0de7 03       		.byte	0x3
 3830 0de8 00000000 		.4byte	i2c
 3831 0dec 9F       		.byte	0x9f
 3832 0ded 00       		.byte	0
 3833 0dee 39       		.uleb128 0x39
 3834 0def 06430000 		.4byte	.LASF1246
 3835 0df3 01       		.byte	0x1
 3836 0df4 9701     		.2byte	0x197
 3837 0df6 95000000 		.4byte	0x95
 3838 0dfa 00000000 		.4byte	.LFB217
 3839 0dfe 20000000 		.4byte	.LFE217-.LFB217
 3840 0e02 01       		.uleb128 0x1
 3841 0e03 9C       		.byte	0x9c
 3842 0e04 180E0000 		.4byte	0xe18
ARM GAS  /tmp/ccXw4jW7.s 			page 88


 3843 0e08 22       		.uleb128 0x22
 3844 0e09 696400   		.ascii	"id\000"
 3845 0e0c 01       		.byte	0x1
 3846 0e0d 9701     		.2byte	0x197
 3847 0e0f 62070000 		.4byte	0x762
 3848 0e13 DC050000 		.4byte	.LLST19
 3849 0e17 00       		.byte	0
 3850 0e18 3A       		.uleb128 0x3a
 3851 0e19 365F0000 		.4byte	.LASF1247
 3852 0e1d 01       		.byte	0x1
 3853 0e1e 8C01     		.2byte	0x18c
 3854 0e20 00000000 		.4byte	.LFB216
 3855 0e24 24000000 		.4byte	.LFE216-.LFB216
 3856 0e28 01       		.uleb128 0x1
 3857 0e29 9C       		.byte	0x9c
 3858 0e2a 5E0E0000 		.4byte	0xe5e
 3859 0e2e 22       		.uleb128 0x22
 3860 0e2f 696400   		.ascii	"id\000"
 3861 0e32 01       		.byte	0x1
 3862 0e33 8C01     		.2byte	0x18c
 3863 0e35 62070000 		.4byte	0x762
 3864 0e39 FD050000 		.4byte	.LLST16
 3865 0e3d 2B       		.uleb128 0x2b
 3866 0e3e 77310000 		.4byte	.LASF1248
 3867 0e42 01       		.byte	0x1
 3868 0e43 8C01     		.2byte	0x18c
 3869 0e45 95000000 		.4byte	0x95
 3870 0e49 1E060000 		.4byte	.LLST17
 3871 0e4d 26       		.uleb128 0x26
 3872 0e4e C7740000 		.4byte	.LASF1249
 3873 0e52 01       		.byte	0x1
 3874 0e53 8F01     		.2byte	0x18f
 3875 0e55 95000000 		.4byte	0x95
 3876 0e59 3F060000 		.4byte	.LLST18
 3877 0e5d 00       		.byte	0
 3878 0e5e 20       		.uleb128 0x20
 3879 0e5f C21B0000 		.4byte	.LASF1250
 3880 0e63 01       		.byte	0x1
 3881 0e64 8301     		.2byte	0x183
 3882 0e66 00000000 		.4byte	.LFB215
 3883 0e6a 24000000 		.4byte	.LFE215-.LFB215
 3884 0e6e 01       		.uleb128 0x1
 3885 0e6f 9C       		.byte	0x9c
 3886 0e70 B80E0000 		.4byte	0xeb8
 3887 0e74 22       		.uleb128 0x22
 3888 0e75 696400   		.ascii	"id\000"
 3889 0e78 01       		.byte	0x1
 3890 0e79 8301     		.2byte	0x183
 3891 0e7b 62070000 		.4byte	0x762
 3892 0e7f 52060000 		.4byte	.LLST14
 3893 0e83 31       		.uleb128 0x31
 3894 0e84 07120000 		.4byte	0x1207
 3895 0e88 06000000 		.4byte	.LBB119
 3896 0e8c A8000000 		.4byte	.Ldebug_ranges0+0xa8
 3897 0e90 01       		.byte	0x1
 3898 0e91 8801     		.2byte	0x188
 3899 0e93 32       		.uleb128 0x32
ARM GAS  /tmp/ccXw4jW7.s 			page 89


 3900 0e94 13120000 		.4byte	0x1213
 3901 0e98 04       		.uleb128 0x4
 3902 0e99 F3       		.byte	0xf3
 3903 0e9a 01       		.uleb128 0x1
 3904 0e9b 50       		.byte	0x50
 3905 0e9c 9F       		.byte	0x9f
 3906 0e9d 3B       		.uleb128 0x3b
 3907 0e9e 35120000 		.4byte	0x1235
 3908 0ea2 06000000 		.4byte	.LBB121
 3909 0ea6 C0000000 		.4byte	.Ldebug_ranges0+0xc0
 3910 0eaa 01       		.byte	0x1
 3911 0eab 55       		.byte	0x55
 3912 0eac 2D       		.uleb128 0x2d
 3913 0ead 42120000 		.4byte	0x1242
 3914 0eb1 73060000 		.4byte	.LLST15
 3915 0eb5 00       		.byte	0
 3916 0eb6 00       		.byte	0
 3917 0eb7 00       		.byte	0
 3918 0eb8 20       		.uleb128 0x20
 3919 0eb9 40640000 		.4byte	.LASF1251
 3920 0ebd 01       		.byte	0x1
 3921 0ebe 7001     		.2byte	0x170
 3922 0ec0 00000000 		.4byte	.LFB214
 3923 0ec4 3C000000 		.4byte	.LFE214-.LFB214
 3924 0ec8 01       		.uleb128 0x1
 3925 0ec9 9C       		.byte	0x9c
 3926 0eca 120F0000 		.4byte	0xf12
 3927 0ece 22       		.uleb128 0x22
 3928 0ecf 696400   		.ascii	"id\000"
 3929 0ed2 01       		.byte	0x1
 3930 0ed3 7001     		.2byte	0x170
 3931 0ed5 62070000 		.4byte	0x762
 3932 0ed9 8A060000 		.4byte	.LLST12
 3933 0edd 31       		.uleb128 0x31
 3934 0ede 1E120000 		.4byte	0x121e
 3935 0ee2 10000000 		.4byte	.LBB107
 3936 0ee6 80000000 		.4byte	.Ldebug_ranges0+0x80
 3937 0eea 01       		.byte	0x1
 3938 0eeb 7C01     		.2byte	0x17c
 3939 0eed 32       		.uleb128 0x32
 3940 0eee 2A120000 		.4byte	0x122a
 3941 0ef2 04       		.uleb128 0x4
 3942 0ef3 F3       		.byte	0xf3
 3943 0ef4 01       		.uleb128 0x1
 3944 0ef5 50       		.byte	0x50
 3945 0ef6 9F       		.byte	0x9f
 3946 0ef7 3B       		.uleb128 0x3b
 3947 0ef8 4F120000 		.4byte	0x124f
 3948 0efc 10000000 		.4byte	.LBB108
 3949 0f00 80000000 		.4byte	.Ldebug_ranges0+0x80
 3950 0f04 01       		.byte	0x1
 3951 0f05 4F       		.byte	0x4f
 3952 0f06 2D       		.uleb128 0x2d
 3953 0f07 5C120000 		.4byte	0x125c
 3954 0f0b AB060000 		.4byte	.LLST13
 3955 0f0f 00       		.byte	0
 3956 0f10 00       		.byte	0
ARM GAS  /tmp/ccXw4jW7.s 			page 90


 3957 0f11 00       		.byte	0
 3958 0f12 20       		.uleb128 0x20
 3959 0f13 CE180000 		.4byte	.LASF1252
 3960 0f17 01       		.byte	0x1
 3961 0f18 5C01     		.2byte	0x15c
 3962 0f1a 00000000 		.4byte	.LFB213
 3963 0f1e 2C000000 		.4byte	.LFE213-.LFB213
 3964 0f22 01       		.uleb128 0x1
 3965 0f23 9C       		.byte	0x9c
 3966 0f24 990F0000 		.4byte	0xf99
 3967 0f28 22       		.uleb128 0x22
 3968 0f29 696400   		.ascii	"id\000"
 3969 0f2c 01       		.byte	0x1
 3970 0f2d 5C01     		.2byte	0x15c
 3971 0f2f 62070000 		.4byte	0x762
 3972 0f33 BF060000 		.4byte	.LLST44
 3973 0f37 2B       		.uleb128 0x2b
 3974 0f38 C4470000 		.4byte	.LASF1231
 3975 0f3c 01       		.byte	0x1
 3976 0f3d 5C01     		.2byte	0x15c
 3977 0f3f A0070000 		.4byte	0x7a0
 3978 0f43 F9060000 		.4byte	.LLST45
 3979 0f47 24       		.uleb128 0x24
 3980 0f48 69696300 		.ascii	"iic\000"
 3981 0f4c 01       		.byte	0x1
 3982 0f4d 5E01     		.2byte	0x15e
 3983 0f4f 8D090000 		.4byte	0x98d
 3984 0f53 06       		.uleb128 0x6
 3985 0f54 03       		.byte	0x3
 3986 0f55 00000000 		.4byte	i2c
 3987 0f59 9F       		.byte	0x9f
 3988 0f5a 36       		.uleb128 0x36
 3989 0f5b 793F0000 		.4byte	.LASF1253
 3990 0f5f 01       		.byte	0x1
 3991 0f60 5F01     		.2byte	0x15f
 3992 0f62 990F0000 		.4byte	0xf99
 3993 0f66 03       		.uleb128 0x3
 3994 0f67 74       		.byte	0x74
 3995 0f68 14       		.sleb128 20
 3996 0f69 9F       		.byte	0x9f
 3997 0f6a 2C       		.uleb128 0x2c
 3998 0f6b A3080000 		.4byte	0x8a3
 3999 0f6f 0A000000 		.4byte	.LBB147
 4000 0f73 20010000 		.4byte	.Ldebug_ranges0+0x120
 4001 0f77 01       		.byte	0x1
 4002 0f78 6901     		.2byte	0x169
 4003 0f7a 880F0000 		.4byte	0xf88
 4004 0f7e 2D       		.uleb128 0x2d
 4005 0f7f B4080000 		.4byte	0x8b4
 4006 0f83 33070000 		.4byte	.LLST46
 4007 0f87 00       		.byte	0
 4008 0f88 27       		.uleb128 0x27
 4009 0f89 24000000 		.4byte	.LVL114
 4010 0f8d 950A0000 		.4byte	0xa95
 4011 0f91 28       		.uleb128 0x28
 4012 0f92 01       		.uleb128 0x1
 4013 0f93 50       		.byte	0x50
ARM GAS  /tmp/ccXw4jW7.s 			page 91


 4014 0f94 02       		.uleb128 0x2
 4015 0f95 77       		.byte	0x77
 4016 0f96 00       		.sleb128 0
 4017 0f97 00       		.byte	0
 4018 0f98 00       		.byte	0
 4019 0f99 15       		.uleb128 0x15
 4020 0f9a 04       		.byte	0x4
 4021 0f9b CF060000 		.4byte	0x6cf
 4022 0f9f 33       		.uleb128 0x33
 4023 0fa0 F80B0000 		.4byte	.LASF1255
 4024 0fa4 01       		.byte	0x1
 4025 0fa5 4A01     		.2byte	0x14a
 4026 0fa7 01       		.byte	0x1
 4027 0fa8 DC0F0000 		.4byte	0xfdc
 4028 0fac 1F       		.uleb128 0x1f
 4029 0fad 696400   		.ascii	"id\000"
 4030 0fb0 01       		.byte	0x1
 4031 0fb1 4A01     		.2byte	0x14a
 4032 0fb3 62070000 		.4byte	0x762
 4033 0fb7 3C       		.uleb128 0x3c
 4034 0fb8 C4470000 		.4byte	.LASF1231
 4035 0fbc 01       		.byte	0x1
 4036 0fbd 4A01     		.2byte	0x14a
 4037 0fbf A0070000 		.4byte	0x7a0
 4038 0fc3 3D       		.uleb128 0x3d
 4039 0fc4 69696300 		.ascii	"iic\000"
 4040 0fc8 01       		.byte	0x1
 4041 0fc9 4D01     		.2byte	0x14d
 4042 0fcb 8D090000 		.4byte	0x98d
 4043 0fcf 3E       		.uleb128 0x3e
 4044 0fd0 793F0000 		.4byte	.LASF1253
 4045 0fd4 01       		.byte	0x1
 4046 0fd5 4E01     		.2byte	0x14e
 4047 0fd7 990F0000 		.4byte	0xf99
 4048 0fdb 00       		.byte	0
 4049 0fdc 34       		.uleb128 0x34
 4050 0fdd 45770000 		.4byte	.LASF1256
 4051 0fe1 01       		.byte	0x1
 4052 0fe2 0801     		.2byte	0x108
 4053 0fe4 77000000 		.4byte	0x77
 4054 0fe8 00000000 		.4byte	.LFB211
 4055 0fec AC000000 		.4byte	.LFE211-.LFB211
 4056 0ff0 01       		.uleb128 0x1
 4057 0ff1 9C       		.byte	0x9c
 4058 0ff2 4D100000 		.4byte	0x104d
 4059 0ff6 2B       		.uleb128 0x2b
 4060 0ff7 4A7A0000 		.4byte	.LASF1257
 4061 0ffb 01       		.byte	0x1
 4062 0ffc 0801     		.2byte	0x108
 4063 0ffe 3A080000 		.4byte	0x83a
 4064 1002 46070000 		.4byte	.LLST8
 4065 1006 2B       		.uleb128 0x2b
 4066 1007 40770000 		.4byte	.LASF1230
 4067 100b 01       		.byte	0x1
 4068 100c 0801     		.2byte	0x108
 4069 100e 40080000 		.4byte	0x840
 4070 1012 64070000 		.4byte	.LLST9
ARM GAS  /tmp/ccXw4jW7.s 			page 92


 4071 1016 26       		.uleb128 0x26
 4072 1017 D7500000 		.4byte	.LASF1258
 4073 101b 01       		.byte	0x1
 4074 101c 0A01     		.2byte	0x10a
 4075 101e 95000000 		.4byte	0x95
 4076 1022 34080000 		.4byte	.LLST10
 4077 1026 23       		.uleb128 0x23
 4078 1027 72657400 		.ascii	"ret\000"
 4079 102b 01       		.byte	0x1
 4080 102c 0B01     		.2byte	0x10b
 4081 102e 77000000 		.4byte	0x77
 4082 1032 95080000 		.4byte	.LLST11
 4083 1036 31       		.uleb128 0x31
 4084 1037 93110000 		.4byte	0x1193
 4085 103b 04000000 		.4byte	.LBB103
 4086 103f 68000000 		.4byte	.Ldebug_ranges0+0x68
 4087 1043 01       		.byte	0x1
 4088 1044 0E01     		.2byte	0x10e
 4089 1046 3F       		.uleb128 0x3f
 4090 1047 A3110000 		.4byte	0x11a3
 4091 104b 00       		.byte	0
 4092 104c 00       		.byte	0
 4093 104d 40       		.uleb128 0x40
 4094 104e AF780000 		.4byte	.LASF1260
 4095 1052 01       		.byte	0x1
 4096 1053 F7       		.byte	0xf7
 4097 1054 8D060000 		.4byte	0x68d
 4098 1058 01       		.byte	0x1
 4099 1059 69100000 		.4byte	0x1069
 4100 105d 41       		.uleb128 0x41
 4101 105e 4A7A0000 		.4byte	.LASF1257
 4102 1062 01       		.byte	0x1
 4103 1063 F7       		.byte	0xf7
 4104 1064 3A080000 		.4byte	0x83a
 4105 1068 00       		.byte	0
 4106 1069 42       		.uleb128 0x42
 4107 106a 2E600000 		.4byte	.LASF1261
 4108 106e 01       		.byte	0x1
 4109 106f B2       		.byte	0xb2
 4110 1070 77000000 		.4byte	0x77
 4111 1074 00000000 		.4byte	.LFB209
 4112 1078 08010000 		.4byte	.LFE209-.LFB209
 4113 107c 01       		.uleb128 0x1
 4114 107d 9C       		.byte	0x9c
 4115 107e C7100000 		.4byte	0x10c7
 4116 1082 43       		.uleb128 0x43
 4117 1083 4A7A0000 		.4byte	.LASF1257
 4118 1087 01       		.byte	0x1
 4119 1088 B2       		.byte	0xb2
 4120 1089 3A080000 		.4byte	0x83a
 4121 108d FC080000 		.4byte	.LLST0
 4122 1091 44       		.uleb128 0x44
 4123 1092 40770000 		.4byte	.LASF1230
 4124 1096 01       		.byte	0x1
 4125 1097 B2       		.byte	0xb2
 4126 1098 40080000 		.4byte	0x840
 4127 109c 01       		.uleb128 0x1
ARM GAS  /tmp/ccXw4jW7.s 			page 93


 4128 109d 51       		.byte	0x51
 4129 109e 45       		.uleb128 0x45
 4130 109f D7500000 		.4byte	.LASF1258
 4131 10a3 01       		.byte	0x1
 4132 10a4 B4       		.byte	0xb4
 4133 10a5 95000000 		.4byte	0x95
 4134 10a9 1A090000 		.4byte	.LLST1
 4135 10ad 3B       		.uleb128 0x3b
 4136 10ae 93110000 		.4byte	0x1193
 4137 10b2 00000000 		.4byte	.LBB61
 4138 10b6 00000000 		.4byte	.Ldebug_ranges0+0
 4139 10ba 01       		.byte	0x1
 4140 10bb B5       		.byte	0xb5
 4141 10bc 2D       		.uleb128 0x2d
 4142 10bd A3110000 		.4byte	0x11a3
 4143 10c1 D5090000 		.4byte	.LLST2
 4144 10c5 00       		.byte	0
 4145 10c6 00       		.byte	0
 4146 10c7 46       		.uleb128 0x46
 4147 10c8 A07A0000 		.4byte	.LASF1262
 4148 10cc 01       		.byte	0x1
 4149 10cd 9B       		.byte	0x9b
 4150 10ce 8D060000 		.4byte	0x68d
 4151 10d2 01       		.byte	0x1
 4152 10d3 EE100000 		.4byte	0x10ee
 4153 10d7 41       		.uleb128 0x41
 4154 10d8 4A7A0000 		.4byte	.LASF1257
 4155 10dc 01       		.byte	0x1
 4156 10dd 9B       		.byte	0x9b
 4157 10de 3A080000 		.4byte	0x83a
 4158 10e2 41       		.uleb128 0x41
 4159 10e3 0C650000 		.4byte	.LASF1202
 4160 10e7 01       		.byte	0x1
 4161 10e8 9B       		.byte	0x9b
 4162 10e9 85000000 		.4byte	0x85
 4163 10ed 00       		.byte	0
 4164 10ee 46       		.uleb128 0x46
 4165 10ef 2D1D0000 		.4byte	.LASF1263
 4166 10f3 01       		.byte	0x1
 4167 10f4 94       		.byte	0x94
 4168 10f5 77000000 		.4byte	0x77
 4169 10f9 01       		.byte	0x1
 4170 10fa 20110000 		.4byte	0x1120
 4171 10fe 41       		.uleb128 0x41
 4172 10ff E17C0000 		.4byte	.LASF1264
 4173 1103 01       		.byte	0x1
 4174 1104 94       		.byte	0x94
 4175 1105 85000000 		.4byte	0x85
 4176 1109 41       		.uleb128 0x41
 4177 110a E77C0000 		.4byte	.LASF1265
 4178 110e 01       		.byte	0x1
 4179 110f 94       		.byte	0x94
 4180 1110 85000000 		.4byte	0x85
 4181 1114 41       		.uleb128 0x41
 4182 1115 F6440000 		.4byte	.LASF1266
 4183 1119 01       		.byte	0x1
 4184 111a 94       		.byte	0x94
ARM GAS  /tmp/ccXw4jW7.s 			page 94


 4185 111b 85000000 		.4byte	0x85
 4186 111f 00       		.byte	0
 4187 1120 47       		.uleb128 0x47
 4188 1121 9F7D0000 		.4byte	.LASF1273
 4189 1125 01       		.byte	0x1
 4190 1126 86       		.byte	0x86
 4191 1127 01       		.byte	0x1
 4192 1128 71110000 		.4byte	0x1171
 4193 112c 41       		.uleb128 0x41
 4194 112d 4A7A0000 		.4byte	.LASF1257
 4195 1131 01       		.byte	0x1
 4196 1132 86       		.byte	0x86
 4197 1133 3A080000 		.4byte	0x83a
 4198 1137 48       		.uleb128 0x48
 4199 1138 73696400 		.ascii	"sid\000"
 4200 113c 01       		.byte	0x1
 4201 113d 86       		.byte	0x86
 4202 113e 8D060000 		.4byte	0x68d
 4203 1142 41       		.uleb128 0x41
 4204 1143 E5470000 		.4byte	.LASF1267
 4205 1147 01       		.byte	0x1
 4206 1148 86       		.byte	0x86
 4207 1149 85000000 		.4byte	0x85
 4208 114d 41       		.uleb128 0x41
 4209 114e F6440000 		.4byte	.LASF1266
 4210 1152 01       		.byte	0x1
 4211 1153 86       		.byte	0x86
 4212 1154 85000000 		.4byte	0x85
 4213 1158 49       		.uleb128 0x49
 4214 1159 9E340000 		.4byte	.LASF1268
 4215 115d 01       		.byte	0x1
 4216 115e 88       		.byte	0x88
 4217 115f 95000000 		.4byte	0x95
 4218 1163 4A       		.uleb128 0x4a
 4219 1164 49       		.uleb128 0x49
 4220 1165 07380000 		.4byte	.LASF1269
 4221 1169 01       		.byte	0x1
 4222 116a 8E       		.byte	0x8e
 4223 116b 71110000 		.4byte	0x1171
 4224 116f 00       		.byte	0
 4225 1170 00       		.byte	0
 4226 1171 15       		.uleb128 0x15
 4227 1172 04       		.byte	0x4
 4228 1173 A0000000 		.4byte	0xa0
 4229 1177 46       		.uleb128 0x46
 4230 1178 34010000 		.4byte	.LASF1270
 4231 117c 01       		.byte	0x1
 4232 117d 80       		.byte	0x80
 4233 117e 77000000 		.4byte	0x77
 4234 1182 03       		.byte	0x3
 4235 1183 93110000 		.4byte	0x1193
 4236 1187 41       		.uleb128 0x41
 4237 1188 4A7A0000 		.4byte	.LASF1257
 4238 118c 01       		.byte	0x1
 4239 118d 80       		.byte	0x80
 4240 118e 3A080000 		.4byte	0x83a
 4241 1192 00       		.byte	0
ARM GAS  /tmp/ccXw4jW7.s 			page 95


 4242 1193 46       		.uleb128 0x46
 4243 1194 57020000 		.4byte	.LASF1271
 4244 1198 01       		.byte	0x1
 4245 1199 7A       		.byte	0x7a
 4246 119a 77000000 		.4byte	0x77
 4247 119e 03       		.byte	0x3
 4248 119f AF110000 		.4byte	0x11af
 4249 11a3 41       		.uleb128 0x41
 4250 11a4 4A7A0000 		.4byte	.LASF1257
 4251 11a8 01       		.byte	0x1
 4252 11a9 7A       		.byte	0x7a
 4253 11aa 3A080000 		.4byte	0x83a
 4254 11ae 00       		.byte	0
 4255 11af 46       		.uleb128 0x46
 4256 11b0 B4610000 		.4byte	.LASF1272
 4257 11b4 01       		.byte	0x1
 4258 11b5 74       		.byte	0x74
 4259 11b6 77000000 		.4byte	0x77
 4260 11ba 03       		.byte	0x3
 4261 11bb CB110000 		.4byte	0x11cb
 4262 11bf 41       		.uleb128 0x41
 4263 11c0 4A7A0000 		.4byte	.LASF1257
 4264 11c4 01       		.byte	0x1
 4265 11c5 74       		.byte	0x74
 4266 11c6 3A080000 		.4byte	0x83a
 4267 11ca 00       		.byte	0
 4268 11cb 47       		.uleb128 0x47
 4269 11cc C3320000 		.4byte	.LASF1274
 4270 11d0 01       		.byte	0x1
 4271 11d1 6A       		.byte	0x6a
 4272 11d2 03       		.byte	0x3
 4273 11d3 E3110000 		.4byte	0x11e3
 4274 11d7 41       		.uleb128 0x41
 4275 11d8 4A7A0000 		.4byte	.LASF1257
 4276 11dc 01       		.byte	0x1
 4277 11dd 6A       		.byte	0x6a
 4278 11de 3A080000 		.4byte	0x83a
 4279 11e2 00       		.byte	0
 4280 11e3 47       		.uleb128 0x47
 4281 11e4 3F030000 		.4byte	.LASF1275
 4282 11e8 01       		.byte	0x1
 4283 11e9 60       		.byte	0x60
 4284 11ea 03       		.byte	0x3
 4285 11eb FB110000 		.4byte	0x11fb
 4286 11ef 41       		.uleb128 0x41
 4287 11f0 4A7A0000 		.4byte	.LASF1257
 4288 11f4 01       		.byte	0x1
 4289 11f5 60       		.byte	0x60
 4290 11f6 3A080000 		.4byte	0x83a
 4291 11fa 00       		.byte	0
 4292 11fb 4B       		.uleb128 0x4b
 4293 11fc 4F450000 		.4byte	.LASF1283
 4294 1200 01       		.byte	0x1
 4295 1201 59       		.byte	0x59
 4296 1202 95000000 		.4byte	0x95
 4297 1206 03       		.byte	0x3
 4298 1207 47       		.uleb128 0x47
ARM GAS  /tmp/ccXw4jW7.s 			page 96


 4299 1208 873E0000 		.4byte	.LASF1276
 4300 120c 01       		.byte	0x1
 4301 120d 52       		.byte	0x52
 4302 120e 03       		.byte	0x3
 4303 120f 1E120000 		.4byte	0x121e
 4304 1213 48       		.uleb128 0x48
 4305 1214 696400   		.ascii	"id\000"
 4306 1217 01       		.byte	0x1
 4307 1218 52       		.byte	0x52
 4308 1219 62070000 		.4byte	0x762
 4309 121d 00       		.byte	0
 4310 121e 47       		.uleb128 0x47
 4311 121f BE370000 		.4byte	.LASF1277
 4312 1223 01       		.byte	0x1
 4313 1224 4C       		.byte	0x4c
 4314 1225 03       		.byte	0x3
 4315 1226 35120000 		.4byte	0x1235
 4316 122a 48       		.uleb128 0x48
 4317 122b 696400   		.ascii	"id\000"
 4318 122e 01       		.byte	0x1
 4319 122f 4C       		.byte	0x4c
 4320 1230 62070000 		.4byte	0x762
 4321 1234 00       		.byte	0
 4322 1235 4C       		.uleb128 0x4c
 4323 1236 17350000 		.4byte	.LASF1278
 4324 123a 02       		.byte	0x2
 4325 123b 3101     		.2byte	0x131
 4326 123d 03       		.byte	0x3
 4327 123e 4F120000 		.4byte	0x124f
 4328 1242 1F       		.uleb128 0x1f
 4329 1243 636C6B00 		.ascii	"clk\000"
 4330 1247 02       		.byte	0x2
 4331 1248 3101     		.2byte	0x131
 4332 124a A0050000 		.4byte	0x5a0
 4333 124e 00       		.byte	0
 4334 124f 4C       		.uleb128 0x4c
 4335 1250 4B5B0000 		.4byte	.LASF1279
 4336 1254 02       		.byte	0x2
 4337 1255 2701     		.2byte	0x127
 4338 1257 03       		.byte	0x3
 4339 1258 69120000 		.4byte	0x1269
 4340 125c 1F       		.uleb128 0x1f
 4341 125d 636C6B00 		.ascii	"clk\000"
 4342 1261 02       		.byte	0x2
 4343 1262 2701     		.2byte	0x127
 4344 1264 A0050000 		.4byte	0x5a0
 4345 1268 00       		.byte	0
 4346 1269 4D       		.uleb128 0x4d
 4347 126a 9F0F0000 		.4byte	0xf9f
 4348 126e 00000000 		.4byte	.LFB212
 4349 1272 18000000 		.4byte	.LFE212-.LFB212
 4350 1276 01       		.uleb128 0x1
 4351 1277 9C       		.byte	0x9c
 4352 1278 CE120000 		.4byte	0x12ce
 4353 127c 32       		.uleb128 0x32
 4354 127d AC0F0000 		.4byte	0xfac
 4355 1281 01       		.uleb128 0x1
ARM GAS  /tmp/ccXw4jW7.s 			page 97


 4356 1282 50       		.byte	0x50
 4357 1283 32       		.uleb128 0x32
 4358 1284 B70F0000 		.4byte	0xfb7
 4359 1288 01       		.uleb128 0x1
 4360 1289 51       		.byte	0x51
 4361 128a 4E       		.uleb128 0x4e
 4362 128b C30F0000 		.4byte	0xfc3
 4363 128f 06       		.uleb128 0x6
 4364 1290 03       		.byte	0x3
 4365 1291 00000000 		.4byte	i2c
 4366 1295 9F       		.byte	0x9f
 4367 1296 4F       		.uleb128 0x4f
 4368 1297 CF0F0000 		.4byte	0xfcf
 4369 129b 30       		.uleb128 0x30
 4370 129c 06000000 		.4byte	.LBB59
 4371 12a0 12000000 		.4byte	.LBE59-.LBB59
 4372 12a4 32       		.uleb128 0x32
 4373 12a5 AC0F0000 		.4byte	0xfac
 4374 12a9 04       		.uleb128 0x4
 4375 12aa F3       		.byte	0xf3
 4376 12ab 01       		.uleb128 0x1
 4377 12ac 50       		.byte	0x50
 4378 12ad 9F       		.byte	0x9f
 4379 12ae 50       		.uleb128 0x50
 4380 12af B70F0000 		.4byte	0xfb7
 4381 12b3 01       		.byte	0x1
 4382 12b4 30       		.uleb128 0x30
 4383 12b5 06000000 		.4byte	.LBB60
 4384 12b9 12000000 		.4byte	.LBE60-.LBB60
 4385 12bd 4F       		.uleb128 0x4f
 4386 12be 8A120000 		.4byte	0x128a
 4387 12c2 4E       		.uleb128 0x4e
 4388 12c3 96120000 		.4byte	0x1296
 4389 12c7 03       		.uleb128 0x3
 4390 12c8 72       		.byte	0x72
 4391 12c9 14       		.sleb128 20
 4392 12ca 9F       		.byte	0x9f
 4393 12cb 00       		.byte	0
 4394 12cc 00       		.byte	0
 4395 12cd 00       		.byte	0
 4396 12ce 4D       		.uleb128 0x4d
 4397 12cf 4D100000 		.4byte	0x104d
 4398 12d3 00000000 		.4byte	.LFB210
 4399 12d7 86000000 		.4byte	.LFE210-.LFB210
 4400 12db 01       		.uleb128 0x1
 4401 12dc 9C       		.byte	0x9c
 4402 12dd C6130000 		.4byte	0x13c6
 4403 12e1 2D       		.uleb128 0x2d
 4404 12e2 5D100000 		.4byte	0x105d
 4405 12e6 E8090000 		.4byte	.LLST3
 4406 12ea 51       		.uleb128 0x51
 4407 12eb 93110000 		.4byte	0x1193
 4408 12ef 00000000 		.4byte	.LBB83
 4409 12f3 20000000 		.4byte	.Ldebug_ranges0+0x20
 4410 12f7 01       		.byte	0x1
 4411 12f8 F9       		.byte	0xf9
 4412 12f9 07130000 		.4byte	0x1307
ARM GAS  /tmp/ccXw4jW7.s 			page 98


 4413 12fd 2D       		.uleb128 0x2d
 4414 12fe A3110000 		.4byte	0x11a3
 4415 1302 2D0A0000 		.4byte	.LLST4
 4416 1306 00       		.byte	0
 4417 1307 30       		.uleb128 0x30
 4418 1308 28000000 		.4byte	.LBB87
 4419 130c 5E000000 		.4byte	.LBE87-.LBB87
 4420 1310 2D       		.uleb128 0x2d
 4421 1311 5D100000 		.4byte	0x105d
 4422 1315 400A0000 		.4byte	.LLST5
 4423 1319 31       		.uleb128 0x31
 4424 131a C7100000 		.4byte	0x10c7
 4425 131e 2A000000 		.4byte	.LBB89
 4426 1322 38000000 		.4byte	.Ldebug_ranges0+0x38
 4427 1326 01       		.byte	0x1
 4428 1327 0001     		.2byte	0x100
 4429 1329 2D       		.uleb128 0x2d
 4430 132a E2100000 		.4byte	0x10e2
 4431 132e 6C0A0000 		.4byte	.LLST6
 4432 1332 2D       		.uleb128 0x2d
 4433 1333 D7100000 		.4byte	0x10d7
 4434 1337 7F0A0000 		.4byte	.LLST7
 4435 133b 51       		.uleb128 0x51
 4436 133c EE100000 		.4byte	0x10ee
 4437 1340 32000000 		.4byte	.LBB91
 4438 1344 50000000 		.4byte	.Ldebug_ranges0+0x50
 4439 1348 01       		.byte	0x1
 4440 1349 A0       		.byte	0xa0
 4441 134a 5E130000 		.4byte	0x135e
 4442 134e 3F       		.uleb128 0x3f
 4443 134f 14110000 		.4byte	0x1114
 4444 1353 3F       		.uleb128 0x3f
 4445 1354 09110000 		.4byte	0x1109
 4446 1358 3F       		.uleb128 0x3f
 4447 1359 FE100000 		.4byte	0x10fe
 4448 135d 00       		.byte	0
 4449 135e 52       		.uleb128 0x52
 4450 135f EE100000 		.4byte	0x10ee
 4451 1363 4C000000 		.4byte	.LBB95
 4452 1367 0A000000 		.4byte	.LBE95-.LBB95
 4453 136b 01       		.byte	0x1
 4454 136c A3       		.byte	0xa3
 4455 136d 81130000 		.4byte	0x1381
 4456 1371 3F       		.uleb128 0x3f
 4457 1372 14110000 		.4byte	0x1114
 4458 1376 3F       		.uleb128 0x3f
 4459 1377 09110000 		.4byte	0x1109
 4460 137b 3F       		.uleb128 0x3f
 4461 137c FE100000 		.4byte	0x10fe
 4462 1380 00       		.byte	0
 4463 1381 52       		.uleb128 0x52
 4464 1382 EE100000 		.4byte	0x10ee
 4465 1386 60000000 		.4byte	.LBB97
 4466 138a 0A000000 		.4byte	.LBE97-.LBB97
 4467 138e 01       		.byte	0x1
 4468 138f A6       		.byte	0xa6
 4469 1390 A4130000 		.4byte	0x13a4
ARM GAS  /tmp/ccXw4jW7.s 			page 99


 4470 1394 3F       		.uleb128 0x3f
 4471 1395 14110000 		.4byte	0x1114
 4472 1399 3F       		.uleb128 0x3f
 4473 139a 09110000 		.4byte	0x1109
 4474 139e 3F       		.uleb128 0x3f
 4475 139f FE100000 		.4byte	0x10fe
 4476 13a3 00       		.byte	0
 4477 13a4 35       		.uleb128 0x35
 4478 13a5 EE100000 		.4byte	0x10ee
 4479 13a9 74000000 		.4byte	.LBB99
 4480 13ad 0A000000 		.4byte	.LBE99-.LBB99
 4481 13b1 01       		.byte	0x1
 4482 13b2 A9       		.byte	0xa9
 4483 13b3 3F       		.uleb128 0x3f
 4484 13b4 14110000 		.4byte	0x1114
 4485 13b8 3F       		.uleb128 0x3f
 4486 13b9 09110000 		.4byte	0x1109
 4487 13bd 3F       		.uleb128 0x3f
 4488 13be FE100000 		.4byte	0x10fe
 4489 13c2 00       		.byte	0
 4490 13c3 00       		.byte	0
 4491 13c4 00       		.byte	0
 4492 13c5 00       		.byte	0
 4493 13c6 4D       		.uleb128 0x4d
 4494 13c7 950A0000 		.4byte	0xa95
 4495 13cb 00000000 		.4byte	.LFB225
 4496 13cf 20000000 		.4byte	.LFE225-.LFB225
 4497 13d3 01       		.uleb128 0x1
 4498 13d4 9C       		.byte	0x9c
 4499 13d5 14140000 		.4byte	0x1414
 4500 13d9 2D       		.uleb128 0x2d
 4501 13da A20A0000 		.4byte	0xaa2
 4502 13de A00A0000 		.4byte	.LLST42
 4503 13e2 53       		.uleb128 0x53
 4504 13e3 12000000 		.4byte	.LBB145
 4505 13e7 08000000 		.4byte	.LBE145-.LBB145
 4506 13eb 0A140000 		.4byte	0x140a
 4507 13ef 2D       		.uleb128 0x2d
 4508 13f0 A20A0000 		.4byte	0xaa2
 4509 13f4 C10A0000 		.4byte	.LLST43
 4510 13f8 2A       		.uleb128 0x2a
 4511 13f9 1A000000 		.4byte	.LVL107
 4512 13fd 28       		.uleb128 0x28
 4513 13fe 01       		.uleb128 0x1
 4514 13ff 50       		.byte	0x50
 4515 1400 02       		.uleb128 0x2
 4516 1401 75       		.byte	0x75
 4517 1402 00       		.sleb128 0
 4518 1403 28       		.uleb128 0x28
 4519 1404 01       		.uleb128 0x1
 4520 1405 51       		.byte	0x51
 4521 1406 01       		.uleb128 0x1
 4522 1407 32       		.byte	0x32
 4523 1408 00       		.byte	0
 4524 1409 00       		.byte	0
 4525 140a 54       		.uleb128 0x54
 4526 140b 0E000000 		.4byte	.LVL105
ARM GAS  /tmp/ccXw4jW7.s 			page 100


 4527 140f 69100000 		.4byte	0x1069
 4528 1413 00       		.byte	0
 4529 1414 55       		.uleb128 0x55
 4530 1415 A3080000 		.4byte	0x8a3
 4531 1419 00000000 		.4byte	.LFB229
 4532 141d 10000000 		.4byte	.LFE229-.LFB229
 4533 1421 01       		.uleb128 0x1
 4534 1422 9C       		.byte	0x9c
 4535 1423 2D       		.uleb128 0x2d
 4536 1424 B4080000 		.4byte	0x8b4
 4537 1428 D40A0000 		.4byte	.LLST63
 4538 142c 00       		.byte	0
 4539 142d 00       		.byte	0
 4540              		.section	.debug_abbrev,"",%progbits
 4541              	.Ldebug_abbrev0:
 4542 0000 01       		.uleb128 0x1
 4543 0001 11       		.uleb128 0x11
 4544 0002 01       		.byte	0x1
 4545 0003 25       		.uleb128 0x25
 4546 0004 0E       		.uleb128 0xe
 4547 0005 13       		.uleb128 0x13
 4548 0006 0B       		.uleb128 0xb
 4549 0007 03       		.uleb128 0x3
 4550 0008 0E       		.uleb128 0xe
 4551 0009 1B       		.uleb128 0x1b
 4552 000a 0E       		.uleb128 0xe
 4553 000b 55       		.uleb128 0x55
 4554 000c 17       		.uleb128 0x17
 4555 000d 11       		.uleb128 0x11
 4556 000e 01       		.uleb128 0x1
 4557 000f 10       		.uleb128 0x10
 4558 0010 17       		.uleb128 0x17
 4559 0011 9942     		.uleb128 0x2119
 4560 0013 17       		.uleb128 0x17
 4561 0014 00       		.byte	0
 4562 0015 00       		.byte	0
 4563 0016 02       		.uleb128 0x2
 4564 0017 24       		.uleb128 0x24
 4565 0018 00       		.byte	0
 4566 0019 0B       		.uleb128 0xb
 4567 001a 0B       		.uleb128 0xb
 4568 001b 3E       		.uleb128 0x3e
 4569 001c 0B       		.uleb128 0xb
 4570 001d 03       		.uleb128 0x3
 4571 001e 0E       		.uleb128 0xe
 4572 001f 00       		.byte	0
 4573 0020 00       		.byte	0
 4574 0021 03       		.uleb128 0x3
 4575 0022 16       		.uleb128 0x16
 4576 0023 00       		.byte	0
 4577 0024 03       		.uleb128 0x3
 4578 0025 0E       		.uleb128 0xe
 4579 0026 3A       		.uleb128 0x3a
 4580 0027 0B       		.uleb128 0xb
 4581 0028 3B       		.uleb128 0x3b
 4582 0029 0B       		.uleb128 0xb
 4583 002a 49       		.uleb128 0x49
ARM GAS  /tmp/ccXw4jW7.s 			page 101


 4584 002b 13       		.uleb128 0x13
 4585 002c 00       		.byte	0
 4586 002d 00       		.byte	0
 4587 002e 04       		.uleb128 0x4
 4588 002f 24       		.uleb128 0x24
 4589 0030 00       		.byte	0
 4590 0031 0B       		.uleb128 0xb
 4591 0032 0B       		.uleb128 0xb
 4592 0033 3E       		.uleb128 0x3e
 4593 0034 0B       		.uleb128 0xb
 4594 0035 03       		.uleb128 0x3
 4595 0036 08       		.uleb128 0x8
 4596 0037 00       		.byte	0
 4597 0038 00       		.byte	0
 4598 0039 05       		.uleb128 0x5
 4599 003a 26       		.uleb128 0x26
 4600 003b 00       		.byte	0
 4601 003c 49       		.uleb128 0x49
 4602 003d 13       		.uleb128 0x13
 4603 003e 00       		.byte	0
 4604 003f 00       		.byte	0
 4605 0040 06       		.uleb128 0x6
 4606 0041 35       		.uleb128 0x35
 4607 0042 00       		.byte	0
 4608 0043 49       		.uleb128 0x49
 4609 0044 13       		.uleb128 0x13
 4610 0045 00       		.byte	0
 4611 0046 00       		.byte	0
 4612 0047 07       		.uleb128 0x7
 4613 0048 01       		.uleb128 0x1
 4614 0049 01       		.byte	0x1
 4615 004a 49       		.uleb128 0x49
 4616 004b 13       		.uleb128 0x13
 4617 004c 01       		.uleb128 0x1
 4618 004d 13       		.uleb128 0x13
 4619 004e 00       		.byte	0
 4620 004f 00       		.byte	0
 4621 0050 08       		.uleb128 0x8
 4622 0051 21       		.uleb128 0x21
 4623 0052 00       		.byte	0
 4624 0053 49       		.uleb128 0x49
 4625 0054 13       		.uleb128 0x13
 4626 0055 2F       		.uleb128 0x2f
 4627 0056 0B       		.uleb128 0xb
 4628 0057 00       		.byte	0
 4629 0058 00       		.byte	0
 4630 0059 09       		.uleb128 0x9
 4631 005a 34       		.uleb128 0x34
 4632 005b 00       		.byte	0
 4633 005c 03       		.uleb128 0x3
 4634 005d 0E       		.uleb128 0xe
 4635 005e 3A       		.uleb128 0x3a
 4636 005f 0B       		.uleb128 0xb
 4637 0060 3B       		.uleb128 0x3b
 4638 0061 0B       		.uleb128 0xb
 4639 0062 49       		.uleb128 0x49
 4640 0063 13       		.uleb128 0x13
ARM GAS  /tmp/ccXw4jW7.s 			page 102


 4641 0064 3F       		.uleb128 0x3f
 4642 0065 19       		.uleb128 0x19
 4643 0066 3C       		.uleb128 0x3c
 4644 0067 19       		.uleb128 0x19
 4645 0068 00       		.byte	0
 4646 0069 00       		.byte	0
 4647 006a 0A       		.uleb128 0xa
 4648 006b 13       		.uleb128 0x13
 4649 006c 01       		.byte	0x1
 4650 006d 0B       		.uleb128 0xb
 4651 006e 05       		.uleb128 0x5
 4652 006f 3A       		.uleb128 0x3a
 4653 0070 0B       		.uleb128 0xb
 4654 0071 3B       		.uleb128 0x3b
 4655 0072 0B       		.uleb128 0xb
 4656 0073 01       		.uleb128 0x1
 4657 0074 13       		.uleb128 0x13
 4658 0075 00       		.byte	0
 4659 0076 00       		.byte	0
 4660 0077 0B       		.uleb128 0xb
 4661 0078 0D       		.uleb128 0xd
 4662 0079 00       		.byte	0
 4663 007a 03       		.uleb128 0x3
 4664 007b 0E       		.uleb128 0xe
 4665 007c 3A       		.uleb128 0x3a
 4666 007d 0B       		.uleb128 0xb
 4667 007e 3B       		.uleb128 0x3b
 4668 007f 0B       		.uleb128 0xb
 4669 0080 49       		.uleb128 0x49
 4670 0081 13       		.uleb128 0x13
 4671 0082 38       		.uleb128 0x38
 4672 0083 0B       		.uleb128 0xb
 4673 0084 00       		.byte	0
 4674 0085 00       		.byte	0
 4675 0086 0C       		.uleb128 0xc
 4676 0087 0D       		.uleb128 0xd
 4677 0088 00       		.byte	0
 4678 0089 03       		.uleb128 0x3
 4679 008a 0E       		.uleb128 0xe
 4680 008b 3A       		.uleb128 0x3a
 4681 008c 0B       		.uleb128 0xb
 4682 008d 3B       		.uleb128 0x3b
 4683 008e 0B       		.uleb128 0xb
 4684 008f 49       		.uleb128 0x49
 4685 0090 13       		.uleb128 0x13
 4686 0091 38       		.uleb128 0x38
 4687 0092 05       		.uleb128 0x5
 4688 0093 00       		.byte	0
 4689 0094 00       		.byte	0
 4690 0095 0D       		.uleb128 0xd
 4691 0096 04       		.uleb128 0x4
 4692 0097 01       		.byte	0x1
 4693 0098 03       		.uleb128 0x3
 4694 0099 0E       		.uleb128 0xe
 4695 009a 0B       		.uleb128 0xb
 4696 009b 0B       		.uleb128 0xb
 4697 009c 49       		.uleb128 0x49
ARM GAS  /tmp/ccXw4jW7.s 			page 103


 4698 009d 13       		.uleb128 0x13
 4699 009e 3A       		.uleb128 0x3a
 4700 009f 0B       		.uleb128 0xb
 4701 00a0 3B       		.uleb128 0x3b
 4702 00a1 0B       		.uleb128 0xb
 4703 00a2 01       		.uleb128 0x1
 4704 00a3 13       		.uleb128 0x13
 4705 00a4 00       		.byte	0
 4706 00a5 00       		.byte	0
 4707 00a6 0E       		.uleb128 0xe
 4708 00a7 28       		.uleb128 0x28
 4709 00a8 00       		.byte	0
 4710 00a9 03       		.uleb128 0x3
 4711 00aa 0E       		.uleb128 0xe
 4712 00ab 1C       		.uleb128 0x1c
 4713 00ac 0B       		.uleb128 0xb
 4714 00ad 00       		.byte	0
 4715 00ae 00       		.byte	0
 4716 00af 0F       		.uleb128 0xf
 4717 00b0 16       		.uleb128 0x16
 4718 00b1 00       		.byte	0
 4719 00b2 03       		.uleb128 0x3
 4720 00b3 0E       		.uleb128 0xe
 4721 00b4 3A       		.uleb128 0x3a
 4722 00b5 0B       		.uleb128 0xb
 4723 00b6 3B       		.uleb128 0x3b
 4724 00b7 05       		.uleb128 0x5
 4725 00b8 49       		.uleb128 0x49
 4726 00b9 13       		.uleb128 0x13
 4727 00ba 00       		.byte	0
 4728 00bb 00       		.byte	0
 4729 00bc 10       		.uleb128 0x10
 4730 00bd 13       		.uleb128 0x13
 4731 00be 01       		.byte	0x1
 4732 00bf 0B       		.uleb128 0xb
 4733 00c0 0B       		.uleb128 0xb
 4734 00c1 3A       		.uleb128 0x3a
 4735 00c2 0B       		.uleb128 0xb
 4736 00c3 3B       		.uleb128 0x3b
 4737 00c4 0B       		.uleb128 0xb
 4738 00c5 01       		.uleb128 0x1
 4739 00c6 13       		.uleb128 0x13
 4740 00c7 00       		.byte	0
 4741 00c8 00       		.byte	0
 4742 00c9 11       		.uleb128 0x11
 4743 00ca 0D       		.uleb128 0xd
 4744 00cb 00       		.byte	0
 4745 00cc 03       		.uleb128 0x3
 4746 00cd 08       		.uleb128 0x8
 4747 00ce 3A       		.uleb128 0x3a
 4748 00cf 0B       		.uleb128 0xb
 4749 00d0 3B       		.uleb128 0x3b
 4750 00d1 0B       		.uleb128 0xb
 4751 00d2 49       		.uleb128 0x49
 4752 00d3 13       		.uleb128 0x13
 4753 00d4 38       		.uleb128 0x38
 4754 00d5 0B       		.uleb128 0xb
ARM GAS  /tmp/ccXw4jW7.s 			page 104


 4755 00d6 00       		.byte	0
 4756 00d7 00       		.byte	0
 4757 00d8 12       		.uleb128 0x12
 4758 00d9 04       		.uleb128 0x4
 4759 00da 01       		.byte	0x1
 4760 00db 0B       		.uleb128 0xb
 4761 00dc 0B       		.uleb128 0xb
 4762 00dd 49       		.uleb128 0x49
 4763 00de 13       		.uleb128 0x13
 4764 00df 3A       		.uleb128 0x3a
 4765 00e0 0B       		.uleb128 0xb
 4766 00e1 3B       		.uleb128 0x3b
 4767 00e2 0B       		.uleb128 0xb
 4768 00e3 01       		.uleb128 0x1
 4769 00e4 13       		.uleb128 0x13
 4770 00e5 00       		.byte	0
 4771 00e6 00       		.byte	0
 4772 00e7 13       		.uleb128 0x13
 4773 00e8 13       		.uleb128 0x13
 4774 00e9 01       		.byte	0x1
 4775 00ea 0B       		.uleb128 0xb
 4776 00eb 0B       		.uleb128 0xb
 4777 00ec 3A       		.uleb128 0x3a
 4778 00ed 0B       		.uleb128 0xb
 4779 00ee 3B       		.uleb128 0x3b
 4780 00ef 05       		.uleb128 0x5
 4781 00f0 01       		.uleb128 0x1
 4782 00f1 13       		.uleb128 0x13
 4783 00f2 00       		.byte	0
 4784 00f3 00       		.byte	0
 4785 00f4 14       		.uleb128 0x14
 4786 00f5 0D       		.uleb128 0xd
 4787 00f6 00       		.byte	0
 4788 00f7 03       		.uleb128 0x3
 4789 00f8 0E       		.uleb128 0xe
 4790 00f9 3A       		.uleb128 0x3a
 4791 00fa 0B       		.uleb128 0xb
 4792 00fb 3B       		.uleb128 0x3b
 4793 00fc 05       		.uleb128 0x5
 4794 00fd 49       		.uleb128 0x49
 4795 00fe 13       		.uleb128 0x13
 4796 00ff 38       		.uleb128 0x38
 4797 0100 0B       		.uleb128 0xb
 4798 0101 00       		.byte	0
 4799 0102 00       		.byte	0
 4800 0103 15       		.uleb128 0x15
 4801 0104 0F       		.uleb128 0xf
 4802 0105 00       		.byte	0
 4803 0106 0B       		.uleb128 0xb
 4804 0107 0B       		.uleb128 0xb
 4805 0108 49       		.uleb128 0x49
 4806 0109 13       		.uleb128 0x13
 4807 010a 00       		.byte	0
 4808 010b 00       		.byte	0
 4809 010c 16       		.uleb128 0x16
 4810 010d 04       		.uleb128 0x4
 4811 010e 01       		.byte	0x1
ARM GAS  /tmp/ccXw4jW7.s 			page 105


 4812 010f 03       		.uleb128 0x3
 4813 0110 0E       		.uleb128 0xe
 4814 0111 0B       		.uleb128 0xb
 4815 0112 0B       		.uleb128 0xb
 4816 0113 49       		.uleb128 0x49
 4817 0114 13       		.uleb128 0x13
 4818 0115 3A       		.uleb128 0x3a
 4819 0116 0B       		.uleb128 0xb
 4820 0117 3B       		.uleb128 0x3b
 4821 0118 05       		.uleb128 0x5
 4822 0119 01       		.uleb128 0x1
 4823 011a 13       		.uleb128 0x13
 4824 011b 00       		.byte	0
 4825 011c 00       		.byte	0
 4826 011d 17       		.uleb128 0x17
 4827 011e 04       		.uleb128 0x4
 4828 011f 01       		.byte	0x1
 4829 0120 0B       		.uleb128 0xb
 4830 0121 0B       		.uleb128 0xb
 4831 0122 49       		.uleb128 0x49
 4832 0123 13       		.uleb128 0x13
 4833 0124 3A       		.uleb128 0x3a
 4834 0125 0B       		.uleb128 0xb
 4835 0126 3B       		.uleb128 0x3b
 4836 0127 05       		.uleb128 0x5
 4837 0128 01       		.uleb128 0x1
 4838 0129 13       		.uleb128 0x13
 4839 012a 00       		.byte	0
 4840 012b 00       		.byte	0
 4841 012c 18       		.uleb128 0x18
 4842 012d 15       		.uleb128 0x15
 4843 012e 01       		.byte	0x1
 4844 012f 27       		.uleb128 0x27
 4845 0130 19       		.uleb128 0x19
 4846 0131 01       		.uleb128 0x1
 4847 0132 13       		.uleb128 0x13
 4848 0133 00       		.byte	0
 4849 0134 00       		.byte	0
 4850 0135 19       		.uleb128 0x19
 4851 0136 05       		.uleb128 0x5
 4852 0137 00       		.byte	0
 4853 0138 49       		.uleb128 0x49
 4854 0139 13       		.uleb128 0x13
 4855 013a 00       		.byte	0
 4856 013b 00       		.byte	0
 4857 013c 1A       		.uleb128 0x1a
 4858 013d 34       		.uleb128 0x34
 4859 013e 00       		.byte	0
 4860 013f 03       		.uleb128 0x3
 4861 0140 0E       		.uleb128 0xe
 4862 0141 3A       		.uleb128 0x3a
 4863 0142 0B       		.uleb128 0xb
 4864 0143 3B       		.uleb128 0x3b
 4865 0144 05       		.uleb128 0x5
 4866 0145 49       		.uleb128 0x49
 4867 0146 13       		.uleb128 0x13
 4868 0147 3F       		.uleb128 0x3f
ARM GAS  /tmp/ccXw4jW7.s 			page 106


 4869 0148 19       		.uleb128 0x19
 4870 0149 3C       		.uleb128 0x3c
 4871 014a 19       		.uleb128 0x19
 4872 014b 00       		.byte	0
 4873 014c 00       		.byte	0
 4874 014d 1B       		.uleb128 0x1b
 4875 014e 13       		.uleb128 0x13
 4876 014f 01       		.byte	0x1
 4877 0150 03       		.uleb128 0x3
 4878 0151 0E       		.uleb128 0xe
 4879 0152 0B       		.uleb128 0xb
 4880 0153 0B       		.uleb128 0xb
 4881 0154 3A       		.uleb128 0x3a
 4882 0155 0B       		.uleb128 0xb
 4883 0156 3B       		.uleb128 0x3b
 4884 0157 0B       		.uleb128 0xb
 4885 0158 01       		.uleb128 0x1
 4886 0159 13       		.uleb128 0x13
 4887 015a 00       		.byte	0
 4888 015b 00       		.byte	0
 4889 015c 1C       		.uleb128 0x1c
 4890 015d 34       		.uleb128 0x34
 4891 015e 00       		.byte	0
 4892 015f 03       		.uleb128 0x3
 4893 0160 08       		.uleb128 0x8
 4894 0161 3A       		.uleb128 0x3a
 4895 0162 0B       		.uleb128 0xb
 4896 0163 3B       		.uleb128 0x3b
 4897 0164 0B       		.uleb128 0xb
 4898 0165 49       		.uleb128 0x49
 4899 0166 13       		.uleb128 0x13
 4900 0167 02       		.uleb128 0x2
 4901 0168 18       		.uleb128 0x18
 4902 0169 00       		.byte	0
 4903 016a 00       		.byte	0
 4904 016b 1D       		.uleb128 0x1d
 4905 016c 34       		.uleb128 0x34
 4906 016d 00       		.byte	0
 4907 016e 03       		.uleb128 0x3
 4908 016f 0E       		.uleb128 0xe
 4909 0170 3A       		.uleb128 0x3a
 4910 0171 0B       		.uleb128 0xb
 4911 0172 3B       		.uleb128 0x3b
 4912 0173 0B       		.uleb128 0xb
 4913 0174 49       		.uleb128 0x49
 4914 0175 13       		.uleb128 0x13
 4915 0176 02       		.uleb128 0x2
 4916 0177 18       		.uleb128 0x18
 4917 0178 00       		.byte	0
 4918 0179 00       		.byte	0
 4919 017a 1E       		.uleb128 0x1e
 4920 017b 2E       		.uleb128 0x2e
 4921 017c 01       		.byte	0x1
 4922 017d 3F       		.uleb128 0x3f
 4923 017e 19       		.uleb128 0x19
 4924 017f 03       		.uleb128 0x3
 4925 0180 0E       		.uleb128 0xe
ARM GAS  /tmp/ccXw4jW7.s 			page 107


 4926 0181 3A       		.uleb128 0x3a
 4927 0182 0B       		.uleb128 0xb
 4928 0183 3B       		.uleb128 0x3b
 4929 0184 05       		.uleb128 0x5
 4930 0185 27       		.uleb128 0x27
 4931 0186 19       		.uleb128 0x19
 4932 0187 49       		.uleb128 0x49
 4933 0188 13       		.uleb128 0x13
 4934 0189 20       		.uleb128 0x20
 4935 018a 0B       		.uleb128 0xb
 4936 018b 01       		.uleb128 0x1
 4937 018c 13       		.uleb128 0x13
 4938 018d 00       		.byte	0
 4939 018e 00       		.byte	0
 4940 018f 1F       		.uleb128 0x1f
 4941 0190 05       		.uleb128 0x5
 4942 0191 00       		.byte	0
 4943 0192 03       		.uleb128 0x3
 4944 0193 08       		.uleb128 0x8
 4945 0194 3A       		.uleb128 0x3a
 4946 0195 0B       		.uleb128 0xb
 4947 0196 3B       		.uleb128 0x3b
 4948 0197 05       		.uleb128 0x5
 4949 0198 49       		.uleb128 0x49
 4950 0199 13       		.uleb128 0x13
 4951 019a 00       		.byte	0
 4952 019b 00       		.byte	0
 4953 019c 20       		.uleb128 0x20
 4954 019d 2E       		.uleb128 0x2e
 4955 019e 01       		.byte	0x1
 4956 019f 3F       		.uleb128 0x3f
 4957 01a0 19       		.uleb128 0x19
 4958 01a1 03       		.uleb128 0x3
 4959 01a2 0E       		.uleb128 0xe
 4960 01a3 3A       		.uleb128 0x3a
 4961 01a4 0B       		.uleb128 0xb
 4962 01a5 3B       		.uleb128 0x3b
 4963 01a6 05       		.uleb128 0x5
 4964 01a7 27       		.uleb128 0x27
 4965 01a8 19       		.uleb128 0x19
 4966 01a9 11       		.uleb128 0x11
 4967 01aa 01       		.uleb128 0x1
 4968 01ab 12       		.uleb128 0x12
 4969 01ac 06       		.uleb128 0x6
 4970 01ad 40       		.uleb128 0x40
 4971 01ae 18       		.uleb128 0x18
 4972 01af 9742     		.uleb128 0x2117
 4973 01b1 19       		.uleb128 0x19
 4974 01b2 01       		.uleb128 0x1
 4975 01b3 13       		.uleb128 0x13
 4976 01b4 00       		.byte	0
 4977 01b5 00       		.byte	0
 4978 01b6 21       		.uleb128 0x21
 4979 01b7 05       		.uleb128 0x5
 4980 01b8 00       		.byte	0
 4981 01b9 03       		.uleb128 0x3
 4982 01ba 08       		.uleb128 0x8
ARM GAS  /tmp/ccXw4jW7.s 			page 108


 4983 01bb 3A       		.uleb128 0x3a
 4984 01bc 0B       		.uleb128 0xb
 4985 01bd 3B       		.uleb128 0x3b
 4986 01be 05       		.uleb128 0x5
 4987 01bf 49       		.uleb128 0x49
 4988 01c0 13       		.uleb128 0x13
 4989 01c1 02       		.uleb128 0x2
 4990 01c2 18       		.uleb128 0x18
 4991 01c3 00       		.byte	0
 4992 01c4 00       		.byte	0
 4993 01c5 22       		.uleb128 0x22
 4994 01c6 05       		.uleb128 0x5
 4995 01c7 00       		.byte	0
 4996 01c8 03       		.uleb128 0x3
 4997 01c9 08       		.uleb128 0x8
 4998 01ca 3A       		.uleb128 0x3a
 4999 01cb 0B       		.uleb128 0xb
 5000 01cc 3B       		.uleb128 0x3b
 5001 01cd 05       		.uleb128 0x5
 5002 01ce 49       		.uleb128 0x49
 5003 01cf 13       		.uleb128 0x13
 5004 01d0 02       		.uleb128 0x2
 5005 01d1 17       		.uleb128 0x17
 5006 01d2 00       		.byte	0
 5007 01d3 00       		.byte	0
 5008 01d4 23       		.uleb128 0x23
 5009 01d5 34       		.uleb128 0x34
 5010 01d6 00       		.byte	0
 5011 01d7 03       		.uleb128 0x3
 5012 01d8 08       		.uleb128 0x8
 5013 01d9 3A       		.uleb128 0x3a
 5014 01da 0B       		.uleb128 0xb
 5015 01db 3B       		.uleb128 0x3b
 5016 01dc 05       		.uleb128 0x5
 5017 01dd 49       		.uleb128 0x49
 5018 01de 13       		.uleb128 0x13
 5019 01df 02       		.uleb128 0x2
 5020 01e0 17       		.uleb128 0x17
 5021 01e1 00       		.byte	0
 5022 01e2 00       		.byte	0
 5023 01e3 24       		.uleb128 0x24
 5024 01e4 34       		.uleb128 0x34
 5025 01e5 00       		.byte	0
 5026 01e6 03       		.uleb128 0x3
 5027 01e7 08       		.uleb128 0x8
 5028 01e8 3A       		.uleb128 0x3a
 5029 01e9 0B       		.uleb128 0xb
 5030 01ea 3B       		.uleb128 0x3b
 5031 01eb 05       		.uleb128 0x5
 5032 01ec 49       		.uleb128 0x49
 5033 01ed 13       		.uleb128 0x13
 5034 01ee 02       		.uleb128 0x2
 5035 01ef 18       		.uleb128 0x18
 5036 01f0 00       		.byte	0
 5037 01f1 00       		.byte	0
 5038 01f2 25       		.uleb128 0x25
 5039 01f3 0B       		.uleb128 0xb
ARM GAS  /tmp/ccXw4jW7.s 			page 109


 5040 01f4 01       		.byte	0x1
 5041 01f5 55       		.uleb128 0x55
 5042 01f6 17       		.uleb128 0x17
 5043 01f7 01       		.uleb128 0x1
 5044 01f8 13       		.uleb128 0x13
 5045 01f9 00       		.byte	0
 5046 01fa 00       		.byte	0
 5047 01fb 26       		.uleb128 0x26
 5048 01fc 34       		.uleb128 0x34
 5049 01fd 00       		.byte	0
 5050 01fe 03       		.uleb128 0x3
 5051 01ff 0E       		.uleb128 0xe
 5052 0200 3A       		.uleb128 0x3a
 5053 0201 0B       		.uleb128 0xb
 5054 0202 3B       		.uleb128 0x3b
 5055 0203 05       		.uleb128 0x5
 5056 0204 49       		.uleb128 0x49
 5057 0205 13       		.uleb128 0x13
 5058 0206 02       		.uleb128 0x2
 5059 0207 17       		.uleb128 0x17
 5060 0208 00       		.byte	0
 5061 0209 00       		.byte	0
 5062 020a 27       		.uleb128 0x27
 5063 020b 898201   		.uleb128 0x4109
 5064 020e 01       		.byte	0x1
 5065 020f 11       		.uleb128 0x11
 5066 0210 01       		.uleb128 0x1
 5067 0211 31       		.uleb128 0x31
 5068 0212 13       		.uleb128 0x13
 5069 0213 00       		.byte	0
 5070 0214 00       		.byte	0
 5071 0215 28       		.uleb128 0x28
 5072 0216 8A8201   		.uleb128 0x410a
 5073 0219 00       		.byte	0
 5074 021a 02       		.uleb128 0x2
 5075 021b 18       		.uleb128 0x18
 5076 021c 9142     		.uleb128 0x2111
 5077 021e 18       		.uleb128 0x18
 5078 021f 00       		.byte	0
 5079 0220 00       		.byte	0
 5080 0221 29       		.uleb128 0x29
 5081 0222 898201   		.uleb128 0x4109
 5082 0225 01       		.byte	0x1
 5083 0226 11       		.uleb128 0x11
 5084 0227 01       		.uleb128 0x1
 5085 0228 31       		.uleb128 0x31
 5086 0229 13       		.uleb128 0x13
 5087 022a 01       		.uleb128 0x1
 5088 022b 13       		.uleb128 0x13
 5089 022c 00       		.byte	0
 5090 022d 00       		.byte	0
 5091 022e 2A       		.uleb128 0x2a
 5092 022f 898201   		.uleb128 0x4109
 5093 0232 01       		.byte	0x1
 5094 0233 11       		.uleb128 0x11
 5095 0234 01       		.uleb128 0x1
 5096 0235 00       		.byte	0
ARM GAS  /tmp/ccXw4jW7.s 			page 110


 5097 0236 00       		.byte	0
 5098 0237 2B       		.uleb128 0x2b
 5099 0238 05       		.uleb128 0x5
 5100 0239 00       		.byte	0
 5101 023a 03       		.uleb128 0x3
 5102 023b 0E       		.uleb128 0xe
 5103 023c 3A       		.uleb128 0x3a
 5104 023d 0B       		.uleb128 0xb
 5105 023e 3B       		.uleb128 0x3b
 5106 023f 05       		.uleb128 0x5
 5107 0240 49       		.uleb128 0x49
 5108 0241 13       		.uleb128 0x13
 5109 0242 02       		.uleb128 0x2
 5110 0243 17       		.uleb128 0x17
 5111 0244 00       		.byte	0
 5112 0245 00       		.byte	0
 5113 0246 2C       		.uleb128 0x2c
 5114 0247 1D       		.uleb128 0x1d
 5115 0248 01       		.byte	0x1
 5116 0249 31       		.uleb128 0x31
 5117 024a 13       		.uleb128 0x13
 5118 024b 52       		.uleb128 0x52
 5119 024c 01       		.uleb128 0x1
 5120 024d 55       		.uleb128 0x55
 5121 024e 17       		.uleb128 0x17
 5122 024f 58       		.uleb128 0x58
 5123 0250 0B       		.uleb128 0xb
 5124 0251 59       		.uleb128 0x59
 5125 0252 05       		.uleb128 0x5
 5126 0253 01       		.uleb128 0x1
 5127 0254 13       		.uleb128 0x13
 5128 0255 00       		.byte	0
 5129 0256 00       		.byte	0
 5130 0257 2D       		.uleb128 0x2d
 5131 0258 05       		.uleb128 0x5
 5132 0259 00       		.byte	0
 5133 025a 31       		.uleb128 0x31
 5134 025b 13       		.uleb128 0x13
 5135 025c 02       		.uleb128 0x2
 5136 025d 17       		.uleb128 0x17
 5137 025e 00       		.byte	0
 5138 025f 00       		.byte	0
 5139 0260 2E       		.uleb128 0x2e
 5140 0261 0B       		.uleb128 0xb
 5141 0262 01       		.byte	0x1
 5142 0263 55       		.uleb128 0x55
 5143 0264 17       		.uleb128 0x17
 5144 0265 00       		.byte	0
 5145 0266 00       		.byte	0
 5146 0267 2F       		.uleb128 0x2f
 5147 0268 34       		.uleb128 0x34
 5148 0269 00       		.byte	0
 5149 026a 31       		.uleb128 0x31
 5150 026b 13       		.uleb128 0x13
 5151 026c 02       		.uleb128 0x2
 5152 026d 17       		.uleb128 0x17
 5153 026e 00       		.byte	0
ARM GAS  /tmp/ccXw4jW7.s 			page 111


 5154 026f 00       		.byte	0
 5155 0270 30       		.uleb128 0x30
 5156 0271 0B       		.uleb128 0xb
 5157 0272 01       		.byte	0x1
 5158 0273 11       		.uleb128 0x11
 5159 0274 01       		.uleb128 0x1
 5160 0275 12       		.uleb128 0x12
 5161 0276 06       		.uleb128 0x6
 5162 0277 00       		.byte	0
 5163 0278 00       		.byte	0
 5164 0279 31       		.uleb128 0x31
 5165 027a 1D       		.uleb128 0x1d
 5166 027b 01       		.byte	0x1
 5167 027c 31       		.uleb128 0x31
 5168 027d 13       		.uleb128 0x13
 5169 027e 52       		.uleb128 0x52
 5170 027f 01       		.uleb128 0x1
 5171 0280 55       		.uleb128 0x55
 5172 0281 17       		.uleb128 0x17
 5173 0282 58       		.uleb128 0x58
 5174 0283 0B       		.uleb128 0xb
 5175 0284 59       		.uleb128 0x59
 5176 0285 05       		.uleb128 0x5
 5177 0286 00       		.byte	0
 5178 0287 00       		.byte	0
 5179 0288 32       		.uleb128 0x32
 5180 0289 05       		.uleb128 0x5
 5181 028a 00       		.byte	0
 5182 028b 31       		.uleb128 0x31
 5183 028c 13       		.uleb128 0x13
 5184 028d 02       		.uleb128 0x2
 5185 028e 18       		.uleb128 0x18
 5186 028f 00       		.byte	0
 5187 0290 00       		.byte	0
 5188 0291 33       		.uleb128 0x33
 5189 0292 2E       		.uleb128 0x2e
 5190 0293 01       		.byte	0x1
 5191 0294 3F       		.uleb128 0x3f
 5192 0295 19       		.uleb128 0x19
 5193 0296 03       		.uleb128 0x3
 5194 0297 0E       		.uleb128 0xe
 5195 0298 3A       		.uleb128 0x3a
 5196 0299 0B       		.uleb128 0xb
 5197 029a 3B       		.uleb128 0x3b
 5198 029b 05       		.uleb128 0x5
 5199 029c 27       		.uleb128 0x27
 5200 029d 19       		.uleb128 0x19
 5201 029e 20       		.uleb128 0x20
 5202 029f 0B       		.uleb128 0xb
 5203 02a0 01       		.uleb128 0x1
 5204 02a1 13       		.uleb128 0x13
 5205 02a2 00       		.byte	0
 5206 02a3 00       		.byte	0
 5207 02a4 34       		.uleb128 0x34
 5208 02a5 2E       		.uleb128 0x2e
 5209 02a6 01       		.byte	0x1
 5210 02a7 3F       		.uleb128 0x3f
ARM GAS  /tmp/ccXw4jW7.s 			page 112


 5211 02a8 19       		.uleb128 0x19
 5212 02a9 03       		.uleb128 0x3
 5213 02aa 0E       		.uleb128 0xe
 5214 02ab 3A       		.uleb128 0x3a
 5215 02ac 0B       		.uleb128 0xb
 5216 02ad 3B       		.uleb128 0x3b
 5217 02ae 05       		.uleb128 0x5
 5218 02af 27       		.uleb128 0x27
 5219 02b0 19       		.uleb128 0x19
 5220 02b1 49       		.uleb128 0x49
 5221 02b2 13       		.uleb128 0x13
 5222 02b3 11       		.uleb128 0x11
 5223 02b4 01       		.uleb128 0x1
 5224 02b5 12       		.uleb128 0x12
 5225 02b6 06       		.uleb128 0x6
 5226 02b7 40       		.uleb128 0x40
 5227 02b8 18       		.uleb128 0x18
 5228 02b9 9742     		.uleb128 0x2117
 5229 02bb 19       		.uleb128 0x19
 5230 02bc 01       		.uleb128 0x1
 5231 02bd 13       		.uleb128 0x13
 5232 02be 00       		.byte	0
 5233 02bf 00       		.byte	0
 5234 02c0 35       		.uleb128 0x35
 5235 02c1 1D       		.uleb128 0x1d
 5236 02c2 01       		.byte	0x1
 5237 02c3 31       		.uleb128 0x31
 5238 02c4 13       		.uleb128 0x13
 5239 02c5 11       		.uleb128 0x11
 5240 02c6 01       		.uleb128 0x1
 5241 02c7 12       		.uleb128 0x12
 5242 02c8 06       		.uleb128 0x6
 5243 02c9 58       		.uleb128 0x58
 5244 02ca 0B       		.uleb128 0xb
 5245 02cb 59       		.uleb128 0x59
 5246 02cc 0B       		.uleb128 0xb
 5247 02cd 00       		.byte	0
 5248 02ce 00       		.byte	0
 5249 02cf 36       		.uleb128 0x36
 5250 02d0 34       		.uleb128 0x34
 5251 02d1 00       		.byte	0
 5252 02d2 03       		.uleb128 0x3
 5253 02d3 0E       		.uleb128 0xe
 5254 02d4 3A       		.uleb128 0x3a
 5255 02d5 0B       		.uleb128 0xb
 5256 02d6 3B       		.uleb128 0x3b
 5257 02d7 05       		.uleb128 0x5
 5258 02d8 49       		.uleb128 0x49
 5259 02d9 13       		.uleb128 0x13
 5260 02da 02       		.uleb128 0x2
 5261 02db 18       		.uleb128 0x18
 5262 02dc 00       		.byte	0
 5263 02dd 00       		.byte	0
 5264 02de 37       		.uleb128 0x37
 5265 02df 1D       		.uleb128 0x1d
 5266 02e0 01       		.byte	0x1
 5267 02e1 31       		.uleb128 0x31
ARM GAS  /tmp/ccXw4jW7.s 			page 113


 5268 02e2 13       		.uleb128 0x13
 5269 02e3 11       		.uleb128 0x11
 5270 02e4 01       		.uleb128 0x1
 5271 02e5 12       		.uleb128 0x12
 5272 02e6 06       		.uleb128 0x6
 5273 02e7 58       		.uleb128 0x58
 5274 02e8 0B       		.uleb128 0xb
 5275 02e9 59       		.uleb128 0x59
 5276 02ea 05       		.uleb128 0x5
 5277 02eb 01       		.uleb128 0x1
 5278 02ec 13       		.uleb128 0x13
 5279 02ed 00       		.byte	0
 5280 02ee 00       		.byte	0
 5281 02ef 38       		.uleb128 0x38
 5282 02f0 898201   		.uleb128 0x4109
 5283 02f3 01       		.byte	0x1
 5284 02f4 11       		.uleb128 0x11
 5285 02f5 01       		.uleb128 0x1
 5286 02f6 01       		.uleb128 0x1
 5287 02f7 13       		.uleb128 0x13
 5288 02f8 00       		.byte	0
 5289 02f9 00       		.byte	0
 5290 02fa 39       		.uleb128 0x39
 5291 02fb 2E       		.uleb128 0x2e
 5292 02fc 01       		.byte	0x1
 5293 02fd 3F       		.uleb128 0x3f
 5294 02fe 19       		.uleb128 0x19
 5295 02ff 03       		.uleb128 0x3
 5296 0300 0E       		.uleb128 0xe
 5297 0301 3A       		.uleb128 0x3a
 5298 0302 0B       		.uleb128 0xb
 5299 0303 3B       		.uleb128 0x3b
 5300 0304 05       		.uleb128 0x5
 5301 0305 27       		.uleb128 0x27
 5302 0306 19       		.uleb128 0x19
 5303 0307 49       		.uleb128 0x49
 5304 0308 13       		.uleb128 0x13
 5305 0309 11       		.uleb128 0x11
 5306 030a 01       		.uleb128 0x1
 5307 030b 12       		.uleb128 0x12
 5308 030c 06       		.uleb128 0x6
 5309 030d 40       		.uleb128 0x40
 5310 030e 18       		.uleb128 0x18
 5311 030f 9642     		.uleb128 0x2116
 5312 0311 19       		.uleb128 0x19
 5313 0312 01       		.uleb128 0x1
 5314 0313 13       		.uleb128 0x13
 5315 0314 00       		.byte	0
 5316 0315 00       		.byte	0
 5317 0316 3A       		.uleb128 0x3a
 5318 0317 2E       		.uleb128 0x2e
 5319 0318 01       		.byte	0x1
 5320 0319 3F       		.uleb128 0x3f
 5321 031a 19       		.uleb128 0x19
 5322 031b 03       		.uleb128 0x3
 5323 031c 0E       		.uleb128 0xe
 5324 031d 3A       		.uleb128 0x3a
ARM GAS  /tmp/ccXw4jW7.s 			page 114


 5325 031e 0B       		.uleb128 0xb
 5326 031f 3B       		.uleb128 0x3b
 5327 0320 05       		.uleb128 0x5
 5328 0321 27       		.uleb128 0x27
 5329 0322 19       		.uleb128 0x19
 5330 0323 11       		.uleb128 0x11
 5331 0324 01       		.uleb128 0x1
 5332 0325 12       		.uleb128 0x12
 5333 0326 06       		.uleb128 0x6
 5334 0327 40       		.uleb128 0x40
 5335 0328 18       		.uleb128 0x18
 5336 0329 9642     		.uleb128 0x2116
 5337 032b 19       		.uleb128 0x19
 5338 032c 01       		.uleb128 0x1
 5339 032d 13       		.uleb128 0x13
 5340 032e 00       		.byte	0
 5341 032f 00       		.byte	0
 5342 0330 3B       		.uleb128 0x3b
 5343 0331 1D       		.uleb128 0x1d
 5344 0332 01       		.byte	0x1
 5345 0333 31       		.uleb128 0x31
 5346 0334 13       		.uleb128 0x13
 5347 0335 52       		.uleb128 0x52
 5348 0336 01       		.uleb128 0x1
 5349 0337 55       		.uleb128 0x55
 5350 0338 17       		.uleb128 0x17
 5351 0339 58       		.uleb128 0x58
 5352 033a 0B       		.uleb128 0xb
 5353 033b 59       		.uleb128 0x59
 5354 033c 0B       		.uleb128 0xb
 5355 033d 00       		.byte	0
 5356 033e 00       		.byte	0
 5357 033f 3C       		.uleb128 0x3c
 5358 0340 05       		.uleb128 0x5
 5359 0341 00       		.byte	0
 5360 0342 03       		.uleb128 0x3
 5361 0343 0E       		.uleb128 0xe
 5362 0344 3A       		.uleb128 0x3a
 5363 0345 0B       		.uleb128 0xb
 5364 0346 3B       		.uleb128 0x3b
 5365 0347 05       		.uleb128 0x5
 5366 0348 49       		.uleb128 0x49
 5367 0349 13       		.uleb128 0x13
 5368 034a 00       		.byte	0
 5369 034b 00       		.byte	0
 5370 034c 3D       		.uleb128 0x3d
 5371 034d 34       		.uleb128 0x34
 5372 034e 00       		.byte	0
 5373 034f 03       		.uleb128 0x3
 5374 0350 08       		.uleb128 0x8
 5375 0351 3A       		.uleb128 0x3a
 5376 0352 0B       		.uleb128 0xb
 5377 0353 3B       		.uleb128 0x3b
 5378 0354 05       		.uleb128 0x5
 5379 0355 49       		.uleb128 0x49
 5380 0356 13       		.uleb128 0x13
 5381 0357 00       		.byte	0
ARM GAS  /tmp/ccXw4jW7.s 			page 115


 5382 0358 00       		.byte	0
 5383 0359 3E       		.uleb128 0x3e
 5384 035a 34       		.uleb128 0x34
 5385 035b 00       		.byte	0
 5386 035c 03       		.uleb128 0x3
 5387 035d 0E       		.uleb128 0xe
 5388 035e 3A       		.uleb128 0x3a
 5389 035f 0B       		.uleb128 0xb
 5390 0360 3B       		.uleb128 0x3b
 5391 0361 05       		.uleb128 0x5
 5392 0362 49       		.uleb128 0x49
 5393 0363 13       		.uleb128 0x13
 5394 0364 00       		.byte	0
 5395 0365 00       		.byte	0
 5396 0366 3F       		.uleb128 0x3f
 5397 0367 05       		.uleb128 0x5
 5398 0368 00       		.byte	0
 5399 0369 31       		.uleb128 0x31
 5400 036a 13       		.uleb128 0x13
 5401 036b 00       		.byte	0
 5402 036c 00       		.byte	0
 5403 036d 40       		.uleb128 0x40
 5404 036e 2E       		.uleb128 0x2e
 5405 036f 01       		.byte	0x1
 5406 0370 3F       		.uleb128 0x3f
 5407 0371 19       		.uleb128 0x19
 5408 0372 03       		.uleb128 0x3
 5409 0373 0E       		.uleb128 0xe
 5410 0374 3A       		.uleb128 0x3a
 5411 0375 0B       		.uleb128 0xb
 5412 0376 3B       		.uleb128 0x3b
 5413 0377 0B       		.uleb128 0xb
 5414 0378 27       		.uleb128 0x27
 5415 0379 19       		.uleb128 0x19
 5416 037a 49       		.uleb128 0x49
 5417 037b 13       		.uleb128 0x13
 5418 037c 20       		.uleb128 0x20
 5419 037d 0B       		.uleb128 0xb
 5420 037e 01       		.uleb128 0x1
 5421 037f 13       		.uleb128 0x13
 5422 0380 00       		.byte	0
 5423 0381 00       		.byte	0
 5424 0382 41       		.uleb128 0x41
 5425 0383 05       		.uleb128 0x5
 5426 0384 00       		.byte	0
 5427 0385 03       		.uleb128 0x3
 5428 0386 0E       		.uleb128 0xe
 5429 0387 3A       		.uleb128 0x3a
 5430 0388 0B       		.uleb128 0xb
 5431 0389 3B       		.uleb128 0x3b
 5432 038a 0B       		.uleb128 0xb
 5433 038b 49       		.uleb128 0x49
 5434 038c 13       		.uleb128 0x13
 5435 038d 00       		.byte	0
 5436 038e 00       		.byte	0
 5437 038f 42       		.uleb128 0x42
 5438 0390 2E       		.uleb128 0x2e
ARM GAS  /tmp/ccXw4jW7.s 			page 116


 5439 0391 01       		.byte	0x1
 5440 0392 3F       		.uleb128 0x3f
 5441 0393 19       		.uleb128 0x19
 5442 0394 03       		.uleb128 0x3
 5443 0395 0E       		.uleb128 0xe
 5444 0396 3A       		.uleb128 0x3a
 5445 0397 0B       		.uleb128 0xb
 5446 0398 3B       		.uleb128 0x3b
 5447 0399 0B       		.uleb128 0xb
 5448 039a 27       		.uleb128 0x27
 5449 039b 19       		.uleb128 0x19
 5450 039c 49       		.uleb128 0x49
 5451 039d 13       		.uleb128 0x13
 5452 039e 11       		.uleb128 0x11
 5453 039f 01       		.uleb128 0x1
 5454 03a0 12       		.uleb128 0x12
 5455 03a1 06       		.uleb128 0x6
 5456 03a2 40       		.uleb128 0x40
 5457 03a3 18       		.uleb128 0x18
 5458 03a4 9742     		.uleb128 0x2117
 5459 03a6 19       		.uleb128 0x19
 5460 03a7 01       		.uleb128 0x1
 5461 03a8 13       		.uleb128 0x13
 5462 03a9 00       		.byte	0
 5463 03aa 00       		.byte	0
 5464 03ab 43       		.uleb128 0x43
 5465 03ac 05       		.uleb128 0x5
 5466 03ad 00       		.byte	0
 5467 03ae 03       		.uleb128 0x3
 5468 03af 0E       		.uleb128 0xe
 5469 03b0 3A       		.uleb128 0x3a
 5470 03b1 0B       		.uleb128 0xb
 5471 03b2 3B       		.uleb128 0x3b
 5472 03b3 0B       		.uleb128 0xb
 5473 03b4 49       		.uleb128 0x49
 5474 03b5 13       		.uleb128 0x13
 5475 03b6 02       		.uleb128 0x2
 5476 03b7 17       		.uleb128 0x17
 5477 03b8 00       		.byte	0
 5478 03b9 00       		.byte	0
 5479 03ba 44       		.uleb128 0x44
 5480 03bb 05       		.uleb128 0x5
 5481 03bc 00       		.byte	0
 5482 03bd 03       		.uleb128 0x3
 5483 03be 0E       		.uleb128 0xe
 5484 03bf 3A       		.uleb128 0x3a
 5485 03c0 0B       		.uleb128 0xb
 5486 03c1 3B       		.uleb128 0x3b
 5487 03c2 0B       		.uleb128 0xb
 5488 03c3 49       		.uleb128 0x49
 5489 03c4 13       		.uleb128 0x13
 5490 03c5 02       		.uleb128 0x2
 5491 03c6 18       		.uleb128 0x18
 5492 03c7 00       		.byte	0
 5493 03c8 00       		.byte	0
 5494 03c9 45       		.uleb128 0x45
 5495 03ca 34       		.uleb128 0x34
ARM GAS  /tmp/ccXw4jW7.s 			page 117


 5496 03cb 00       		.byte	0
 5497 03cc 03       		.uleb128 0x3
 5498 03cd 0E       		.uleb128 0xe
 5499 03ce 3A       		.uleb128 0x3a
 5500 03cf 0B       		.uleb128 0xb
 5501 03d0 3B       		.uleb128 0x3b
 5502 03d1 0B       		.uleb128 0xb
 5503 03d2 49       		.uleb128 0x49
 5504 03d3 13       		.uleb128 0x13
 5505 03d4 02       		.uleb128 0x2
 5506 03d5 17       		.uleb128 0x17
 5507 03d6 00       		.byte	0
 5508 03d7 00       		.byte	0
 5509 03d8 46       		.uleb128 0x46
 5510 03d9 2E       		.uleb128 0x2e
 5511 03da 01       		.byte	0x1
 5512 03db 03       		.uleb128 0x3
 5513 03dc 0E       		.uleb128 0xe
 5514 03dd 3A       		.uleb128 0x3a
 5515 03de 0B       		.uleb128 0xb
 5516 03df 3B       		.uleb128 0x3b
 5517 03e0 0B       		.uleb128 0xb
 5518 03e1 27       		.uleb128 0x27
 5519 03e2 19       		.uleb128 0x19
 5520 03e3 49       		.uleb128 0x49
 5521 03e4 13       		.uleb128 0x13
 5522 03e5 20       		.uleb128 0x20
 5523 03e6 0B       		.uleb128 0xb
 5524 03e7 01       		.uleb128 0x1
 5525 03e8 13       		.uleb128 0x13
 5526 03e9 00       		.byte	0
 5527 03ea 00       		.byte	0
 5528 03eb 47       		.uleb128 0x47
 5529 03ec 2E       		.uleb128 0x2e
 5530 03ed 01       		.byte	0x1
 5531 03ee 03       		.uleb128 0x3
 5532 03ef 0E       		.uleb128 0xe
 5533 03f0 3A       		.uleb128 0x3a
 5534 03f1 0B       		.uleb128 0xb
 5535 03f2 3B       		.uleb128 0x3b
 5536 03f3 0B       		.uleb128 0xb
 5537 03f4 27       		.uleb128 0x27
 5538 03f5 19       		.uleb128 0x19
 5539 03f6 20       		.uleb128 0x20
 5540 03f7 0B       		.uleb128 0xb
 5541 03f8 01       		.uleb128 0x1
 5542 03f9 13       		.uleb128 0x13
 5543 03fa 00       		.byte	0
 5544 03fb 00       		.byte	0
 5545 03fc 48       		.uleb128 0x48
 5546 03fd 05       		.uleb128 0x5
 5547 03fe 00       		.byte	0
 5548 03ff 03       		.uleb128 0x3
 5549 0400 08       		.uleb128 0x8
 5550 0401 3A       		.uleb128 0x3a
 5551 0402 0B       		.uleb128 0xb
 5552 0403 3B       		.uleb128 0x3b
ARM GAS  /tmp/ccXw4jW7.s 			page 118


 5553 0404 0B       		.uleb128 0xb
 5554 0405 49       		.uleb128 0x49
 5555 0406 13       		.uleb128 0x13
 5556 0407 00       		.byte	0
 5557 0408 00       		.byte	0
 5558 0409 49       		.uleb128 0x49
 5559 040a 34       		.uleb128 0x34
 5560 040b 00       		.byte	0
 5561 040c 03       		.uleb128 0x3
 5562 040d 0E       		.uleb128 0xe
 5563 040e 3A       		.uleb128 0x3a
 5564 040f 0B       		.uleb128 0xb
 5565 0410 3B       		.uleb128 0x3b
 5566 0411 0B       		.uleb128 0xb
 5567 0412 49       		.uleb128 0x49
 5568 0413 13       		.uleb128 0x13
 5569 0414 00       		.byte	0
 5570 0415 00       		.byte	0
 5571 0416 4A       		.uleb128 0x4a
 5572 0417 0B       		.uleb128 0xb
 5573 0418 01       		.byte	0x1
 5574 0419 00       		.byte	0
 5575 041a 00       		.byte	0
 5576 041b 4B       		.uleb128 0x4b
 5577 041c 2E       		.uleb128 0x2e
 5578 041d 00       		.byte	0
 5579 041e 03       		.uleb128 0x3
 5580 041f 0E       		.uleb128 0xe
 5581 0420 3A       		.uleb128 0x3a
 5582 0421 0B       		.uleb128 0xb
 5583 0422 3B       		.uleb128 0x3b
 5584 0423 0B       		.uleb128 0xb
 5585 0424 27       		.uleb128 0x27
 5586 0425 19       		.uleb128 0x19
 5587 0426 49       		.uleb128 0x49
 5588 0427 13       		.uleb128 0x13
 5589 0428 20       		.uleb128 0x20
 5590 0429 0B       		.uleb128 0xb
 5591 042a 00       		.byte	0
 5592 042b 00       		.byte	0
 5593 042c 4C       		.uleb128 0x4c
 5594 042d 2E       		.uleb128 0x2e
 5595 042e 01       		.byte	0x1
 5596 042f 03       		.uleb128 0x3
 5597 0430 0E       		.uleb128 0xe
 5598 0431 3A       		.uleb128 0x3a
 5599 0432 0B       		.uleb128 0xb
 5600 0433 3B       		.uleb128 0x3b
 5601 0434 05       		.uleb128 0x5
 5602 0435 27       		.uleb128 0x27
 5603 0436 19       		.uleb128 0x19
 5604 0437 20       		.uleb128 0x20
 5605 0438 0B       		.uleb128 0xb
 5606 0439 01       		.uleb128 0x1
 5607 043a 13       		.uleb128 0x13
 5608 043b 00       		.byte	0
 5609 043c 00       		.byte	0
ARM GAS  /tmp/ccXw4jW7.s 			page 119


 5610 043d 4D       		.uleb128 0x4d
 5611 043e 2E       		.uleb128 0x2e
 5612 043f 01       		.byte	0x1
 5613 0440 31       		.uleb128 0x31
 5614 0441 13       		.uleb128 0x13
 5615 0442 11       		.uleb128 0x11
 5616 0443 01       		.uleb128 0x1
 5617 0444 12       		.uleb128 0x12
 5618 0445 06       		.uleb128 0x6
 5619 0446 40       		.uleb128 0x40
 5620 0447 18       		.uleb128 0x18
 5621 0448 9742     		.uleb128 0x2117
 5622 044a 19       		.uleb128 0x19
 5623 044b 01       		.uleb128 0x1
 5624 044c 13       		.uleb128 0x13
 5625 044d 00       		.byte	0
 5626 044e 00       		.byte	0
 5627 044f 4E       		.uleb128 0x4e
 5628 0450 34       		.uleb128 0x34
 5629 0451 00       		.byte	0
 5630 0452 31       		.uleb128 0x31
 5631 0453 13       		.uleb128 0x13
 5632 0454 02       		.uleb128 0x2
 5633 0455 18       		.uleb128 0x18
 5634 0456 00       		.byte	0
 5635 0457 00       		.byte	0
 5636 0458 4F       		.uleb128 0x4f
 5637 0459 34       		.uleb128 0x34
 5638 045a 00       		.byte	0
 5639 045b 31       		.uleb128 0x31
 5640 045c 13       		.uleb128 0x13
 5641 045d 00       		.byte	0
 5642 045e 00       		.byte	0
 5643 045f 50       		.uleb128 0x50
 5644 0460 05       		.uleb128 0x5
 5645 0461 00       		.byte	0
 5646 0462 31       		.uleb128 0x31
 5647 0463 13       		.uleb128 0x13
 5648 0464 1C       		.uleb128 0x1c
 5649 0465 0B       		.uleb128 0xb
 5650 0466 00       		.byte	0
 5651 0467 00       		.byte	0
 5652 0468 51       		.uleb128 0x51
 5653 0469 1D       		.uleb128 0x1d
 5654 046a 01       		.byte	0x1
 5655 046b 31       		.uleb128 0x31
 5656 046c 13       		.uleb128 0x13
 5657 046d 52       		.uleb128 0x52
 5658 046e 01       		.uleb128 0x1
 5659 046f 55       		.uleb128 0x55
 5660 0470 17       		.uleb128 0x17
 5661 0471 58       		.uleb128 0x58
 5662 0472 0B       		.uleb128 0xb
 5663 0473 59       		.uleb128 0x59
 5664 0474 0B       		.uleb128 0xb
 5665 0475 01       		.uleb128 0x1
 5666 0476 13       		.uleb128 0x13
ARM GAS  /tmp/ccXw4jW7.s 			page 120


 5667 0477 00       		.byte	0
 5668 0478 00       		.byte	0
 5669 0479 52       		.uleb128 0x52
 5670 047a 1D       		.uleb128 0x1d
 5671 047b 01       		.byte	0x1
 5672 047c 31       		.uleb128 0x31
 5673 047d 13       		.uleb128 0x13
 5674 047e 11       		.uleb128 0x11
 5675 047f 01       		.uleb128 0x1
 5676 0480 12       		.uleb128 0x12
 5677 0481 06       		.uleb128 0x6
 5678 0482 58       		.uleb128 0x58
 5679 0483 0B       		.uleb128 0xb
 5680 0484 59       		.uleb128 0x59
 5681 0485 0B       		.uleb128 0xb
 5682 0486 01       		.uleb128 0x1
 5683 0487 13       		.uleb128 0x13
 5684 0488 00       		.byte	0
 5685 0489 00       		.byte	0
 5686 048a 53       		.uleb128 0x53
 5687 048b 0B       		.uleb128 0xb
 5688 048c 01       		.byte	0x1
 5689 048d 11       		.uleb128 0x11
 5690 048e 01       		.uleb128 0x1
 5691 048f 12       		.uleb128 0x12
 5692 0490 06       		.uleb128 0x6
 5693 0491 01       		.uleb128 0x1
 5694 0492 13       		.uleb128 0x13
 5695 0493 00       		.byte	0
 5696 0494 00       		.byte	0
 5697 0495 54       		.uleb128 0x54
 5698 0496 898201   		.uleb128 0x4109
 5699 0499 00       		.byte	0
 5700 049a 11       		.uleb128 0x11
 5701 049b 01       		.uleb128 0x1
 5702 049c 31       		.uleb128 0x31
 5703 049d 13       		.uleb128 0x13
 5704 049e 00       		.byte	0
 5705 049f 00       		.byte	0
 5706 04a0 55       		.uleb128 0x55
 5707 04a1 2E       		.uleb128 0x2e
 5708 04a2 01       		.byte	0x1
 5709 04a3 31       		.uleb128 0x31
 5710 04a4 13       		.uleb128 0x13
 5711 04a5 11       		.uleb128 0x11
 5712 04a6 01       		.uleb128 0x1
 5713 04a7 12       		.uleb128 0x12
 5714 04a8 06       		.uleb128 0x6
 5715 04a9 40       		.uleb128 0x40
 5716 04aa 18       		.uleb128 0x18
 5717 04ab 9742     		.uleb128 0x2117
 5718 04ad 19       		.uleb128 0x19
 5719 04ae 00       		.byte	0
 5720 04af 00       		.byte	0
 5721 04b0 00       		.byte	0
 5722              		.section	.debug_loc,"",%progbits
 5723              	.Ldebug_loc0:
ARM GAS  /tmp/ccXw4jW7.s 			page 121


 5724              	.LLST59:
 5725 0000 00000000 		.4byte	.LVL130
 5726 0004 0E000000 		.4byte	.LVL131
 5727 0008 0100     		.2byte	0x1
 5728 000a 50       		.byte	0x50
 5729 000b 0E000000 		.4byte	.LVL131
 5730 000f 3A000000 		.4byte	.LVL136
 5731 0013 0400     		.2byte	0x4
 5732 0015 F3       		.byte	0xf3
 5733 0016 01       		.uleb128 0x1
 5734 0017 50       		.byte	0x50
 5735 0018 9F       		.byte	0x9f
 5736 0019 3A000000 		.4byte	.LVL136
 5737 001d 3C000000 		.4byte	.LVL137
 5738 0021 0100     		.2byte	0x1
 5739 0023 50       		.byte	0x50
 5740 0024 3C000000 		.4byte	.LVL137
 5741 0028 60000000 		.4byte	.LFE227
 5742 002c 0400     		.2byte	0x4
 5743 002e F3       		.byte	0xf3
 5744 002f 01       		.uleb128 0x1
 5745 0030 50       		.byte	0x50
 5746 0031 9F       		.byte	0x9f
 5747 0032 00000000 		.4byte	0
 5748 0036 00000000 		.4byte	0
 5749              	.LLST60:
 5750 003a 22000000 		.4byte	.LVL132
 5751 003e 32000000 		.4byte	.LVL133
 5752 0042 0100     		.2byte	0x1
 5753 0044 50       		.byte	0x50
 5754 0045 36000000 		.4byte	.LVL135
 5755 0049 3A000000 		.4byte	.LVL136
 5756 004d 0100     		.2byte	0x1
 5757 004f 50       		.byte	0x50
 5758 0050 00000000 		.4byte	0
 5759 0054 00000000 		.4byte	0
 5760              	.LLST61:
 5761 0058 40000000 		.4byte	.LVL138
 5762 005c 48000000 		.4byte	.LVL139
 5763 0060 1000     		.2byte	0x10
 5764 0062 77       		.byte	0x77
 5765 0063 00       		.sleb128 0
 5766 0064 35       		.byte	0x35
 5767 0065 1E       		.byte	0x1e
 5768 0066 70       		.byte	0x70
 5769 0067 00       		.sleb128 0
 5770 0068 22       		.byte	0x22
 5771 0069 33       		.byte	0x33
 5772 006a 24       		.byte	0x24
 5773 006b 03       		.byte	0x3
 5774 006c 00000000 		.4byte	i2c_slave
 5775 0070 22       		.byte	0x22
 5776 0071 9F       		.byte	0x9f
 5777 0072 00000000 		.4byte	0
 5778 0076 00000000 		.4byte	0
 5779              	.LLST62:
 5780 007a 40000000 		.4byte	.LVL138
ARM GAS  /tmp/ccXw4jW7.s 			page 122


 5781 007e 48000000 		.4byte	.LVL139
 5782 0082 0100     		.2byte	0x1
 5783 0084 50       		.byte	0x50
 5784 0085 00000000 		.4byte	0
 5785 0089 00000000 		.4byte	0
 5786              	.LLST47:
 5787 008d 00000000 		.4byte	.LVL115
 5788 0091 06000000 		.4byte	.LVL117
 5789 0095 0100     		.2byte	0x1
 5790 0097 50       		.byte	0x50
 5791 0098 06000000 		.4byte	.LVL117
 5792 009c 74000000 		.4byte	.LFE226
 5793 00a0 0400     		.2byte	0x4
 5794 00a2 F3       		.byte	0xf3
 5795 00a3 01       		.uleb128 0x1
 5796 00a4 50       		.byte	0x50
 5797 00a5 9F       		.byte	0x9f
 5798 00a6 00000000 		.4byte	0
 5799 00aa 00000000 		.4byte	0
 5800              	.LLST48:
 5801 00ae 00000000 		.4byte	.LVL115
 5802 00b2 4E000000 		.4byte	.LVL125
 5803 00b6 0100     		.2byte	0x1
 5804 00b8 51       		.byte	0x51
 5805 00b9 4E000000 		.4byte	.LVL125
 5806 00bd 56000000 		.4byte	.LVL127
 5807 00c1 0400     		.2byte	0x4
 5808 00c3 F3       		.byte	0xf3
 5809 00c4 01       		.uleb128 0x1
 5810 00c5 51       		.byte	0x51
 5811 00c6 9F       		.byte	0x9f
 5812 00c7 56000000 		.4byte	.LVL127
 5813 00cb 74000000 		.4byte	.LFE226
 5814 00cf 0100     		.2byte	0x1
 5815 00d1 51       		.byte	0x51
 5816 00d2 00000000 		.4byte	0
 5817 00d6 00000000 		.4byte	0
 5818              	.LLST49:
 5819 00da 00000000 		.4byte	.LVL115
 5820 00de 22000000 		.4byte	.LVL119
 5821 00e2 0100     		.2byte	0x1
 5822 00e4 52       		.byte	0x52
 5823 00e5 22000000 		.4byte	.LVL119
 5824 00e9 4E000000 		.4byte	.LVL125
 5825 00ed 1200     		.2byte	0x12
 5826 00ef 75       		.byte	0x75
 5827 00f0 00       		.sleb128 0
 5828 00f1 32       		.byte	0x32
 5829 00f2 24       		.byte	0x24
 5830 00f3 71       		.byte	0x71
 5831 00f4 00       		.sleb128 0
 5832 00f5 22       		.byte	0x22
 5833 00f6 75       		.byte	0x75
 5834 00f7 00       		.sleb128 0
 5835 00f8 22       		.byte	0x22
 5836 00f9 33       		.byte	0x33
 5837 00fa 24       		.byte	0x24
ARM GAS  /tmp/ccXw4jW7.s 			page 123


 5838 00fb 03       		.byte	0x3
 5839 00fc 00000000 		.4byte	.LANCHOR1
 5840 0100 22       		.byte	0x22
 5841 0101 4E000000 		.4byte	.LVL125
 5842 0105 54000000 		.4byte	.LVL126
 5843 0109 1400     		.2byte	0x14
 5844 010b 75       		.byte	0x75
 5845 010c 00       		.sleb128 0
 5846 010d 32       		.byte	0x32
 5847 010e 24       		.byte	0x24
 5848 010f 71       		.byte	0x71
 5849 0110 00       		.sleb128 0
 5850 0111 22       		.byte	0x22
 5851 0112 75       		.byte	0x75
 5852 0113 00       		.sleb128 0
 5853 0114 22       		.byte	0x22
 5854 0115 38       		.byte	0x38
 5855 0116 1C       		.byte	0x1c
 5856 0117 33       		.byte	0x33
 5857 0118 24       		.byte	0x24
 5858 0119 03       		.byte	0x3
 5859 011a 00000000 		.4byte	.LANCHOR1
 5860 011e 22       		.byte	0x22
 5861 011f 54000000 		.4byte	.LVL126
 5862 0123 74000000 		.4byte	.LFE226
 5863 0127 0400     		.2byte	0x4
 5864 0129 F3       		.byte	0xf3
 5865 012a 01       		.uleb128 0x1
 5866 012b 52       		.byte	0x52
 5867 012c 9F       		.byte	0x9f
 5868 012d 00000000 		.4byte	0
 5869 0131 00000000 		.4byte	0
 5870              	.LLST50:
 5871 0135 00000000 		.4byte	.LVL115
 5872 0139 24000000 		.4byte	.LVL120
 5873 013d 0100     		.2byte	0x1
 5874 013f 53       		.byte	0x53
 5875 0140 24000000 		.4byte	.LVL120
 5876 0144 4E000000 		.4byte	.LVL125
 5877 0148 1200     		.2byte	0x12
 5878 014a 75       		.byte	0x75
 5879 014b 00       		.sleb128 0
 5880 014c 32       		.byte	0x32
 5881 014d 24       		.byte	0x24
 5882 014e 71       		.byte	0x71
 5883 014f 00       		.sleb128 0
 5884 0150 22       		.byte	0x22
 5885 0151 75       		.byte	0x75
 5886 0152 00       		.sleb128 0
 5887 0153 22       		.byte	0x22
 5888 0154 33       		.byte	0x33
 5889 0155 24       		.byte	0x24
 5890 0156 03       		.byte	0x3
 5891 0157 04000000 		.4byte	.LANCHOR1+4
 5892 015b 22       		.byte	0x22
 5893 015c 4E000000 		.4byte	.LVL125
 5894 0160 54000000 		.4byte	.LVL126
ARM GAS  /tmp/ccXw4jW7.s 			page 124


 5895 0164 1400     		.2byte	0x14
 5896 0166 75       		.byte	0x75
 5897 0167 00       		.sleb128 0
 5898 0168 32       		.byte	0x32
 5899 0169 24       		.byte	0x24
 5900 016a 71       		.byte	0x71
 5901 016b 00       		.sleb128 0
 5902 016c 22       		.byte	0x22
 5903 016d 75       		.byte	0x75
 5904 016e 00       		.sleb128 0
 5905 016f 22       		.byte	0x22
 5906 0170 38       		.byte	0x38
 5907 0171 1C       		.byte	0x1c
 5908 0172 33       		.byte	0x33
 5909 0173 24       		.byte	0x24
 5910 0174 03       		.byte	0x3
 5911 0175 04000000 		.4byte	.LANCHOR1+4
 5912 0179 22       		.byte	0x22
 5913 017a 54000000 		.4byte	.LVL126
 5914 017e 74000000 		.4byte	.LFE226
 5915 0182 0400     		.2byte	0x4
 5916 0184 F3       		.byte	0xf3
 5917 0185 01       		.uleb128 0x1
 5918 0186 53       		.byte	0x53
 5919 0187 9F       		.byte	0x9f
 5920 0188 00000000 		.4byte	0
 5921 018c 00000000 		.4byte	0
 5922              	.LLST51:
 5923 0190 00000000 		.4byte	.LVL115
 5924 0194 06000000 		.4byte	.LVL117
 5925 0198 0200     		.2byte	0x2
 5926 019a 91       		.byte	0x91
 5927 019b 00       		.sleb128 0
 5928 019c 06000000 		.4byte	.LVL117
 5929 01a0 0A000000 		.4byte	.LVL118
 5930 01a4 0200     		.2byte	0x2
 5931 01a6 70       		.byte	0x70
 5932 01a7 00       		.sleb128 0
 5933 01a8 0A000000 		.4byte	.LVL118
 5934 01ac 74000000 		.4byte	.LFE226
 5935 01b0 0200     		.2byte	0x2
 5936 01b2 91       		.byte	0x91
 5937 01b3 00       		.sleb128 0
 5938 01b4 00000000 		.4byte	0
 5939 01b8 00000000 		.4byte	0
 5940              	.LLST52:
 5941 01bc 04000000 		.4byte	.LVL116
 5942 01c0 06000000 		.4byte	.LVL117
 5943 01c4 1000     		.2byte	0x10
 5944 01c6 70       		.byte	0x70
 5945 01c7 00       		.sleb128 0
 5946 01c8 35       		.byte	0x35
 5947 01c9 1E       		.byte	0x1e
 5948 01ca 71       		.byte	0x71
 5949 01cb 00       		.sleb128 0
 5950 01cc 22       		.byte	0x22
 5951 01cd 33       		.byte	0x33
ARM GAS  /tmp/ccXw4jW7.s 			page 125


 5952 01ce 24       		.byte	0x24
 5953 01cf 03       		.byte	0x3
 5954 01d0 00000000 		.4byte	i2c_slave
 5955 01d4 22       		.byte	0x22
 5956 01d5 9F       		.byte	0x9f
 5957 01d6 06000000 		.4byte	.LVL117
 5958 01da 4E000000 		.4byte	.LVL125
 5959 01de 1000     		.2byte	0x10
 5960 01e0 75       		.byte	0x75
 5961 01e1 00       		.sleb128 0
 5962 01e2 35       		.byte	0x35
 5963 01e3 1E       		.byte	0x1e
 5964 01e4 71       		.byte	0x71
 5965 01e5 00       		.sleb128 0
 5966 01e6 22       		.byte	0x22
 5967 01e7 33       		.byte	0x33
 5968 01e8 24       		.byte	0x24
 5969 01e9 03       		.byte	0x3
 5970 01ea 00000000 		.4byte	i2c_slave
 5971 01ee 22       		.byte	0x22
 5972 01ef 9F       		.byte	0x9f
 5973 01f0 4E000000 		.4byte	.LVL125
 5974 01f4 54000000 		.4byte	.LVL126
 5975 01f8 1000     		.2byte	0x10
 5976 01fa 75       		.byte	0x75
 5977 01fb 00       		.sleb128 0
 5978 01fc 35       		.byte	0x35
 5979 01fd 1E       		.byte	0x1e
 5980 01fe 71       		.byte	0x71
 5981 01ff 78       		.sleb128 -8
 5982 0200 22       		.byte	0x22
 5983 0201 33       		.byte	0x33
 5984 0202 24       		.byte	0x24
 5985 0203 03       		.byte	0x3
 5986 0204 00000000 		.4byte	i2c_slave
 5987 0208 22       		.byte	0x22
 5988 0209 9F       		.byte	0x9f
 5989 020a 56000000 		.4byte	.LVL127
 5990 020e 74000000 		.4byte	.LFE226
 5991 0212 1000     		.2byte	0x10
 5992 0214 75       		.byte	0x75
 5993 0215 00       		.sleb128 0
 5994 0216 35       		.byte	0x35
 5995 0217 1E       		.byte	0x1e
 5996 0218 71       		.byte	0x71
 5997 0219 00       		.sleb128 0
 5998 021a 22       		.byte	0x22
 5999 021b 33       		.byte	0x33
 6000 021c 24       		.byte	0x24
 6001 021d 03       		.byte	0x3
 6002 021e 00000000 		.4byte	i2c_slave
 6003 0222 22       		.byte	0x22
 6004 0223 9F       		.byte	0x9f
 6005 0224 00000000 		.4byte	0
 6006 0228 00000000 		.4byte	0
 6007              	.LLST53:
 6008 022c 24000000 		.4byte	.LVL120
ARM GAS  /tmp/ccXw4jW7.s 			page 126


 6009 0230 3A000000 		.4byte	.LVL124
 6010 0234 0100     		.2byte	0x1
 6011 0236 56       		.byte	0x56
 6012 0237 56000000 		.4byte	.LVL127
 6013 023b 5A000000 		.4byte	.LVL128
 6014 023f 0100     		.2byte	0x1
 6015 0241 56       		.byte	0x56
 6016 0242 00000000 		.4byte	0
 6017 0246 00000000 		.4byte	0
 6018              	.LLST54:
 6019 024a 24000000 		.4byte	.LVL120
 6020 024e 3A000000 		.4byte	.LVL124
 6021 0252 0100     		.2byte	0x1
 6022 0254 54       		.byte	0x54
 6023 0255 56000000 		.4byte	.LVL127
 6024 0259 5A000000 		.4byte	.LVL128
 6025 025d 0100     		.2byte	0x1
 6026 025f 54       		.byte	0x54
 6027 0260 00000000 		.4byte	0
 6028 0264 00000000 		.4byte	0
 6029              	.LLST55:
 6030 0268 24000000 		.4byte	.LVL120
 6031 026c 3A000000 		.4byte	.LVL124
 6032 0270 0100     		.2byte	0x1
 6033 0272 51       		.byte	0x51
 6034 0273 56000000 		.4byte	.LVL127
 6035 0277 5A000000 		.4byte	.LVL128
 6036 027b 0100     		.2byte	0x1
 6037 027d 51       		.byte	0x51
 6038 027e 00000000 		.4byte	0
 6039 0282 00000000 		.4byte	0
 6040              	.LLST56:
 6041 0286 24000000 		.4byte	.LVL120
 6042 028a 32000000 		.4byte	.LVL122
 6043 028e 0100     		.2byte	0x1
 6044 0290 53       		.byte	0x53
 6045 0291 32000000 		.4byte	.LVL122
 6046 0295 3A000000 		.4byte	.LVL124
 6047 0299 0500     		.2byte	0x5
 6048 029b 03       		.byte	0x3
 6049 029c 00000000 		.4byte	i2c
 6050 02a0 56000000 		.4byte	.LVL127
 6051 02a4 5A000000 		.4byte	.LVL128
 6052 02a8 0100     		.2byte	0x1
 6053 02aa 53       		.byte	0x53
 6054 02ab 00000000 		.4byte	0
 6055 02af 00000000 		.4byte	0
 6056              	.LLST57:
 6057 02b3 24000000 		.4byte	.LVL120
 6058 02b7 3A000000 		.4byte	.LVL124
 6059 02bb 0300     		.2byte	0x3
 6060 02bd 71       		.byte	0x71
 6061 02be 7F       		.sleb128 -1
 6062 02bf 9F       		.byte	0x9f
 6063 02c0 56000000 		.4byte	.LVL127
 6064 02c4 5A000000 		.4byte	.LVL128
 6065 02c8 0300     		.2byte	0x3
ARM GAS  /tmp/ccXw4jW7.s 			page 127


 6066 02ca 71       		.byte	0x71
 6067 02cb 7F       		.sleb128 -1
 6068 02cc 9F       		.byte	0x9f
 6069 02cd 00000000 		.4byte	0
 6070 02d1 00000000 		.4byte	0
 6071              	.LLST58:
 6072 02d5 2E000000 		.4byte	.LVL121
 6073 02d9 32000000 		.4byte	.LVL122
 6074 02dd 0300     		.2byte	0x3
 6075 02df 73       		.byte	0x73
 6076 02e0 20       		.sleb128 32
 6077 02e1 9F       		.byte	0x9f
 6078 02e2 32000000 		.4byte	.LVL122
 6079 02e6 38000000 		.4byte	.LVL123
 6080 02ea 0100     		.2byte	0x1
 6081 02ec 53       		.byte	0x53
 6082 02ed 38000000 		.4byte	.LVL123
 6083 02f1 3A000000 		.4byte	.LVL124
 6084 02f5 0900     		.2byte	0x9
 6085 02f7 03       		.byte	0x3
 6086 02f8 00000000 		.4byte	i2c
 6087 02fc 06       		.byte	0x6
 6088 02fd 23       		.byte	0x23
 6089 02fe 20       		.uleb128 0x20
 6090 02ff 9F       		.byte	0x9f
 6091 0300 00000000 		.4byte	0
 6092 0304 00000000 		.4byte	0
 6093              	.LLST39:
 6094 0308 00000000 		.4byte	.LVL99
 6095 030c 10000000 		.4byte	.LVL102
 6096 0310 0100     		.2byte	0x1
 6097 0312 50       		.byte	0x50
 6098 0313 10000000 		.4byte	.LVL102
 6099 0317 1C000000 		.4byte	.LFE224
 6100 031b 0400     		.2byte	0x4
 6101 031d F3       		.byte	0xf3
 6102 031e 01       		.uleb128 0x1
 6103 031f 50       		.byte	0x50
 6104 0320 9F       		.byte	0x9f
 6105 0321 00000000 		.4byte	0
 6106 0325 00000000 		.4byte	0
 6107              	.LLST40:
 6108 0329 06000000 		.4byte	.LVL100
 6109 032d 08000000 		.4byte	.LVL101
 6110 0331 0100     		.2byte	0x1
 6111 0333 53       		.byte	0x53
 6112 0334 00000000 		.4byte	0
 6113 0338 00000000 		.4byte	0
 6114              	.LLST35:
 6115 033c 00000000 		.4byte	.LVL94
 6116 0340 14000000 		.4byte	.LVL96
 6117 0344 0100     		.2byte	0x1
 6118 0346 50       		.byte	0x50
 6119 0347 14000000 		.4byte	.LVL96
 6120 034b 28000000 		.4byte	.LFE223
 6121 034f 0400     		.2byte	0x4
 6122 0351 F3       		.byte	0xf3
ARM GAS  /tmp/ccXw4jW7.s 			page 128


 6123 0352 01       		.uleb128 0x1
 6124 0353 50       		.byte	0x50
 6125 0354 9F       		.byte	0x9f
 6126 0355 00000000 		.4byte	0
 6127 0359 00000000 		.4byte	0
 6128              	.LLST36:
 6129 035d 00000000 		.4byte	.LVL94
 6130 0361 14000000 		.4byte	.LVL96
 6131 0365 0100     		.2byte	0x1
 6132 0367 51       		.byte	0x51
 6133 0368 14000000 		.4byte	.LVL96
 6134 036c 28000000 		.4byte	.LFE223
 6135 0370 0400     		.2byte	0x4
 6136 0372 F3       		.byte	0xf3
 6137 0373 01       		.uleb128 0x1
 6138 0374 51       		.byte	0x51
 6139 0375 9F       		.byte	0x9f
 6140 0376 00000000 		.4byte	0
 6141 037a 00000000 		.4byte	0
 6142              	.LLST37:
 6143 037e 00000000 		.4byte	.LVL94
 6144 0382 14000000 		.4byte	.LVL96
 6145 0386 0100     		.2byte	0x1
 6146 0388 52       		.byte	0x52
 6147 0389 14000000 		.4byte	.LVL96
 6148 038d 28000000 		.4byte	.LFE223
 6149 0391 0400     		.2byte	0x4
 6150 0393 F3       		.byte	0xf3
 6151 0394 01       		.uleb128 0x1
 6152 0395 52       		.byte	0x52
 6153 0396 9F       		.byte	0x9f
 6154 0397 00000000 		.4byte	0
 6155 039b 00000000 		.4byte	0
 6156              	.LLST38:
 6157 039f 00000000 		.4byte	.LVL94
 6158 03a3 08000000 		.4byte	.LVL95
 6159 03a7 0100     		.2byte	0x1
 6160 03a9 53       		.byte	0x53
 6161 03aa 08000000 		.4byte	.LVL95
 6162 03ae 26000000 		.4byte	.LVL98
 6163 03b2 0100     		.2byte	0x1
 6164 03b4 55       		.byte	0x55
 6165 03b5 26000000 		.4byte	.LVL98
 6166 03b9 28000000 		.4byte	.LFE223
 6167 03bd 0400     		.2byte	0x4
 6168 03bf F3       		.byte	0xf3
 6169 03c0 01       		.uleb128 0x1
 6170 03c1 53       		.byte	0x53
 6171 03c2 9F       		.byte	0x9f
 6172 03c3 00000000 		.4byte	0
 6173 03c7 00000000 		.4byte	0
 6174              	.LLST31:
 6175 03cb 00000000 		.4byte	.LVL88
 6176 03cf 08000000 		.4byte	.LVL89
 6177 03d3 0100     		.2byte	0x1
 6178 03d5 50       		.byte	0x50
 6179 03d6 08000000 		.4byte	.LVL89
ARM GAS  /tmp/ccXw4jW7.s 			page 129


 6180 03da 30000000 		.4byte	.LFE222
 6181 03de 0400     		.2byte	0x4
 6182 03e0 F3       		.byte	0xf3
 6183 03e1 01       		.uleb128 0x1
 6184 03e2 50       		.byte	0x50
 6185 03e3 9F       		.byte	0x9f
 6186 03e4 00000000 		.4byte	0
 6187 03e8 00000000 		.4byte	0
 6188              	.LLST32:
 6189 03ec 00000000 		.4byte	.LVL88
 6190 03f0 1C000000 		.4byte	.LVL92
 6191 03f4 0100     		.2byte	0x1
 6192 03f6 51       		.byte	0x51
 6193 03f7 1C000000 		.4byte	.LVL92
 6194 03fb 30000000 		.4byte	.LFE222
 6195 03ff 0400     		.2byte	0x4
 6196 0401 F3       		.byte	0xf3
 6197 0402 01       		.uleb128 0x1
 6198 0403 51       		.byte	0x51
 6199 0404 9F       		.byte	0x9f
 6200 0405 00000000 		.4byte	0
 6201 0409 00000000 		.4byte	0
 6202              	.LLST33:
 6203 040d 00000000 		.4byte	.LVL88
 6204 0411 0C000000 		.4byte	.LVL90
 6205 0415 0100     		.2byte	0x1
 6206 0417 52       		.byte	0x52
 6207 0418 0C000000 		.4byte	.LVL90
 6208 041c 12000000 		.4byte	.LVL91
 6209 0420 0200     		.2byte	0x2
 6210 0422 70       		.byte	0x70
 6211 0423 07       		.sleb128 7
 6212 0424 12000000 		.4byte	.LVL91
 6213 0428 1C000000 		.4byte	.LVL92
 6214 042c 0200     		.2byte	0x2
 6215 042e 70       		.byte	0x70
 6216 042f 00       		.sleb128 0
 6217 0430 00000000 		.4byte	0
 6218 0434 00000000 		.4byte	0
 6219              	.LLST34:
 6220 0438 00000000 		.4byte	.LVL88
 6221 043c 1C000000 		.4byte	.LVL92
 6222 0440 0100     		.2byte	0x1
 6223 0442 53       		.byte	0x53
 6224 0443 1C000000 		.4byte	.LVL92
 6225 0447 30000000 		.4byte	.LFE222
 6226 044b 0400     		.2byte	0x4
 6227 044d F3       		.byte	0xf3
 6228 044e 01       		.uleb128 0x1
 6229 044f 53       		.byte	0x53
 6230 0450 9F       		.byte	0x9f
 6231 0451 00000000 		.4byte	0
 6232 0455 00000000 		.4byte	0
 6233              	.LLST27:
 6234 0459 00000000 		.4byte	.LVL84
 6235 045d 14000000 		.4byte	.LVL86
 6236 0461 0100     		.2byte	0x1
ARM GAS  /tmp/ccXw4jW7.s 			page 130


 6237 0463 50       		.byte	0x50
 6238 0464 14000000 		.4byte	.LVL86
 6239 0468 28000000 		.4byte	.LFE221
 6240 046c 0400     		.2byte	0x4
 6241 046e F3       		.byte	0xf3
 6242 046f 01       		.uleb128 0x1
 6243 0470 50       		.byte	0x50
 6244 0471 9F       		.byte	0x9f
 6245 0472 00000000 		.4byte	0
 6246 0476 00000000 		.4byte	0
 6247              	.LLST28:
 6248 047a 00000000 		.4byte	.LVL84
 6249 047e 14000000 		.4byte	.LVL86
 6250 0482 0100     		.2byte	0x1
 6251 0484 51       		.byte	0x51
 6252 0485 14000000 		.4byte	.LVL86
 6253 0489 28000000 		.4byte	.LFE221
 6254 048d 0400     		.2byte	0x4
 6255 048f F3       		.byte	0xf3
 6256 0490 01       		.uleb128 0x1
 6257 0491 51       		.byte	0x51
 6258 0492 9F       		.byte	0x9f
 6259 0493 00000000 		.4byte	0
 6260 0497 00000000 		.4byte	0
 6261              	.LLST29:
 6262 049b 00000000 		.4byte	.LVL84
 6263 049f 14000000 		.4byte	.LVL86
 6264 04a3 0100     		.2byte	0x1
 6265 04a5 52       		.byte	0x52
 6266 04a6 14000000 		.4byte	.LVL86
 6267 04aa 28000000 		.4byte	.LFE221
 6268 04ae 0400     		.2byte	0x4
 6269 04b0 F3       		.byte	0xf3
 6270 04b1 01       		.uleb128 0x1
 6271 04b2 52       		.byte	0x52
 6272 04b3 9F       		.byte	0x9f
 6273 04b4 00000000 		.4byte	0
 6274 04b8 00000000 		.4byte	0
 6275              	.LLST30:
 6276 04bc 00000000 		.4byte	.LVL84
 6277 04c0 08000000 		.4byte	.LVL85
 6278 04c4 0100     		.2byte	0x1
 6279 04c6 53       		.byte	0x53
 6280 04c7 08000000 		.4byte	.LVL85
 6281 04cb 28000000 		.4byte	.LFE221
 6282 04cf 0400     		.2byte	0x4
 6283 04d1 F3       		.byte	0xf3
 6284 04d2 01       		.uleb128 0x1
 6285 04d3 53       		.byte	0x53
 6286 04d4 9F       		.byte	0x9f
 6287 04d5 00000000 		.4byte	0
 6288 04d9 00000000 		.4byte	0
 6289              	.LLST23:
 6290 04dd 00000000 		.4byte	.LVL72
 6291 04e1 0D000000 		.4byte	.LVL74-1
 6292 04e5 0100     		.2byte	0x1
 6293 04e7 50       		.byte	0x50
ARM GAS  /tmp/ccXw4jW7.s 			page 131


 6294 04e8 0D000000 		.4byte	.LVL74-1
 6295 04ec 60000000 		.4byte	.LFE220
 6296 04f0 0400     		.2byte	0x4
 6297 04f2 F3       		.byte	0xf3
 6298 04f3 01       		.uleb128 0x1
 6299 04f4 50       		.byte	0x50
 6300 04f5 9F       		.byte	0x9f
 6301 04f6 00000000 		.4byte	0
 6302 04fa 00000000 		.4byte	0
 6303              	.LLST24:
 6304 04fe 00000000 		.4byte	.LVL72
 6305 0502 0A000000 		.4byte	.LVL73
 6306 0506 0100     		.2byte	0x1
 6307 0508 51       		.byte	0x51
 6308 0509 0A000000 		.4byte	.LVL73
 6309 050d 4C000000 		.4byte	.LVL81
 6310 0511 0100     		.2byte	0x1
 6311 0513 55       		.byte	0x55
 6312 0514 4C000000 		.4byte	.LVL81
 6313 0518 4E000000 		.4byte	.LVL82
 6314 051c 0400     		.2byte	0x4
 6315 051e F3       		.byte	0xf3
 6316 051f 01       		.uleb128 0x1
 6317 0520 51       		.byte	0x51
 6318 0521 9F       		.byte	0x9f
 6319 0522 4E000000 		.4byte	.LVL82
 6320 0526 60000000 		.4byte	.LFE220
 6321 052a 0100     		.2byte	0x1
 6322 052c 55       		.byte	0x55
 6323 052d 00000000 		.4byte	0
 6324 0531 00000000 		.4byte	0
 6325              	.LLST25:
 6326 0535 2A000000 		.4byte	.LVL76
 6327 0539 2C000000 		.4byte	.LVL77
 6328 053d 0500     		.2byte	0x5
 6329 053f 03       		.byte	0x3
 6330 0540 00000000 		.4byte	i2c
 6331 0544 00000000 		.4byte	0
 6332 0548 00000000 		.4byte	0
 6333              	.LLST26:
 6334 054c 3A000000 		.4byte	.LVL78
 6335 0550 42000000 		.4byte	.LVL79
 6336 0554 0500     		.2byte	0x5
 6337 0556 03       		.byte	0x3
 6338 0557 00000000 		.4byte	i2c
 6339 055b 00000000 		.4byte	0
 6340 055f 00000000 		.4byte	0
 6341              	.LLST22:
 6342 0563 00000000 		.4byte	.LVL70
 6343 0567 04000000 		.4byte	.LVL71
 6344 056b 0100     		.2byte	0x1
 6345 056d 50       		.byte	0x50
 6346 056e 04000000 		.4byte	.LVL71
 6347 0572 0C000000 		.4byte	.LFE219
 6348 0576 0400     		.2byte	0x4
 6349 0578 F3       		.byte	0xf3
 6350 0579 01       		.uleb128 0x1
ARM GAS  /tmp/ccXw4jW7.s 			page 132


 6351 057a 50       		.byte	0x50
 6352 057b 9F       		.byte	0x9f
 6353 057c 00000000 		.4byte	0
 6354 0580 00000000 		.4byte	0
 6355              	.LLST20:
 6356 0584 00000000 		.4byte	.LVL66
 6357 0588 0A000000 		.4byte	.LVL67
 6358 058c 0100     		.2byte	0x1
 6359 058e 50       		.byte	0x50
 6360 058f 0A000000 		.4byte	.LVL67
 6361 0593 14000000 		.4byte	.LVL69
 6362 0597 0400     		.2byte	0x4
 6363 0599 F3       		.byte	0xf3
 6364 059a 01       		.uleb128 0x1
 6365 059b 50       		.byte	0x50
 6366 059c 9F       		.byte	0x9f
 6367 059d 14000000 		.4byte	.LVL69
 6368 05a1 20000000 		.4byte	.LFE218
 6369 05a5 0100     		.2byte	0x1
 6370 05a7 50       		.byte	0x50
 6371 05a8 00000000 		.4byte	0
 6372 05ac 00000000 		.4byte	0
 6373              	.LLST21:
 6374 05b0 00000000 		.4byte	.LVL66
 6375 05b4 10000000 		.4byte	.LVL68
 6376 05b8 0100     		.2byte	0x1
 6377 05ba 51       		.byte	0x51
 6378 05bb 10000000 		.4byte	.LVL68
 6379 05bf 14000000 		.4byte	.LVL69
 6380 05c3 0400     		.2byte	0x4
 6381 05c5 F3       		.byte	0xf3
 6382 05c6 01       		.uleb128 0x1
 6383 05c7 51       		.byte	0x51
 6384 05c8 9F       		.byte	0x9f
 6385 05c9 14000000 		.4byte	.LVL69
 6386 05cd 20000000 		.4byte	.LFE218
 6387 05d1 0100     		.2byte	0x1
 6388 05d3 51       		.byte	0x51
 6389 05d4 00000000 		.4byte	0
 6390 05d8 00000000 		.4byte	0
 6391              	.LLST19:
 6392 05dc 00000000 		.4byte	.LVL63
 6393 05e0 10000000 		.4byte	.LVL64
 6394 05e4 0100     		.2byte	0x1
 6395 05e6 50       		.byte	0x50
 6396 05e7 10000000 		.4byte	.LVL64
 6397 05eb 20000000 		.4byte	.LFE217
 6398 05ef 0400     		.2byte	0x4
 6399 05f1 F3       		.byte	0xf3
 6400 05f2 01       		.uleb128 0x1
 6401 05f3 50       		.byte	0x50
 6402 05f4 9F       		.byte	0x9f
 6403 05f5 00000000 		.4byte	0
 6404 05f9 00000000 		.4byte	0
 6405              	.LLST16:
 6406 05fd 00000000 		.4byte	.LVL59
 6407 0601 06000000 		.4byte	.LVL60
ARM GAS  /tmp/ccXw4jW7.s 			page 133


 6408 0605 0100     		.2byte	0x1
 6409 0607 50       		.byte	0x50
 6410 0608 06000000 		.4byte	.LVL60
 6411 060c 24000000 		.4byte	.LFE216
 6412 0610 0400     		.2byte	0x4
 6413 0612 F3       		.byte	0xf3
 6414 0613 01       		.uleb128 0x1
 6415 0614 50       		.byte	0x50
 6416 0615 9F       		.byte	0x9f
 6417 0616 00000000 		.4byte	0
 6418 061a 00000000 		.4byte	0
 6419              	.LLST17:
 6420 061e 00000000 		.4byte	.LVL59
 6421 0622 09000000 		.4byte	.LVL61-1
 6422 0626 0100     		.2byte	0x1
 6423 0628 51       		.byte	0x51
 6424 0629 09000000 		.4byte	.LVL61-1
 6425 062d 24000000 		.4byte	.LFE216
 6426 0631 0400     		.2byte	0x4
 6427 0633 F3       		.byte	0xf3
 6428 0634 01       		.uleb128 0x1
 6429 0635 51       		.byte	0x51
 6430 0636 9F       		.byte	0x9f
 6431 0637 00000000 		.4byte	0
 6432 063b 00000000 		.4byte	0
 6433              	.LLST18:
 6434 063f 0A000000 		.4byte	.LVL61
 6435 0643 16000000 		.4byte	.LVL62
 6436 0647 0100     		.2byte	0x1
 6437 0649 50       		.byte	0x50
 6438 064a 00000000 		.4byte	0
 6439 064e 00000000 		.4byte	0
 6440              	.LLST14:
 6441 0652 00000000 		.4byte	.LVL55
 6442 0656 08000000 		.4byte	.LVL56
 6443 065a 0100     		.2byte	0x1
 6444 065c 50       		.byte	0x50
 6445 065d 08000000 		.4byte	.LVL56
 6446 0661 24000000 		.4byte	.LFE215
 6447 0665 0400     		.2byte	0x4
 6448 0667 F3       		.byte	0xf3
 6449 0668 01       		.uleb128 0x1
 6450 0669 50       		.byte	0x50
 6451 066a 9F       		.byte	0x9f
 6452 066b 00000000 		.4byte	0
 6453 066f 00000000 		.4byte	0
 6454              	.LLST15:
 6455 0673 0C000000 		.4byte	.LVL57
 6456 0677 1A000000 		.4byte	.LVL58
 6457 067b 0500     		.2byte	0x5
 6458 067d 03       		.byte	0x3
 6459 067e 04000000 		.4byte	i2c+4
 6460 0682 00000000 		.4byte	0
 6461 0686 00000000 		.4byte	0
 6462              	.LLST12:
 6463 068a 00000000 		.4byte	.LVL51
 6464 068e 14000000 		.4byte	.LVL52
ARM GAS  /tmp/ccXw4jW7.s 			page 134


 6465 0692 0100     		.2byte	0x1
 6466 0694 50       		.byte	0x50
 6467 0695 14000000 		.4byte	.LVL52
 6468 0699 3C000000 		.4byte	.LFE214
 6469 069d 0400     		.2byte	0x4
 6470 069f F3       		.byte	0xf3
 6471 06a0 01       		.uleb128 0x1
 6472 06a1 50       		.byte	0x50
 6473 06a2 9F       		.byte	0x9f
 6474 06a3 00000000 		.4byte	0
 6475 06a7 00000000 		.4byte	0
 6476              	.LLST13:
 6477 06ab 1C000000 		.4byte	.LVL53
 6478 06af 28000000 		.4byte	.LVL54
 6479 06b3 0200     		.2byte	0x2
 6480 06b5 35       		.byte	0x35
 6481 06b6 9F       		.byte	0x9f
 6482 06b7 00000000 		.4byte	0
 6483 06bb 00000000 		.4byte	0
 6484              	.LLST44:
 6485 06bf 00000000 		.4byte	.LVL108
 6486 06c3 08000000 		.4byte	.LVL109
 6487 06c7 0100     		.2byte	0x1
 6488 06c9 50       		.byte	0x50
 6489 06ca 08000000 		.4byte	.LVL109
 6490 06ce 0A000000 		.4byte	.LVL110
 6491 06d2 0400     		.2byte	0x4
 6492 06d4 F3       		.byte	0xf3
 6493 06d5 01       		.uleb128 0x1
 6494 06d6 50       		.byte	0x50
 6495 06d7 9F       		.byte	0x9f
 6496 06d8 0A000000 		.4byte	.LVL110
 6497 06dc 10000000 		.4byte	.LVL111
 6498 06e0 0100     		.2byte	0x1
 6499 06e2 50       		.byte	0x50
 6500 06e3 10000000 		.4byte	.LVL111
 6501 06e7 2C000000 		.4byte	.LFE213
 6502 06eb 0400     		.2byte	0x4
 6503 06ed F3       		.byte	0xf3
 6504 06ee 01       		.uleb128 0x1
 6505 06ef 50       		.byte	0x50
 6506 06f0 9F       		.byte	0x9f
 6507 06f1 00000000 		.4byte	0
 6508 06f5 00000000 		.4byte	0
 6509              	.LLST45:
 6510 06f9 00000000 		.4byte	.LVL108
 6511 06fd 08000000 		.4byte	.LVL109
 6512 0701 0100     		.2byte	0x1
 6513 0703 51       		.byte	0x51
 6514 0704 08000000 		.4byte	.LVL109
 6515 0708 0A000000 		.4byte	.LVL110
 6516 070c 0400     		.2byte	0x4
 6517 070e F3       		.byte	0xf3
 6518 070f 01       		.uleb128 0x1
 6519 0710 51       		.byte	0x51
 6520 0711 9F       		.byte	0x9f
 6521 0712 0A000000 		.4byte	.LVL110
ARM GAS  /tmp/ccXw4jW7.s 			page 135


 6522 0716 10000000 		.4byte	.LVL111
 6523 071a 0100     		.2byte	0x1
 6524 071c 51       		.byte	0x51
 6525 071d 10000000 		.4byte	.LVL111
 6526 0721 2C000000 		.4byte	.LFE213
 6527 0725 0400     		.2byte	0x4
 6528 0727 F3       		.byte	0xf3
 6529 0728 01       		.uleb128 0x1
 6530 0729 51       		.byte	0x51
 6531 072a 9F       		.byte	0x9f
 6532 072b 00000000 		.4byte	0
 6533 072f 00000000 		.4byte	0
 6534              	.LLST46:
 6535 0733 18000000 		.4byte	.LVL112
 6536 0737 1A000000 		.4byte	.LVL113
 6537 073b 0100     		.2byte	0x1
 6538 073d 57       		.byte	0x57
 6539 073e 00000000 		.4byte	0
 6540 0742 00000000 		.4byte	0
 6541              	.LLST8:
 6542 0746 00000000 		.4byte	.LVL32
 6543 074a 06000000 		.4byte	.LVL33
 6544 074e 0100     		.2byte	0x1
 6545 0750 50       		.byte	0x50
 6546 0751 06000000 		.4byte	.LVL33
 6547 0755 AC000000 		.4byte	.LFE211
 6548 0759 0100     		.2byte	0x1
 6549 075b 52       		.byte	0x52
 6550 075c 00000000 		.4byte	0
 6551 0760 00000000 		.4byte	0
 6552              	.LLST9:
 6553 0764 00000000 		.4byte	.LVL32
 6554 0768 38000000 		.4byte	.LVL34
 6555 076c 0100     		.2byte	0x1
 6556 076e 51       		.byte	0x51
 6557 076f 38000000 		.4byte	.LVL34
 6558 0773 42000000 		.4byte	.LVL36
 6559 0777 0400     		.2byte	0x4
 6560 0779 F3       		.byte	0xf3
 6561 077a 01       		.uleb128 0x1
 6562 077b 51       		.byte	0x51
 6563 077c 9F       		.byte	0x9f
 6564 077d 42000000 		.4byte	.LVL36
 6565 0781 52000000 		.4byte	.LVL37
 6566 0785 0100     		.2byte	0x1
 6567 0787 51       		.byte	0x51
 6568 0788 52000000 		.4byte	.LVL37
 6569 078c 58000000 		.4byte	.LVL38
 6570 0790 0400     		.2byte	0x4
 6571 0792 F3       		.byte	0xf3
 6572 0793 01       		.uleb128 0x1
 6573 0794 51       		.byte	0x51
 6574 0795 9F       		.byte	0x9f
 6575 0796 58000000 		.4byte	.LVL38
 6576 079a 6E000000 		.4byte	.LVL40
 6577 079e 0100     		.2byte	0x1
 6578 07a0 51       		.byte	0x51
ARM GAS  /tmp/ccXw4jW7.s 			page 136


 6579 07a1 6E000000 		.4byte	.LVL40
 6580 07a5 74000000 		.4byte	.LVL41
 6581 07a9 0400     		.2byte	0x4
 6582 07ab F3       		.byte	0xf3
 6583 07ac 01       		.uleb128 0x1
 6584 07ad 51       		.byte	0x51
 6585 07ae 9F       		.byte	0x9f
 6586 07af 74000000 		.4byte	.LVL41
 6587 07b3 80000000 		.4byte	.LVL42
 6588 07b7 0100     		.2byte	0x1
 6589 07b9 51       		.byte	0x51
 6590 07ba 80000000 		.4byte	.LVL42
 6591 07be 86000000 		.4byte	.LVL43
 6592 07c2 0400     		.2byte	0x4
 6593 07c4 F3       		.byte	0xf3
 6594 07c5 01       		.uleb128 0x1
 6595 07c6 51       		.byte	0x51
 6596 07c7 9F       		.byte	0x9f
 6597 07c8 86000000 		.4byte	.LVL43
 6598 07cc 88000000 		.4byte	.LVL44
 6599 07d0 0100     		.2byte	0x1
 6600 07d2 51       		.byte	0x51
 6601 07d3 88000000 		.4byte	.LVL44
 6602 07d7 8E000000 		.4byte	.LVL45
 6603 07db 0400     		.2byte	0x4
 6604 07dd F3       		.byte	0xf3
 6605 07de 01       		.uleb128 0x1
 6606 07df 51       		.byte	0x51
 6607 07e0 9F       		.byte	0x9f
 6608 07e1 8E000000 		.4byte	.LVL45
 6609 07e5 90000000 		.4byte	.LVL46
 6610 07e9 0100     		.2byte	0x1
 6611 07eb 51       		.byte	0x51
 6612 07ec 90000000 		.4byte	.LVL46
 6613 07f0 96000000 		.4byte	.LVL47
 6614 07f4 0400     		.2byte	0x4
 6615 07f6 F3       		.byte	0xf3
 6616 07f7 01       		.uleb128 0x1
 6617 07f8 51       		.byte	0x51
 6618 07f9 9F       		.byte	0x9f
 6619 07fa 96000000 		.4byte	.LVL47
 6620 07fe 98000000 		.4byte	.LVL48
 6621 0802 0100     		.2byte	0x1
 6622 0804 51       		.byte	0x51
 6623 0805 98000000 		.4byte	.LVL48
 6624 0809 9E000000 		.4byte	.LVL49
 6625 080d 0400     		.2byte	0x4
 6626 080f F3       		.byte	0xf3
 6627 0810 01       		.uleb128 0x1
 6628 0811 51       		.byte	0x51
 6629 0812 9F       		.byte	0x9f
 6630 0813 9E000000 		.4byte	.LVL49
 6631 0817 A0000000 		.4byte	.LVL50
 6632 081b 0100     		.2byte	0x1
 6633 081d 51       		.byte	0x51
 6634 081e A0000000 		.4byte	.LVL50
 6635 0822 AC000000 		.4byte	.LFE211
ARM GAS  /tmp/ccXw4jW7.s 			page 137


 6636 0826 0400     		.2byte	0x4
 6637 0828 F3       		.byte	0xf3
 6638 0829 01       		.uleb128 0x1
 6639 082a 51       		.byte	0x51
 6640 082b 9F       		.byte	0x9f
 6641 082c 00000000 		.4byte	0
 6642 0830 00000000 		.4byte	0
 6643              	.LLST10:
 6644 0834 00000000 		.4byte	.LVL32
 6645 0838 3C000000 		.4byte	.LVL35
 6646 083c 0300     		.2byte	0x3
 6647 083e 08       		.byte	0x8
 6648 083f 3C       		.byte	0x3c
 6649 0840 9F       		.byte	0x9f
 6650 0841 3C000000 		.4byte	.LVL35
 6651 0845 42000000 		.4byte	.LVL36
 6652 0849 0100     		.2byte	0x1
 6653 084b 53       		.byte	0x53
 6654 084c 42000000 		.4byte	.LVL36
 6655 0850 74000000 		.4byte	.LVL41
 6656 0854 0300     		.2byte	0x3
 6657 0856 08       		.byte	0x8
 6658 0857 3C       		.byte	0x3c
 6659 0858 9F       		.byte	0x9f
 6660 0859 74000000 		.4byte	.LVL41
 6661 085d 86000000 		.4byte	.LVL43
 6662 0861 0300     		.2byte	0x3
 6663 0863 08       		.byte	0x8
 6664 0864 38       		.byte	0x38
 6665 0865 9F       		.byte	0x9f
 6666 0866 86000000 		.4byte	.LVL43
 6667 086a 96000000 		.4byte	.LVL47
 6668 086e 0300     		.2byte	0x3
 6669 0870 08       		.byte	0x8
 6670 0871 3C       		.byte	0x3c
 6671 0872 9F       		.byte	0x9f
 6672 0873 96000000 		.4byte	.LVL47
 6673 0877 9E000000 		.4byte	.LVL49
 6674 087b 0300     		.2byte	0x3
 6675 087d 08       		.byte	0x8
 6676 087e 38       		.byte	0x38
 6677 087f 9F       		.byte	0x9f
 6678 0880 9E000000 		.4byte	.LVL49
 6679 0884 AC000000 		.4byte	.LFE211
 6680 0888 0300     		.2byte	0x3
 6681 088a 08       		.byte	0x8
 6682 088b 3C       		.byte	0x3c
 6683 088c 9F       		.byte	0x9f
 6684 088d 00000000 		.4byte	0
 6685 0891 00000000 		.4byte	0
 6686              	.LLST11:
 6687 0895 00000000 		.4byte	.LVL32
 6688 0899 3C000000 		.4byte	.LVL35
 6689 089d 0200     		.2byte	0x2
 6690 089f 30       		.byte	0x30
 6691 08a0 9F       		.byte	0x9f
 6692 08a1 3C000000 		.4byte	.LVL35
ARM GAS  /tmp/ccXw4jW7.s 			page 138


 6693 08a5 42000000 		.4byte	.LVL36
 6694 08a9 0100     		.2byte	0x1
 6695 08ab 50       		.byte	0x50
 6696 08ac 42000000 		.4byte	.LVL36
 6697 08b0 68000000 		.4byte	.LVL39
 6698 08b4 0200     		.2byte	0x2
 6699 08b6 30       		.byte	0x30
 6700 08b7 9F       		.byte	0x9f
 6701 08b8 68000000 		.4byte	.LVL39
 6702 08bc 74000000 		.4byte	.LVL41
 6703 08c0 0200     		.2byte	0x2
 6704 08c2 35       		.byte	0x35
 6705 08c3 9F       		.byte	0x9f
 6706 08c4 74000000 		.4byte	.LVL41
 6707 08c8 86000000 		.4byte	.LVL43
 6708 08cc 0200     		.2byte	0x2
 6709 08ce 32       		.byte	0x32
 6710 08cf 9F       		.byte	0x9f
 6711 08d0 86000000 		.4byte	.LVL43
 6712 08d4 96000000 		.4byte	.LVL47
 6713 08d8 0200     		.2byte	0x2
 6714 08da 30       		.byte	0x30
 6715 08db 9F       		.byte	0x9f
 6716 08dc 96000000 		.4byte	.LVL47
 6717 08e0 9E000000 		.4byte	.LVL49
 6718 08e4 0200     		.2byte	0x2
 6719 08e6 32       		.byte	0x32
 6720 08e7 9F       		.byte	0x9f
 6721 08e8 9E000000 		.4byte	.LVL49
 6722 08ec AC000000 		.4byte	.LFE211
 6723 08f0 0200     		.2byte	0x2
 6724 08f2 35       		.byte	0x35
 6725 08f3 9F       		.byte	0x9f
 6726 08f4 00000000 		.4byte	0
 6727 08f8 00000000 		.4byte	0
 6728              	.LLST0:
 6729 08fc 00000000 		.4byte	.LVL3
 6730 0900 06000000 		.4byte	.LVL4
 6731 0904 0100     		.2byte	0x1
 6732 0906 50       		.byte	0x50
 6733 0907 06000000 		.4byte	.LVL4
 6734 090b 08010000 		.4byte	.LFE209
 6735 090f 0100     		.2byte	0x1
 6736 0911 52       		.byte	0x52
 6737 0912 00000000 		.4byte	0
 6738 0916 00000000 		.4byte	0
 6739              	.LLST1:
 6740 091a 00000000 		.4byte	.LVL3
 6741 091e 18000000 		.4byte	.LVL5
 6742 0922 0300     		.2byte	0x3
 6743 0924 08       		.byte	0x8
 6744 0925 3C       		.byte	0x3c
 6745 0926 9F       		.byte	0x9f
 6746 0927 3A000000 		.4byte	.LVL6
 6747 092b 42000000 		.4byte	.LVL7
 6748 092f 0100     		.2byte	0x1
 6749 0931 55       		.byte	0x55
ARM GAS  /tmp/ccXw4jW7.s 			page 139


 6750 0932 50000000 		.4byte	.LVL8
 6751 0936 54000000 		.4byte	.LVL9
 6752 093a 0300     		.2byte	0x3
 6753 093c 08       		.byte	0x8
 6754 093d 3C       		.byte	0x3c
 6755 093e 9F       		.byte	0x9f
 6756 093f 54000000 		.4byte	.LVL9
 6757 0943 5C000000 		.4byte	.LVL10
 6758 0947 0300     		.2byte	0x3
 6759 0949 08       		.byte	0x8
 6760 094a 2C       		.byte	0x2c
 6761 094b 9F       		.byte	0x9f
 6762 094c 60000000 		.4byte	.LVL11
 6763 0950 8C000000 		.4byte	.LVL12
 6764 0954 0300     		.2byte	0x3
 6765 0956 08       		.byte	0x8
 6766 0957 3C       		.byte	0x3c
 6767 0958 9F       		.byte	0x9f
 6768 0959 8C000000 		.4byte	.LVL12
 6769 095d 96000000 		.4byte	.LVL13
 6770 0961 0200     		.2byte	0x2
 6771 0963 4C       		.byte	0x4c
 6772 0964 9F       		.byte	0x9f
 6773 0965 96000000 		.4byte	.LVL13
 6774 0969 9A000000 		.4byte	.LVL14
 6775 096d 0300     		.2byte	0x3
 6776 096f 08       		.byte	0x8
 6777 0970 3C       		.byte	0x3c
 6778 0971 9F       		.byte	0x9f
 6779 0972 9A000000 		.4byte	.LVL14
 6780 0976 9C000000 		.4byte	.LVL15
 6781 097a 0300     		.2byte	0x3
 6782 097c 08       		.byte	0x8
 6783 097d 2C       		.byte	0x2c
 6784 097e 9F       		.byte	0x9f
 6785 097f 9C000000 		.4byte	.LVL15
 6786 0983 A2000000 		.4byte	.LVL16
 6787 0987 0300     		.2byte	0x3
 6788 0989 08       		.byte	0x8
 6789 098a 3C       		.byte	0x3c
 6790 098b 9F       		.byte	0x9f
 6791 098c A2000000 		.4byte	.LVL16
 6792 0990 AA000000 		.4byte	.LVL17
 6793 0994 0300     		.2byte	0x3
 6794 0996 08       		.byte	0x8
 6795 0997 38       		.byte	0x38
 6796 0998 9F       		.byte	0x9f
 6797 0999 B4000000 		.4byte	.LVL18
 6798 099d CA000000 		.4byte	.LVL19
 6799 09a1 0300     		.2byte	0x3
 6800 09a3 08       		.byte	0x8
 6801 09a4 3C       		.byte	0x3c
 6802 09a5 9F       		.byte	0x9f
 6803 09a6 D6000000 		.4byte	.LVL20
 6804 09aa EE000000 		.4byte	.LVL21
 6805 09ae 0300     		.2byte	0x3
 6806 09b0 08       		.byte	0x8
ARM GAS  /tmp/ccXw4jW7.s 			page 140


 6807 09b1 3C       		.byte	0x3c
 6808 09b2 9F       		.byte	0x9f
 6809 09b3 EE000000 		.4byte	.LVL21
 6810 09b7 F8000000 		.4byte	.LVL22
 6811 09bb 0300     		.2byte	0x3
 6812 09bd 08       		.byte	0x8
 6813 09be 2C       		.byte	0x2c
 6814 09bf 9F       		.byte	0x9f
 6815 09c0 F8000000 		.4byte	.LVL22
 6816 09c4 08010000 		.4byte	.LFE209
 6817 09c8 0300     		.2byte	0x3
 6818 09ca 08       		.byte	0x8
 6819 09cb 3C       		.byte	0x3c
 6820 09cc 9F       		.byte	0x9f
 6821 09cd 00000000 		.4byte	0
 6822 09d1 00000000 		.4byte	0
 6823              	.LLST2:
 6824 09d5 00000000 		.4byte	.LVL3
 6825 09d9 06000000 		.4byte	.LVL4
 6826 09dd 0100     		.2byte	0x1
 6827 09df 50       		.byte	0x50
 6828 09e0 00000000 		.4byte	0
 6829 09e4 00000000 		.4byte	0
 6830              	.LLST3:
 6831 09e8 00000000 		.4byte	.LVL23
 6832 09ec 1E000000 		.4byte	.LVL25
 6833 09f0 0100     		.2byte	0x1
 6834 09f2 50       		.byte	0x50
 6835 09f3 1E000000 		.4byte	.LVL25
 6836 09f7 20000000 		.4byte	.LVL26
 6837 09fb 0400     		.2byte	0x4
 6838 09fd F3       		.byte	0xf3
 6839 09fe 01       		.uleb128 0x1
 6840 09ff 50       		.byte	0x50
 6841 0a00 9F       		.byte	0x9f
 6842 0a01 20000000 		.4byte	.LVL26
 6843 0a05 2C000000 		.4byte	.LVL28
 6844 0a09 0100     		.2byte	0x1
 6845 0a0b 50       		.byte	0x50
 6846 0a0c 2C000000 		.4byte	.LVL28
 6847 0a10 74000000 		.4byte	.LVL30
 6848 0a14 0100     		.2byte	0x1
 6849 0a16 52       		.byte	0x52
 6850 0a17 74000000 		.4byte	.LVL30
 6851 0a1b 86000000 		.4byte	.LFE210
 6852 0a1f 0400     		.2byte	0x4
 6853 0a21 F3       		.byte	0xf3
 6854 0a22 01       		.uleb128 0x1
 6855 0a23 50       		.byte	0x50
 6856 0a24 9F       		.byte	0x9f
 6857 0a25 00000000 		.4byte	0
 6858 0a29 00000000 		.4byte	0
 6859              	.LLST4:
 6860 0a2d 00000000 		.4byte	.LVL23
 6861 0a31 04000000 		.4byte	.LVL24
 6862 0a35 0100     		.2byte	0x1
 6863 0a37 50       		.byte	0x50
ARM GAS  /tmp/ccXw4jW7.s 			page 141


 6864 0a38 00000000 		.4byte	0
 6865 0a3c 00000000 		.4byte	0
 6866              	.LLST5:
 6867 0a40 28000000 		.4byte	.LVL27
 6868 0a44 2C000000 		.4byte	.LVL28
 6869 0a48 0100     		.2byte	0x1
 6870 0a4a 50       		.byte	0x50
 6871 0a4b 2C000000 		.4byte	.LVL28
 6872 0a4f 74000000 		.4byte	.LVL30
 6873 0a53 0100     		.2byte	0x1
 6874 0a55 52       		.byte	0x52
 6875 0a56 74000000 		.4byte	.LVL30
 6876 0a5a 86000000 		.4byte	.LFE210
 6877 0a5e 0400     		.2byte	0x4
 6878 0a60 F3       		.byte	0xf3
 6879 0a61 01       		.uleb128 0x1
 6880 0a62 50       		.byte	0x50
 6881 0a63 9F       		.byte	0x9f
 6882 0a64 00000000 		.4byte	0
 6883 0a68 00000000 		.4byte	0
 6884              	.LLST6:
 6885 0a6c 2E000000 		.4byte	.LVL29
 6886 0a70 82000000 		.4byte	.LVL31
 6887 0a74 0100     		.2byte	0x1
 6888 0a76 53       		.byte	0x53
 6889 0a77 00000000 		.4byte	0
 6890 0a7b 00000000 		.4byte	0
 6891              	.LLST7:
 6892 0a7f 2E000000 		.4byte	.LVL29
 6893 0a83 74000000 		.4byte	.LVL30
 6894 0a87 0100     		.2byte	0x1
 6895 0a89 52       		.byte	0x52
 6896 0a8a 74000000 		.4byte	.LVL30
 6897 0a8e 86000000 		.4byte	.LFE210
 6898 0a92 0400     		.2byte	0x4
 6899 0a94 F3       		.byte	0xf3
 6900 0a95 01       		.uleb128 0x1
 6901 0a96 50       		.byte	0x50
 6902 0a97 9F       		.byte	0x9f
 6903 0a98 00000000 		.4byte	0
 6904 0a9c 00000000 		.4byte	0
 6905              	.LLST42:
 6906 0aa0 00000000 		.4byte	.LVL103
 6907 0aa4 0A000000 		.4byte	.LVL104
 6908 0aa8 0100     		.2byte	0x1
 6909 0aaa 50       		.byte	0x50
 6910 0aab 0A000000 		.4byte	.LVL104
 6911 0aaf 20000000 		.4byte	.LFE225
 6912 0ab3 0400     		.2byte	0x4
 6913 0ab5 F3       		.byte	0xf3
 6914 0ab6 01       		.uleb128 0x1
 6915 0ab7 50       		.byte	0x50
 6916 0ab8 9F       		.byte	0x9f
 6917 0ab9 00000000 		.4byte	0
 6918 0abd 00000000 		.4byte	0
 6919              	.LLST43:
 6920 0ac1 12000000 		.4byte	.LVL106
ARM GAS  /tmp/ccXw4jW7.s 			page 142


 6921 0ac5 1A000000 		.4byte	.LVL107
 6922 0ac9 0100     		.2byte	0x1
 6923 0acb 55       		.byte	0x55
 6924 0acc 00000000 		.4byte	0
 6925 0ad0 00000000 		.4byte	0
 6926              	.LLST63:
 6927 0ad4 00000000 		.4byte	.LVL141
 6928 0ad8 06000000 		.4byte	.LVL142
 6929 0adc 0100     		.2byte	0x1
 6930 0ade 50       		.byte	0x50
 6931 0adf 06000000 		.4byte	.LVL142
 6932 0ae3 10000000 		.4byte	.LFE229
 6933 0ae7 0400     		.2byte	0x4
 6934 0ae9 F3       		.byte	0xf3
 6935 0aea 01       		.uleb128 0x1
 6936 0aeb 50       		.byte	0x50
 6937 0aec 9F       		.byte	0x9f
 6938 0aed 00000000 		.4byte	0
 6939 0af1 00000000 		.4byte	0
 6940              		.section	.debug_aranges,"",%progbits
 6941 0000 BC000000 		.4byte	0xbc
 6942 0004 0200     		.2byte	0x2
 6943 0006 00000000 		.4byte	.Ldebug_info0
 6944 000a 04       		.byte	0x4
 6945 000b 00       		.byte	0
 6946 000c 0000     		.2byte	0
 6947 000e 0000     		.2byte	0
 6948 0010 00000000 		.4byte	.LFB212
 6949 0014 18000000 		.4byte	.LFE212-.LFB212
 6950 0018 00000000 		.4byte	.LFB209
 6951 001c 08010000 		.4byte	.LFE209-.LFB209
 6952 0020 00000000 		.4byte	.LFB210
 6953 0024 86000000 		.4byte	.LFE210-.LFB210
 6954 0028 00000000 		.4byte	.LFB211
 6955 002c AC000000 		.4byte	.LFE211-.LFB211
 6956 0030 00000000 		.4byte	.LFB214
 6957 0034 3C000000 		.4byte	.LFE214-.LFB214
 6958 0038 00000000 		.4byte	.LFB215
 6959 003c 24000000 		.4byte	.LFE215-.LFB215
 6960 0040 00000000 		.4byte	.LFB216
 6961 0044 24000000 		.4byte	.LFE216-.LFB216
 6962 0048 00000000 		.4byte	.LFB217
 6963 004c 20000000 		.4byte	.LFE217-.LFB217
 6964 0050 00000000 		.4byte	.LFB218
 6965 0054 20000000 		.4byte	.LFE218-.LFB218
 6966 0058 00000000 		.4byte	.LFB219
 6967 005c 0C000000 		.4byte	.LFE219-.LFB219
 6968 0060 00000000 		.4byte	.LFB220
 6969 0064 60000000 		.4byte	.LFE220-.LFB220
 6970 0068 00000000 		.4byte	.LFB221
 6971 006c 28000000 		.4byte	.LFE221-.LFB221
 6972 0070 00000000 		.4byte	.LFB222
 6973 0074 30000000 		.4byte	.LFE222-.LFB222
 6974 0078 00000000 		.4byte	.LFB223
 6975 007c 28000000 		.4byte	.LFE223-.LFB223
 6976 0080 00000000 		.4byte	.LFB224
 6977 0084 1C000000 		.4byte	.LFE224-.LFB224
ARM GAS  /tmp/ccXw4jW7.s 			page 143


 6978 0088 00000000 		.4byte	.LFB225
 6979 008c 20000000 		.4byte	.LFE225-.LFB225
 6980 0090 00000000 		.4byte	.LFB213
 6981 0094 2C000000 		.4byte	.LFE213-.LFB213
 6982 0098 00000000 		.4byte	.LFB226
 6983 009c 74000000 		.4byte	.LFE226-.LFB226
 6984 00a0 00000000 		.4byte	.LFB227
 6985 00a4 60000000 		.4byte	.LFE227-.LFB227
 6986 00a8 00000000 		.4byte	.LFB228
 6987 00ac 10000000 		.4byte	.LFE228-.LFB228
 6988 00b0 00000000 		.4byte	.LFB229
 6989 00b4 10000000 		.4byte	.LFE229-.LFB229
 6990 00b8 00000000 		.4byte	0
 6991 00bc 00000000 		.4byte	0
 6992              		.section	.debug_ranges,"",%progbits
 6993              	.Ldebug_ranges0:
 6994 0000 00000000 		.4byte	.LBB61
 6995 0004 02000000 		.4byte	.LBE61
 6996 0008 04000000 		.4byte	.LBB65
 6997 000c 06000000 		.4byte	.LBE65
 6998 0010 08000000 		.4byte	.LBB66
 6999 0014 0A000000 		.4byte	.LBE66
 7000 0018 00000000 		.4byte	0
 7001 001c 00000000 		.4byte	0
 7002 0020 00000000 		.4byte	.LBB83
 7003 0024 04000000 		.4byte	.LBE83
 7004 0028 08000000 		.4byte	.LBB86
 7005 002c 0A000000 		.4byte	.LBE86
 7006 0030 00000000 		.4byte	0
 7007 0034 00000000 		.4byte	0
 7008 0038 2A000000 		.4byte	.LBB89
 7009 003c 2C000000 		.4byte	.LBE89
 7010 0040 2E000000 		.4byte	.LBB102
 7011 0044 86000000 		.4byte	.LBE102
 7012 0048 00000000 		.4byte	0
 7013 004c 00000000 		.4byte	0
 7014 0050 32000000 		.4byte	.LBB91
 7015 0054 34000000 		.4byte	.LBE91
 7016 0058 38000000 		.4byte	.LBB94
 7017 005c 42000000 		.4byte	.LBE94
 7018 0060 00000000 		.4byte	0
 7019 0064 00000000 		.4byte	0
 7020 0068 04000000 		.4byte	.LBB103
 7021 006c 06000000 		.4byte	.LBE103
 7022 0070 08000000 		.4byte	.LBB106
 7023 0074 0C000000 		.4byte	.LBE106
 7024 0078 00000000 		.4byte	0
 7025 007c 00000000 		.4byte	0
 7026 0080 10000000 		.4byte	.LBB107
 7027 0084 14000000 		.4byte	.LBE107
 7028 0088 1E000000 		.4byte	.LBB116
 7029 008c 20000000 		.4byte	.LBE116
 7030 0090 22000000 		.4byte	.LBB117
 7031 0094 24000000 		.4byte	.LBE117
 7032 0098 24000000 		.4byte	.LBB118
 7033 009c 28000000 		.4byte	.LBE118
 7034 00a0 00000000 		.4byte	0
ARM GAS  /tmp/ccXw4jW7.s 			page 144


 7035 00a4 00000000 		.4byte	0
 7036 00a8 06000000 		.4byte	.LBB119
 7037 00ac 08000000 		.4byte	.LBE119
 7038 00b0 0C000000 		.4byte	.LBB126
 7039 00b4 1A000000 		.4byte	.LBE126
 7040 00b8 00000000 		.4byte	0
 7041 00bc 00000000 		.4byte	0
 7042 00c0 06000000 		.4byte	.LBB121
 7043 00c4 08000000 		.4byte	.LBE121
 7044 00c8 0C000000 		.4byte	.LBB124
 7045 00cc 1A000000 		.4byte	.LBE124
 7046 00d0 00000000 		.4byte	0
 7047 00d4 00000000 		.4byte	0
 7048 00d8 24000000 		.4byte	.LBB127
 7049 00dc 28000000 		.4byte	.LBE127
 7050 00e0 2A000000 		.4byte	.LBB130
 7051 00e4 2C000000 		.4byte	.LBE130
 7052 00e8 00000000 		.4byte	0
 7053 00ec 00000000 		.4byte	0
 7054 00f0 4E000000 		.4byte	.LBB133
 7055 00f4 50000000 		.4byte	.LBE133
 7056 00f8 52000000 		.4byte	.LBB136
 7057 00fc 60000000 		.4byte	.LBE136
 7058 0100 00000000 		.4byte	0
 7059 0104 00000000 		.4byte	0
 7060 0108 02000000 		.4byte	.LBB137
 7061 010c 04000000 		.4byte	.LBE137
 7062 0110 06000000 		.4byte	.LBB142
 7063 0114 14000000 		.4byte	.LBE142
 7064 0118 00000000 		.4byte	0
 7065 011c 00000000 		.4byte	0
 7066 0120 0A000000 		.4byte	.LBB147
 7067 0124 0C000000 		.4byte	.LBE147
 7068 0128 10000000 		.4byte	.LBB151
 7069 012c 12000000 		.4byte	.LBE151
 7070 0130 18000000 		.4byte	.LBB152
 7071 0134 1A000000 		.4byte	.LBE152
 7072 0138 00000000 		.4byte	0
 7073 013c 00000000 		.4byte	0
 7074 0140 20000000 		.4byte	.LBB153
 7075 0144 22000000 		.4byte	.LBE153
 7076 0148 24000000 		.4byte	.LBB158
 7077 014c 3A000000 		.4byte	.LBE158
 7078 0150 56000000 		.4byte	.LBB159
 7079 0154 5A000000 		.4byte	.LBE159
 7080 0158 00000000 		.4byte	0
 7081 015c 00000000 		.4byte	0
 7082 0160 5A000000 		.4byte	.LBB160
 7083 0164 5C000000 		.4byte	.LBE160
 7084 0168 5E000000 		.4byte	.LBB163
 7085 016c 74000000 		.4byte	.LBE163
 7086 0170 00000000 		.4byte	0
 7087 0174 00000000 		.4byte	0
 7088 0178 08000000 		.4byte	.LBB164
 7089 017c 0A000000 		.4byte	.LBE164
 7090 0180 3A000000 		.4byte	.LBB165
 7091 0184 60000000 		.4byte	.LBE165
ARM GAS  /tmp/ccXw4jW7.s 			page 145


 7092 0188 00000000 		.4byte	0
 7093 018c 00000000 		.4byte	0
 7094 0190 00000000 		.4byte	.LFB212
 7095 0194 18000000 		.4byte	.LFE212
 7096 0198 00000000 		.4byte	.LFB209
 7097 019c 08010000 		.4byte	.LFE209
 7098 01a0 00000000 		.4byte	.LFB210
 7099 01a4 86000000 		.4byte	.LFE210
 7100 01a8 00000000 		.4byte	.LFB211
 7101 01ac AC000000 		.4byte	.LFE211
 7102 01b0 00000000 		.4byte	.LFB214
 7103 01b4 3C000000 		.4byte	.LFE214
 7104 01b8 00000000 		.4byte	.LFB215
 7105 01bc 24000000 		.4byte	.LFE215
 7106 01c0 00000000 		.4byte	.LFB216
 7107 01c4 24000000 		.4byte	.LFE216
 7108 01c8 00000000 		.4byte	.LFB217
 7109 01cc 20000000 		.4byte	.LFE217
 7110 01d0 00000000 		.4byte	.LFB218
 7111 01d4 20000000 		.4byte	.LFE218
 7112 01d8 00000000 		.4byte	.LFB219
 7113 01dc 0C000000 		.4byte	.LFE219
 7114 01e0 00000000 		.4byte	.LFB220
 7115 01e4 60000000 		.4byte	.LFE220
 7116 01e8 00000000 		.4byte	.LFB221
 7117 01ec 28000000 		.4byte	.LFE221
 7118 01f0 00000000 		.4byte	.LFB222
 7119 01f4 30000000 		.4byte	.LFE222
 7120 01f8 00000000 		.4byte	.LFB223
 7121 01fc 28000000 		.4byte	.LFE223
 7122 0200 00000000 		.4byte	.LFB224
 7123 0204 1C000000 		.4byte	.LFE224
 7124 0208 00000000 		.4byte	.LFB225
 7125 020c 20000000 		.4byte	.LFE225
 7126 0210 00000000 		.4byte	.LFB213
 7127 0214 2C000000 		.4byte	.LFE213
 7128 0218 00000000 		.4byte	.LFB226
 7129 021c 74000000 		.4byte	.LFE226
 7130 0220 00000000 		.4byte	.LFB227
 7131 0224 60000000 		.4byte	.LFE227
 7132 0228 00000000 		.4byte	.LFB228
 7133 022c 10000000 		.4byte	.LFE228
 7134 0230 00000000 		.4byte	.LFB229
 7135 0234 10000000 		.4byte	.LFE229
 7136 0238 00000000 		.4byte	0
 7137 023c 00000000 		.4byte	0
 7138              		.section	.debug_macro,"",%progbits
 7139              	.Ldebug_macro0:
 7140 0000 0400     		.2byte	0x4
 7141 0002 02       		.byte	0x2
 7142 0003 00000000 		.4byte	.Ldebug_line0
 7143 0007 07       		.byte	0x7
 7144 0008 00000000 		.4byte	.Ldebug_macro1
 7145 000c 03       		.byte	0x3
 7146 000d 00       		.uleb128 0
 7147 000e 01       		.uleb128 0x1
 7148 000f 03       		.byte	0x3
ARM GAS  /tmp/ccXw4jW7.s 			page 146


 7149 0010 20       		.uleb128 0x20
 7150 0011 05       		.uleb128 0x5
 7151 0012 05       		.byte	0x5
 7152 0013 1E       		.uleb128 0x1e
 7153 0014 187D0000 		.4byte	.LASF362
 7154              		.file 8 "../../lpc11cx4-library/lpc_chip_11cxx_lib/inc/lpc_types.h"
 7155 0018 03       		.byte	0x3
 7156 0019 20       		.uleb128 0x20
 7157 001a 08       		.uleb128 0x8
 7158 001b 05       		.byte	0x5
 7159 001c 21       		.uleb128 0x21
 7160 001d 71220000 		.4byte	.LASF363
 7161              		.file 9 "/usr/lib/gcc/arm-none-eabi/6.2.1/include/stdint.h"
 7162 0021 03       		.byte	0x3
 7163 0022 23       		.uleb128 0x23
 7164 0023 09       		.uleb128 0x9
 7165              		.file 10 "/usr/arm-none-eabi/include/stdint.h"
 7166 0024 03       		.byte	0x3
 7167 0025 09       		.uleb128 0x9
 7168 0026 0A       		.uleb128 0xa
 7169 0027 05       		.byte	0x5
 7170 0028 0A       		.uleb128 0xa
 7171 0029 411D0000 		.4byte	.LASF364
 7172 002d 03       		.byte	0x3
 7173 002e 0C       		.uleb128 0xc
 7174 002f 03       		.uleb128 0x3
 7175 0030 05       		.byte	0x5
 7176 0031 06       		.uleb128 0x6
 7177 0032 55520000 		.4byte	.LASF365
 7178              		.file 11 "/usr/arm-none-eabi/include/sys/features.h"
 7179 0036 03       		.byte	0x3
 7180 0037 08       		.uleb128 0x8
 7181 0038 0B       		.uleb128 0xb
 7182 0039 05       		.byte	0x5
 7183 003a 16       		.uleb128 0x16
 7184 003b 02010000 		.4byte	.LASF366
 7185              		.file 12 "/usr/arm-none-eabi/include/_newlib_version.h"
 7186 003f 03       		.byte	0x3
 7187 0040 1C       		.uleb128 0x1c
 7188 0041 0C       		.uleb128 0xc
 7189 0042 07       		.byte	0x7
 7190 0043 00000000 		.4byte	.Ldebug_macro2
 7191 0047 04       		.byte	0x4
 7192 0048 07       		.byte	0x7
 7193 0049 00000000 		.4byte	.Ldebug_macro3
 7194 004d 04       		.byte	0x4
 7195 004e 07       		.byte	0x7
 7196 004f 00000000 		.4byte	.Ldebug_macro4
 7197 0053 04       		.byte	0x4
 7198              		.file 13 "/usr/arm-none-eabi/include/sys/_intsup.h"
 7199 0054 03       		.byte	0x3
 7200 0055 0D       		.uleb128 0xd
 7201 0056 0D       		.uleb128 0xd
 7202 0057 07       		.byte	0x7
 7203 0058 00000000 		.4byte	.Ldebug_macro5
 7204 005c 04       		.byte	0x4
 7205 005d 03       		.byte	0x3
ARM GAS  /tmp/ccXw4jW7.s 			page 147


 7206 005e 0E       		.uleb128 0xe
 7207 005f 04       		.uleb128 0x4
 7208 0060 07       		.byte	0x7
 7209 0061 00000000 		.4byte	.Ldebug_macro6
 7210 0065 04       		.byte	0x4
 7211 0066 07       		.byte	0x7
 7212 0067 00000000 		.4byte	.Ldebug_macro7
 7213 006b 04       		.byte	0x4
 7214 006c 05       		.byte	0x5
 7215 006d 0D       		.uleb128 0xd
 7216 006e 144A0000 		.4byte	.LASF518
 7217 0072 04       		.byte	0x4
 7218              		.file 14 "/usr/lib/gcc/arm-none-eabi/6.2.1/include/stdbool.h"
 7219 0073 03       		.byte	0x3
 7220 0074 24       		.uleb128 0x24
 7221 0075 0E       		.uleb128 0xe
 7222 0076 07       		.byte	0x7
 7223 0077 00000000 		.4byte	.Ldebug_macro8
 7224 007b 04       		.byte	0x4
 7225 007c 07       		.byte	0x7
 7226 007d 00000000 		.4byte	.Ldebug_macro9
 7227 0081 04       		.byte	0x4
 7228              		.file 15 "../../lpc11cx4-library/lpc_chip_11cxx_lib/inc/sys_config.h"
 7229 0082 03       		.byte	0x3
 7230 0083 21       		.uleb128 0x21
 7231 0084 0F       		.uleb128 0xf
 7232 0085 07       		.byte	0x7
 7233 0086 00000000 		.4byte	.Ldebug_macro10
 7234 008a 04       		.byte	0x4
 7235              		.file 16 "../../lpc11cx4-library/lpc_chip_11cxx_lib/inc/cmsis.h"
 7236 008b 03       		.byte	0x3
 7237 008c 22       		.uleb128 0x22
 7238 008d 10       		.uleb128 0x10
 7239 008e 05       		.byte	0x5
 7240 008f 1E       		.uleb128 0x1e
 7241 0090 30510000 		.4byte	.LASF542
 7242              		.file 17 "../../lpc11cx4-library/lpc_chip_11cxx_lib/inc/cmsis_11cxx.h"
 7243 0094 03       		.byte	0x3
 7244 0095 2E       		.uleb128 0x2e
 7245 0096 11       		.uleb128 0x11
 7246 0097 07       		.byte	0x7
 7247 0098 00000000 		.4byte	.Ldebug_macro11
 7248 009c 04       		.byte	0x4
 7249              		.file 18 "../../lpc11cx4-library/lpc_chip_11cxx_lib/inc/core_cm0.h"
 7250 009d 03       		.byte	0x3
 7251 009e 3E       		.uleb128 0x3e
 7252 009f 12       		.uleb128 0x12
 7253 00a0 07       		.byte	0x7
 7254 00a1 00000000 		.4byte	.Ldebug_macro12
 7255              		.file 19 "../../lpc11cx4-library/lpc_chip_11cxx_lib/inc/core_cmInstr.h"
 7256 00a5 03       		.byte	0x3
 7257 00a6 70       		.uleb128 0x70
 7258 00a7 13       		.uleb128 0x13
 7259 00a8 05       		.byte	0x5
 7260 00a9 19       		.uleb128 0x19
 7261 00aa CA1D0000 		.4byte	.LASF556
 7262 00ae 04       		.byte	0x4
ARM GAS  /tmp/ccXw4jW7.s 			page 148


 7263              		.file 20 "../../lpc11cx4-library/lpc_chip_11cxx_lib/inc/core_cmFunc.h"
 7264 00af 03       		.byte	0x3
 7265 00b0 71       		.uleb128 0x71
 7266 00b1 14       		.uleb128 0x14
 7267 00b2 05       		.byte	0x5
 7268 00b3 19       		.uleb128 0x19
 7269 00b4 885C0000 		.4byte	.LASF557
 7270 00b8 04       		.byte	0x4
 7271 00b9 07       		.byte	0x7
 7272 00ba 00000000 		.4byte	.Ldebug_macro13
 7273 00be 04       		.byte	0x4
 7274 00bf 04       		.byte	0x4
 7275 00c0 07       		.byte	0x7
 7276 00c1 00000000 		.4byte	.Ldebug_macro14
 7277              		.file 21 "../../lpc11cx4-library/lpc_chip_11cxx_lib/inc/pmu_11xx.h"
 7278 00c5 03       		.byte	0x3
 7279 00c6 E901     		.uleb128 0xe9
 7280 00c8 15       		.uleb128 0x15
 7281 00c9 07       		.byte	0x7
 7282 00ca 00000000 		.4byte	.Ldebug_macro15
 7283 00ce 04       		.byte	0x4
 7284              		.file 22 "../../lpc11cx4-library/lpc_chip_11cxx_lib/inc/fmc_11xx.h"
 7285 00cf 03       		.byte	0x3
 7286 00d0 EA01     		.uleb128 0xea
 7287 00d2 16       		.uleb128 0x16
 7288 00d3 05       		.byte	0x5
 7289 00d4 21       		.uleb128 0x21
 7290 00d5 056B0000 		.4byte	.LASF687
 7291 00d9 04       		.byte	0x4
 7292 00da 03       		.byte	0x3
 7293 00db EB01     		.uleb128 0xeb
 7294 00dd 06       		.uleb128 0x6
 7295 00de 07       		.byte	0x7
 7296 00df 00000000 		.4byte	.Ldebug_macro16
 7297 00e3 04       		.byte	0x4
 7298 00e4 03       		.byte	0x3
 7299 00e5 EC01     		.uleb128 0xec
 7300 00e7 02       		.uleb128 0x2
 7301 00e8 07       		.byte	0x7
 7302 00e9 00000000 		.4byte	.Ldebug_macro17
 7303 00ed 04       		.byte	0x4
 7304              		.file 23 "../../lpc11cx4-library/lpc_chip_11cxx_lib/inc/iocon_11xx.h"
 7305 00ee 03       		.byte	0x3
 7306 00ef ED01     		.uleb128 0xed
 7307 00f1 17       		.uleb128 0x17
 7308 00f2 07       		.byte	0x7
 7309 00f3 00000000 		.4byte	.Ldebug_macro18
 7310 00f7 04       		.byte	0x4
 7311              		.file 24 "../../lpc11cx4-library/lpc_chip_11cxx_lib/inc/timer_11xx.h"
 7312 00f8 03       		.byte	0x3
 7313 00f9 EE01     		.uleb128 0xee
 7314 00fb 18       		.uleb128 0x18
 7315 00fc 07       		.byte	0x7
 7316 00fd 00000000 		.4byte	.Ldebug_macro19
 7317 0101 04       		.byte	0x4
 7318              		.file 25 "../../lpc11cx4-library/lpc_chip_11cxx_lib/inc/uart_11xx.h"
 7319 0102 03       		.byte	0x3
ARM GAS  /tmp/ccXw4jW7.s 			page 149


 7320 0103 EF01     		.uleb128 0xef
 7321 0105 19       		.uleb128 0x19
 7322 0106 05       		.byte	0x5
 7323 0107 21       		.uleb128 0x21
 7324 0108 31250000 		.4byte	.LASF771
 7325              		.file 26 "../../lpc11cx4-library/lpc_chip_11cxx_lib/inc/ring_buffer.h"
 7326 010c 03       		.byte	0x3
 7327 010d 23       		.uleb128 0x23
 7328 010e 1A       		.uleb128 0x1a
 7329 010f 07       		.byte	0x7
 7330 0110 00000000 		.4byte	.Ldebug_macro20
 7331 0114 04       		.byte	0x4
 7332 0115 07       		.byte	0x7
 7333 0116 00000000 		.4byte	.Ldebug_macro21
 7334 011a 04       		.byte	0x4
 7335              		.file 27 "../../lpc11cx4-library/lpc_chip_11cxx_lib/inc/wwdt_11xx.h"
 7336 011b 03       		.byte	0x3
 7337 011c F001     		.uleb128 0xf0
 7338 011e 1B       		.uleb128 0x1b
 7339 011f 07       		.byte	0x7
 7340 0120 00000000 		.4byte	.Ldebug_macro22
 7341 0124 04       		.byte	0x4
 7342              		.file 28 "../../lpc11cx4-library/lpc_chip_11cxx_lib/inc/ssp_11xx.h"
 7343 0125 03       		.byte	0x3
 7344 0126 F101     		.uleb128 0xf1
 7345 0128 1C       		.uleb128 0x1c
 7346 0129 07       		.byte	0x7
 7347 012a 00000000 		.4byte	.Ldebug_macro23
 7348 012e 04       		.byte	0x4
 7349              		.file 29 "../../lpc11cx4-library/lpc_chip_11cxx_lib/inc/romapi_11xx.h"
 7350 012f 03       		.byte	0x3
 7351 0130 F201     		.uleb128 0xf2
 7352 0132 1D       		.uleb128 0x1d
 7353 0133 05       		.byte	0x5
 7354 0134 21       		.uleb128 0x21
 7355 0135 162E0000 		.4byte	.LASF924
 7356              		.file 30 "../../lpc11cx4-library/lpc_chip_11cxx_lib/inc/error.h"
 7357 0139 03       		.byte	0x3
 7358 013a 23       		.uleb128 0x23
 7359 013b 1E       		.uleb128 0x1e
 7360 013c 07       		.byte	0x7
 7361 013d 00000000 		.4byte	.Ldebug_macro24
 7362 0141 04       		.byte	0x4
 7363 0142 04       		.byte	0x4
 7364              		.file 31 "../../lpc11cx4-library/lpc_chip_11cxx_lib/inc/adc_11xx.h"
 7365 0143 03       		.byte	0x3
 7366 0144 F601     		.uleb128 0xf6
 7367 0146 1F       		.uleb128 0x1f
 7368 0147 07       		.byte	0x7
 7369 0148 00000000 		.4byte	.Ldebug_macro25
 7370 014c 04       		.byte	0x4
 7371              		.file 32 "../../lpc11cx4-library/lpc_chip_11cxx_lib/inc/gpio_11xx_2.h"
 7372 014d 03       		.byte	0x3
 7373 014e FF01     		.uleb128 0xff
 7374 0150 20       		.uleb128 0x20
 7375 0151 05       		.byte	0x5
 7376 0152 22       		.uleb128 0x22
ARM GAS  /tmp/ccXw4jW7.s 			page 150


 7377 0153 62390000 		.4byte	.LASF947
 7378 0157 04       		.byte	0x4
 7379 0158 03       		.byte	0x3
 7380 0159 8C02     		.uleb128 0x10c
 7381 015b 07       		.uleb128 0x7
 7382 015c 07       		.byte	0x7
 7383 015d 00000000 		.4byte	.Ldebug_macro26
 7384 0161 04       		.byte	0x4
 7385              		.file 33 "../../lpc11cx4-library/lpc_chip_11cxx_lib/inc/ccand_11xx.h"
 7386 0162 03       		.byte	0x3
 7387 0163 8F02     		.uleb128 0x10f
 7388 0165 21       		.uleb128 0x21
 7389 0166 07       		.byte	0x7
 7390 0167 00000000 		.4byte	.Ldebug_macro27
 7391 016b 04       		.byte	0x4
 7392 016c 04       		.byte	0x4
 7393 016d 05       		.byte	0x5
 7394 016e 29       		.uleb128 0x29
 7395 016f EA750000 		.4byte	.LASF1072
 7396 0173 05       		.byte	0x5
 7397 0174 2A       		.uleb128 0x2a
 7398 0175 EE210000 		.4byte	.LASF1073
 7399 0179 05       		.byte	0x5
 7400 017a 2B       		.uleb128 0x2b
 7401 017b 175A0000 		.4byte	.LASF1074
 7402 017f 04       		.byte	0x4
 7403 0180 00       		.byte	0
 7404              		.section	.debug_macro,"G",%progbits,wm4.0.adead285382a0a5b53a07cb69e17d027,comdat
 7405              	.Ldebug_macro1:
 7406 0000 0400     		.2byte	0x4
 7407 0002 00       		.byte	0
 7408 0003 05       		.byte	0x5
 7409 0004 00       		.uleb128 0
 7410 0005 424D0000 		.4byte	.LASF0
 7411 0009 05       		.byte	0x5
 7412 000a 00       		.uleb128 0
 7413 000b 200A0000 		.4byte	.LASF1
 7414 000f 05       		.byte	0x5
 7415 0010 00       		.uleb128 0
 7416 0011 0A4F0000 		.4byte	.LASF2
 7417 0015 05       		.byte	0x5
 7418 0016 00       		.uleb128 0
 7419 0017 37630000 		.4byte	.LASF3
 7420 001b 05       		.byte	0x5
 7421 001c 00       		.uleb128 0
 7422 001d 6A1C0000 		.4byte	.LASF4
 7423 0021 05       		.byte	0x5
 7424 0022 00       		.uleb128 0
 7425 0023 2B4B0000 		.4byte	.LASF5
 7426 0027 05       		.byte	0x5
 7427 0028 00       		.uleb128 0
 7428 0029 DA6A0000 		.4byte	.LASF6
 7429 002d 05       		.byte	0x5
 7430 002e 00       		.uleb128 0
 7431 002f 261F0000 		.4byte	.LASF7
 7432 0033 05       		.byte	0x5
 7433 0034 00       		.uleb128 0
ARM GAS  /tmp/ccXw4jW7.s 			page 151


 7434 0035 93590000 		.4byte	.LASF8
 7435 0039 05       		.byte	0x5
 7436 003a 00       		.uleb128 0
 7437 003b 613C0000 		.4byte	.LASF9
 7438 003f 05       		.byte	0x5
 7439 0040 00       		.uleb128 0
 7440 0041 ED7C0000 		.4byte	.LASF10
 7441 0045 05       		.byte	0x5
 7442 0046 00       		.uleb128 0
 7443 0047 4F030000 		.4byte	.LASF11
 7444 004b 05       		.byte	0x5
 7445 004c 00       		.uleb128 0
 7446 004d 533D0000 		.4byte	.LASF12
 7447 0051 05       		.byte	0x5
 7448 0052 00       		.uleb128 0
 7449 0053 FE5D0000 		.4byte	.LASF13
 7450 0057 05       		.byte	0x5
 7451 0058 00       		.uleb128 0
 7452 0059 BC730000 		.4byte	.LASF14
 7453 005d 05       		.byte	0x5
 7454 005e 00       		.uleb128 0
 7455 005f EC170000 		.4byte	.LASF15
 7456 0063 05       		.byte	0x5
 7457 0064 00       		.uleb128 0
 7458 0065 AA040000 		.4byte	.LASF16
 7459 0069 05       		.byte	0x5
 7460 006a 00       		.uleb128 0
 7461 006b 795E0000 		.4byte	.LASF17
 7462 006f 05       		.byte	0x5
 7463 0070 00       		.uleb128 0
 7464 0071 186C0000 		.4byte	.LASF18
 7465 0075 05       		.byte	0x5
 7466 0076 00       		.uleb128 0
 7467 0077 57180000 		.4byte	.LASF19
 7468 007b 05       		.byte	0x5
 7469 007c 00       		.uleb128 0
 7470 007d DD220000 		.4byte	.LASF20
 7471 0081 05       		.byte	0x5
 7472 0082 00       		.uleb128 0
 7473 0083 F7670000 		.4byte	.LASF21
 7474 0087 05       		.byte	0x5
 7475 0088 00       		.uleb128 0
 7476 0089 97440000 		.4byte	.LASF22
 7477 008d 05       		.byte	0x5
 7478 008e 00       		.uleb128 0
 7479 008f 70520000 		.4byte	.LASF23
 7480 0093 05       		.byte	0x5
 7481 0094 00       		.uleb128 0
 7482 0095 485A0000 		.4byte	.LASF24
 7483 0099 05       		.byte	0x5
 7484 009a 00       		.uleb128 0
 7485 009b 230E0000 		.4byte	.LASF25
 7486 009f 05       		.byte	0x5
 7487 00a0 00       		.uleb128 0
 7488 00a1 28060000 		.4byte	.LASF26
 7489 00a5 05       		.byte	0x5
 7490 00a6 00       		.uleb128 0
ARM GAS  /tmp/ccXw4jW7.s 			page 152


 7491 00a7 8D460000 		.4byte	.LASF27
 7492 00ab 05       		.byte	0x5
 7493 00ac 00       		.uleb128 0
 7494 00ad CE240000 		.4byte	.LASF28
 7495 00b1 05       		.byte	0x5
 7496 00b2 00       		.uleb128 0
 7497 00b3 D5150000 		.4byte	.LASF29
 7498 00b7 05       		.byte	0x5
 7499 00b8 00       		.uleb128 0
 7500 00b9 177B0000 		.4byte	.LASF30
 7501 00bd 05       		.byte	0x5
 7502 00be 00       		.uleb128 0
 7503 00bf 285B0000 		.4byte	.LASF31
 7504 00c3 05       		.byte	0x5
 7505 00c4 00       		.uleb128 0
 7506 00c5 42230000 		.4byte	.LASF32
 7507 00c9 05       		.byte	0x5
 7508 00ca 00       		.uleb128 0
 7509 00cb CA470000 		.4byte	.LASF33
 7510 00cf 05       		.byte	0x5
 7511 00d0 00       		.uleb128 0
 7512 00d1 91630000 		.4byte	.LASF34
 7513 00d5 05       		.byte	0x5
 7514 00d6 00       		.uleb128 0
 7515 00d7 924A0000 		.4byte	.LASF35
 7516 00db 05       		.byte	0x5
 7517 00dc 00       		.uleb128 0
 7518 00dd A9660000 		.4byte	.LASF36
 7519 00e1 05       		.byte	0x5
 7520 00e2 00       		.uleb128 0
 7521 00e3 53170000 		.4byte	.LASF37
 7522 00e7 05       		.byte	0x5
 7523 00e8 00       		.uleb128 0
 7524 00e9 DB3A0000 		.4byte	.LASF38
 7525 00ed 05       		.byte	0x5
 7526 00ee 00       		.uleb128 0
 7527 00ef C2060000 		.4byte	.LASF39
 7528 00f3 05       		.byte	0x5
 7529 00f4 00       		.uleb128 0
 7530 00f5 41080000 		.4byte	.LASF40
 7531 00f9 05       		.byte	0x5
 7532 00fa 00       		.uleb128 0
 7533 00fb 007D0000 		.4byte	.LASF41
 7534 00ff 05       		.byte	0x5
 7535 0100 00       		.uleb128 0
 7536 0101 67440000 		.4byte	.LASF42
 7537 0105 05       		.byte	0x5
 7538 0106 00       		.uleb128 0
 7539 0107 9E4D0000 		.4byte	.LASF43
 7540 010b 05       		.byte	0x5
 7541 010c 00       		.uleb128 0
 7542 010d 7B380000 		.4byte	.LASF44
 7543 0111 05       		.byte	0x5
 7544 0112 00       		.uleb128 0
 7545 0113 57720000 		.4byte	.LASF45
 7546 0117 05       		.byte	0x5
 7547 0118 00       		.uleb128 0
ARM GAS  /tmp/ccXw4jW7.s 			page 153


 7548 0119 40680000 		.4byte	.LASF46
 7549 011d 05       		.byte	0x5
 7550 011e 00       		.uleb128 0
 7551 011f EA150000 		.4byte	.LASF47
 7552 0123 05       		.byte	0x5
 7553 0124 00       		.uleb128 0
 7554 0125 5A770000 		.4byte	.LASF48
 7555 0129 05       		.byte	0x5
 7556 012a 00       		.uleb128 0
 7557 012b 96580000 		.4byte	.LASF49
 7558 012f 05       		.byte	0x5
 7559 0130 00       		.uleb128 0
 7560 0131 237F0000 		.4byte	.LASF50
 7561 0135 05       		.byte	0x5
 7562 0136 00       		.uleb128 0
 7563 0137 1F130000 		.4byte	.LASF51
 7564 013b 05       		.byte	0x5
 7565 013c 00       		.uleb128 0
 7566 013d 995C0000 		.4byte	.LASF52
 7567 0141 05       		.byte	0x5
 7568 0142 00       		.uleb128 0
 7569 0143 5A630000 		.4byte	.LASF53
 7570 0147 05       		.byte	0x5
 7571 0148 00       		.uleb128 0
 7572 0149 853B0000 		.4byte	.LASF54
 7573 014d 05       		.byte	0x5
 7574 014e 00       		.uleb128 0
 7575 014f 53150000 		.4byte	.LASF55
 7576 0153 05       		.byte	0x5
 7577 0154 00       		.uleb128 0
 7578 0155 F75B0000 		.4byte	.LASF56
 7579 0159 05       		.byte	0x5
 7580 015a 00       		.uleb128 0
 7581 015b B13C0000 		.4byte	.LASF57
 7582 015f 05       		.byte	0x5
 7583 0160 00       		.uleb128 0
 7584 0161 6B0A0000 		.4byte	.LASF58
 7585 0165 05       		.byte	0x5
 7586 0166 00       		.uleb128 0
 7587 0167 8A390000 		.4byte	.LASF59
 7588 016b 05       		.byte	0x5
 7589 016c 00       		.uleb128 0
 7590 016d 32750000 		.4byte	.LASF60
 7591 0171 05       		.byte	0x5
 7592 0172 00       		.uleb128 0
 7593 0173 D55B0000 		.4byte	.LASF61
 7594 0177 05       		.byte	0x5
 7595 0178 00       		.uleb128 0
 7596 0179 04240000 		.4byte	.LASF62
 7597 017d 05       		.byte	0x5
 7598 017e 00       		.uleb128 0
 7599 017f 95660000 		.4byte	.LASF63
 7600 0183 05       		.byte	0x5
 7601 0184 00       		.uleb128 0
 7602 0185 CC660000 		.4byte	.LASF64
 7603 0189 05       		.byte	0x5
 7604 018a 00       		.uleb128 0
ARM GAS  /tmp/ccXw4jW7.s 			page 154


 7605 018b C8350000 		.4byte	.LASF65
 7606 018f 05       		.byte	0x5
 7607 0190 00       		.uleb128 0
 7608 0191 7D290000 		.4byte	.LASF66
 7609 0195 05       		.byte	0x5
 7610 0196 00       		.uleb128 0
 7611 0197 66280000 		.4byte	.LASF67
 7612 019b 05       		.byte	0x5
 7613 019c 00       		.uleb128 0
 7614 019d 5E230000 		.4byte	.LASF68
 7615 01a1 05       		.byte	0x5
 7616 01a2 00       		.uleb128 0
 7617 01a3 D85A0000 		.4byte	.LASF69
 7618 01a7 05       		.byte	0x5
 7619 01a8 00       		.uleb128 0
 7620 01a9 0C7F0000 		.4byte	.LASF70
 7621 01ad 05       		.byte	0x5
 7622 01ae 00       		.uleb128 0
 7623 01af 197A0000 		.4byte	.LASF71
 7624 01b3 05       		.byte	0x5
 7625 01b4 00       		.uleb128 0
 7626 01b5 77540000 		.4byte	.LASF72
 7627 01b9 05       		.byte	0x5
 7628 01ba 00       		.uleb128 0
 7629 01bb 80030000 		.4byte	.LASF73
 7630 01bf 05       		.byte	0x5
 7631 01c0 00       		.uleb128 0
 7632 01c1 56400000 		.4byte	.LASF74
 7633 01c5 05       		.byte	0x5
 7634 01c6 00       		.uleb128 0
 7635 01c7 27770000 		.4byte	.LASF75
 7636 01cb 05       		.byte	0x5
 7637 01cc 00       		.uleb128 0
 7638 01cd A1760000 		.4byte	.LASF76
 7639 01d1 05       		.byte	0x5
 7640 01d2 00       		.uleb128 0
 7641 01d3 FE010000 		.4byte	.LASF77
 7642 01d7 05       		.byte	0x5
 7643 01d8 00       		.uleb128 0
 7644 01d9 5F790000 		.4byte	.LASF78
 7645 01dd 05       		.byte	0x5
 7646 01de 00       		.uleb128 0
 7647 01df 77020000 		.4byte	.LASF79
 7648 01e3 05       		.byte	0x5
 7649 01e4 00       		.uleb128 0
 7650 01e5 CA430000 		.4byte	.LASF80
 7651 01e9 05       		.byte	0x5
 7652 01ea 00       		.uleb128 0
 7653 01eb 747E0000 		.4byte	.LASF81
 7654 01ef 05       		.byte	0x5
 7655 01f0 00       		.uleb128 0
 7656 01f1 BD150000 		.4byte	.LASF82
 7657 01f5 05       		.byte	0x5
 7658 01f6 00       		.uleb128 0
 7659 01f7 5C6B0000 		.4byte	.LASF83
 7660 01fb 05       		.byte	0x5
 7661 01fc 00       		.uleb128 0
ARM GAS  /tmp/ccXw4jW7.s 			page 155


 7662 01fd 8B2F0000 		.4byte	.LASF84
 7663 0201 05       		.byte	0x5
 7664 0202 00       		.uleb128 0
 7665 0203 3C370000 		.4byte	.LASF85
 7666 0207 05       		.byte	0x5
 7667 0208 00       		.uleb128 0
 7668 0209 8E6D0000 		.4byte	.LASF86
 7669 020d 05       		.byte	0x5
 7670 020e 00       		.uleb128 0
 7671 020f 553A0000 		.4byte	.LASF87
 7672 0213 05       		.byte	0x5
 7673 0214 00       		.uleb128 0
 7674 0215 643E0000 		.4byte	.LASF88
 7675 0219 05       		.byte	0x5
 7676 021a 00       		.uleb128 0
 7677 021b 99260000 		.4byte	.LASF89
 7678 021f 05       		.byte	0x5
 7679 0220 00       		.uleb128 0
 7680 0221 AC200000 		.4byte	.LASF90
 7681 0225 05       		.byte	0x5
 7682 0226 00       		.uleb128 0
 7683 0227 3E340000 		.4byte	.LASF91
 7684 022b 05       		.byte	0x5
 7685 022c 00       		.uleb128 0
 7686 022d AF330000 		.4byte	.LASF92
 7687 0231 05       		.byte	0x5
 7688 0232 00       		.uleb128 0
 7689 0233 CE2E0000 		.4byte	.LASF93
 7690 0237 05       		.byte	0x5
 7691 0238 00       		.uleb128 0
 7692 0239 5F550000 		.4byte	.LASF94
 7693 023d 05       		.byte	0x5
 7694 023e 00       		.uleb128 0
 7695 023f BC280000 		.4byte	.LASF95
 7696 0243 05       		.byte	0x5
 7697 0244 00       		.uleb128 0
 7698 0245 237C0000 		.4byte	.LASF96
 7699 0249 05       		.byte	0x5
 7700 024a 00       		.uleb128 0
 7701 024b 7E700000 		.4byte	.LASF97
 7702 024f 05       		.byte	0x5
 7703 0250 00       		.uleb128 0
 7704 0251 D9250000 		.4byte	.LASF98
 7705 0255 05       		.byte	0x5
 7706 0256 00       		.uleb128 0
 7707 0257 294E0000 		.4byte	.LASF99
 7708 025b 05       		.byte	0x5
 7709 025c 00       		.uleb128 0
 7710 025d 80680000 		.4byte	.LASF100
 7711 0261 05       		.byte	0x5
 7712 0262 00       		.uleb128 0
 7713 0263 B82F0000 		.4byte	.LASF101
 7714 0267 05       		.byte	0x5
 7715 0268 00       		.uleb128 0
 7716 0269 32080000 		.4byte	.LASF102
 7717 026d 05       		.byte	0x5
 7718 026e 00       		.uleb128 0
ARM GAS  /tmp/ccXw4jW7.s 			page 156


 7719 026f B91C0000 		.4byte	.LASF103
 7720 0273 05       		.byte	0x5
 7721 0274 00       		.uleb128 0
 7722 0275 286A0000 		.4byte	.LASF104
 7723 0279 05       		.byte	0x5
 7724 027a 00       		.uleb128 0
 7725 027b 40360000 		.4byte	.LASF105
 7726 027f 05       		.byte	0x5
 7727 0280 00       		.uleb128 0
 7728 0281 FC290000 		.4byte	.LASF106
 7729 0285 05       		.byte	0x5
 7730 0286 00       		.uleb128 0
 7731 0287 3E590000 		.4byte	.LASF107
 7732 028b 05       		.byte	0x5
 7733 028c 00       		.uleb128 0
 7734 028d 0C580000 		.4byte	.LASF108
 7735 0291 05       		.byte	0x5
 7736 0292 00       		.uleb128 0
 7737 0293 25710000 		.4byte	.LASF109
 7738 0297 05       		.byte	0x5
 7739 0298 00       		.uleb128 0
 7740 0299 155E0000 		.4byte	.LASF110
 7741 029d 05       		.byte	0x5
 7742 029e 00       		.uleb128 0
 7743 029f 081F0000 		.4byte	.LASF111
 7744 02a3 05       		.byte	0x5
 7745 02a4 00       		.uleb128 0
 7746 02a5 5B140000 		.4byte	.LASF112
 7747 02a9 05       		.byte	0x5
 7748 02aa 00       		.uleb128 0
 7749 02ab 880F0000 		.4byte	.LASF113
 7750 02af 05       		.byte	0x5
 7751 02b0 00       		.uleb128 0
 7752 02b1 726A0000 		.4byte	.LASF114
 7753 02b5 05       		.byte	0x5
 7754 02b6 00       		.uleb128 0
 7755 02b7 B8170000 		.4byte	.LASF115
 7756 02bb 05       		.byte	0x5
 7757 02bc 00       		.uleb128 0
 7758 02bd 69590000 		.4byte	.LASF116
 7759 02c1 05       		.byte	0x5
 7760 02c2 00       		.uleb128 0
 7761 02c3 11110000 		.4byte	.LASF117
 7762 02c7 05       		.byte	0x5
 7763 02c8 00       		.uleb128 0
 7764 02c9 573B0000 		.4byte	.LASF118
 7765 02cd 05       		.byte	0x5
 7766 02ce 00       		.uleb128 0
 7767 02cf CA1E0000 		.4byte	.LASF119
 7768 02d3 05       		.byte	0x5
 7769 02d4 00       		.uleb128 0
 7770 02d5 0D380000 		.4byte	.LASF120
 7771 02d9 05       		.byte	0x5
 7772 02da 00       		.uleb128 0
 7773 02db FF4A0000 		.4byte	.LASF121
 7774 02df 05       		.byte	0x5
 7775 02e0 00       		.uleb128 0
ARM GAS  /tmp/ccXw4jW7.s 			page 157


 7776 02e1 84490000 		.4byte	.LASF122
 7777 02e5 05       		.byte	0x5
 7778 02e6 00       		.uleb128 0
 7779 02e7 05410000 		.4byte	.LASF123
 7780 02eb 05       		.byte	0x5
 7781 02ec 00       		.uleb128 0
 7782 02ed 803C0000 		.4byte	.LASF124
 7783 02f1 05       		.byte	0x5
 7784 02f2 00       		.uleb128 0
 7785 02f3 844A0000 		.4byte	.LASF125
 7786 02f7 05       		.byte	0x5
 7787 02f8 00       		.uleb128 0
 7788 02f9 6D490000 		.4byte	.LASF126
 7789 02fd 05       		.byte	0x5
 7790 02fe 00       		.uleb128 0
 7791 02ff 571A0000 		.4byte	.LASF127
 7792 0303 05       		.byte	0x5
 7793 0304 00       		.uleb128 0
 7794 0305 D8170000 		.4byte	.LASF128
 7795 0309 05       		.byte	0x5
 7796 030a 00       		.uleb128 0
 7797 030b FB620000 		.4byte	.LASF129
 7798 030f 05       		.byte	0x5
 7799 0310 00       		.uleb128 0
 7800 0311 C81A0000 		.4byte	.LASF130
 7801 0315 05       		.byte	0x5
 7802 0316 00       		.uleb128 0
 7803 0317 D33F0000 		.4byte	.LASF131
 7804 031b 05       		.byte	0x5
 7805 031c 00       		.uleb128 0
 7806 031d 6E240000 		.4byte	.LASF132
 7807 0321 05       		.byte	0x5
 7808 0322 00       		.uleb128 0
 7809 0323 AE2A0000 		.4byte	.LASF133
 7810 0327 05       		.byte	0x5
 7811 0328 00       		.uleb128 0
 7812 0329 15290000 		.4byte	.LASF134
 7813 032d 05       		.byte	0x5
 7814 032e 00       		.uleb128 0
 7815 032f AD060000 		.4byte	.LASF135
 7816 0333 05       		.byte	0x5
 7817 0334 00       		.uleb128 0
 7818 0335 D1360000 		.4byte	.LASF136
 7819 0339 05       		.byte	0x5
 7820 033a 00       		.uleb128 0
 7821 033b 3B1C0000 		.4byte	.LASF137
 7822 033f 05       		.byte	0x5
 7823 0340 00       		.uleb128 0
 7824 0341 AE0E0000 		.4byte	.LASF138
 7825 0345 05       		.byte	0x5
 7826 0346 00       		.uleb128 0
 7827 0347 3D040000 		.4byte	.LASF139
 7828 034b 05       		.byte	0x5
 7829 034c 00       		.uleb128 0
 7830 034d 2E560000 		.4byte	.LASF140
 7831 0351 05       		.byte	0x5
 7832 0352 00       		.uleb128 0
ARM GAS  /tmp/ccXw4jW7.s 			page 158


 7833 0353 237D0000 		.4byte	.LASF141
 7834 0357 05       		.byte	0x5
 7835 0358 00       		.uleb128 0
 7836 0359 3E3C0000 		.4byte	.LASF142
 7837 035d 05       		.byte	0x5
 7838 035e 00       		.uleb128 0
 7839 035f C1040000 		.4byte	.LASF143
 7840 0363 05       		.byte	0x5
 7841 0364 00       		.uleb128 0
 7842 0365 A56C0000 		.4byte	.LASF144
 7843 0369 05       		.byte	0x5
 7844 036a 00       		.uleb128 0
 7845 036b C4770000 		.4byte	.LASF145
 7846 036f 05       		.byte	0x5
 7847 0370 00       		.uleb128 0
 7848 0371 83140000 		.4byte	.LASF146
 7849 0375 05       		.byte	0x5
 7850 0376 00       		.uleb128 0
 7851 0377 8A360000 		.4byte	.LASF147
 7852 037b 05       		.byte	0x5
 7853 037c 00       		.uleb128 0
 7854 037d 5B710000 		.4byte	.LASF148
 7855 0381 05       		.byte	0x5
 7856 0382 00       		.uleb128 0
 7857 0383 61270000 		.4byte	.LASF149
 7858 0387 05       		.byte	0x5
 7859 0388 00       		.uleb128 0
 7860 0389 2D6B0000 		.4byte	.LASF150
 7861 038d 05       		.byte	0x5
 7862 038e 00       		.uleb128 0
 7863 038f B1640000 		.4byte	.LASF151
 7864 0393 05       		.byte	0x5
 7865 0394 00       		.uleb128 0
 7866 0395 BB070000 		.4byte	.LASF152
 7867 0399 05       		.byte	0x5
 7868 039a 00       		.uleb128 0
 7869 039b 2E760000 		.4byte	.LASF153
 7870 039f 05       		.byte	0x5
 7871 03a0 00       		.uleb128 0
 7872 03a1 92070000 		.4byte	.LASF154
 7873 03a5 05       		.byte	0x5
 7874 03a6 00       		.uleb128 0
 7875 03a7 554F0000 		.4byte	.LASF155
 7876 03ab 05       		.byte	0x5
 7877 03ac 00       		.uleb128 0
 7878 03ad C1260000 		.4byte	.LASF156
 7879 03b1 05       		.byte	0x5
 7880 03b2 00       		.uleb128 0
 7881 03b3 56480000 		.4byte	.LASF157
 7882 03b7 05       		.byte	0x5
 7883 03b8 00       		.uleb128 0
 7884 03b9 42000000 		.4byte	.LASF158
 7885 03bd 05       		.byte	0x5
 7886 03be 00       		.uleb128 0
 7887 03bf DF400000 		.4byte	.LASF159
 7888 03c3 05       		.byte	0x5
 7889 03c4 00       		.uleb128 0
ARM GAS  /tmp/ccXw4jW7.s 			page 159


 7890 03c5 2B690000 		.4byte	.LASF160
 7891 03c9 05       		.byte	0x5
 7892 03ca 00       		.uleb128 0
 7893 03cb CE3B0000 		.4byte	.LASF161
 7894 03cf 05       		.byte	0x5
 7895 03d0 00       		.uleb128 0
 7896 03d1 373E0000 		.4byte	.LASF162
 7897 03d5 05       		.byte	0x5
 7898 03d6 00       		.uleb128 0
 7899 03d7 9A570000 		.4byte	.LASF163
 7900 03db 05       		.byte	0x5
 7901 03dc 00       		.uleb128 0
 7902 03dd 07490000 		.4byte	.LASF164
 7903 03e1 05       		.byte	0x5
 7904 03e2 00       		.uleb128 0
 7905 03e3 53120000 		.4byte	.LASF165
 7906 03e7 05       		.byte	0x5
 7907 03e8 00       		.uleb128 0
 7908 03e9 17520000 		.4byte	.LASF166
 7909 03ed 05       		.byte	0x5
 7910 03ee 00       		.uleb128 0
 7911 03ef AE250000 		.4byte	.LASF167
 7912 03f3 05       		.byte	0x5
 7913 03f4 00       		.uleb128 0
 7914 03f5 D8380000 		.4byte	.LASF168
 7915 03f9 05       		.byte	0x5
 7916 03fa 00       		.uleb128 0
 7917 03fb AF050000 		.4byte	.LASF169
 7918 03ff 05       		.byte	0x5
 7919 0400 00       		.uleb128 0
 7920 0401 03120000 		.4byte	.LASF170
 7921 0405 05       		.byte	0x5
 7922 0406 00       		.uleb128 0
 7923 0407 A70F0000 		.4byte	.LASF171
 7924 040b 05       		.byte	0x5
 7925 040c 00       		.uleb128 0
 7926 040d 9B020000 		.4byte	.LASF172
 7927 0411 05       		.byte	0x5
 7928 0412 00       		.uleb128 0
 7929 0413 86560000 		.4byte	.LASF173
 7930 0417 05       		.byte	0x5
 7931 0418 00       		.uleb128 0
 7932 0419 864C0000 		.4byte	.LASF174
 7933 041d 05       		.byte	0x5
 7934 041e 00       		.uleb128 0
 7935 041f 56060000 		.4byte	.LASF175
 7936 0423 05       		.byte	0x5
 7937 0424 00       		.uleb128 0
 7938 0425 436C0000 		.4byte	.LASF176
 7939 0429 05       		.byte	0x5
 7940 042a 00       		.uleb128 0
 7941 042b A9190000 		.4byte	.LASF177
 7942 042f 05       		.byte	0x5
 7943 0430 00       		.uleb128 0
 7944 0431 D0760000 		.4byte	.LASF178
 7945 0435 05       		.byte	0x5
 7946 0436 00       		.uleb128 0
ARM GAS  /tmp/ccXw4jW7.s 			page 160


 7947 0437 74320000 		.4byte	.LASF179
 7948 043b 05       		.byte	0x5
 7949 043c 00       		.uleb128 0
 7950 043d B04E0000 		.4byte	.LASF180
 7951 0441 05       		.byte	0x5
 7952 0442 00       		.uleb128 0
 7953 0443 19150000 		.4byte	.LASF181
 7954 0447 05       		.byte	0x5
 7955 0448 00       		.uleb128 0
 7956 0449 B21E0000 		.4byte	.LASF182
 7957 044d 05       		.byte	0x5
 7958 044e 00       		.uleb128 0
 7959 044f 67680000 		.4byte	.LASF183
 7960 0453 05       		.byte	0x5
 7961 0454 00       		.uleb128 0
 7962 0455 1D3B0000 		.4byte	.LASF184
 7963 0459 05       		.byte	0x5
 7964 045a 00       		.uleb128 0
 7965 045b CD000000 		.4byte	.LASF185
 7966 045f 05       		.byte	0x5
 7967 0460 00       		.uleb128 0
 7968 0461 5D670000 		.4byte	.LASF186
 7969 0465 05       		.byte	0x5
 7970 0466 00       		.uleb128 0
 7971 0467 8C010000 		.4byte	.LASF187
 7972 046b 05       		.byte	0x5
 7973 046c 00       		.uleb128 0
 7974 046d 24460000 		.4byte	.LASF188
 7975 0471 05       		.byte	0x5
 7976 0472 00       		.uleb128 0
 7977 0473 C8370000 		.4byte	.LASF189
 7978 0477 05       		.byte	0x5
 7979 0478 00       		.uleb128 0
 7980 0479 9F7B0000 		.4byte	.LASF190
 7981 047d 05       		.byte	0x5
 7982 047e 00       		.uleb128 0
 7983 047f DF0D0000 		.4byte	.LASF191
 7984 0483 05       		.byte	0x5
 7985 0484 00       		.uleb128 0
 7986 0485 1D330000 		.4byte	.LASF192
 7987 0489 05       		.byte	0x5
 7988 048a 00       		.uleb128 0
 7989 048b C6250000 		.4byte	.LASF193
 7990 048f 05       		.byte	0x5
 7991 0490 00       		.uleb128 0
 7992 0491 4F260000 		.4byte	.LASF194
 7993 0495 05       		.byte	0x5
 7994 0496 00       		.uleb128 0
 7995 0497 A10B0000 		.4byte	.LASF195
 7996 049b 05       		.byte	0x5
 7997 049c 00       		.uleb128 0
 7998 049d A5320000 		.4byte	.LASF196
 7999 04a1 05       		.byte	0x5
 8000 04a2 00       		.uleb128 0
 8001 04a3 1F1C0000 		.4byte	.LASF197
 8002 04a7 05       		.byte	0x5
 8003 04a8 00       		.uleb128 0
ARM GAS  /tmp/ccXw4jW7.s 			page 161


 8004 04a9 08210000 		.4byte	.LASF198
 8005 04ad 05       		.byte	0x5
 8006 04ae 00       		.uleb128 0
 8007 04af 0C050000 		.4byte	.LASF199
 8008 04b3 05       		.byte	0x5
 8009 04b4 00       		.uleb128 0
 8010 04b5 46490000 		.4byte	.LASF200
 8011 04b9 05       		.byte	0x5
 8012 04ba 00       		.uleb128 0
 8013 04bb CC390000 		.4byte	.LASF201
 8014 04bf 05       		.byte	0x5
 8015 04c0 00       		.uleb128 0
 8016 04c1 156A0000 		.4byte	.LASF202
 8017 04c5 05       		.byte	0x5
 8018 04c6 00       		.uleb128 0
 8019 04c7 08550000 		.4byte	.LASF203
 8020 04cb 05       		.byte	0x5
 8021 04cc 00       		.uleb128 0
 8022 04cd 1F120000 		.4byte	.LASF204
 8023 04d1 05       		.byte	0x5
 8024 04d2 00       		.uleb128 0
 8025 04d3 7D450000 		.4byte	.LASF205
 8026 04d7 05       		.byte	0x5
 8027 04d8 00       		.uleb128 0
 8028 04d9 39400000 		.4byte	.LASF206
 8029 04dd 05       		.byte	0x5
 8030 04de 00       		.uleb128 0
 8031 04df 84440000 		.4byte	.LASF207
 8032 04e3 05       		.byte	0x5
 8033 04e4 00       		.uleb128 0
 8034 04e5 6D550000 		.4byte	.LASF208
 8035 04e9 05       		.byte	0x5
 8036 04ea 00       		.uleb128 0
 8037 04eb 62030000 		.4byte	.LASF209
 8038 04ef 05       		.byte	0x5
 8039 04f0 00       		.uleb128 0
 8040 04f1 ED4C0000 		.4byte	.LASF210
 8041 04f5 05       		.byte	0x5
 8042 04f6 00       		.uleb128 0
 8043 04f7 E64F0000 		.4byte	.LASF211
 8044 04fb 05       		.byte	0x5
 8045 04fc 00       		.uleb128 0
 8046 04fd F20C0000 		.4byte	.LASF212
 8047 0501 05       		.byte	0x5
 8048 0502 00       		.uleb128 0
 8049 0503 AB7E0000 		.4byte	.LASF213
 8050 0507 05       		.byte	0x5
 8051 0508 00       		.uleb128 0
 8052 0509 4C5F0000 		.4byte	.LASF214
 8053 050d 05       		.byte	0x5
 8054 050e 00       		.uleb128 0
 8055 050f 836C0000 		.4byte	.LASF215
 8056 0513 05       		.byte	0x5
 8057 0514 00       		.uleb128 0
 8058 0515 AC670000 		.4byte	.LASF216
 8059 0519 05       		.byte	0x5
 8060 051a 00       		.uleb128 0
ARM GAS  /tmp/ccXw4jW7.s 			page 162


 8061 051b 06780000 		.4byte	.LASF217
 8062 051f 05       		.byte	0x5
 8063 0520 00       		.uleb128 0
 8064 0521 CD730000 		.4byte	.LASF218
 8065 0525 05       		.byte	0x5
 8066 0526 00       		.uleb128 0
 8067 0527 9E700000 		.4byte	.LASF219
 8068 052b 05       		.byte	0x5
 8069 052c 00       		.uleb128 0
 8070 052d 16650000 		.4byte	.LASF220
 8071 0531 05       		.byte	0x5
 8072 0532 00       		.uleb128 0
 8073 0533 95610000 		.4byte	.LASF221
 8074 0537 05       		.byte	0x5
 8075 0538 00       		.uleb128 0
 8076 0539 320A0000 		.4byte	.LASF222
 8077 053d 05       		.byte	0x5
 8078 053e 00       		.uleb128 0
 8079 053f A63E0000 		.4byte	.LASF223
 8080 0543 05       		.byte	0x5
 8081 0544 00       		.uleb128 0
 8082 0545 3A730000 		.4byte	.LASF224
 8083 0549 05       		.byte	0x5
 8084 054a 00       		.uleb128 0
 8085 054b 92160000 		.4byte	.LASF225
 8086 054f 05       		.byte	0x5
 8087 0550 00       		.uleb128 0
 8088 0551 05700000 		.4byte	.LASF226
 8089 0555 05       		.byte	0x5
 8090 0556 00       		.uleb128 0
 8091 0557 8F7F0000 		.4byte	.LASF227
 8092 055b 05       		.byte	0x5
 8093 055c 00       		.uleb128 0
 8094 055d 905B0000 		.4byte	.LASF228
 8095 0561 05       		.byte	0x5
 8096 0562 00       		.uleb128 0
 8097 0563 5F5C0000 		.4byte	.LASF229
 8098 0567 05       		.byte	0x5
 8099 0568 00       		.uleb128 0
 8100 0569 7A660000 		.4byte	.LASF230
 8101 056d 05       		.byte	0x5
 8102 056e 00       		.uleb128 0
 8103 056f 8F740000 		.4byte	.LASF231
 8104 0573 05       		.byte	0x5
 8105 0574 00       		.uleb128 0
 8106 0575 A92C0000 		.4byte	.LASF232
 8107 0579 05       		.byte	0x5
 8108 057a 00       		.uleb128 0
 8109 057b 014A0000 		.4byte	.LASF233
 8110 057f 05       		.byte	0x5
 8111 0580 00       		.uleb128 0
 8112 0581 AA520000 		.4byte	.LASF234
 8113 0585 05       		.byte	0x5
 8114 0586 00       		.uleb128 0
 8115 0587 92050000 		.4byte	.LASF235
 8116 058b 05       		.byte	0x5
 8117 058c 00       		.uleb128 0
ARM GAS  /tmp/ccXw4jW7.s 			page 163


 8118 058d 93640000 		.4byte	.LASF236
 8119 0591 05       		.byte	0x5
 8120 0592 00       		.uleb128 0
 8121 0593 70130000 		.4byte	.LASF237
 8122 0597 05       		.byte	0x5
 8123 0598 00       		.uleb128 0
 8124 0599 51690000 		.4byte	.LASF238
 8125 059d 05       		.byte	0x5
 8126 059e 00       		.uleb128 0
 8127 059f DB030000 		.4byte	.LASF239
 8128 05a3 05       		.byte	0x5
 8129 05a4 00       		.uleb128 0
 8130 05a5 23580000 		.4byte	.LASF240
 8131 05a9 05       		.byte	0x5
 8132 05aa 00       		.uleb128 0
 8133 05ab B0750000 		.4byte	.LASF241
 8134 05af 05       		.byte	0x5
 8135 05b0 00       		.uleb128 0
 8136 05b1 08400000 		.4byte	.LASF242
 8137 05b5 05       		.byte	0x5
 8138 05b6 00       		.uleb128 0
 8139 05b7 FE130000 		.4byte	.LASF243
 8140 05bb 05       		.byte	0x5
 8141 05bc 00       		.uleb128 0
 8142 05bd 7F2A0000 		.4byte	.LASF244
 8143 05c1 05       		.byte	0x5
 8144 05c2 00       		.uleb128 0
 8145 05c3 623D0000 		.4byte	.LASF245
 8146 05c7 05       		.byte	0x5
 8147 05c8 00       		.uleb128 0
 8148 05c9 C92B0000 		.4byte	.LASF246
 8149 05cd 05       		.byte	0x5
 8150 05ce 00       		.uleb128 0
 8151 05cf 8C2D0000 		.4byte	.LASF247
 8152 05d3 05       		.byte	0x5
 8153 05d4 00       		.uleb128 0
 8154 05d5 95680000 		.4byte	.LASF248
 8155 05d9 05       		.byte	0x5
 8156 05da 00       		.uleb128 0
 8157 05db E3700000 		.4byte	.LASF249
 8158 05df 05       		.byte	0x5
 8159 05e0 00       		.uleb128 0
 8160 05e1 DC080000 		.4byte	.LASF250
 8161 05e5 05       		.byte	0x5
 8162 05e6 00       		.uleb128 0
 8163 05e7 81220000 		.4byte	.LASF251
 8164 05eb 05       		.byte	0x5
 8165 05ec 00       		.uleb128 0
 8166 05ed 0F6D0000 		.4byte	.LASF252
 8167 05f1 05       		.byte	0x5
 8168 05f2 00       		.uleb128 0
 8169 05f3 C45A0000 		.4byte	.LASF253
 8170 05f7 05       		.byte	0x5
 8171 05f8 00       		.uleb128 0
 8172 05f9 BD400000 		.4byte	.LASF254
 8173 05fd 05       		.byte	0x5
 8174 05fe 00       		.uleb128 0
ARM GAS  /tmp/ccXw4jW7.s 			page 164


 8175 05ff 055F0000 		.4byte	.LASF255
 8176 0603 05       		.byte	0x5
 8177 0604 00       		.uleb128 0
 8178 0605 CB750000 		.4byte	.LASF256
 8179 0609 05       		.byte	0x5
 8180 060a 00       		.uleb128 0
 8181 060b E7620000 		.4byte	.LASF257
 8182 060f 05       		.byte	0x5
 8183 0610 00       		.uleb128 0
 8184 0611 AB390000 		.4byte	.LASF258
 8185 0615 05       		.byte	0x5
 8186 0616 00       		.uleb128 0
 8187 0617 E6560000 		.4byte	.LASF259
 8188 061b 05       		.byte	0x5
 8189 061c 00       		.uleb128 0
 8190 061d 30330000 		.4byte	.LASF260
 8191 0621 05       		.byte	0x5
 8192 0622 00       		.uleb128 0
 8193 0623 DF5D0000 		.4byte	.LASF261
 8194 0627 05       		.byte	0x5
 8195 0628 00       		.uleb128 0
 8196 0629 D9210000 		.4byte	.LASF262
 8197 062d 05       		.byte	0x5
 8198 062e 00       		.uleb128 0
 8199 062f 936F0000 		.4byte	.LASF263
 8200 0633 05       		.byte	0x5
 8201 0634 00       		.uleb128 0
 8202 0635 A17F0000 		.4byte	.LASF264
 8203 0639 05       		.byte	0x5
 8204 063a 00       		.uleb128 0
 8205 063b 27050000 		.4byte	.LASF265
 8206 063f 05       		.byte	0x5
 8207 0640 00       		.uleb128 0
 8208 0641 84770000 		.4byte	.LASF266
 8209 0645 05       		.byte	0x5
 8210 0646 00       		.uleb128 0
 8211 0647 7A6E0000 		.4byte	.LASF267
 8212 064b 05       		.byte	0x5
 8213 064c 00       		.uleb128 0
 8214 064d 6A620000 		.4byte	.LASF268
 8215 0651 05       		.byte	0x5
 8216 0652 00       		.uleb128 0
 8217 0653 BD780000 		.4byte	.LASF269
 8218 0657 05       		.byte	0x5
 8219 0658 00       		.uleb128 0
 8220 0659 892C0000 		.4byte	.LASF270
 8221 065d 05       		.byte	0x5
 8222 065e 00       		.uleb128 0
 8223 065f 650E0000 		.4byte	.LASF271
 8224 0663 05       		.byte	0x5
 8225 0664 00       		.uleb128 0
 8226 0665 1A060000 		.4byte	.LASF272
 8227 0669 05       		.byte	0x5
 8228 066a 00       		.uleb128 0
 8229 066b A25B0000 		.4byte	.LASF273
 8230 066f 05       		.byte	0x5
 8231 0670 00       		.uleb128 0
ARM GAS  /tmp/ccXw4jW7.s 			page 165


 8232 0671 775F0000 		.4byte	.LASF274
 8233 0675 05       		.byte	0x5
 8234 0676 00       		.uleb128 0
 8235 0677 D9200000 		.4byte	.LASF275
 8236 067b 05       		.byte	0x5
 8237 067c 00       		.uleb128 0
 8238 067d C2020000 		.4byte	.LASF276
 8239 0681 05       		.byte	0x5
 8240 0682 00       		.uleb128 0
 8241 0683 FE4B0000 		.4byte	.LASF277
 8242 0687 05       		.byte	0x5
 8243 0688 00       		.uleb128 0
 8244 0689 78400000 		.4byte	.LASF278
 8245 068d 05       		.byte	0x5
 8246 068e 00       		.uleb128 0
 8247 068f 170F0000 		.4byte	.LASF279
 8248 0693 05       		.byte	0x5
 8249 0694 00       		.uleb128 0
 8250 0695 82630000 		.4byte	.LASF280
 8251 0699 05       		.byte	0x5
 8252 069a 00       		.uleb128 0
 8253 069b 130E0000 		.4byte	.LASF281
 8254 069f 05       		.byte	0x5
 8255 06a0 00       		.uleb128 0
 8256 06a1 CB540000 		.4byte	.LASF282
 8257 06a5 05       		.byte	0x5
 8258 06a6 00       		.uleb128 0
 8259 06a7 EA470000 		.4byte	.LASF283
 8260 06ab 05       		.byte	0x5
 8261 06ac 00       		.uleb128 0
 8262 06ad AD730000 		.4byte	.LASF284
 8263 06b1 05       		.byte	0x5
 8264 06b2 00       		.uleb128 0
 8265 06b3 6E5D0000 		.4byte	.LASF285
 8266 06b7 05       		.byte	0x5
 8267 06b8 00       		.uleb128 0
 8268 06b9 77610000 		.4byte	.LASF286
 8269 06bd 05       		.byte	0x5
 8270 06be 00       		.uleb128 0
 8271 06bf 92240000 		.4byte	.LASF287
 8272 06c3 05       		.byte	0x5
 8273 06c4 00       		.uleb128 0
 8274 06c5 B0420000 		.4byte	.LASF288
 8275 06c9 05       		.byte	0x5
 8276 06ca 00       		.uleb128 0
 8277 06cb 86610000 		.4byte	.LASF289
 8278 06cf 05       		.byte	0x5
 8279 06d0 00       		.uleb128 0
 8280 06d1 F8370000 		.4byte	.LASF290
 8281 06d5 05       		.byte	0x5
 8282 06d6 00       		.uleb128 0
 8283 06d7 95280000 		.4byte	.LASF291
 8284 06db 05       		.byte	0x5
 8285 06dc 00       		.uleb128 0
 8286 06dd 5D7C0000 		.4byte	.LASF292
 8287 06e1 05       		.byte	0x5
 8288 06e2 00       		.uleb128 0
ARM GAS  /tmp/ccXw4jW7.s 			page 166


 8289 06e3 332E0000 		.4byte	.LASF293
 8290 06e7 05       		.byte	0x5
 8291 06e8 00       		.uleb128 0
 8292 06e9 F1520000 		.4byte	.LASF294
 8293 06ed 05       		.byte	0x5
 8294 06ee 00       		.uleb128 0
 8295 06ef 74000000 		.4byte	.LASF295
 8296 06f3 05       		.byte	0x5
 8297 06f4 00       		.uleb128 0
 8298 06f5 8B750000 		.4byte	.LASF296
 8299 06f9 05       		.byte	0x5
 8300 06fa 00       		.uleb128 0
 8301 06fb FA4E0000 		.4byte	.LASF297
 8302 06ff 05       		.byte	0x5
 8303 0700 00       		.uleb128 0
 8304 0701 76230000 		.4byte	.LASF298
 8305 0705 05       		.byte	0x5
 8306 0706 00       		.uleb128 0
 8307 0707 77150000 		.4byte	.LASF299
 8308 070b 05       		.byte	0x5
 8309 070c 00       		.uleb128 0
 8310 070d 0F040000 		.4byte	.LASF300
 8311 0711 05       		.byte	0x5
 8312 0712 00       		.uleb128 0
 8313 0713 9E0E0000 		.4byte	.LASF301
 8314 0717 05       		.byte	0x5
 8315 0718 00       		.uleb128 0
 8316 0719 836F0000 		.4byte	.LASF302
 8317 071d 05       		.byte	0x5
 8318 071e 00       		.uleb128 0
 8319 071f 48670000 		.4byte	.LASF303
 8320 0723 05       		.byte	0x5
 8321 0724 00       		.uleb128 0
 8322 0725 98330000 		.4byte	.LASF304
 8323 0729 05       		.byte	0x5
 8324 072a 00       		.uleb128 0
 8325 072b 770B0000 		.4byte	.LASF305
 8326 072f 05       		.byte	0x5
 8327 0730 00       		.uleb128 0
 8328 0731 D2630000 		.4byte	.LASF306
 8329 0735 05       		.byte	0x5
 8330 0736 00       		.uleb128 0
 8331 0737 0A160000 		.4byte	.LASF307
 8332 073b 05       		.byte	0x5
 8333 073c 00       		.uleb128 0
 8334 073d 994F0000 		.4byte	.LASF308
 8335 0741 05       		.byte	0x5
 8336 0742 00       		.uleb128 0
 8337 0743 163C0000 		.4byte	.LASF309
 8338 0747 05       		.byte	0x5
 8339 0748 00       		.uleb128 0
 8340 0749 64560000 		.4byte	.LASF310
 8341 074d 05       		.byte	0x5
 8342 074e 00       		.uleb128 0
 8343 074f 13010000 		.4byte	.LASF311
 8344 0753 05       		.byte	0x5
 8345 0754 00       		.uleb128 0
ARM GAS  /tmp/ccXw4jW7.s 			page 167


 8346 0755 1F2C0000 		.4byte	.LASF312
 8347 0759 05       		.byte	0x5
 8348 075a 00       		.uleb128 0
 8349 075b AF630000 		.4byte	.LASF313
 8350 075f 05       		.byte	0x5
 8351 0760 00       		.uleb128 0
 8352 0761 9F400000 		.4byte	.LASF314
 8353 0765 05       		.byte	0x5
 8354 0766 00       		.uleb128 0
 8355 0767 D0420000 		.4byte	.LASF315
 8356 076b 05       		.byte	0x5
 8357 076c 00       		.uleb128 0
 8358 076d BC2C0000 		.4byte	.LASF316
 8359 0771 05       		.byte	0x5
 8360 0772 00       		.uleb128 0
 8361 0773 0D560000 		.4byte	.LASF317
 8362 0777 05       		.byte	0x5
 8363 0778 00       		.uleb128 0
 8364 0779 A2370000 		.4byte	.LASF318
 8365 077d 05       		.byte	0x5
 8366 077e 00       		.uleb128 0
 8367 077f 26230000 		.4byte	.LASF319
 8368 0783 05       		.byte	0x5
 8369 0784 00       		.uleb128 0
 8370 0785 A6440000 		.4byte	.LASF320
 8371 0789 05       		.byte	0x5
 8372 078a 00       		.uleb128 0
 8373 078b 4F700000 		.4byte	.LASF321
 8374 078f 05       		.byte	0x5
 8375 0790 00       		.uleb128 0
 8376 0791 5B6A0000 		.4byte	.LASF322
 8377 0795 06       		.byte	0x6
 8378 0796 00       		.uleb128 0
 8379 0797 BE420000 		.4byte	.LASF323
 8380 079b 06       		.byte	0x6
 8381 079c 00       		.uleb128 0
 8382 079d FC030000 		.4byte	.LASF324
 8383 07a1 06       		.byte	0x6
 8384 07a2 00       		.uleb128 0
 8385 07a3 78790000 		.4byte	.LASF325
 8386 07a7 06       		.byte	0x6
 8387 07a8 00       		.uleb128 0
 8388 07a9 81580000 		.4byte	.LASF326
 8389 07ad 06       		.byte	0x6
 8390 07ae 00       		.uleb128 0
 8391 07af F33A0000 		.4byte	.LASF327
 8392 07b3 06       		.byte	0x6
 8393 07b4 00       		.uleb128 0
 8394 07b5 FD530000 		.4byte	.LASF328
 8395 07b9 06       		.byte	0x6
 8396 07ba 00       		.uleb128 0
 8397 07bb F7680000 		.4byte	.LASF329
 8398 07bf 06       		.byte	0x6
 8399 07c0 00       		.uleb128 0
 8400 07c1 C34B0000 		.4byte	.LASF330
 8401 07c5 06       		.byte	0x6
 8402 07c6 00       		.uleb128 0
ARM GAS  /tmp/ccXw4jW7.s 			page 168


 8403 07c7 BC0B0000 		.4byte	.LASF331
 8404 07cb 06       		.byte	0x6
 8405 07cc 00       		.uleb128 0
 8406 07cd 00530000 		.4byte	.LASF332
 8407 07d1 05       		.byte	0x5
 8408 07d2 00       		.uleb128 0
 8409 07d3 50500000 		.4byte	.LASF333
 8410 07d7 05       		.byte	0x5
 8411 07d8 00       		.uleb128 0
 8412 07d9 95350000 		.4byte	.LASF334
 8413 07dd 05       		.byte	0x5
 8414 07de 00       		.uleb128 0
 8415 07df DC060000 		.4byte	.LASF335
 8416 07e3 05       		.byte	0x5
 8417 07e4 00       		.uleb128 0
 8418 07e5 86500000 		.4byte	.LASF336
 8419 07e9 05       		.byte	0x5
 8420 07ea 00       		.uleb128 0
 8421 07eb C55E0000 		.4byte	.LASF337
 8422 07ef 05       		.byte	0x5
 8423 07f0 00       		.uleb128 0
 8424 07f1 3D5B0000 		.4byte	.LASF338
 8425 07f5 05       		.byte	0x5
 8426 07f6 00       		.uleb128 0
 8427 07f7 5A780000 		.4byte	.LASF339
 8428 07fb 06       		.byte	0x6
 8429 07fc 00       		.uleb128 0
 8430 07fd A44B0000 		.4byte	.LASF340
 8431 0801 05       		.byte	0x5
 8432 0802 00       		.uleb128 0
 8433 0803 4C620000 		.4byte	.LASF341
 8434 0807 05       		.byte	0x5
 8435 0808 00       		.uleb128 0
 8436 0809 40540000 		.4byte	.LASF342
 8437 080d 05       		.byte	0x5
 8438 080e 00       		.uleb128 0
 8439 080f A3780000 		.4byte	.LASF343
 8440 0813 05       		.byte	0x5
 8441 0814 00       		.uleb128 0
 8442 0815 AC380000 		.4byte	.LASF344
 8443 0819 05       		.byte	0x5
 8444 081a 00       		.uleb128 0
 8445 081b E9100000 		.4byte	.LASF345
 8446 081f 06       		.byte	0x6
 8447 0820 00       		.uleb128 0
 8448 0821 A7420000 		.4byte	.LASF346
 8449 0825 06       		.byte	0x6
 8450 0826 00       		.uleb128 0
 8451 0827 35550000 		.4byte	.LASF347
 8452 082b 06       		.byte	0x6
 8453 082c 00       		.uleb128 0
 8454 082d 51160000 		.4byte	.LASF348
 8455 0831 06       		.byte	0x6
 8456 0832 00       		.uleb128 0
 8457 0833 70260000 		.4byte	.LASF349
 8458 0837 06       		.byte	0x6
 8459 0838 00       		.uleb128 0
ARM GAS  /tmp/ccXw4jW7.s 			page 169


 8460 0839 B9460000 		.4byte	.LASF350
 8461 083d 05       		.byte	0x5
 8462 083e 00       		.uleb128 0
 8463 083f 7C160000 		.4byte	.LASF351
 8464 0843 05       		.byte	0x5
 8465 0844 00       		.uleb128 0
 8466 0845 E5670000 		.4byte	.LASF352
 8467 0849 05       		.byte	0x5
 8468 084a 00       		.uleb128 0
 8469 084b 032F0000 		.4byte	.LASF353
 8470 084f 05       		.byte	0x5
 8471 0850 00       		.uleb128 0
 8472 0851 D5610000 		.4byte	.LASF354
 8473 0855 06       		.byte	0x6
 8474 0856 00       		.uleb128 0
 8475 0857 721F0000 		.4byte	.LASF355
 8476 085b 06       		.byte	0x6
 8477 085c 00       		.uleb128 0
 8478 085d F0340000 		.4byte	.LASF356
 8479 0861 06       		.byte	0x6
 8480 0862 00       		.uleb128 0
 8481 0863 E47B0000 		.4byte	.LASF357
 8482 0867 05       		.byte	0x5
 8483 0868 00       		.uleb128 0
 8484 0869 AA3A0000 		.4byte	.LASF358
 8485 086d 05       		.byte	0x5
 8486 086e 00       		.uleb128 0
 8487 086f 23620000 		.4byte	.LASF359
 8488 0873 05       		.byte	0x5
 8489 0874 00       		.uleb128 0
 8490 0875 70210000 		.4byte	.LASF360
 8491 0879 05       		.byte	0x5
 8492 087a 00       		.uleb128 0
 8493 087b 79720000 		.4byte	.LASF361
 8494 087f 00       		.byte	0
 8495              		.section	.debug_macro,"G",%progbits,wm4._newlib_version.h.4.ad342815780c8db09778091a421b5b5b,comda
 8496              	.Ldebug_macro2:
 8497 0000 0400     		.2byte	0x4
 8498 0002 00       		.byte	0
 8499 0003 05       		.byte	0x5
 8500 0004 04       		.uleb128 0x4
 8501 0005 9A750000 		.4byte	.LASF367
 8502 0009 05       		.byte	0x5
 8503 000a 06       		.uleb128 0x6
 8504 000b 87400000 		.4byte	.LASF368
 8505 000f 05       		.byte	0x5
 8506 0010 07       		.uleb128 0x7
 8507 0011 CF190000 		.4byte	.LASF369
 8508 0015 05       		.byte	0x5
 8509 0016 08       		.uleb128 0x8
 8510 0017 7F690000 		.4byte	.LASF370
 8511 001b 05       		.byte	0x5
 8512 001c 09       		.uleb128 0x9
 8513 001d D6590000 		.4byte	.LASF371
 8514 0021 00       		.byte	0
 8515              		.section	.debug_macro,"G",%progbits,wm4.features.h.33.863f3be0b2e521e624fcc7d6fa31d2ca,comdat
 8516              	.Ldebug_macro3:
ARM GAS  /tmp/ccXw4jW7.s 			page 170


 8517 0000 0400     		.2byte	0x4
 8518 0002 00       		.byte	0
 8519 0003 05       		.byte	0x5
 8520 0004 21       		.uleb128 0x21
 8521 0005 82130000 		.4byte	.LASF372
 8522 0009 05       		.byte	0x5
 8523 000a 28       		.uleb128 0x28
 8524 000b 2D6F0000 		.4byte	.LASF373
 8525 000f 06       		.byte	0x6
 8526 0010 8001     		.uleb128 0x80
 8527 0012 BE720000 		.4byte	.LASF374
 8528 0016 05       		.byte	0x5
 8529 0017 8101     		.uleb128 0x81
 8530 0019 0B3B0000 		.4byte	.LASF375
 8531 001d 06       		.byte	0x6
 8532 001e 8501     		.uleb128 0x85
 8533 0020 9E380000 		.4byte	.LASF376
 8534 0024 05       		.byte	0x5
 8535 0025 8601     		.uleb128 0x86
 8536 0027 32000000 		.4byte	.LASF377
 8537 002b 06       		.byte	0x6
 8538 002c 8701     		.uleb128 0x87
 8539 002e 647E0000 		.4byte	.LASF378
 8540 0032 05       		.byte	0x5
 8541 0033 8801     		.uleb128 0x88
 8542 0035 A0170000 		.4byte	.LASF379
 8543 0039 06       		.byte	0x6
 8544 003a 9B01     		.uleb128 0x9b
 8545 003c 72340000 		.4byte	.LASF380
 8546 0040 05       		.byte	0x5
 8547 0041 9C01     		.uleb128 0x9c
 8548 0043 4B460000 		.4byte	.LASF381
 8549 0047 05       		.byte	0x5
 8550 0048 F201     		.uleb128 0xf2
 8551 004a B74F0000 		.4byte	.LASF382
 8552 004e 05       		.byte	0x5
 8553 004f F801     		.uleb128 0xf8
 8554 0051 BB440000 		.4byte	.LASF383
 8555 0055 05       		.byte	0x5
 8556 0056 8002     		.uleb128 0x100
 8557 0058 685B0000 		.4byte	.LASF384
 8558 005c 05       		.byte	0x5
 8559 005d 8802     		.uleb128 0x108
 8560 005f 701A0000 		.4byte	.LASF385
 8561 0063 05       		.byte	0x5
 8562 0064 9002     		.uleb128 0x110
 8563 0066 93190000 		.4byte	.LASF386
 8564 006a 05       		.byte	0x5
 8565 006b 9402     		.uleb128 0x114
 8566 006d 49570000 		.4byte	.LASF387
 8567 0071 05       		.byte	0x5
 8568 0072 9A02     		.uleb128 0x11a
 8569 0074 75470000 		.4byte	.LASF388
 8570 0078 05       		.byte	0x5
 8571 0079 AA02     		.uleb128 0x12a
 8572 007b 83000000 		.4byte	.LASF389
 8573 007f 05       		.byte	0x5
ARM GAS  /tmp/ccXw4jW7.s 			page 171


 8574 0080 BA02     		.uleb128 0x13a
 8575 0082 AB070000 		.4byte	.LASF390
 8576 0086 00       		.byte	0
 8577              		.section	.debug_macro,"G",%progbits,wm4._default_types.h.15.247e5cd201eca3442cbf5404108c4935,comda
 8578              	.Ldebug_macro4:
 8579 0000 0400     		.2byte	0x4
 8580 0002 00       		.byte	0
 8581 0003 05       		.byte	0x5
 8582 0004 0F       		.uleb128 0xf
 8583 0005 78460000 		.4byte	.LASF391
 8584 0009 05       		.byte	0x5
 8585 000a 1A       		.uleb128 0x1a
 8586 000b 335E0000 		.4byte	.LASF392
 8587 000f 05       		.byte	0x5
 8588 0010 21       		.uleb128 0x21
 8589 0011 D66C0000 		.4byte	.LASF393
 8590 0015 05       		.byte	0x5
 8591 0016 2F       		.uleb128 0x2f
 8592 0017 FE170000 		.4byte	.LASF394
 8593 001b 05       		.byte	0x5
 8594 001c 3D       		.uleb128 0x3d
 8595 001d AC260000 		.4byte	.LASF395
 8596 0021 05       		.byte	0x5
 8597 0022 53       		.uleb128 0x53
 8598 0023 3F1E0000 		.4byte	.LASF396
 8599 0027 05       		.byte	0x5
 8600 0028 6D       		.uleb128 0x6d
 8601 0029 85570000 		.4byte	.LASF397
 8602 002d 05       		.byte	0x5
 8603 002e 8C01     		.uleb128 0x8c
 8604 0030 584D0000 		.4byte	.LASF398
 8605 0034 05       		.byte	0x5
 8606 0035 A601     		.uleb128 0xa6
 8607 0037 CB140000 		.4byte	.LASF399
 8608 003b 05       		.byte	0x5
 8609 003c BC01     		.uleb128 0xbc
 8610 003e 78640000 		.4byte	.LASF400
 8611 0042 05       		.byte	0x5
 8612 0043 CE01     		.uleb128 0xce
 8613 0045 99450000 		.4byte	.LASF401
 8614 0049 06       		.byte	0x6
 8615 004a F401     		.uleb128 0xf4
 8616 004c 64570000 		.4byte	.LASF402
 8617 0050 00       		.byte	0
 8618              		.section	.debug_macro,"G",%progbits,wm4._intsup.h.10.cce27fed8484c08a33f522034c30d2b5,comdat
 8619              	.Ldebug_macro5:
 8620 0000 0400     		.2byte	0x4
 8621 0002 00       		.byte	0
 8622 0003 05       		.byte	0x5
 8623 0004 0A       		.uleb128 0xa
 8624 0005 5B740000 		.4byte	.LASF403
 8625 0009 05       		.byte	0x5
 8626 000a 10       		.uleb128 0x10
 8627 000b 5C460000 		.4byte	.LASF404
 8628 000f 06       		.byte	0x6
 8629 0010 2A       		.uleb128 0x2a
 8630 0011 887F0000 		.4byte	.LASF405
ARM GAS  /tmp/ccXw4jW7.s 			page 172


 8631 0015 06       		.byte	0x6
 8632 0016 2B       		.uleb128 0x2b
 8633 0017 5A080000 		.4byte	.LASF406
 8634 001b 06       		.byte	0x6
 8635 001c 2C       		.uleb128 0x2c
 8636 001d 71230000 		.4byte	.LASF407
 8637 0021 06       		.byte	0x6
 8638 0022 2D       		.uleb128 0x2d
 8639 0023 CC630000 		.4byte	.LASF408
 8640 0027 02       		.byte	0x2
 8641 0028 2E       		.uleb128 0x2e
 8642 0029 696E7400 		.ascii	"int\000"
 8643 002d 06       		.byte	0x6
 8644 002e 2F       		.uleb128 0x2f
 8645 002f B67D0000 		.4byte	.LASF409
 8646 0033 06       		.byte	0x6
 8647 0034 30       		.uleb128 0x30
 8648 0035 BB540000 		.4byte	.LASF410
 8649 0039 05       		.byte	0x5
 8650 003a 31       		.uleb128 0x31
 8651 003b 020B0000 		.4byte	.LASF411
 8652 003f 05       		.byte	0x5
 8653 0040 32       		.uleb128 0x32
 8654 0041 743C0000 		.4byte	.LASF412
 8655 0045 05       		.byte	0x5
 8656 0046 33       		.uleb128 0x33
 8657 0047 E54C0000 		.4byte	.LASF413
 8658 004b 05       		.byte	0x5
 8659 004c 34       		.uleb128 0x34
 8660 004d 877C0000 		.4byte	.LASF414
 8661 0051 05       		.byte	0x5
 8662 0052 35       		.uleb128 0x35
 8663 0053 E13D0000 		.4byte	.LASF415
 8664 0057 05       		.byte	0x5
 8665 0058 36       		.uleb128 0x36
 8666 0059 4B390000 		.4byte	.LASF416
 8667 005d 05       		.byte	0x5
 8668 005e 37       		.uleb128 0x37
 8669 005f 987A0000 		.4byte	.LASF417
 8670 0063 05       		.byte	0x5
 8671 0064 40       		.uleb128 0x40
 8672 0065 85350000 		.4byte	.LASF418
 8673 0069 05       		.byte	0x5
 8674 006a 47       		.uleb128 0x47
 8675 006b 14790000 		.4byte	.LASF419
 8676 006f 05       		.byte	0x5
 8677 0070 4F       		.uleb128 0x4f
 8678 0071 CC090000 		.4byte	.LASF420
 8679 0075 05       		.byte	0x5
 8680 0076 5A       		.uleb128 0x5a
 8681 0077 984B0000 		.4byte	.LASF421
 8682 007b 05       		.byte	0x5
 8683 007c 65       		.uleb128 0x65
 8684 007d D9710000 		.4byte	.LASF422
 8685 0081 05       		.byte	0x5
 8686 0082 6E       		.uleb128 0x6e
 8687 0083 04110000 		.4byte	.LASF423
ARM GAS  /tmp/ccXw4jW7.s 			page 173


 8688 0087 05       		.byte	0x5
 8689 0088 75       		.uleb128 0x75
 8690 0089 376E0000 		.4byte	.LASF424
 8691 008d 05       		.byte	0x5
 8692 008e 7E       		.uleb128 0x7e
 8693 008f 31190000 		.4byte	.LASF425
 8694 0093 05       		.byte	0x5
 8695 0094 8501     		.uleb128 0x85
 8696 0096 D73D0000 		.4byte	.LASF426
 8697 009a 05       		.byte	0x5
 8698 009b 9001     		.uleb128 0x90
 8699 009d 533C0000 		.4byte	.LASF427
 8700 00a1 05       		.byte	0x5
 8701 00a2 9401     		.uleb128 0x94
 8702 00a4 40290000 		.4byte	.LASF428
 8703 00a8 05       		.byte	0x5
 8704 00a9 9F01     		.uleb128 0x9f
 8705 00ab 926A0000 		.4byte	.LASF429
 8706 00af 05       		.byte	0x5
 8707 00b0 AA01     		.uleb128 0xaa
 8708 00b2 F6100000 		.4byte	.LASF430
 8709 00b6 05       		.byte	0x5
 8710 00b7 B301     		.uleb128 0xb3
 8711 00b9 30530000 		.4byte	.LASF431
 8712 00bd 06       		.byte	0x6
 8713 00be B501     		.uleb128 0xb5
 8714 00c0 887F0000 		.4byte	.LASF405
 8715 00c4 06       		.byte	0x6
 8716 00c5 B601     		.uleb128 0xb6
 8717 00c7 5A080000 		.4byte	.LASF406
 8718 00cb 06       		.byte	0x6
 8719 00cc B701     		.uleb128 0xb7
 8720 00ce 71230000 		.4byte	.LASF407
 8721 00d2 06       		.byte	0x6
 8722 00d3 B801     		.uleb128 0xb8
 8723 00d5 CC630000 		.4byte	.LASF408
 8724 00d9 02       		.byte	0x2
 8725 00da B901     		.uleb128 0xb9
 8726 00dc 696E7400 		.ascii	"int\000"
 8727 00e0 06       		.byte	0x6
 8728 00e1 BA01     		.uleb128 0xba
 8729 00e3 BB540000 		.4byte	.LASF410
 8730 00e7 06       		.byte	0x6
 8731 00e8 BF01     		.uleb128 0xbf
 8732 00ea B67D0000 		.4byte	.LASF409
 8733 00ee 00       		.byte	0
 8734              		.section	.debug_macro,"G",%progbits,wm4._stdint.h.10.c24fa3af3bc1706662bb5593a907e841,comdat
 8735              	.Ldebug_macro6:
 8736 0000 0400     		.2byte	0x4
 8737 0002 00       		.byte	0
 8738 0003 05       		.byte	0x5
 8739 0004 0A       		.uleb128 0xa
 8740 0005 D7620000 		.4byte	.LASF432
 8741 0009 05       		.byte	0x5
 8742 000a 15       		.uleb128 0x15
 8743 000b 9C710000 		.4byte	.LASF433
 8744 000f 05       		.byte	0x5
ARM GAS  /tmp/ccXw4jW7.s 			page 174


 8745 0010 19       		.uleb128 0x19
 8746 0011 DE1A0000 		.4byte	.LASF434
 8747 0015 05       		.byte	0x5
 8748 0016 1B       		.uleb128 0x1b
 8749 0017 32270000 		.4byte	.LASF435
 8750 001b 05       		.byte	0x5
 8751 001c 21       		.uleb128 0x21
 8752 001d 5A310000 		.4byte	.LASF436
 8753 0021 05       		.byte	0x5
 8754 0022 25       		.uleb128 0x25
 8755 0023 C20E0000 		.4byte	.LASF437
 8756 0027 05       		.byte	0x5
 8757 0028 27       		.uleb128 0x27
 8758 0029 923E0000 		.4byte	.LASF438
 8759 002d 05       		.byte	0x5
 8760 002e 2D       		.uleb128 0x2d
 8761 002f D0020000 		.4byte	.LASF439
 8762 0033 05       		.byte	0x5
 8763 0034 31       		.uleb128 0x31
 8764 0035 63020000 		.4byte	.LASF440
 8765 0039 05       		.byte	0x5
 8766 003a 33       		.uleb128 0x33
 8767 003b 47140000 		.4byte	.LASF441
 8768 003f 05       		.byte	0x5
 8769 0040 39       		.uleb128 0x39
 8770 0041 44600000 		.4byte	.LASF442
 8771 0045 05       		.byte	0x5
 8772 0046 3D       		.uleb128 0x3d
 8773 0047 3F170000 		.4byte	.LASF443
 8774 004b 05       		.byte	0x5
 8775 004c 3F       		.uleb128 0x3f
 8776 004d 7A6D0000 		.4byte	.LASF444
 8777 0051 05       		.byte	0x5
 8778 0052 44       		.uleb128 0x44
 8779 0053 0D2B0000 		.4byte	.LASF445
 8780 0057 05       		.byte	0x5
 8781 0058 49       		.uleb128 0x49
 8782 0059 2E5C0000 		.4byte	.LASF446
 8783 005d 05       		.byte	0x5
 8784 005e 4E       		.uleb128 0x4e
 8785 005f 92120000 		.4byte	.LASF447
 8786 0063 05       		.byte	0x5
 8787 0064 53       		.uleb128 0x53
 8788 0065 B05E0000 		.4byte	.LASF448
 8789 0069 00       		.byte	0
 8790              		.section	.debug_macro,"G",%progbits,wm4.stdint.h.23.d53047a68f4a85177f80b422d52785ed,comdat
 8791              	.Ldebug_macro7:
 8792 0000 0400     		.2byte	0x4
 8793 0002 00       		.byte	0
 8794 0003 05       		.byte	0x5
 8795 0004 17       		.uleb128 0x17
 8796 0005 7E760000 		.4byte	.LASF449
 8797 0009 05       		.byte	0x5
 8798 000a 1D       		.uleb128 0x1d
 8799 000b AF2B0000 		.4byte	.LASF450
 8800 000f 05       		.byte	0x5
 8801 0010 23       		.uleb128 0x23
ARM GAS  /tmp/ccXw4jW7.s 			page 175


 8802 0011 7E330000 		.4byte	.LASF451
 8803 0015 05       		.byte	0x5
 8804 0016 29       		.uleb128 0x29
 8805 0017 F6310000 		.4byte	.LASF452
 8806 001b 05       		.byte	0x5
 8807 001c 35       		.uleb128 0x35
 8808 001d F94D0000 		.4byte	.LASF453
 8809 0021 05       		.byte	0x5
 8810 0022 3F       		.uleb128 0x3f
 8811 0023 24480000 		.4byte	.LASF454
 8812 0027 05       		.byte	0x5
 8813 0028 49       		.uleb128 0x49
 8814 0029 510D0000 		.4byte	.LASF455
 8815 002d 05       		.byte	0x5
 8816 002e 53       		.uleb128 0x53
 8817 002f 37210000 		.4byte	.LASF456
 8818 0033 05       		.byte	0x5
 8819 0034 8001     		.uleb128 0x80
 8820 0036 882E0000 		.4byte	.LASF457
 8821 003a 05       		.byte	0x5
 8822 003b 8101     		.uleb128 0x81
 8823 003d C74E0000 		.4byte	.LASF458
 8824 0041 05       		.byte	0x5
 8825 0042 8201     		.uleb128 0x82
 8826 0044 5E160000 		.4byte	.LASF459
 8827 0048 05       		.byte	0x5
 8828 0049 9801     		.uleb128 0x98
 8829 004b 81340000 		.4byte	.LASF460
 8830 004f 05       		.byte	0x5
 8831 0050 9901     		.uleb128 0x99
 8832 0052 C60A0000 		.4byte	.LASF461
 8833 0056 05       		.byte	0x5
 8834 0057 9A01     		.uleb128 0x9a
 8835 0059 FF790000 		.4byte	.LASF462
 8836 005d 05       		.byte	0x5
 8837 005e A201     		.uleb128 0xa2
 8838 0060 E66C0000 		.4byte	.LASF463
 8839 0064 05       		.byte	0x5
 8840 0065 A301     		.uleb128 0xa3
 8841 0067 07100000 		.4byte	.LASF464
 8842 006b 05       		.byte	0x5
 8843 006c A401     		.uleb128 0xa4
 8844 006e 11630000 		.4byte	.LASF465
 8845 0072 05       		.byte	0x5
 8846 0073 AE01     		.uleb128 0xae
 8847 0075 59510000 		.4byte	.LASF466
 8848 0079 05       		.byte	0x5
 8849 007a AF01     		.uleb128 0xaf
 8850 007c AA0C0000 		.4byte	.LASF467
 8851 0080 05       		.byte	0x5
 8852 0081 B001     		.uleb128 0xb0
 8853 0083 AC350000 		.4byte	.LASF468
 8854 0087 05       		.byte	0x5
 8855 0088 B801     		.uleb128 0xb8
 8856 008a CB440000 		.4byte	.LASF469
 8857 008e 05       		.byte	0x5
 8858 008f B901     		.uleb128 0xb9
ARM GAS  /tmp/ccXw4jW7.s 			page 176


 8859 0091 FA090000 		.4byte	.LASF470
 8860 0095 05       		.byte	0x5
 8861 0096 BA01     		.uleb128 0xba
 8862 0098 D4290000 		.4byte	.LASF471
 8863 009c 05       		.byte	0x5
 8864 009d C401     		.uleb128 0xc4
 8865 009f 2D620000 		.4byte	.LASF472
 8866 00a3 05       		.byte	0x5
 8867 00a4 C501     		.uleb128 0xc5
 8868 00a6 30280000 		.4byte	.LASF473
 8869 00aa 05       		.byte	0x5
 8870 00ab C601     		.uleb128 0xc6
 8871 00ad 70410000 		.4byte	.LASF474
 8872 00b1 05       		.byte	0x5
 8873 00b2 D401     		.uleb128 0xd4
 8874 00b4 B1680000 		.4byte	.LASF475
 8875 00b8 05       		.byte	0x5
 8876 00b9 D501     		.uleb128 0xd5
 8877 00bb F92B0000 		.4byte	.LASF476
 8878 00bf 05       		.byte	0x5
 8879 00c0 D601     		.uleb128 0xd6
 8880 00c2 80650000 		.4byte	.LASF477
 8881 00c6 05       		.byte	0x5
 8882 00c7 E601     		.uleb128 0xe6
 8883 00c9 BB6A0000 		.4byte	.LASF478
 8884 00cd 05       		.byte	0x5
 8885 00ce E701     		.uleb128 0xe7
 8886 00d0 C9480000 		.4byte	.LASF479
 8887 00d4 05       		.byte	0x5
 8888 00d5 E801     		.uleb128 0xe8
 8889 00d7 7A6B0000 		.4byte	.LASF480
 8890 00db 05       		.byte	0x5
 8891 00dc F601     		.uleb128 0xf6
 8892 00de 75170000 		.4byte	.LASF481
 8893 00e2 05       		.byte	0x5
 8894 00e3 F701     		.uleb128 0xf7
 8895 00e5 270F0000 		.4byte	.LASF482
 8896 00e9 05       		.byte	0x5
 8897 00ea F801     		.uleb128 0xf8
 8898 00ec 9C5A0000 		.4byte	.LASF483
 8899 00f0 05       		.byte	0x5
 8900 00f1 8602     		.uleb128 0x106
 8901 00f3 494A0000 		.4byte	.LASF484
 8902 00f7 05       		.byte	0x5
 8903 00f8 8702     		.uleb128 0x107
 8904 00fa 5A200000 		.4byte	.LASF485
 8905 00fe 05       		.byte	0x5
 8906 00ff 8802     		.uleb128 0x108
 8907 0101 EC5A0000 		.4byte	.LASF486
 8908 0105 05       		.byte	0x5
 8909 0106 9602     		.uleb128 0x116
 8910 0108 DC1D0000 		.4byte	.LASF487
 8911 010c 05       		.byte	0x5
 8912 010d 9702     		.uleb128 0x117
 8913 010f DB4A0000 		.4byte	.LASF488
 8914 0113 05       		.byte	0x5
 8915 0114 9802     		.uleb128 0x118
ARM GAS  /tmp/ccXw4jW7.s 			page 177


 8916 0116 E6640000 		.4byte	.LASF489
 8917 011a 05       		.byte	0x5
 8918 011b A602     		.uleb128 0x126
 8919 011d C5120000 		.4byte	.LASF490
 8920 0121 05       		.byte	0x5
 8921 0122 A702     		.uleb128 0x127
 8922 0124 F37D0000 		.4byte	.LASF491
 8923 0128 05       		.byte	0x5
 8924 0129 A802     		.uleb128 0x128
 8925 012b 4E250000 		.4byte	.LASF492
 8926 012f 05       		.byte	0x5
 8927 0130 B602     		.uleb128 0x136
 8928 0132 2C520000 		.4byte	.LASF493
 8929 0136 05       		.byte	0x5
 8930 0137 B702     		.uleb128 0x137
 8931 0139 D0740000 		.4byte	.LASF494
 8932 013d 05       		.byte	0x5
 8933 013e B802     		.uleb128 0x138
 8934 0140 81420000 		.4byte	.LASF495
 8935 0144 05       		.byte	0x5
 8936 0145 C602     		.uleb128 0x146
 8937 0147 14280000 		.4byte	.LASF496
 8938 014b 05       		.byte	0x5
 8939 014c C702     		.uleb128 0x147
 8940 014e 814D0000 		.4byte	.LASF497
 8941 0152 05       		.byte	0x5
 8942 0153 CF02     		.uleb128 0x14f
 8943 0155 DC3C0000 		.4byte	.LASF498
 8944 0159 05       		.byte	0x5
 8945 015a D702     		.uleb128 0x157
 8946 015c C0380000 		.4byte	.LASF499
 8947 0160 05       		.byte	0x5
 8948 0161 DD02     		.uleb128 0x15d
 8949 0163 F2300000 		.4byte	.LASF500
 8950 0167 05       		.byte	0x5
 8951 0168 DE02     		.uleb128 0x15e
 8952 016a 0A250000 		.4byte	.LASF501
 8953 016e 05       		.byte	0x5
 8954 016f E202     		.uleb128 0x162
 8955 0171 0C0B0000 		.4byte	.LASF502
 8956 0175 05       		.byte	0x5
 8957 0176 E602     		.uleb128 0x166
 8958 0178 A0230000 		.4byte	.LASF503
 8959 017c 05       		.byte	0x5
 8960 017d EB02     		.uleb128 0x16b
 8961 017f F41B0000 		.4byte	.LASF504
 8962 0183 05       		.byte	0x5
 8963 0184 F602     		.uleb128 0x176
 8964 0186 C00F0000 		.4byte	.LASF505
 8965 018a 05       		.byte	0x5
 8966 018b 8003     		.uleb128 0x180
 8967 018d 16420000 		.4byte	.LASF506
 8968 0191 05       		.byte	0x5
 8969 0192 8503     		.uleb128 0x185
 8970 0194 1A000000 		.4byte	.LASF507
 8971 0198 05       		.byte	0x5
 8972 0199 8C03     		.uleb128 0x18c
ARM GAS  /tmp/ccXw4jW7.s 			page 178


 8973 019b 74390000 		.4byte	.LASF508
 8974 019f 05       		.byte	0x5
 8975 01a0 8D03     		.uleb128 0x18d
 8976 01a2 2B6C0000 		.4byte	.LASF509
 8977 01a6 05       		.byte	0x5
 8978 01a7 9803     		.uleb128 0x198
 8979 01a9 A50D0000 		.4byte	.LASF510
 8980 01ad 05       		.byte	0x5
 8981 01ae 9903     		.uleb128 0x199
 8982 01b0 E0730000 		.4byte	.LASF511
 8983 01b4 05       		.byte	0x5
 8984 01b5 A403     		.uleb128 0x1a4
 8985 01b7 CE640000 		.4byte	.LASF512
 8986 01bb 05       		.byte	0x5
 8987 01bc A503     		.uleb128 0x1a5
 8988 01be 9A490000 		.4byte	.LASF513
 8989 01c2 05       		.byte	0x5
 8990 01c3 B103     		.uleb128 0x1b1
 8991 01c5 5A340000 		.4byte	.LASF514
 8992 01c9 05       		.byte	0x5
 8993 01ca B203     		.uleb128 0x1b2
 8994 01cc 606D0000 		.4byte	.LASF515
 8995 01d0 05       		.byte	0x5
 8996 01d1 C103     		.uleb128 0x1c1
 8997 01d3 86230000 		.4byte	.LASF516
 8998 01d7 05       		.byte	0x5
 8999 01d8 C203     		.uleb128 0x1c2
 9000 01da 2D570000 		.4byte	.LASF517
 9001 01de 00       		.byte	0
 9002              		.section	.debug_macro,"G",%progbits,wm4.stdbool.h.29.07dce69c3b78884144b7f7bd19483461,comdat
 9003              	.Ldebug_macro8:
 9004 0000 0400     		.2byte	0x4
 9005 0002 00       		.byte	0
 9006 0003 05       		.byte	0x5
 9007 0004 1D       		.uleb128 0x1d
 9008 0005 53730000 		.4byte	.LASF519
 9009 0009 05       		.byte	0x5
 9010 000a 21       		.uleb128 0x21
 9011 000b 2D7E0000 		.4byte	.LASF520
 9012 000f 05       		.byte	0x5
 9013 0010 22       		.uleb128 0x22
 9014 0011 E34E0000 		.4byte	.LASF521
 9015 0015 05       		.byte	0x5
 9016 0016 23       		.uleb128 0x23
 9017 0017 3E2C0000 		.4byte	.LASF522
 9018 001b 05       		.byte	0x5
 9019 001c 34       		.uleb128 0x34
 9020 001d CC780000 		.4byte	.LASF523
 9021 0021 00       		.byte	0
 9022              		.section	.debug_macro,"G",%progbits,wm4.lpc_types.h.63.860ba57581a002825766a7c2ac00d549,comdat
 9023              	.Ldebug_macro9:
 9024 0000 0400     		.2byte	0x4
 9025 0002 00       		.byte	0
 9026 0003 05       		.byte	0x5
 9027 0004 3F       		.uleb128 0x3f
 9028 0005 A1080000 		.4byte	.LASF524
 9029 0009 05       		.byte	0x5
ARM GAS  /tmp/ccXw4jW7.s 			page 179


 9030 000a 45       		.uleb128 0x45
 9031 000b 29090000 		.4byte	.LASF525
 9032 000f 06       		.byte	0x6
 9033 0010 66       		.uleb128 0x66
 9034 0011 C9640000 		.4byte	.LASF526
 9035 0015 05       		.byte	0x5
 9036 0016 68       		.uleb128 0x68
 9037 0017 E62B0000 		.4byte	.LASF527
 9038 001b 06       		.byte	0x6
 9039 001c 6E       		.uleb128 0x6e
 9040 001d 7A2A0000 		.4byte	.LASF528
 9041 0021 05       		.byte	0x5
 9042 0022 70       		.uleb128 0x70
 9043 0023 531C0000 		.4byte	.LASF529
 9044 0027 06       		.byte	0x6
 9045 0028 7F       		.uleb128 0x7f
 9046 0029 D3320000 		.4byte	.LASF530
 9047 002d 05       		.byte	0x5
 9048 002e 8101     		.uleb128 0x81
 9049 0030 FE710000 		.4byte	.LASF531
 9050 0034 05       		.byte	0x5
 9051 0035 8501     		.uleb128 0x85
 9052 0037 46560000 		.4byte	.LASF532
 9053 003b 05       		.byte	0x5
 9054 003c 8901     		.uleb128 0x89
 9055 003e B56F0000 		.4byte	.LASF533
 9056 0042 05       		.byte	0x5
 9057 0043 8C01     		.uleb128 0x8c
 9058 0045 AD220000 		.4byte	.LASF534
 9059 0049 05       		.byte	0x5
 9060 004a 8E01     		.uleb128 0x8e
 9061 004c E7390000 		.4byte	.LASF535
 9062 0050 05       		.byte	0x5
 9063 0051 9101     		.uleb128 0x91
 9064 0053 8D0B0000 		.4byte	.LASF536
 9065 0057 05       		.byte	0x5
 9066 0058 9401     		.uleb128 0x94
 9067 005a 386A0000 		.4byte	.LASF537
 9068 005e 05       		.byte	0x5
 9069 005f 9701     		.uleb128 0x97
 9070 0061 1F4D0000 		.4byte	.LASF538
 9071 0065 05       		.byte	0x5
 9072 0066 D001     		.uleb128 0xd0
 9073 0068 B86E0000 		.4byte	.LASF539
 9074 006c 00       		.byte	0
 9075              		.section	.debug_macro,"G",%progbits,wm4.sys_config.h.31.9f234e9c90333d233c7e647ebe63e928,comdat
 9076              	.Ldebug_macro10:
 9077 0000 0400     		.2byte	0x4
 9078 0002 00       		.byte	0
 9079 0003 05       		.byte	0x5
 9080 0004 1F       		.uleb128 0x1f
 9081 0005 67400000 		.4byte	.LASF540
 9082 0009 05       		.byte	0x5
 9083 000a 26       		.uleb128 0x26
 9084 000b 7F1B0000 		.4byte	.LASF541
 9085 000f 00       		.byte	0
 9086              		.section	.debug_macro,"G",%progbits,wm4.cmsis_11cxx.h.33.407e9bbb5d170cd1552d3f7dc3fd5c42,comdat
ARM GAS  /tmp/ccXw4jW7.s 			page 180


 9087              	.Ldebug_macro11:
 9088 0000 0400     		.2byte	0x4
 9089 0002 00       		.byte	0
 9090 0003 05       		.byte	0x5
 9091 0004 21       		.uleb128 0x21
 9092 0005 212B0000 		.4byte	.LASF543
 9093 0009 05       		.byte	0x5
 9094 000a 8801     		.uleb128 0x88
 9095 000c CB3A0000 		.4byte	.LASF544
 9096 0010 05       		.byte	0x5
 9097 0011 8901     		.uleb128 0x89
 9098 0013 1F750000 		.4byte	.LASF545
 9099 0017 05       		.byte	0x5
 9100 0018 8A01     		.uleb128 0x8a
 9101 001a 99550000 		.4byte	.LASF546
 9102 001e 00       		.byte	0
 9103              		.section	.debug_macro,"G",%progbits,wm4.core_cm0.h.32.192d13cfa8b31e63c86621de62eb153f,comdat
 9104              	.Ldebug_macro12:
 9105 0000 0400     		.2byte	0x4
 9106 0002 00       		.byte	0
 9107 0003 05       		.byte	0x5
 9108 0004 20       		.uleb128 0x20
 9109 0005 09130000 		.4byte	.LASF547
 9110 0009 05       		.byte	0x5
 9111 000a 38       		.uleb128 0x38
 9112 000b 57540000 		.4byte	.LASF548
 9113 000f 05       		.byte	0x5
 9114 0010 39       		.uleb128 0x39
 9115 0011 30700000 		.4byte	.LASF549
 9116 0015 05       		.byte	0x5
 9117 0016 3A       		.uleb128 0x3a
 9118 0017 D6650000 		.4byte	.LASF550
 9119 001b 05       		.byte	0x5
 9120 001c 3D       		.uleb128 0x3d
 9121 001d 972C0000 		.4byte	.LASF551
 9122 0021 05       		.byte	0x5
 9123 0022 4B       		.uleb128 0x4b
 9124 0023 2B100000 		.4byte	.LASF552
 9125 0027 05       		.byte	0x5
 9126 0028 4C       		.uleb128 0x4c
 9127 0029 E37D0000 		.4byte	.LASF553
 9128 002d 05       		.byte	0x5
 9129 002e 4D       		.uleb128 0x4d
 9130 002f 7E3F0000 		.4byte	.LASF554
 9131 0033 05       		.byte	0x5
 9132 0034 58       		.uleb128 0x58
 9133 0035 A86F0000 		.4byte	.LASF555
 9134 0039 00       		.byte	0
 9135              		.section	.debug_macro,"G",%progbits,wm4.core_cm0.h.120.f4257ea7d0bce0cbabffe223e23b2fd4,comdat
 9136              	.Ldebug_macro13:
 9137 0000 0400     		.2byte	0x4
 9138 0002 00       		.byte	0
 9139 0003 05       		.byte	0x5
 9140 0004 78       		.uleb128 0x78
 9141 0005 327A0000 		.4byte	.LASF558
 9142 0009 05       		.byte	0x5
 9143 000a 9701     		.uleb128 0x97
ARM GAS  /tmp/ccXw4jW7.s 			page 181


 9144 000c F36D0000 		.4byte	.LASF559
 9145 0010 05       		.byte	0x5
 9146 0011 9901     		.uleb128 0x99
 9147 0013 18300000 		.4byte	.LASF560
 9148 0017 05       		.byte	0x5
 9149 0018 9A01     		.uleb128 0x9a
 9150 001a DE6B0000 		.4byte	.LASF561
 9151 001e 05       		.byte	0x5
 9152 001f B002     		.uleb128 0x130
 9153 0021 475E0000 		.4byte	.LASF562
 9154 0025 05       		.byte	0x5
 9155 0026 B102     		.uleb128 0x131
 9156 0028 1A780000 		.4byte	.LASF563
 9157 002c 05       		.byte	0x5
 9158 002d B302     		.uleb128 0x133
 9159 002f D75F0000 		.4byte	.LASF564
 9160 0033 05       		.byte	0x5
 9161 0034 B402     		.uleb128 0x134
 9162 0036 B4490000 		.4byte	.LASF565
 9163 003a 05       		.byte	0x5
 9164 003b B602     		.uleb128 0x136
 9165 003d 84210000 		.4byte	.LASF566
 9166 0041 05       		.byte	0x5
 9167 0042 B702     		.uleb128 0x137
 9168 0044 9A030000 		.4byte	.LASF567
 9169 0048 05       		.byte	0x5
 9170 0049 B902     		.uleb128 0x139
 9171 004b 122A0000 		.4byte	.LASF568
 9172 004f 05       		.byte	0x5
 9173 0050 BA02     		.uleb128 0x13a
 9174 0052 73040000 		.4byte	.LASF569
 9175 0056 05       		.byte	0x5
 9176 0057 BC02     		.uleb128 0x13c
 9177 0059 603F0000 		.4byte	.LASF570
 9178 005d 05       		.byte	0x5
 9179 005e BD02     		.uleb128 0x13d
 9180 0060 D4550000 		.4byte	.LASF571
 9181 0064 05       		.byte	0x5
 9182 0065 C002     		.uleb128 0x140
 9183 0067 C5050000 		.4byte	.LASF572
 9184 006b 05       		.byte	0x5
 9185 006c C102     		.uleb128 0x141
 9186 006e 292A0000 		.4byte	.LASF573
 9187 0072 05       		.byte	0x5
 9188 0073 C302     		.uleb128 0x143
 9189 0075 D12F0000 		.4byte	.LASF574
 9190 0079 05       		.byte	0x5
 9191 007a C402     		.uleb128 0x144
 9192 007c 28660000 		.4byte	.LASF575
 9193 0080 05       		.byte	0x5
 9194 0081 C602     		.uleb128 0x146
 9195 0083 BC6C0000 		.4byte	.LASF576
 9196 0087 05       		.byte	0x5
 9197 0088 C702     		.uleb128 0x147
 9198 008a DE280000 		.4byte	.LASF577
 9199 008e 05       		.byte	0x5
 9200 008f C902     		.uleb128 0x149
ARM GAS  /tmp/ccXw4jW7.s 			page 182


 9201 0091 AC0A0000 		.4byte	.LASF578
 9202 0095 05       		.byte	0x5
 9203 0096 CA02     		.uleb128 0x14a
 9204 0098 0A070000 		.4byte	.LASF579
 9205 009c 05       		.byte	0x5
 9206 009d CC02     		.uleb128 0x14c
 9207 009f 1F490000 		.4byte	.LASF580
 9208 00a3 05       		.byte	0x5
 9209 00a4 CD02     		.uleb128 0x14d
 9210 00a6 3E470000 		.4byte	.LASF581
 9211 00aa 05       		.byte	0x5
 9212 00ab CF02     		.uleb128 0x14f
 9213 00ad E2530000 		.4byte	.LASF582
 9214 00b1 05       		.byte	0x5
 9215 00b2 D002     		.uleb128 0x150
 9216 00b4 F5390000 		.4byte	.LASF583
 9217 00b8 05       		.byte	0x5
 9218 00b9 D202     		.uleb128 0x152
 9219 00bb 16260000 		.4byte	.LASF584
 9220 00bf 05       		.byte	0x5
 9221 00c0 D302     		.uleb128 0x153
 9222 00c2 03370000 		.4byte	.LASF585
 9223 00c6 05       		.byte	0x5
 9224 00c7 D502     		.uleb128 0x155
 9225 00c9 462C0000 		.4byte	.LASF586
 9226 00cd 05       		.byte	0x5
 9227 00ce D602     		.uleb128 0x156
 9228 00d0 022D0000 		.4byte	.LASF587
 9229 00d4 05       		.byte	0x5
 9230 00d5 D802     		.uleb128 0x158
 9231 00d7 800C0000 		.4byte	.LASF588
 9232 00db 05       		.byte	0x5
 9233 00dc D902     		.uleb128 0x159
 9234 00de 731D0000 		.4byte	.LASF589
 9235 00e2 05       		.byte	0x5
 9236 00e3 DC02     		.uleb128 0x15c
 9237 00e5 E5710000 		.4byte	.LASF590
 9238 00e9 05       		.byte	0x5
 9239 00ea DD02     		.uleb128 0x15d
 9240 00ec B6340000 		.4byte	.LASF591
 9241 00f0 05       		.byte	0x5
 9242 00f1 DF02     		.uleb128 0x15f
 9243 00f3 310C0000 		.4byte	.LASF592
 9244 00f7 05       		.byte	0x5
 9245 00f8 E002     		.uleb128 0x160
 9246 00fa 5D7D0000 		.4byte	.LASF593
 9247 00fe 05       		.byte	0x5
 9248 00ff E202     		.uleb128 0x162
 9249 0101 236D0000 		.4byte	.LASF594
 9250 0105 05       		.byte	0x5
 9251 0106 E302     		.uleb128 0x163
 9252 0108 801C0000 		.4byte	.LASF595
 9253 010c 05       		.byte	0x5
 9254 010d E502     		.uleb128 0x165
 9255 010f FC2F0000 		.4byte	.LASF596
 9256 0113 05       		.byte	0x5
 9257 0114 E602     		.uleb128 0x166
ARM GAS  /tmp/ccXw4jW7.s 			page 183


 9258 0116 EA760000 		.4byte	.LASF597
 9259 011a 05       		.byte	0x5
 9260 011b E802     		.uleb128 0x168
 9261 011d 24790000 		.4byte	.LASF598
 9262 0121 05       		.byte	0x5
 9263 0122 E902     		.uleb128 0x169
 9264 0124 FE020000 		.4byte	.LASF599
 9265 0128 05       		.byte	0x5
 9266 0129 EC02     		.uleb128 0x16c
 9267 012b C1520000 		.4byte	.LASF600
 9268 012f 05       		.byte	0x5
 9269 0130 ED02     		.uleb128 0x16d
 9270 0132 AC7C0000 		.4byte	.LASF601
 9271 0136 05       		.byte	0x5
 9272 0137 EF02     		.uleb128 0x16f
 9273 0139 01270000 		.4byte	.LASF602
 9274 013d 05       		.byte	0x5
 9275 013e F002     		.uleb128 0x170
 9276 0140 E5190000 		.4byte	.LASF603
 9277 0144 05       		.byte	0x5
 9278 0145 F202     		.uleb128 0x172
 9279 0147 E7260000 		.4byte	.LASF604
 9280 014b 05       		.byte	0x5
 9281 014c F302     		.uleb128 0x173
 9282 014e 391F0000 		.4byte	.LASF605
 9283 0152 05       		.byte	0x5
 9284 0153 F602     		.uleb128 0x176
 9285 0155 F06E0000 		.4byte	.LASF606
 9286 0159 05       		.byte	0x5
 9287 015a F702     		.uleb128 0x177
 9288 015c E6140000 		.4byte	.LASF607
 9289 0160 05       		.byte	0x5
 9290 0161 F902     		.uleb128 0x179
 9291 0163 36500000 		.4byte	.LASF608
 9292 0167 05       		.byte	0x5
 9293 0168 FA02     		.uleb128 0x17a
 9294 016a 74060000 		.4byte	.LASF609
 9295 016e 05       		.byte	0x5
 9296 016f FD02     		.uleb128 0x17d
 9297 0171 BD690000 		.4byte	.LASF610
 9298 0175 05       		.byte	0x5
 9299 0176 FE02     		.uleb128 0x17e
 9300 0178 DE580000 		.4byte	.LASF611
 9301 017c 05       		.byte	0x5
 9302 017d 9403     		.uleb128 0x194
 9303 017f 912B0000 		.4byte	.LASF612
 9304 0183 05       		.byte	0x5
 9305 0184 9503     		.uleb128 0x195
 9306 0186 54190000 		.4byte	.LASF613
 9307 018a 05       		.byte	0x5
 9308 018b 9703     		.uleb128 0x197
 9309 018d E62E0000 		.4byte	.LASF614
 9310 0191 05       		.byte	0x5
 9311 0192 9803     		.uleb128 0x198
 9312 0194 53050000 		.4byte	.LASF615
 9313 0198 05       		.byte	0x5
 9314 0199 9A03     		.uleb128 0x19a
ARM GAS  /tmp/ccXw4jW7.s 			page 184


 9315 019b EE120000 		.4byte	.LASF616
 9316 019f 05       		.byte	0x5
 9317 01a0 9B03     		.uleb128 0x19b
 9318 01a2 E1600000 		.4byte	.LASF617
 9319 01a6 05       		.byte	0x5
 9320 01a7 9D03     		.uleb128 0x19d
 9321 01a9 FA270000 		.4byte	.LASF618
 9322 01ad 05       		.byte	0x5
 9323 01ae 9E03     		.uleb128 0x19e
 9324 01b0 0F670000 		.4byte	.LASF619
 9325 01b4 05       		.byte	0x5
 9326 01b5 A103     		.uleb128 0x1a1
 9327 01b7 75740000 		.4byte	.LASF620
 9328 01bb 05       		.byte	0x5
 9329 01bc A203     		.uleb128 0x1a2
 9330 01be 40650000 		.4byte	.LASF621
 9331 01c2 05       		.byte	0x5
 9332 01c3 A503     		.uleb128 0x1a5
 9333 01c5 B0570000 		.4byte	.LASF622
 9334 01c9 05       		.byte	0x5
 9335 01ca A603     		.uleb128 0x1a6
 9336 01cc 464C0000 		.4byte	.LASF623
 9337 01d0 05       		.byte	0x5
 9338 01d1 A903     		.uleb128 0x1a9
 9339 01d3 5F660000 		.4byte	.LASF624
 9340 01d7 05       		.byte	0x5
 9341 01d8 AA03     		.uleb128 0x1aa
 9342 01da 21200000 		.4byte	.LASF625
 9343 01de 05       		.byte	0x5
 9344 01df AC03     		.uleb128 0x1ac
 9345 01e1 6E0F0000 		.4byte	.LASF626
 9346 01e5 05       		.byte	0x5
 9347 01e6 AD03     		.uleb128 0x1ad
 9348 01e8 54750000 		.4byte	.LASF627
 9349 01ec 05       		.byte	0x5
 9350 01ed AF03     		.uleb128 0x1af
 9351 01ef ED380000 		.4byte	.LASF628
 9352 01f3 05       		.byte	0x5
 9353 01f4 B003     		.uleb128 0x1b0
 9354 01f6 41580000 		.4byte	.LASF629
 9355 01fa 05       		.byte	0x5
 9356 01fb C603     		.uleb128 0x1c6
 9357 01fd 47550000 		.4byte	.LASF630
 9358 0201 05       		.byte	0x5
 9359 0202 C703     		.uleb128 0x1c7
 9360 0204 154F0000 		.4byte	.LASF631
 9361 0208 05       		.byte	0x5
 9362 0209 C803     		.uleb128 0x1c8
 9363 020b BD510000 		.4byte	.LASF632
 9364 020f 05       		.byte	0x5
 9365 0210 C903     		.uleb128 0x1c9
 9366 0212 24220000 		.4byte	.LASF633
 9367 0216 05       		.byte	0x5
 9368 0217 CB03     		.uleb128 0x1cb
 9369 0219 5A610000 		.4byte	.LASF634
 9370 021d 05       		.byte	0x5
 9371 021e CC03     		.uleb128 0x1cc
ARM GAS  /tmp/ccXw4jW7.s 			page 185


 9372 0220 5A6C0000 		.4byte	.LASF635
 9373 0224 05       		.byte	0x5
 9374 0225 CD03     		.uleb128 0x1cd
 9375 0227 8A480000 		.4byte	.LASF636
 9376 022b 05       		.byte	0x5
 9377 022c E903     		.uleb128 0x1e9
 9378 022e 1C430000 		.4byte	.LASF637
 9379 0232 05       		.byte	0x5
 9380 0233 EA03     		.uleb128 0x1ea
 9381 0235 81600000 		.4byte	.LASF638
 9382 0239 05       		.byte	0x5
 9383 023a EB03     		.uleb128 0x1eb
 9384 023c FA470000 		.4byte	.LASF639
 9385 0240 00       		.byte	0
 9386              		.section	.debug_macro,"G",%progbits,wm4.chip.h.116.857da603c399e979152c31968de4baae,comdat
 9387              	.Ldebug_macro14:
 9388 0000 0400     		.2byte	0x4
 9389 0002 00       		.byte	0
 9390 0003 05       		.byte	0x5
 9391 0004 74       		.uleb128 0x74
 9392 0005 B1790000 		.4byte	.LASF640
 9393 0009 05       		.byte	0x5
 9394 000a 75       		.uleb128 0x75
 9395 000b C3010000 		.4byte	.LASF641
 9396 000f 05       		.byte	0x5
 9397 0010 76       		.uleb128 0x76
 9398 0011 5A6F0000 		.4byte	.LASF642
 9399 0015 05       		.byte	0x5
 9400 0016 77       		.uleb128 0x77
 9401 0017 B9620000 		.4byte	.LASF643
 9402 001b 05       		.byte	0x5
 9403 001c 78       		.uleb128 0x78
 9404 001d B17A0000 		.4byte	.LASF644
 9405 0021 05       		.byte	0x5
 9406 0022 79       		.uleb128 0x79
 9407 0023 04090000 		.4byte	.LASF645
 9408 0027 05       		.byte	0x5
 9409 0028 7A       		.uleb128 0x7a
 9410 0029 FC050000 		.4byte	.LASF646
 9411 002d 05       		.byte	0x5
 9412 002e 7B       		.uleb128 0x7b
 9413 002f 74250000 		.4byte	.LASF647
 9414 0033 05       		.byte	0x5
 9415 0034 7C       		.uleb128 0x7c
 9416 0035 C1710000 		.4byte	.LASF648
 9417 0039 05       		.byte	0x5
 9418 003a 7D       		.uleb128 0x7d
 9419 003b 38160000 		.4byte	.LASF649
 9420 003f 05       		.byte	0x5
 9421 0040 7E       		.uleb128 0x7e
 9422 0041 9C3F0000 		.4byte	.LASF650
 9423 0045 05       		.byte	0x5
 9424 0046 7F       		.uleb128 0x7f
 9425 0047 DC320000 		.4byte	.LASF651
 9426 004b 05       		.byte	0x5
 9427 004c 8001     		.uleb128 0x80
 9428 004e BE500000 		.4byte	.LASF652
ARM GAS  /tmp/ccXw4jW7.s 			page 186


 9429 0052 05       		.byte	0x5
 9430 0053 8101     		.uleb128 0x81
 9431 0055 E8000000 		.4byte	.LASF653
 9432 0059 05       		.byte	0x5
 9433 005a 8201     		.uleb128 0x82
 9434 005c 702F0000 		.4byte	.LASF654
 9435 0060 05       		.byte	0x5
 9436 0061 8301     		.uleb128 0x83
 9437 0063 CF7A0000 		.4byte	.LASF655
 9438 0067 05       		.byte	0x5
 9439 0068 8401     		.uleb128 0x84
 9440 006a B52E0000 		.4byte	.LASF656
 9441 006e 05       		.byte	0x5
 9442 006f 8501     		.uleb128 0x85
 9443 0071 1E6E0000 		.4byte	.LASF657
 9444 0075 05       		.byte	0x5
 9445 0076 9001     		.uleb128 0x90
 9446 0078 A6120000 		.4byte	.LASF658
 9447 007c 05       		.byte	0x5
 9448 007d 9101     		.uleb128 0x91
 9449 007f 9E510000 		.4byte	.LASF659
 9450 0083 05       		.byte	0x5
 9451 0084 9301     		.uleb128 0x93
 9452 0086 C7460000 		.4byte	.LASF660
 9453 008a 05       		.byte	0x5
 9454 008b 9401     		.uleb128 0x94
 9455 008d D4330000 		.4byte	.LASF661
 9456 0091 05       		.byte	0x5
 9457 0092 9701     		.uleb128 0x97
 9458 0094 07710000 		.4byte	.LASF662
 9459 0098 05       		.byte	0x5
 9460 0099 9801     		.uleb128 0x98
 9461 009b 50210000 		.4byte	.LASF663
 9462 009f 05       		.byte	0x5
 9463 00a0 9B01     		.uleb128 0x9b
 9464 00a2 12180000 		.4byte	.LASF664
 9465 00a6 05       		.byte	0x5
 9466 00a7 9E01     		.uleb128 0x9e
 9467 00a9 B9600000 		.4byte	.LASF665
 9468 00ad 05       		.byte	0x5
 9469 00ae 9F01     		.uleb128 0x9f
 9470 00b0 327C0000 		.4byte	.LASF666
 9471 00b4 05       		.byte	0x5
 9472 00b5 A001     		.uleb128 0xa0
 9473 00b7 6F370000 		.4byte	.LASF667
 9474 00bb 05       		.byte	0x5
 9475 00bc A101     		.uleb128 0xa1
 9476 00be 476E0000 		.4byte	.LASF668
 9477 00c2 05       		.byte	0x5
 9478 00c3 A201     		.uleb128 0xa2
 9479 00c5 0C170000 		.4byte	.LASF669
 9480 00c9 05       		.byte	0x5
 9481 00ca A301     		.uleb128 0xa3
 9482 00cc 03500000 		.4byte	.LASF670
 9483 00d0 05       		.byte	0x5
 9484 00d1 A401     		.uleb128 0xa4
 9485 00d3 FC1F0000 		.4byte	.LASF671
ARM GAS  /tmp/ccXw4jW7.s 			page 187


 9486 00d7 05       		.byte	0x5
 9487 00d8 B101     		.uleb128 0xb1
 9488 00da BE7D0000 		.4byte	.LASF672
 9489 00de 05       		.byte	0x5
 9490 00df B201     		.uleb128 0xb2
 9491 00e1 4C1D0000 		.4byte	.LASF673
 9492 00e5 05       		.byte	0x5
 9493 00e6 B301     		.uleb128 0xb3
 9494 00e8 F6320000 		.4byte	.LASF674
 9495 00ec 05       		.byte	0x5
 9496 00ed B401     		.uleb128 0xb4
 9497 00ef 2B110000 		.4byte	.LASF675
 9498 00f3 05       		.byte	0x5
 9499 00f4 B501     		.uleb128 0xb5
 9500 00f6 A0240000 		.4byte	.LASF676
 9501 00fa 05       		.byte	0x5
 9502 00fb B701     		.uleb128 0xb7
 9503 00fd 1F3F0000 		.4byte	.LASF677
 9504 0101 05       		.byte	0x5
 9505 0102 B801     		.uleb128 0xb8
 9506 0104 D6130000 		.4byte	.LASF678
 9507 0108 05       		.byte	0x5
 9508 0109 BA01     		.uleb128 0xba
 9509 010b 78510000 		.4byte	.LASF679
 9510 010f 05       		.byte	0x5
 9511 0110 C101     		.uleb128 0xc1
 9512 0112 43220000 		.4byte	.LASF680
 9513 0116 05       		.byte	0x5
 9514 0117 C401     		.uleb128 0xc4
 9515 0119 9D3D0000 		.4byte	.LASF681
 9516 011d 00       		.byte	0
 9517              		.section	.debug_macro,"G",%progbits,wm4.pmu_11xx.h.33.1d6b708881441cb98d19b8bab3caa180,comdat
 9518              	.Ldebug_macro15:
 9519 0000 0400     		.2byte	0x4
 9520 0002 00       		.byte	0
 9521 0003 05       		.byte	0x5
 9522 0004 21       		.uleb128 0x21
 9523 0005 D74F0000 		.4byte	.LASF682
 9524 0009 05       		.byte	0x5
 9525 000a 4D       		.uleb128 0x4d
 9526 000b 446B0000 		.4byte	.LASF683
 9527 000f 05       		.byte	0x5
 9528 0010 53       		.uleb128 0x53
 9529 0011 35350000 		.4byte	.LASF684
 9530 0015 05       		.byte	0x5
 9531 0016 55       		.uleb128 0x55
 9532 0017 AB740000 		.4byte	.LASF685
 9533 001b 05       		.byte	0x5
 9534 001c 56       		.uleb128 0x56
 9535 001d 63700000 		.4byte	.LASF686
 9536 0021 00       		.byte	0
 9537              		.section	.debug_macro,"G",%progbits,wm4.sysctl_11xx.h.33.ae61a1181e608f8409883008e291930c,comdat
 9538              	.Ldebug_macro16:
 9539 0000 0400     		.2byte	0x4
 9540 0002 00       		.byte	0
 9541 0003 05       		.byte	0x5
 9542 0004 21       		.uleb128 0x21
ARM GAS  /tmp/ccXw4jW7.s 			page 188


 9543 0005 45720000 		.4byte	.LASF688
 9544 0009 05       		.byte	0x5
 9545 000a BC01     		.uleb128 0xbc
 9546 000c E6010000 		.4byte	.LASF689
 9547 0010 05       		.byte	0x5
 9548 0011 BD01     		.uleb128 0xbd
 9549 0013 17080000 		.4byte	.LASF690
 9550 0017 05       		.byte	0x5
 9551 0018 BE01     		.uleb128 0xbe
 9552 001a 582F0000 		.4byte	.LASF691
 9553 001e 05       		.byte	0x5
 9554 001f BF01     		.uleb128 0xbf
 9555 0021 2D720000 		.4byte	.LASF692
 9556 0025 05       		.byte	0x5
 9557 0026 C001     		.uleb128 0xc0
 9558 0028 E6630000 		.4byte	.LASF693
 9559 002c 05       		.byte	0x5
 9560 002d C501     		.uleb128 0xc5
 9561 002f D60E0000 		.4byte	.LASF694
 9562 0033 05       		.byte	0x5
 9563 0034 A904     		.uleb128 0x229
 9564 0036 DB270000 		.4byte	.LASF695
 9565 003a 05       		.byte	0x5
 9566 003b AA04     		.uleb128 0x22a
 9567 003d F05F0000 		.4byte	.LASF696
 9568 0041 05       		.byte	0x5
 9569 0042 C904     		.uleb128 0x249
 9570 0044 5F730000 		.4byte	.LASF697
 9571 0048 05       		.byte	0x5
 9572 0049 CA04     		.uleb128 0x24a
 9573 004b A5770000 		.4byte	.LASF698
 9574 004f 05       		.byte	0x5
 9575 0050 CB04     		.uleb128 0x24b
 9576 0052 2A390000 		.4byte	.LASF699
 9577 0056 05       		.byte	0x5
 9578 0057 CC04     		.uleb128 0x24c
 9579 0059 59100000 		.4byte	.LASF700
 9580 005d 05       		.byte	0x5
 9581 005e CD04     		.uleb128 0x24d
 9582 0060 0F5C0000 		.4byte	.LASF701
 9583 0064 05       		.byte	0x5
 9584 0065 CE04     		.uleb128 0x24e
 9585 0067 F4410000 		.4byte	.LASF702
 9586 006b 05       		.byte	0x5
 9587 006c CF04     		.uleb128 0x24f
 9588 006e 3E6D0000 		.4byte	.LASF703
 9589 0072 05       		.byte	0x5
 9590 0073 D004     		.uleb128 0x250
 9591 0075 995F0000 		.4byte	.LASF704
 9592 0079 05       		.byte	0x5
 9593 007a F104     		.uleb128 0x271
 9594 007c CE720000 		.4byte	.LASF705
 9595 0080 05       		.byte	0x5
 9596 0081 F204     		.uleb128 0x272
 9597 0083 4D0F0000 		.4byte	.LASF706
 9598 0087 05       		.byte	0x5
 9599 0088 F304     		.uleb128 0x273
ARM GAS  /tmp/ccXw4jW7.s 			page 189


 9600 008a 4F1B0000 		.4byte	.LASF707
 9601 008e 05       		.byte	0x5
 9602 008f F504     		.uleb128 0x275
 9603 0091 A3470000 		.4byte	.LASF708
 9604 0095 05       		.byte	0x5
 9605 0096 F704     		.uleb128 0x277
 9606 0098 284A0000 		.4byte	.LASF709
 9607 009c 05       		.byte	0x5
 9608 009d F804     		.uleb128 0x278
 9609 009f DE0A0000 		.4byte	.LASF710
 9610 00a3 05       		.byte	0x5
 9611 00a4 F904     		.uleb128 0x279
 9612 00a6 E3480000 		.4byte	.LASF711
 9613 00aa 05       		.byte	0x5
 9614 00ab FA04     		.uleb128 0x27a
 9615 00ad 814E0000 		.4byte	.LASF712
 9616 00b1 00       		.byte	0
 9617              		.section	.debug_macro,"G",%progbits,wm4.clock_11xx.h.33.23290a9e2ed919e3a6958d25130bc848,comdat
 9618              	.Ldebug_macro17:
 9619 0000 0400     		.2byte	0x4
 9620 0002 00       		.byte	0
 9621 0003 05       		.byte	0x5
 9622 0004 21       		.uleb128 0x21
 9623 0005 F73F0000 		.4byte	.LASF713
 9624 0009 05       		.byte	0x5
 9625 000a 2D       		.uleb128 0x2d
 9626 000b BB650000 		.4byte	.LASF714
 9627 000f 00       		.byte	0
 9628              		.section	.debug_macro,"G",%progbits,wm4.iocon_11xx.h.33.25e2b3cde122df23fb07b984cb4f3a93,comdat
 9629              	.Ldebug_macro18:
 9630 0000 0400     		.2byte	0x4
 9631 0002 00       		.byte	0
 9632 0003 05       		.byte	0x5
 9633 0004 21       		.uleb128 0x21
 9634 0005 BB2D0000 		.4byte	.LASF715
 9635 0009 05       		.byte	0x5
 9636 000a A601     		.uleb128 0xa6
 9637 000c 7A360000 		.4byte	.LASF716
 9638 0010 05       		.byte	0x5
 9639 0011 A701     		.uleb128 0xa7
 9640 0013 EA090000 		.4byte	.LASF717
 9641 0017 05       		.byte	0x5
 9642 0018 A801     		.uleb128 0xa8
 9643 001a 21190000 		.4byte	.LASF718
 9644 001e 05       		.byte	0x5
 9645 001f A901     		.uleb128 0xa9
 9646 0021 5A620000 		.4byte	.LASF719
 9647 0025 05       		.byte	0x5
 9648 0026 AA01     		.uleb128 0xaa
 9649 0028 EA4E0000 		.4byte	.LASF720
 9650 002c 05       		.byte	0x5
 9651 002d AB01     		.uleb128 0xab
 9652 002f 063C0000 		.4byte	.LASF721
 9653 0033 05       		.byte	0x5
 9654 0034 AC01     		.uleb128 0xac
 9655 0036 D7260000 		.4byte	.LASF722
 9656 003a 05       		.byte	0x5
ARM GAS  /tmp/ccXw4jW7.s 			page 190


 9657 003b AD01     		.uleb128 0xad
 9658 003d 28160000 		.4byte	.LASF723
 9659 0041 05       		.byte	0x5
 9660 0042 AE01     		.uleb128 0xae
 9661 0044 DB690000 		.4byte	.LASF724
 9662 0048 05       		.byte	0x5
 9663 0049 AF01     		.uleb128 0xaf
 9664 004b 90500000 		.4byte	.LASF725
 9665 004f 05       		.byte	0x5
 9666 0050 B001     		.uleb128 0xb0
 9667 0052 23640000 		.4byte	.LASF726
 9668 0056 05       		.byte	0x5
 9669 0057 B101     		.uleb128 0xb1
 9670 0059 B1760000 		.4byte	.LASF727
 9671 005d 05       		.byte	0x5
 9672 005e B201     		.uleb128 0xb2
 9673 0060 D9520000 		.4byte	.LASF728
 9674 0064 05       		.byte	0x5
 9675 0065 B301     		.uleb128 0xb3
 9676 0067 C5220000 		.4byte	.LASF729
 9677 006b 05       		.byte	0x5
 9678 006c B401     		.uleb128 0xb4
 9679 006e 6A570000 		.4byte	.LASF730
 9680 0072 05       		.byte	0x5
 9681 0073 B501     		.uleb128 0xb5
 9682 0075 BB5F0000 		.4byte	.LASF731
 9683 0079 05       		.byte	0x5
 9684 007a B601     		.uleb128 0xb6
 9685 007c 2E420000 		.4byte	.LASF732
 9686 0080 05       		.byte	0x5
 9687 0081 B701     		.uleb128 0xb7
 9688 0083 DC680000 		.4byte	.LASF733
 9689 0087 05       		.byte	0x5
 9690 0088 B801     		.uleb128 0xb8
 9691 008a A1690000 		.4byte	.LASF734
 9692 008e 05       		.byte	0x5
 9693 008f B901     		.uleb128 0xb9
 9694 0091 54240000 		.4byte	.LASF735
 9695 0095 05       		.byte	0x5
 9696 0096 BA01     		.uleb128 0xba
 9697 0098 34150000 		.4byte	.LASF736
 9698 009c 05       		.byte	0x5
 9699 009d C001     		.uleb128 0xc0
 9700 009f E60B0000 		.4byte	.LASF737
 9701 00a3 05       		.byte	0x5
 9702 00a4 C101     		.uleb128 0xc1
 9703 00a6 EC6B0000 		.4byte	.LASF738
 9704 00aa 05       		.byte	0x5
 9705 00ab C201     		.uleb128 0xc2
 9706 00ad 66640000 		.4byte	.LASF739
 9707 00b1 05       		.byte	0x5
 9708 00b2 C301     		.uleb128 0xc3
 9709 00b4 BC180000 		.4byte	.LASF740
 9710 00b8 05       		.byte	0x5
 9711 00b9 C401     		.uleb128 0xc4
 9712 00bb 881F0000 		.4byte	.LASF741
 9713 00bf 05       		.byte	0x5
ARM GAS  /tmp/ccXw4jW7.s 			page 191


 9714 00c0 C501     		.uleb128 0xc5
 9715 00c2 733B0000 		.4byte	.LASF742
 9716 00c6 05       		.byte	0x5
 9717 00c7 C601     		.uleb128 0xc6
 9718 00c9 A7180000 		.4byte	.LASF743
 9719 00cd 05       		.byte	0x5
 9720 00ce C701     		.uleb128 0xc7
 9721 00d0 EB490000 		.4byte	.LASF744
 9722 00d4 05       		.byte	0x5
 9723 00d5 C801     		.uleb128 0xc8
 9724 00d7 DF160000 		.4byte	.LASF745
 9725 00db 05       		.byte	0x5
 9726 00dc C901     		.uleb128 0xc9
 9727 00de CA580000 		.4byte	.LASF746
 9728 00e2 05       		.byte	0x5
 9729 00e3 CA01     		.uleb128 0xca
 9730 00e5 704A0000 		.4byte	.LASF747
 9731 00e9 05       		.byte	0x5
 9732 00ea CB01     		.uleb128 0xcb
 9733 00ec BF230000 		.4byte	.LASF748
 9734 00f0 05       		.byte	0x5
 9735 00f1 CC01     		.uleb128 0xcc
 9736 00f3 02470000 		.4byte	.LASF749
 9737 00f7 05       		.byte	0x5
 9738 00f8 CD01     		.uleb128 0xcd
 9739 00fa 42710000 		.4byte	.LASF750
 9740 00fe 05       		.byte	0x5
 9741 00ff CE01     		.uleb128 0xce
 9742 0101 F2720000 		.4byte	.LASF751
 9743 0105 05       		.byte	0x5
 9744 0106 CF01     		.uleb128 0xcf
 9745 0108 23570000 		.4byte	.LASF752
 9746 010c 05       		.byte	0x5
 9747 010d D001     		.uleb128 0xd0
 9748 010f C1610000 		.4byte	.LASF753
 9749 0113 05       		.byte	0x5
 9750 0114 D101     		.uleb128 0xd1
 9751 0116 774E0000 		.4byte	.LASF754
 9752 011a 05       		.byte	0x5
 9753 011b D201     		.uleb128 0xd2
 9754 011d 66410000 		.4byte	.LASF755
 9755 0121 05       		.byte	0x5
 9756 0122 D301     		.uleb128 0xd3
 9757 0124 66260000 		.4byte	.LASF756
 9758 0128 05       		.byte	0x5
 9759 0129 D401     		.uleb128 0xd4
 9760 012b 74330000 		.4byte	.LASF757
 9761 012f 05       		.byte	0x5
 9762 0130 D501     		.uleb128 0xd5
 9763 0132 AC7D0000 		.4byte	.LASF758
 9764 0136 00       		.byte	0
 9765              		.section	.debug_macro,"G",%progbits,wm4.timer_11xx.h.33.c92f50a9325789ee6a8ffd6248980d70,comdat
 9766              	.Ldebug_macro19:
 9767 0000 0400     		.2byte	0x4
 9768 0002 00       		.byte	0
 9769 0003 05       		.byte	0x5
 9770 0004 21       		.uleb128 0x21
ARM GAS  /tmp/ccXw4jW7.s 			page 192


 9771 0005 AD720000 		.4byte	.LASF759
 9772 0009 05       		.byte	0x5
 9773 000a 40       		.uleb128 0x40
 9774 000b 70090000 		.4byte	.LASF760
 9775 000f 05       		.byte	0x5
 9776 0010 43       		.uleb128 0x43
 9777 0011 55380000 		.4byte	.LASF761
 9778 0015 05       		.byte	0x5
 9779 0016 45       		.uleb128 0x45
 9780 0017 EA2D0000 		.4byte	.LASF762
 9781 001b 05       		.byte	0x5
 9782 001c 48       		.uleb128 0x48
 9783 001d C6100000 		.4byte	.LASF763
 9784 0021 05       		.byte	0x5
 9785 0022 4A       		.uleb128 0x4a
 9786 0023 CF7E0000 		.4byte	.LASF764
 9787 0027 05       		.byte	0x5
 9788 0028 4D       		.uleb128 0x4d
 9789 0029 94000000 		.4byte	.LASF765
 9790 002d 05       		.byte	0x5
 9791 002e 4F       		.uleb128 0x4f
 9792 002f 5C2D0000 		.4byte	.LASF766
 9793 0033 05       		.byte	0x5
 9794 0034 51       		.uleb128 0x51
 9795 0035 7F5D0000 		.4byte	.LASF767
 9796 0039 05       		.byte	0x5
 9797 003a 54       		.uleb128 0x54
 9798 003b 18470000 		.4byte	.LASF768
 9799 003f 05       		.byte	0x5
 9800 0040 56       		.uleb128 0x56
 9801 0041 D6450000 		.4byte	.LASF769
 9802 0045 05       		.byte	0x5
 9803 0046 58       		.uleb128 0x58
 9804 0047 B87B0000 		.4byte	.LASF770
 9805 004b 00       		.byte	0
 9806              		.section	.debug_macro,"G",%progbits,wm4.ring_buffer.h.33.2f271415f1f27d60350fb4738c5cbee6,comdat
 9807              	.Ldebug_macro20:
 9808 0000 0400     		.2byte	0x4
 9809 0002 00       		.byte	0
 9810 0003 05       		.byte	0x5
 9811 0004 21       		.uleb128 0x21
 9812 0005 2E540000 		.4byte	.LASF772
 9813 0009 05       		.byte	0x5
 9814 000a 3A       		.uleb128 0x3a
 9815 000b A36D0000 		.4byte	.LASF773
 9816 000f 05       		.byte	0x5
 9817 0010 41       		.uleb128 0x41
 9818 0011 10320000 		.4byte	.LASF774
 9819 0015 00       		.byte	0
 9820              		.section	.debug_macro,"G",%progbits,wm4.uart_11xx.h.98.fe68b709973730a4fba3f3ce60c5c312,comdat
 9821              	.Ldebug_macro21:
 9822 0000 0400     		.2byte	0x4
 9823 0002 00       		.byte	0
 9824 0003 05       		.byte	0x5
 9825 0004 62       		.uleb128 0x62
 9826 0005 BC410000 		.4byte	.LASF775
 9827 0009 05       		.byte	0x5
ARM GAS  /tmp/ccXw4jW7.s 			page 193


 9828 000a 67       		.uleb128 0x67
 9829 000b B2550000 		.4byte	.LASF776
 9830 000f 05       		.byte	0x5
 9831 0010 68       		.uleb128 0x68
 9832 0011 FB740000 		.4byte	.LASF777
 9833 0015 05       		.byte	0x5
 9834 0016 6D       		.uleb128 0x6d
 9835 0017 CA570000 		.4byte	.LASF778
 9836 001b 05       		.byte	0x5
 9837 001c 6E       		.uleb128 0x6e
 9838 001d 622C0000 		.4byte	.LASF779
 9839 0021 05       		.byte	0x5
 9840 0022 73       		.uleb128 0x73
 9841 0023 F3570000 		.4byte	.LASF780
 9842 0027 05       		.byte	0x5
 9843 0028 74       		.uleb128 0x74
 9844 0029 CB4C0000 		.4byte	.LASF781
 9845 002d 05       		.byte	0x5
 9846 002e 75       		.uleb128 0x75
 9847 002f 3D480000 		.4byte	.LASF782
 9848 0033 05       		.byte	0x5
 9849 0034 76       		.uleb128 0x76
 9850 0035 785B0000 		.4byte	.LASF783
 9851 0039 05       		.byte	0x5
 9852 003a 77       		.uleb128 0x77
 9853 003b 146B0000 		.4byte	.LASF784
 9854 003f 05       		.byte	0x5
 9855 0040 78       		.uleb128 0x78
 9856 0041 942A0000 		.4byte	.LASF785
 9857 0045 05       		.byte	0x5
 9858 0046 79       		.uleb128 0x79
 9859 0047 FE6B0000 		.4byte	.LASF786
 9860 004b 05       		.byte	0x5
 9861 004c 7A       		.uleb128 0x7a
 9862 004d AD100000 		.4byte	.LASF787
 9863 0051 05       		.byte	0x5
 9864 0052 7B       		.uleb128 0x7b
 9865 0053 851A0000 		.4byte	.LASF788
 9866 0057 05       		.byte	0x5
 9867 0058 7C       		.uleb128 0x7c
 9868 0059 470A0000 		.4byte	.LASF789
 9869 005d 05       		.byte	0x5
 9870 005e 8101     		.uleb128 0x81
 9871 0060 21450000 		.4byte	.LASF790
 9872 0064 05       		.byte	0x5
 9873 0065 8201     		.uleb128 0x82
 9874 0067 5A330000 		.4byte	.LASF791
 9875 006b 05       		.byte	0x5
 9876 006c 8301     		.uleb128 0x83
 9877 006e 412D0000 		.4byte	.LASF792
 9878 0072 05       		.byte	0x5
 9879 0073 8401     		.uleb128 0x84
 9880 0075 467F0000 		.4byte	.LASF793
 9881 0079 05       		.byte	0x5
 9882 007a 8501     		.uleb128 0x85
 9883 007c 19270000 		.4byte	.LASF794
 9884 0080 05       		.byte	0x5
ARM GAS  /tmp/ccXw4jW7.s 			page 194


 9885 0081 8801     		.uleb128 0x88
 9886 0083 F11A0000 		.4byte	.LASF795
 9887 0087 05       		.byte	0x5
 9888 0088 8901     		.uleb128 0x89
 9889 008a 12600000 		.4byte	.LASF796
 9890 008e 05       		.byte	0x5
 9891 008f 8A01     		.uleb128 0x8a
 9892 0091 E96F0000 		.4byte	.LASF797
 9893 0095 05       		.byte	0x5
 9894 0096 8B01     		.uleb128 0x8b
 9895 0098 55350000 		.4byte	.LASF798
 9896 009c 05       		.byte	0x5
 9897 009d 8C01     		.uleb128 0x8c
 9898 009f FA510000 		.4byte	.LASF799
 9899 00a3 05       		.byte	0x5
 9900 00a4 8D01     		.uleb128 0x8d
 9901 00a6 0E0C0000 		.4byte	.LASF800
 9902 00aa 05       		.byte	0x5
 9903 00ab 9201     		.uleb128 0x92
 9904 00ad 07190000 		.4byte	.LASF801
 9905 00b1 05       		.byte	0x5
 9906 00b2 9301     		.uleb128 0x93
 9907 00b4 ED6A0000 		.4byte	.LASF802
 9908 00b8 05       		.byte	0x5
 9909 00b9 9401     		.uleb128 0x94
 9910 00bb 62360000 		.4byte	.LASF803
 9911 00bf 05       		.byte	0x5
 9912 00c0 9501     		.uleb128 0x95
 9913 00c2 F7690000 		.4byte	.LASF804
 9914 00c6 05       		.byte	0x5
 9915 00c7 9601     		.uleb128 0x96
 9916 00c9 0C220000 		.4byte	.LASF805
 9917 00cd 05       		.byte	0x5
 9918 00ce 9801     		.uleb128 0x98
 9919 00d0 000F0000 		.4byte	.LASF806
 9920 00d4 05       		.byte	0x5
 9921 00d5 9B01     		.uleb128 0x9b
 9922 00d7 4E0C0000 		.4byte	.LASF807
 9923 00db 05       		.byte	0x5
 9924 00dc 9C01     		.uleb128 0x9c
 9925 00de C2110000 		.4byte	.LASF808
 9926 00e2 05       		.byte	0x5
 9927 00e3 9D01     		.uleb128 0x9d
 9928 00e5 542B0000 		.4byte	.LASF809
 9929 00e9 05       		.byte	0x5
 9930 00ea 9E01     		.uleb128 0x9e
 9931 00ec E53E0000 		.4byte	.LASF810
 9932 00f0 05       		.byte	0x5
 9933 00f1 A401     		.uleb128 0xa4
 9934 00f3 4A280000 		.4byte	.LASF811
 9935 00f7 05       		.byte	0x5
 9936 00f8 A501     		.uleb128 0xa5
 9937 00fa 4E640000 		.4byte	.LASF812
 9938 00fe 05       		.byte	0x5
 9939 00ff A601     		.uleb128 0xa6
 9940 0101 DA540000 		.4byte	.LASF813
 9941 0105 05       		.byte	0x5
ARM GAS  /tmp/ccXw4jW7.s 			page 195


 9942 0106 A701     		.uleb128 0xa7
 9943 0108 622A0000 		.4byte	.LASF814
 9944 010c 05       		.byte	0x5
 9945 010d A801     		.uleb128 0xa8
 9946 010f 0E340000 		.4byte	.LASF815
 9947 0113 05       		.byte	0x5
 9948 0114 AB01     		.uleb128 0xab
 9949 0116 0B230000 		.4byte	.LASF816
 9950 011a 05       		.byte	0x5
 9951 011b AC01     		.uleb128 0xac
 9952 011d F17E0000 		.4byte	.LASF817
 9953 0121 05       		.byte	0x5
 9954 0122 AD01     		.uleb128 0xad
 9955 0124 0D4C0000 		.4byte	.LASF818
 9956 0128 05       		.byte	0x5
 9957 0129 B001     		.uleb128 0xb0
 9958 012b 4B440000 		.4byte	.LASF819
 9959 012f 05       		.byte	0x5
 9960 0130 B101     		.uleb128 0xb1
 9961 0132 384F0000 		.4byte	.LASF820
 9962 0136 05       		.byte	0x5
 9963 0137 B201     		.uleb128 0xb2
 9964 0139 3C510000 		.4byte	.LASF821
 9965 013d 05       		.byte	0x5
 9966 013e B301     		.uleb128 0xb3
 9967 0140 AC6B0000 		.4byte	.LASF822
 9968 0144 05       		.byte	0x5
 9969 0145 B401     		.uleb128 0xb4
 9970 0147 2E440000 		.4byte	.LASF823
 9971 014b 05       		.byte	0x5
 9972 014c B501     		.uleb128 0xb5
 9973 014e DF1F0000 		.4byte	.LASF824
 9974 0152 05       		.byte	0x5
 9975 0153 B601     		.uleb128 0xb6
 9976 0155 E3020000 		.4byte	.LASF825
 9977 0159 05       		.byte	0x5
 9978 015a B701     		.uleb128 0xb7
 9979 015c B01D0000 		.4byte	.LASF826
 9980 0160 05       		.byte	0x5
 9981 0161 B801     		.uleb128 0xb8
 9982 0163 8C410000 		.4byte	.LASF827
 9983 0167 05       		.byte	0x5
 9984 0168 BD01     		.uleb128 0xbd
 9985 016a F1040000 		.4byte	.LASF828
 9986 016e 05       		.byte	0x5
 9987 016f BE01     		.uleb128 0xbe
 9988 0171 91150000 		.4byte	.LASF829
 9989 0175 05       		.byte	0x5
 9990 0176 BF01     		.uleb128 0xbf
 9991 0178 6B180000 		.4byte	.LASF830
 9992 017c 05       		.byte	0x5
 9993 017d C001     		.uleb128 0xc0
 9994 017f DD110000 		.4byte	.LASF831
 9995 0183 05       		.byte	0x5
 9996 0184 C101     		.uleb128 0xc1
 9997 0186 1F040000 		.4byte	.LASF832
 9998 018a 05       		.byte	0x5
ARM GAS  /tmp/ccXw4jW7.s 			page 196


 9999 018b C201     		.uleb128 0xc2
 10000 018d 5F0B0000 		.4byte	.LASF833
 10001 0191 05       		.byte	0x5
 10002 0192 C701     		.uleb128 0xc7
 10003 0194 154B0000 		.4byte	.LASF834
 10004 0198 05       		.byte	0x5
 10005 0199 C801     		.uleb128 0xc8
 10006 019b 49760000 		.4byte	.LASF835
 10007 019f 05       		.byte	0x5
 10008 01a0 C901     		.uleb128 0xc9
 10009 01a2 FC1C0000 		.4byte	.LASF836
 10010 01a6 05       		.byte	0x5
 10011 01a7 CA01     		.uleb128 0xca
 10012 01a9 BC360000 		.4byte	.LASF837
 10013 01ad 05       		.byte	0x5
 10014 01ae CB01     		.uleb128 0xcb
 10015 01b0 F6220000 		.4byte	.LASF838
 10016 01b4 05       		.byte	0x5
 10017 01b5 CC01     		.uleb128 0xcc
 10018 01b7 52430000 		.4byte	.LASF839
 10019 01bb 05       		.byte	0x5
 10020 01bc CD01     		.uleb128 0xcd
 10021 01be 8C470000 		.4byte	.LASF840
 10022 01c2 05       		.byte	0x5
 10023 01c3 CE01     		.uleb128 0xce
 10024 01c5 166F0000 		.4byte	.LASF841
 10025 01c9 05       		.byte	0x5
 10026 01ca CF01     		.uleb128 0xcf
 10027 01cc 7B070000 		.4byte	.LASF842
 10028 01d0 05       		.byte	0x5
 10029 01d1 D001     		.uleb128 0xd0
 10030 01d3 8D0D0000 		.4byte	.LASF843
 10031 01d7 05       		.byte	0x5
 10032 01d8 D101     		.uleb128 0xd1
 10033 01da CB3E0000 		.4byte	.LASF844
 10034 01de 05       		.byte	0x5
 10035 01df D601     		.uleb128 0xd6
 10036 01e1 E6460000 		.4byte	.LASF845
 10037 01e5 05       		.byte	0x5
 10038 01e6 D701     		.uleb128 0xd7
 10039 01e8 1E730000 		.4byte	.LASF846
 10040 01ec 05       		.byte	0x5
 10041 01ed D801     		.uleb128 0xd8
 10042 01ef 3F310000 		.4byte	.LASF847
 10043 01f3 05       		.byte	0x5
 10044 01f4 D901     		.uleb128 0xd9
 10045 01f6 69430000 		.4byte	.LASF848
 10046 01fa 05       		.byte	0x5
 10047 01fb DA01     		.uleb128 0xda
 10048 01fd BA7F0000 		.4byte	.LASF849
 10049 0201 05       		.byte	0x5
 10050 0202 DB01     		.uleb128 0xdb
 10051 0204 0D570000 		.4byte	.LASF850
 10052 0208 05       		.byte	0x5
 10053 0209 DC01     		.uleb128 0xdc
 10054 020b 1C610000 		.4byte	.LASF851
 10055 020f 05       		.byte	0x5
ARM GAS  /tmp/ccXw4jW7.s 			page 197


 10056 0210 DD01     		.uleb128 0xdd
 10057 0212 177E0000 		.4byte	.LASF852
 10058 0216 05       		.byte	0x5
 10059 0217 DE01     		.uleb128 0xde
 10060 0219 051E0000 		.4byte	.LASF853
 10061 021d 05       		.byte	0x5
 10062 021e E301     		.uleb128 0xe3
 10063 0220 BD310000 		.4byte	.LASF854
 10064 0224 05       		.byte	0x5
 10065 0225 E401     		.uleb128 0xe4
 10066 0227 FB440000 		.4byte	.LASF855
 10067 022b 05       		.byte	0x5
 10068 022c E501     		.uleb128 0xe5
 10069 022e 04620000 		.4byte	.LASF856
 10070 0232 05       		.byte	0x5
 10071 0233 E601     		.uleb128 0xe6
 10072 0235 7A4B0000 		.4byte	.LASF857
 10073 0239 05       		.byte	0x5
 10074 023a E701     		.uleb128 0xe7
 10075 023c 7B260000 		.4byte	.LASF858
 10076 0240 05       		.byte	0x5
 10077 0241 E801     		.uleb128 0xe8
 10078 0243 D8040000 		.4byte	.LASF859
 10079 0247 05       		.byte	0x5
 10080 0248 ED01     		.uleb128 0xed
 10081 024a 003F0000 		.4byte	.LASF860
 10082 024e 05       		.byte	0x5
 10083 024f EE01     		.uleb128 0xee
 10084 0251 34120000 		.4byte	.LASF861
 10085 0255 05       		.byte	0x5
 10086 0256 EF01     		.uleb128 0xef
 10087 0258 1A1B0000 		.4byte	.LASF862
 10088 025c 05       		.byte	0x5
 10089 025d F001     		.uleb128 0xf0
 10090 025f 37180000 		.4byte	.LASF863
 10091 0263 05       		.byte	0x5
 10092 0264 F201     		.uleb128 0xf2
 10093 0266 BA4A0000 		.4byte	.LASF864
 10094 026a 05       		.byte	0x5
 10095 026b F301     		.uleb128 0xf3
 10096 026d 7A4F0000 		.4byte	.LASF865
 10097 0271 05       		.byte	0x5
 10098 0272 F601     		.uleb128 0xf6
 10099 0274 284C0000 		.4byte	.LASF866
 10100 0278 05       		.byte	0x5
 10101 0279 FB01     		.uleb128 0xfb
 10102 027b 261E0000 		.4byte	.LASF867
 10103 027f 05       		.byte	0x5
 10104 0280 FC01     		.uleb128 0xfc
 10105 0282 4E370000 		.4byte	.LASF868
 10106 0286 05       		.byte	0x5
 10107 0287 FD01     		.uleb128 0xfd
 10108 0289 C9790000 		.4byte	.LASF869
 10109 028d 05       		.byte	0x5
 10110 028e FE01     		.uleb128 0xfe
 10111 0290 D51C0000 		.4byte	.LASF870
 10112 0294 05       		.byte	0x5
ARM GAS  /tmp/ccXw4jW7.s 			page 198


 10113 0295 FF01     		.uleb128 0xff
 10114 0297 CE0B0000 		.4byte	.LASF871
 10115 029b 05       		.byte	0x5
 10116 029c 8402     		.uleb128 0x104
 10117 029e 463F0000 		.4byte	.LASF872
 10118 02a2 05       		.byte	0x5
 10119 02a3 8902     		.uleb128 0x109
 10120 02a5 85430000 		.4byte	.LASF873
 10121 02a9 05       		.byte	0x5
 10122 02aa 8A02     		.uleb128 0x10a
 10123 02ac 3D740000 		.4byte	.LASF874
 10124 02b0 05       		.byte	0x5
 10125 02b1 8B02     		.uleb128 0x10b
 10126 02b3 D5310000 		.4byte	.LASF875
 10127 02b7 05       		.byte	0x5
 10128 02b8 8C02     		.uleb128 0x10c
 10129 02ba 57600000 		.4byte	.LASF876
 10130 02be 05       		.byte	0x5
 10131 02bf 8D02     		.uleb128 0x10d
 10132 02c1 3D320000 		.4byte	.LASF877
 10133 02c5 05       		.byte	0x5
 10134 02c6 9202     		.uleb128 0x112
 10135 02c8 332B0000 		.4byte	.LASF878
 10136 02cc 05       		.byte	0x5
 10137 02cd 9302     		.uleb128 0x113
 10138 02cf EA660000 		.4byte	.LASF879
 10139 02d3 05       		.byte	0x5
 10140 02d4 9402     		.uleb128 0x114
 10141 02d6 066E0000 		.4byte	.LASF880
 10142 02da 05       		.byte	0x5
 10143 02db 9902     		.uleb128 0x119
 10144 02dd 41100000 		.4byte	.LASF881
 10145 02e1 05       		.byte	0x5
 10146 02e2 9A02     		.uleb128 0x11a
 10147 02e4 F2060000 		.4byte	.LASF882
 10148 02e8 05       		.byte	0x5
 10149 02e9 9F02     		.uleb128 0x11f
 10150 02eb 945E0000 		.4byte	.LASF883
 10151 02ef 05       		.byte	0x5
 10152 02f0 A002     		.uleb128 0x120
 10153 02f2 07390000 		.4byte	.LASF884
 10154 02f6 05       		.byte	0x5
 10155 02f7 A102     		.uleb128 0x121
 10156 02f9 15530000 		.4byte	.LASF885
 10157 02fd 05       		.byte	0x5
 10158 02fe A202     		.uleb128 0x122
 10159 0300 D25E0000 		.4byte	.LASF886
 10160 0304 05       		.byte	0x5
 10161 0305 A302     		.uleb128 0x123
 10162 0307 9E540000 		.4byte	.LASF887
 10163 030b 05       		.byte	0x5
 10164 030c A402     		.uleb128 0x124
 10165 030e 327B0000 		.4byte	.LASF888
 10166 0312 05       		.byte	0x5
 10167 0313 A502     		.uleb128 0x125
 10168 0315 B3560000 		.4byte	.LASF889
 10169 0319 00       		.byte	0
ARM GAS  /tmp/ccXw4jW7.s 			page 199


 10170              		.section	.debug_macro,"G",%progbits,wm4.wwdt_11xx.h.33.5768344983cb842df69cc91ea86cabb0,comdat
 10171              	.Ldebug_macro22:
 10172 0000 0400     		.2byte	0x4
 10173 0002 00       		.byte	0
 10174 0003 05       		.byte	0x5
 10175 0004 21       		.uleb128 0x21
 10176 0005 56110000 		.4byte	.LASF890
 10177 0009 05       		.byte	0x5
 10178 000a 4B       		.uleb128 0x4b
 10179 000b 1B680000 		.4byte	.LASF891
 10180 000f 05       		.byte	0x5
 10181 0010 4D       		.uleb128 0x4d
 10182 0011 55010000 		.4byte	.LASF892
 10183 0015 05       		.byte	0x5
 10184 0016 4F       		.uleb128 0x4f
 10185 0017 EE590000 		.4byte	.LASF893
 10186 001b 05       		.byte	0x5
 10187 001c 51       		.uleb128 0x51
 10188 001d EC3D0000 		.4byte	.LASF894
 10189 0021 05       		.byte	0x5
 10190 0022 53       		.uleb128 0x53
 10191 0023 4F7A0000 		.4byte	.LASF895
 10192 0027 05       		.byte	0x5
 10193 0028 55       		.uleb128 0x55
 10194 0029 E0430000 		.4byte	.LASF896
 10195 002d 00       		.byte	0
 10196              		.section	.debug_macro,"G",%progbits,wm4.ssp_11xx.h.33.af054d3d65f4cb0c078be40bb872ec37,comdat
 10197              	.Ldebug_macro23:
 10198 0000 0400     		.2byte	0x4
 10199 0002 00       		.byte	0
 10200 0003 05       		.byte	0x5
 10201 0004 21       		.uleb128 0x21
 10202 0005 7A2C0000 		.4byte	.LASF897
 10203 0009 05       		.byte	0x5
 10204 000a 40       		.uleb128 0x40
 10205 000b D14D0000 		.4byte	.LASF898
 10206 000f 05       		.byte	0x5
 10207 0010 42       		.uleb128 0x42
 10208 0011 55070000 		.4byte	.LASF899
 10209 0015 05       		.byte	0x5
 10210 0016 44       		.uleb128 0x44
 10211 0017 AF290000 		.4byte	.LASF900
 10212 001b 05       		.byte	0x5
 10213 001c 46       		.uleb128 0x46
 10214 001d AF270000 		.4byte	.LASF901
 10215 0021 05       		.byte	0x5
 10216 0022 49       		.uleb128 0x49
 10217 0023 15410000 		.4byte	.LASF902
 10218 0027 05       		.byte	0x5
 10219 0028 4A       		.uleb128 0x4a
 10220 0029 A6090000 		.4byte	.LASF903
 10221 002d 05       		.byte	0x5
 10222 002e 4D       		.uleb128 0x4d
 10223 002f A2210000 		.4byte	.LASF904
 10224 0033 05       		.byte	0x5
 10225 0034 4E       		.uleb128 0x4e
 10226 0035 83720000 		.4byte	.LASF905
ARM GAS  /tmp/ccXw4jW7.s 			page 200


 10227 0039 05       		.byte	0x5
 10228 003a 51       		.uleb128 0x51
 10229 003b 12360000 		.4byte	.LASF906
 10230 003f 05       		.byte	0x5
 10231 0040 53       		.uleb128 0x53
 10232 0041 6C120000 		.4byte	.LASF907
 10233 0045 05       		.byte	0x5
 10234 0046 55       		.uleb128 0x55
 10235 0047 6C120000 		.4byte	.LASF907
 10236 004b 05       		.byte	0x5
 10237 004c 58       		.uleb128 0x58
 10238 004d 12360000 		.4byte	.LASF906
 10239 0051 05       		.byte	0x5
 10240 0052 5F       		.uleb128 0x5f
 10241 0053 9C530000 		.4byte	.LASF908
 10242 0057 05       		.byte	0x5
 10243 0058 61       		.uleb128 0x61
 10244 0059 9D1B0000 		.4byte	.LASF909
 10245 005d 05       		.byte	0x5
 10246 005e 63       		.uleb128 0x63
 10247 005f 2E3A0000 		.4byte	.LASF910
 10248 0063 05       		.byte	0x5
 10249 0064 64       		.uleb128 0x64
 10250 0065 6F3A0000 		.4byte	.LASF911
 10251 0069 05       		.byte	0x5
 10252 006a 67       		.uleb128 0x67
 10253 006b 31610000 		.4byte	.LASF912
 10254 006f 05       		.byte	0x5
 10255 0070 69       		.uleb128 0x69
 10256 0071 FF7B0000 		.4byte	.LASF913
 10257 0075 05       		.byte	0x5
 10258 0076 6C       		.uleb128 0x6c
 10259 0077 F27A0000 		.4byte	.LASF914
 10260 007b 05       		.byte	0x5
 10261 007c 72       		.uleb128 0x72
 10262 007d 9A1F0000 		.4byte	.LASF915
 10263 0081 05       		.byte	0x5
 10264 0082 79       		.uleb128 0x79
 10265 0083 D06D0000 		.4byte	.LASF916
 10266 0087 05       		.byte	0x5
 10267 0088 7C       		.uleb128 0x7c
 10268 0089 F3070000 		.4byte	.LASF917
 10269 008d 05       		.byte	0x5
 10270 008e C503     		.uleb128 0x1c5
 10271 0090 4C5D0000 		.4byte	.LASF918
 10272 0094 05       		.byte	0x5
 10273 0095 C603     		.uleb128 0x1c6
 10274 0097 BB1F0000 		.4byte	.LASF919
 10275 009b 05       		.byte	0x5
 10276 009c CF03     		.uleb128 0x1cf
 10277 009e 3B1A0000 		.4byte	.LASF920
 10278 00a2 05       		.byte	0x5
 10279 00a3 D003     		.uleb128 0x1d0
 10280 00a5 111D0000 		.4byte	.LASF921
 10281 00a9 05       		.byte	0x5
 10282 00aa D303     		.uleb128 0x1d3
 10283 00ac 3D7D0000 		.4byte	.LASF922
ARM GAS  /tmp/ccXw4jW7.s 			page 201


 10284 00b0 05       		.byte	0x5
 10285 00b1 D403     		.uleb128 0x1d4
 10286 00b3 44410000 		.4byte	.LASF923
 10287 00b7 00       		.byte	0
 10288              		.section	.debug_macro,"G",%progbits,wm4.error.h.38.ae74fe1dd9d19c80c505f1fda144fce8,comdat
 10289              	.Ldebug_macro24:
 10290 0000 0400     		.2byte	0x4
 10291 0002 00       		.byte	0
 10292 0003 05       		.byte	0x5
 10293 0004 26       		.uleb128 0x26
 10294 0005 EB2F0000 		.4byte	.LASF925
 10295 0009 05       		.byte	0x5
 10296 000a 8401     		.uleb128 0x84
 10297 000c 69080000 		.4byte	.LASF926
 10298 0010 00       		.byte	0
 10299              		.section	.debug_macro,"G",%progbits,wm4.adc_11xx.h.33.6ce7433ac6b30df70a6993d01dbd513f,comdat
 10300              	.Ldebug_macro25:
 10301 0000 0400     		.2byte	0x4
 10302 0002 00       		.byte	0
 10303 0003 05       		.byte	0x5
 10304 0004 21       		.uleb128 0x21
 10305 0005 381B0000 		.4byte	.LASF927
 10306 0009 05       		.byte	0x5
 10307 000a 2F       		.uleb128 0x2f
 10308 000b 387E0000 		.4byte	.LASF928
 10309 000f 05       		.byte	0x5
 10310 0010 40       		.uleb128 0x40
 10311 0011 78100000 		.4byte	.LASF929
 10312 0015 05       		.byte	0x5
 10313 0016 41       		.uleb128 0x41
 10314 0017 D74B0000 		.4byte	.LASF930
 10315 001b 05       		.byte	0x5
 10316 001c 43       		.uleb128 0x43
 10317 001d 64420000 		.4byte	.LASF931
 10318 0021 05       		.byte	0x5
 10319 0022 44       		.uleb128 0x44
 10320 0023 C66E0000 		.4byte	.LASF932
 10321 0027 05       		.byte	0x5
 10322 0028 45       		.uleb128 0x45
 10323 0029 FA3C0000 		.4byte	.LASF933
 10324 002d 05       		.byte	0x5
 10325 002e 46       		.uleb128 0x46
 10326 002f 617F0000 		.4byte	.LASF934
 10327 0033 05       		.byte	0x5
 10328 0034 47       		.uleb128 0x47
 10329 0035 847B0000 		.4byte	.LASF935
 10330 0039 05       		.byte	0x5
 10331 003a 48       		.uleb128 0x48
 10332 003b 66780000 		.4byte	.LASF936
 10333 003f 05       		.byte	0x5
 10334 0040 49       		.uleb128 0x49
 10335 0041 99620000 		.4byte	.LASF937
 10336 0045 05       		.byte	0x5
 10337 0046 4A       		.uleb128 0x4a
 10338 0047 9F1A0000 		.4byte	.LASF938
 10339 004b 05       		.byte	0x5
 10340 004c 4B       		.uleb128 0x4b
ARM GAS  /tmp/ccXw4jW7.s 			page 202


 10341 004d E9200000 		.4byte	.LASF939
 10342 0051 05       		.byte	0x5
 10343 0052 4C       		.uleb128 0x4c
 10344 0053 5A450000 		.4byte	.LASF940
 10345 0057 05       		.byte	0x5
 10346 0058 4D       		.uleb128 0x4d
 10347 0059 767A0000 		.4byte	.LASF941
 10348 005d 05       		.byte	0x5
 10349 005e 4E       		.uleb128 0x4e
 10350 005f 422E0000 		.4byte	.LASF942
 10351 0063 05       		.byte	0x5
 10352 0064 4F       		.uleb128 0x4f
 10353 0065 133E0000 		.4byte	.LASF943
 10354 0069 05       		.byte	0x5
 10355 006a 50       		.uleb128 0x50
 10356 006b 78620000 		.4byte	.LASF944
 10357 006f 05       		.byte	0x5
 10358 0070 51       		.uleb128 0x51
 10359 0071 7F550000 		.4byte	.LASF945
 10360 0075 05       		.byte	0x5
 10361 0076 52       		.uleb128 0x52
 10362 0077 C25C0000 		.4byte	.LASF946
 10363 007b 00       		.byte	0
 10364              		.section	.debug_macro,"G",%progbits,wm4.i2c_11xx.h.33.2b506d1350e00a8c26e8bf006a5f9390,comdat
 10365              	.Ldebug_macro26:
 10366 0000 0400     		.2byte	0x4
 10367 0002 00       		.byte	0
 10368 0003 05       		.byte	0x5
 10369 0004 21       		.uleb128 0x21
 10370 0005 076F0000 		.4byte	.LASF948
 10371 0009 05       		.byte	0x5
 10372 000a 46       		.uleb128 0x46
 10373 000b 740E0000 		.4byte	.LASF949
 10374 000f 05       		.byte	0x5
 10375 0010 47       		.uleb128 0x47
 10376 0011 A6590000 		.4byte	.LASF950
 10377 0015 05       		.byte	0x5
 10378 0016 48       		.uleb128 0x48
 10379 0017 0E1C0000 		.4byte	.LASF951
 10380 001b 05       		.byte	0x5
 10381 001c 49       		.uleb128 0x49
 10382 001d E10C0000 		.4byte	.LASF952
 10383 0021 05       		.byte	0x5
 10384 0022 4E       		.uleb128 0x4e
 10385 0023 966B0000 		.4byte	.LASF953
 10386 0027 05       		.byte	0x5
 10387 0028 53       		.uleb128 0x53
 10388 0029 3B190000 		.4byte	.LASF954
 10389 002d 05       		.byte	0x5
 10390 002e 54       		.uleb128 0x54
 10391 002f 2A0B0000 		.4byte	.LASF955
 10392 0033 05       		.byte	0x5
 10393 0034 55       		.uleb128 0x55
 10394 0035 00000000 		.4byte	.LASF956
 10395 0039 05       		.byte	0x5
 10396 003a 56       		.uleb128 0x56
 10397 003b 222F0000 		.4byte	.LASF957
ARM GAS  /tmp/ccXw4jW7.s 			page 203


 10398 003f 05       		.byte	0x5
 10399 0040 57       		.uleb128 0x57
 10400 0041 1A550000 		.4byte	.LASF958
 10401 0045 05       		.byte	0x5
 10402 0046 5C       		.uleb128 0x5c
 10403 0047 6E480000 		.4byte	.LASF959
 10404 004b 05       		.byte	0x5
 10405 004c 5D       		.uleb128 0x5d
 10406 004d 640C0000 		.4byte	.LASF960
 10407 0051 05       		.byte	0x5
 10408 0052 5E       		.uleb128 0x5e
 10409 0053 42790000 		.4byte	.LASF961
 10410 0057 05       		.byte	0x5
 10411 0058 5F       		.uleb128 0x5f
 10412 0059 C40C0000 		.4byte	.LASF962
 10413 005d 05       		.byte	0x5
 10414 005e 60       		.uleb128 0x60
 10415 005f 31260000 		.4byte	.LASF963
 10416 0063 05       		.byte	0x5
 10417 0064 65       		.uleb128 0x65
 10418 0065 BB4D0000 		.4byte	.LASF964
 10419 0069 05       		.byte	0x5
 10420 006a 66       		.uleb128 0x66
 10421 006b F2540000 		.4byte	.LASF965
 10422 006f 05       		.byte	0x5
 10423 0070 67       		.uleb128 0x67
 10424 0071 EF420000 		.4byte	.LASF966
 10425 0075 05       		.byte	0x5
 10426 0076 68       		.uleb128 0x68
 10427 0077 C2200000 		.4byte	.LASF967
 10428 007b 05       		.byte	0x5
 10429 007c 69       		.uleb128 0x69
 10430 007d F4160000 		.4byte	.LASF968
 10431 0081 05       		.byte	0x5
 10432 0082 6E       		.uleb128 0x6e
 10433 0083 B43F0000 		.4byte	.LASF969
 10434 0087 05       		.byte	0x5
 10435 0088 6F       		.uleb128 0x6f
 10436 0089 DD510000 		.4byte	.LASF970
 10437 008d 05       		.byte	0x5
 10438 008e 74       		.uleb128 0x74
 10439 008f A06A0000 		.4byte	.LASF971
 10440 0093 05       		.byte	0x5
 10441 0094 75       		.uleb128 0x75
 10442 0095 88090000 		.4byte	.LASF972
 10443 0099 05       		.byte	0x5
 10444 009a 7A       		.uleb128 0x7a
 10445 009b AC4C0000 		.4byte	.LASF973
 10446 009f 05       		.byte	0x5
 10447 00a0 7B       		.uleb128 0x7b
 10448 00a1 1A1A0000 		.4byte	.LASF974
 10449 00a5 05       		.byte	0x5
 10450 00a6 7C       		.uleb128 0x7c
 10451 00a7 8C250000 		.4byte	.LASF975
 10452 00ab 05       		.byte	0x5
 10453 00ac 7D       		.uleb128 0x7d
 10454 00ad 0B440000 		.4byte	.LASF976
ARM GAS  /tmp/ccXw4jW7.s 			page 204


 10455 00b1 05       		.byte	0x5
 10456 00b2 7E       		.uleb128 0x7e
 10457 00b3 1E310000 		.4byte	.LASF977
 10458 00b7 05       		.byte	0x5
 10459 00b8 7F       		.uleb128 0x7f
 10460 00b9 7A530000 		.4byte	.LASF978
 10461 00bd 05       		.byte	0x5
 10462 00be 8001     		.uleb128 0x80
 10463 00c0 D21B0000 		.4byte	.LASF979
 10464 00c4 05       		.byte	0x5
 10465 00c5 8501     		.uleb128 0x85
 10466 00c7 19020000 		.4byte	.LASF980
 10467 00cb 05       		.byte	0x5
 10468 00cc 8601     		.uleb128 0x86
 10469 00ce C1530000 		.4byte	.LASF981
 10470 00d2 05       		.byte	0x5
 10471 00d3 8701     		.uleb128 0x87
 10472 00d5 E02C0000 		.4byte	.LASF982
 10473 00d9 05       		.byte	0x5
 10474 00da 8801     		.uleb128 0x88
 10475 00dc 01640000 		.4byte	.LASF983
 10476 00e0 05       		.byte	0x5
 10477 00e1 8901     		.uleb128 0x89
 10478 00e3 D0070000 		.4byte	.LASF984
 10479 00e7 05       		.byte	0x5
 10480 00e8 8A01     		.uleb128 0x8a
 10481 00ea 300D0000 		.4byte	.LASF985
 10482 00ee 05       		.byte	0x5
 10483 00ef 8B01     		.uleb128 0x8b
 10484 00f1 66110000 		.4byte	.LASF986
 10485 00f5 05       		.byte	0x5
 10486 00f6 9001     		.uleb128 0x90
 10487 00f8 662E0000 		.4byte	.LASF987
 10488 00fc 05       		.byte	0x5
 10489 00fd 9101     		.uleb128 0x91
 10490 00ff EC780000 		.4byte	.LASF988
 10491 0103 05       		.byte	0x5
 10492 0104 9301     		.uleb128 0x93
 10493 0106 524E0000 		.4byte	.LASF989
 10494 010a 05       		.byte	0x5
 10495 010b 9401     		.uleb128 0x94
 10496 010d 04510000 		.4byte	.LASF990
 10497 0111 05       		.byte	0x5
 10498 0112 9601     		.uleb128 0x96
 10499 0114 ED250000 		.4byte	.LASF991
 10500 0118 05       		.byte	0x5
 10501 0119 9701     		.uleb128 0x97
 10502 011b 060D0000 		.4byte	.LASF992
 10503 011f 05       		.byte	0x5
 10504 0120 9801     		.uleb128 0x98
 10505 0122 1A140000 		.4byte	.LASF993
 10506 0126 05       		.byte	0x5
 10507 0127 9901     		.uleb128 0x99
 10508 0129 42130000 		.4byte	.LASF994
 10509 012d 05       		.byte	0x5
 10510 012e 9A01     		.uleb128 0x9a
 10511 0130 C3300000 		.4byte	.LASF995
ARM GAS  /tmp/ccXw4jW7.s 			page 205


 10512 0134 05       		.byte	0x5
 10513 0135 A001     		.uleb128 0xa0
 10514 0137 BD0D0000 		.4byte	.LASF996
 10515 013b 05       		.byte	0x5
 10516 013c A101     		.uleb128 0xa1
 10517 013e DC500000 		.4byte	.LASF997
 10518 0142 05       		.byte	0x5
 10519 0143 A301     		.uleb128 0xa3
 10520 0145 86180000 		.4byte	.LASF998
 10521 0149 05       		.byte	0x5
 10522 014a A401     		.uleb128 0xa4
 10523 014c 88520000 		.4byte	.LASF999
 10524 0150 05       		.byte	0x5
 10525 0151 A501     		.uleb128 0xa5
 10526 0153 FA730000 		.4byte	.LASF1000
 10527 0157 05       		.byte	0x5
 10528 0158 A601     		.uleb128 0xa6
 10529 015a 9D310000 		.4byte	.LASF1001
 10530 015e 05       		.byte	0x5
 10531 015f AB01     		.uleb128 0xab
 10532 0161 F3330000 		.4byte	.LASF1002
 10533 0165 05       		.byte	0x5
 10534 0166 AC01     		.uleb128 0xac
 10535 0168 9D6E0000 		.4byte	.LASF1003
 10536 016c 05       		.byte	0x5
 10537 016d B201     		.uleb128 0xb2
 10538 016f 55000000 		.4byte	.LASF1004
 10539 0173 05       		.byte	0x5
 10540 0174 B301     		.uleb128 0xb3
 10541 0176 5E760000 		.4byte	.LASF1005
 10542 017a 05       		.byte	0x5
 10543 017b B401     		.uleb128 0xb4
 10544 017d B4450000 		.4byte	.LASF1006
 10545 0181 05       		.byte	0x5
 10546 0182 B501     		.uleb128 0xb5
 10547 0184 CC2D0000 		.4byte	.LASF1007
 10548 0188 05       		.byte	0x5
 10549 0189 BA01     		.uleb128 0xba
 10550 018b 38020000 		.4byte	.LASF1008
 10551 018f 05       		.byte	0x5
 10552 0190 BF01     		.uleb128 0xbf
 10553 0192 09690000 		.4byte	.LASF1009
 10554 0196 05       		.byte	0x5
 10555 0197 C001     		.uleb128 0xc0
 10556 0199 E8360000 		.4byte	.LASF1010
 10557 019d 05       		.byte	0x5
 10558 019e C501     		.uleb128 0xc5
 10559 01a0 655A0000 		.4byte	.LASF1011
 10560 01a4 05       		.byte	0x5
 10561 01a5 CA01     		.uleb128 0xca
 10562 01a7 1B400000 		.4byte	.LASF1012
 10563 01ab 05       		.byte	0x5
 10564 01ac CF01     		.uleb128 0xcf
 10565 01ae A1430000 		.4byte	.LASF1013
 10566 01b2 05       		.byte	0x5
 10567 01b3 D401     		.uleb128 0xd4
 10568 01b5 C05D0000 		.4byte	.LASF1014
ARM GAS  /tmp/ccXw4jW7.s 			page 206


 10569 01b9 05       		.byte	0x5
 10570 01ba D501     		.uleb128 0xd5
 10571 01bc D07F0000 		.4byte	.LASF1015
 10572 01c0 05       		.byte	0x5
 10573 01c1 D601     		.uleb128 0xd6
 10574 01c3 D4410000 		.4byte	.LASF1016
 10575 01c7 05       		.byte	0x5
 10576 01c8 DB01     		.uleb128 0xdb
 10577 01ca 58560000 		.4byte	.LASF1017
 10578 01ce 05       		.byte	0x5
 10579 01cf DC01     		.uleb128 0xdc
 10580 01d1 F25E0000 		.4byte	.LASF1018
 10581 01d5 05       		.byte	0x5
 10582 01d6 DD01     		.uleb128 0xdd
 10583 01d8 42010000 		.4byte	.LASF1019
 10584 01dc 05       		.byte	0x5
 10585 01dd DE01     		.uleb128 0xde
 10586 01df 923A0000 		.4byte	.LASF1020
 10587 01e3 05       		.byte	0x5
 10588 01e4 DF01     		.uleb128 0xdf
 10589 01e6 AE5D0000 		.4byte	.LASF1021
 10590 01ea 05       		.byte	0x5
 10591 01eb E001     		.uleb128 0xe0
 10592 01ed AA280000 		.4byte	.LASF1022
 10593 01f1 05       		.byte	0x5
 10594 01f2 E101     		.uleb128 0xe1
 10595 01f4 966B0000 		.4byte	.LASF953
 10596 01f8 05       		.byte	0x5
 10597 01f9 E301     		.uleb128 0xe3
 10598 01fb 886E0000 		.4byte	.LASF1023
 10599 01ff 05       		.byte	0x5
 10600 0200 E401     		.uleb128 0xe4
 10601 0202 BE160000 		.4byte	.LASF1024
 10602 0206 05       		.byte	0x5
 10603 0207 E601     		.uleb128 0xe6
 10604 0209 DA2A0000 		.4byte	.LASF1025
 10605 020d 05       		.byte	0x5
 10606 020e EB01     		.uleb128 0xeb
 10607 0210 4A530000 		.4byte	.LASF1026
 10608 0214 05       		.byte	0x5
 10609 0215 EC01     		.uleb128 0xec
 10610 0217 7C200000 		.4byte	.LASF1027
 10611 021b 00       		.byte	0
 10612              		.section	.debug_macro,"G",%progbits,wm4.ccand_11xx.h.33.99627f4b529fecdc77b0877ab6fe5266,comdat
 10613              	.Ldebug_macro27:
 10614 0000 0400     		.2byte	0x4
 10615 0002 00       		.byte	0
 10616 0003 05       		.byte	0x5
 10617 0004 21       		.uleb128 0x21
 10618 0005 537E0000 		.4byte	.LASF1028
 10619 0009 05       		.byte	0x5
 10620 000a 6E       		.uleb128 0x6e
 10621 000b 9F2D0000 		.4byte	.LASF1029
 10622 000f 05       		.byte	0x5
 10623 0010 6F       		.uleb128 0x6f
 10624 0011 A7010000 		.4byte	.LASF1030
 10625 0015 05       		.byte	0x5
ARM GAS  /tmp/ccXw4jW7.s 			page 207


 10626 0016 70       		.uleb128 0x70
 10627 0017 48420000 		.4byte	.LASF1031
 10628 001b 05       		.byte	0x5
 10629 001c 71       		.uleb128 0x71
 10630 001d 430B0000 		.4byte	.LASF1032
 10631 0021 05       		.byte	0x5
 10632 0022 72       		.uleb128 0x72
 10633 0023 EB180000 		.4byte	.LASF1033
 10634 0027 05       		.byte	0x5
 10635 0028 73       		.uleb128 0x73
 10636 0029 DA0F0000 		.4byte	.LASF1034
 10637 002d 05       		.byte	0x5
 10638 002e 74       		.uleb128 0x74
 10639 002f 6C7C0000 		.4byte	.LASF1035
 10640 0033 05       		.byte	0x5
 10641 0034 75       		.uleb128 0x75
 10642 0035 3C2F0000 		.4byte	.LASF1036
 10643 0039 05       		.byte	0x5
 10644 003a 76       		.uleb128 0x76
 10645 003b 63690000 		.4byte	.LASF1037
 10646 003f 05       		.byte	0x5
 10647 0040 77       		.uleb128 0x77
 10648 0041 830E0000 		.4byte	.LASF1038
 10649 0045 05       		.byte	0x5
 10650 0046 7C       		.uleb128 0x7c
 10651 0047 E0050000 		.4byte	.LASF1039
 10652 004b 05       		.byte	0x5
 10653 004c 7D       		.uleb128 0x7d
 10654 004d 45270000 		.4byte	.LASF1040
 10655 0051 05       		.byte	0x5
 10656 0052 7E       		.uleb128 0x7e
 10657 0053 81310000 		.4byte	.LASF1041
 10658 0057 05       		.byte	0x5
 10659 0058 7F       		.uleb128 0x7f
 10660 0059 907C0000 		.4byte	.LASF1042
 10661 005d 05       		.byte	0x5
 10662 005e 9101     		.uleb128 0x91
 10663 0060 19210000 		.4byte	.LASF1043
 10664 0064 05       		.byte	0x5
 10665 0065 9201     		.uleb128 0x92
 10666 0067 FC720000 		.4byte	.LASF1044
 10667 006b 05       		.byte	0x5
 10668 006c 9301     		.uleb128 0x93
 10669 006e 4C040000 		.4byte	.LASF1045
 10670 0072 05       		.byte	0x5
 10671 0073 9401     		.uleb128 0x94
 10672 0075 6A0D0000 		.4byte	.LASF1046
 10673 0079 05       		.byte	0x5
 10674 007a 9501     		.uleb128 0x95
 10675 007c B5590000 		.4byte	.LASF1047
 10676 0080 05       		.byte	0x5
 10677 0081 9601     		.uleb128 0x96
 10678 0083 E4610000 		.4byte	.LASF1048
 10679 0087 05       		.byte	0x5
 10680 0088 9701     		.uleb128 0x97
 10681 008a 8A790000 		.4byte	.LASF1049
 10682 008e 05       		.byte	0x5
ARM GAS  /tmp/ccXw4jW7.s 			page 208


 10683 008f 9801     		.uleb128 0x98
 10684 0091 6F2B0000 		.4byte	.LASF1050
 10685 0095 05       		.byte	0x5
 10686 0096 9901     		.uleb128 0x99
 10687 0098 1D590000 		.4byte	.LASF1051
 10688 009c 05       		.byte	0x5
 10689 009d 9A01     		.uleb128 0x9a
 10690 009f E0230000 		.4byte	.LASF1052
 10691 00a3 05       		.byte	0x5
 10692 00a4 9B01     		.uleb128 0x9b
 10693 00a6 F0350000 		.4byte	.LASF1053
 10694 00aa 05       		.byte	0x5
 10695 00ab 9C01     		.uleb128 0x9c
 10696 00ad E51E0000 		.4byte	.LASF1054
 10697 00b1 05       		.byte	0x5
 10698 00b2 9D01     		.uleb128 0x9d
 10699 00b4 647B0000 		.4byte	.LASF1055
 10700 00b8 05       		.byte	0x5
 10701 00b9 9E01     		.uleb128 0x9e
 10702 00bb 11540000 		.4byte	.LASF1056
 10703 00bf 05       		.byte	0x5
 10704 00c0 9F01     		.uleb128 0x9f
 10705 00c2 AA480000 		.4byte	.LASF1057
 10706 00c6 05       		.byte	0x5
 10707 00c7 A901     		.uleb128 0xa9
 10708 00c9 41250000 		.4byte	.LASF1058
 10709 00cd 05       		.byte	0x5
 10710 00ce AA01     		.uleb128 0xaa
 10711 00d0 B2140000 		.4byte	.LASF1059
 10712 00d4 05       		.byte	0x5
 10713 00d5 AB01     		.uleb128 0xab
 10714 00d7 9E220000 		.4byte	.LASF1060
 10715 00db 05       		.byte	0x5
 10716 00dc AC01     		.uleb128 0xac
 10717 00de AF500000 		.4byte	.LASF1061
 10718 00e2 05       		.byte	0x5
 10719 00e3 AD01     		.uleb128 0xad
 10720 00e5 FB240000 		.4byte	.LASF1062
 10721 00e9 05       		.byte	0x5
 10722 00ea AE01     		.uleb128 0xae
 10723 00ec F73B0000 		.4byte	.LASF1063
 10724 00f0 05       		.byte	0x5
 10725 00f1 AF01     		.uleb128 0xaf
 10726 00f3 8E1B0000 		.4byte	.LASF1064
 10727 00f7 05       		.byte	0x5
 10728 00f8 C401     		.uleb128 0xc4
 10729 00fa E7790000 		.4byte	.LASF1065
 10730 00fe 05       		.byte	0x5
 10731 00ff C501     		.uleb128 0xc5
 10732 0101 CB670000 		.4byte	.LASF1066
 10733 0105 05       		.byte	0x5
 10734 0106 C601     		.uleb128 0xc6
 10735 0108 435C0000 		.4byte	.LASF1067
 10736 010c 05       		.byte	0x5
 10737 010d C901     		.uleb128 0xc9
 10738 010f 36460000 		.4byte	.LASF1068
 10739 0113 05       		.byte	0x5
ARM GAS  /tmp/ccXw4jW7.s 			page 209


 10740 0114 CA01     		.uleb128 0xca
 10741 0116 48630000 		.4byte	.LASF1069
 10742 011a 05       		.byte	0x5
 10743 011b CB01     		.uleb128 0xcb
 10744 011d AE710000 		.4byte	.LASF1070
 10745 0121 05       		.byte	0x5
 10746 0122 E501     		.uleb128 0xe5
 10747 0124 76270000 		.4byte	.LASF1071
 10748 0128 00       		.byte	0
 10749              		.section	.debug_line,"",%progbits
 10750              	.Ldebug_line0:
 10751 0000 9D060000 		.section	.debug_str,"MS",%progbits,1
 10751      0200E202 
 10751      00000201 
 10751      FB0E0D00 
 10751      01010101 
 10752              	.LASF956:
 10753 0000 4932435F 		.ascii	"I2C_I2CONSET_STO ((0x10))\000"
 10753      4932434F 
 10753      4E534554 
 10753      5F53544F 
 10753      20282830 
 10754              	.LASF507:
 10755 001a 57494E54 		.ascii	"WINT_MIN (__WINT_MIN__)\000"
 10755      5F4D494E 
 10755      20285F5F 
 10755      57494E54 
 10755      5F4D494E 
 10756              	.LASF377:
 10757 0032 5F504F53 		.ascii	"_POSIX_SOURCE 1\000"
 10757      49585F53 
 10757      4F555243 
 10757      45203100 
 10758              	.LASF158:
 10759 0042 5F5F4445 		.ascii	"__DECIMAL_DIG__ 17\000"
 10759      43494D41 
 10759      4C5F4449 
 10759      475F5F20 
 10759      313700
 10760              	.LASF1004:
 10761 0055 4932435F 		.ascii	"I2C_I2MMCTRL_MM_ENA ((1 << 0))\000"
 10761      49324D4D 
 10761      4354524C 
 10761      5F4D4D5F 
 10761      454E4120 
 10762              	.LASF295:
 10763 0074 5F5F5548 		.ascii	"__UHA_FBIT__ 8\000"
 10763      415F4642 
 10763      49545F5F 
 10763      203800
 10764              	.LASF389:
 10765 0083 5F5F5356 		.ascii	"__SVID_VISIBLE 1\000"
 10765      49445F56 
 10765      49534942 
 10765      4C452031 
 10765      00
 10766              	.LASF765:
ARM GAS  /tmp/ccXw4jW7.s 			page 210


 10767 0094 54494D45 		.ascii	"TIMER_INT_ON_MATCH(n) (_BIT(((n) * 3)))\000"
 10767      525F494E 
 10767      545F4F4E 
 10767      5F4D4154 
 10767      4348286E 
 10768              	.LASF1156:
 10769 00bc 53595343 		.ascii	"SYSCTL_CLOCK_SYS\000"
 10769      544C5F43 
 10769      4C4F434B 
 10769      5F535953 
 10769      00
 10770              	.LASF185:
 10771 00cd 5F5F4445 		.ascii	"__DEC128_EPSILON__ 1E-33DL\000"
 10771      43313238 
 10771      5F455053 
 10771      494C4F4E 
 10771      5F5F2031 
 10772              	.LASF653:
 10773 00e8 4C50435F 		.ascii	"LPC_IOCON_BASE 0x40044000\000"
 10773      494F434F 
 10773      4E5F4241 
 10773      53452030 
 10773      78343030 
 10774              	.LASF366:
 10775 0102 5F535953 		.ascii	"_SYS_FEATURES_H \000"
 10775      5F464541 
 10775      54555245 
 10775      535F4820 
 10775      00
 10776              	.LASF311:
 10777 0113 5F5F4743 		.ascii	"__GCC_ATOMIC_WCHAR_T_LOCK_FREE 1\000"
 10777      435F4154 
 10777      4F4D4943 
 10777      5F574348 
 10777      41525F54 
 10778              	.LASF1270:
 10779 0134 69734D61 		.ascii	"isMasterState\000"
 10779      73746572 
 10779      53746174 
 10779      6500
 10780              	.LASF1019:
 10781 0142 4932435F 		.ascii	"I2C_BYTE_RECV 0x02\000"
 10781      42595445 
 10781      5F524543 
 10781      56203078 
 10781      303200
 10782              	.LASF892:
 10783 0155 57574454 		.ascii	"WWDT_WDMOD_WDEN ((uint32_t) (1 << 0))\000"
 10783      5F57444D 
 10783      4F445F57 
 10783      44454E20 
 10783      28287569 
 10784              	.LASF1158:
 10785 017b 53595343 		.ascii	"SYSCTL_CLOCK_RAM\000"
 10785      544C5F43 
 10785      4C4F434B 
 10785      5F52414D 
ARM GAS  /tmp/ccXw4jW7.s 			page 211


 10785      00
 10786              	.LASF187:
 10787 018c 5F5F5346 		.ascii	"__SFRACT_FBIT__ 7\000"
 10787      52414354 
 10787      5F464249 
 10787      545F5F20 
 10787      3700
 10788              	.LASF1089:
 10789 019e 73697A65 		.ascii	"sizetype\000"
 10789      74797065 
 10789      00
 10790              	.LASF1030:
 10791 01a7 43414E5F 		.ascii	"CAN_ERROR_PASS 0x00000001UL\000"
 10791      4552524F 
 10791      525F5041 
 10791      53532030 
 10791      78303030 
 10792              	.LASF641:
 10793 01c3 4C50435F 		.ascii	"LPC_WWDT_BASE 0x40004000\000"
 10793      57574454 
 10793      5F424153 
 10793      45203078 
 10793      34303030 
 10794              	.LASF1179:
 10795 01dc 53434C48 		.ascii	"SCLH\000"
 10795      00
 10796              	.LASF1180:
 10797 01e1 53434C4C 		.ascii	"SCLL\000"
 10797      00
 10798              	.LASF689:
 10799 01e6 53595343 		.ascii	"SYSCTL_RST_POR (1 << 0)\000"
 10799      544C5F52 
 10799      53545F50 
 10799      4F522028 
 10799      31203C3C 
 10800              	.LASF77:
 10801 01fe 5F5F5054 		.ascii	"__PTRDIFF_MAX__ 0x7fffffff\000"
 10801      52444946 
 10801      465F4D41 
 10801      585F5F20 
 10801      30783766 
 10802              	.LASF980:
 10803 0219 4932435F 		.ascii	"I2C_I2STAT_M_RX_START ((0x08))\000"
 10803      49325354 
 10803      41545F4D 
 10803      5F52585F 
 10803      53544152 
 10804              	.LASF1008:
 10805 0238 49324441 		.ascii	"I2DATA_BUFFER_BITMASK ((0xFF))\000"
 10805      54415F42 
 10805      55464645 
 10805      525F4249 
 10805      544D4153 
 10806              	.LASF1271:
 10807 0257 67657443 		.ascii	"getCurState\000"
 10807      75725374 
 10807      61746500 
ARM GAS  /tmp/ccXw4jW7.s 			page 212


 10808              	.LASF440:
 10809 0263 5F55494E 		.ascii	"_UINT32_T_DECLARED \000"
 10809      5433325F 
 10809      545F4445 
 10809      434C4152 
 10809      45442000 
 10810              	.LASF79:
 10811 0277 5F5F494E 		.ascii	"__INTMAX_MAX__ 0x7fffffffffffffffLL\000"
 10811      544D4158 
 10811      5F4D4158 
 10811      5F5F2030 
 10811      78376666 
 10812              	.LASF172:
 10813 029b 5F5F4445 		.ascii	"__DEC32_SUBNORMAL_MIN__ 0.000001E-95DF\000"
 10813      4333325F 
 10813      5355424E 
 10813      4F524D41 
 10813      4C5F4D49 
 10814              	.LASF276:
 10815 02c2 5F5F5451 		.ascii	"__TQ_IBIT__ 0\000"
 10815      5F494249 
 10815      545F5F20 
 10815      3000
 10816              	.LASF439:
 10817 02d0 5F494E54 		.ascii	"_INT32_T_DECLARED \000"
 10817      33325F54 
 10817      5F444543 
 10817      4C415245 
 10817      442000
 10818              	.LASF825:
 10819 02e3 55415254 		.ascii	"UART_LCR_BREAK_EN (1 << 6)\000"
 10819      5F4C4352 
 10819      5F425245 
 10819      414B5F45 
 10819      4E202831 
 10820              	.LASF599:
 10821 02fe 5343425F 		.ascii	"SCB_AIRCR_VECTCLRACTIVE_Msk (1UL << SCB_AIRCR_VECTC"
 10821      41495243 
 10821      525F5645 
 10821      4354434C 
 10821      52414354 
 10822 0331 4C524143 		.ascii	"LRACTIVE_Pos)\000"
 10822      54495645 
 10822      5F506F73 
 10822      2900
 10823              	.LASF1275:
 10824 033f 73746172 		.ascii	"startMasterXfer\000"
 10824      744D6173 
 10824      74657258 
 10824      66657200 
 10825              	.LASF11:
 10826 034f 5F5F4154 		.ascii	"__ATOMIC_CONSUME 1\000"
 10826      4F4D4943 
 10826      5F434F4E 
 10826      53554D45 
 10826      203100
 10827              	.LASF209:
ARM GAS  /tmp/ccXw4jW7.s 			page 213


 10828 0362 5F5F4C46 		.ascii	"__LFRACT_MIN__ (-0.5LR-0.5LR)\000"
 10828      52414354 
 10828      5F4D494E 
 10828      5F5F2028 
 10828      2D302E35 
 10829              	.LASF73:
 10830 0380 5F5F5743 		.ascii	"__WCHAR_MAX__ 0xffffffffU\000"
 10830      4841525F 
 10830      4D41585F 
 10830      5F203078 
 10830      66666666 
 10831              	.LASF567:
 10832 039a 5343425F 		.ascii	"SCB_CPUID_ARCHITECTURE_Msk (0xFUL << SCB_CPUID_ARCH"
 10832      43505549 
 10832      445F4152 
 10832      43484954 
 10832      45435455 
 10833 03cd 49544543 		.ascii	"ITECTURE_Pos)\000"
 10833      54555245 
 10833      5F506F73 
 10833      2900
 10834              	.LASF239:
 10835 03db 5F5F4143 		.ascii	"__ACCUM_MIN__ (-0X1P15K-0X1P15K)\000"
 10835      43554D5F 
 10835      4D494E5F 
 10835      5F20282D 
 10835      30583150 
 10836              	.LASF324:
 10837 03fc 5F5F4152 		.ascii	"__ARM_FEATURE_QBIT\000"
 10837      4D5F4645 
 10837      41545552 
 10837      455F5142 
 10837      495400
 10838              	.LASF300:
 10839 040f 5F5F5544 		.ascii	"__UDA_IBIT__ 32\000"
 10839      415F4942 
 10839      49545F5F 
 10839      20333200 
 10840              	.LASF832:
 10841 041f 55415254 		.ascii	"UART_MCR_AUTO_CTS_EN (1 << 7)\000"
 10841      5F4D4352 
 10841      5F415554 
 10841      4F5F4354 
 10841      535F454E 
 10842              	.LASF139:
 10843 043d 5F5F4442 		.ascii	"__DBL_DIG__ 15\000"
 10843      4C5F4449 
 10843      475F5F20 
 10843      313500
 10844              	.LASF1045:
 10845 044c 53444F5F 		.ascii	"SDO_ABORT_UNKNOWN_COMMAND 0x05040001UL\000"
 10845      41424F52 
 10845      545F554E 
 10845      4B4E4F57 
 10845      4E5F434F 
 10846              	.LASF569:
 10847 0473 5343425F 		.ascii	"SCB_CPUID_PARTNO_Msk (0xFFFUL << SCB_CPUID_PARTNO_P"
ARM GAS  /tmp/ccXw4jW7.s 			page 214


 10847      43505549 
 10847      445F5041 
 10847      52544E4F 
 10847      5F4D736B 
 10848 04a6 6F732900 		.ascii	"os)\000"
 10849              	.LASF16:
 10850 04aa 5F5F5349 		.ascii	"__SIZEOF_LONG_LONG__ 8\000"
 10850      5A454F46 
 10850      5F4C4F4E 
 10850      475F4C4F 
 10850      4E475F5F 
 10851              	.LASF143:
 10852 04c1 5F5F4442 		.ascii	"__DBL_MAX_10_EXP__ 308\000"
 10852      4C5F4D41 
 10852      585F3130 
 10852      5F455850 
 10852      5F5F2033 
 10853              	.LASF859:
 10854 04d8 55415254 		.ascii	"UART_ACR_BITMASK (0x307)\000"
 10854      5F414352 
 10854      5F424954 
 10854      4D41534B 
 10854      20283078 
 10855              	.LASF828:
 10856 04f1 55415254 		.ascii	"UART_MCR_DTR_CTRL (1 << 0)\000"
 10856      5F4D4352 
 10856      5F445452 
 10856      5F435452 
 10856      4C202831 
 10857              	.LASF199:
 10858 050c 5F5F4652 		.ascii	"__FRACT_MIN__ (-0.5R-0.5R)\000"
 10858      4143545F 
 10858      4D494E5F 
 10858      5F20282D 
 10858      302E3552 
 10859              	.LASF265:
 10860 0527 5F5F554C 		.ascii	"__ULLACCUM_MAX__ 0XFFFFFFFFFFFFFFFFP-32ULLK\000"
 10860      4C414343 
 10860      554D5F4D 
 10860      41585F5F 
 10860      20305846 
 10861              	.LASF615:
 10862 0553 53797354 		.ascii	"SysTick_CTRL_CLKSOURCE_Msk (1UL << SysTick_CTRL_CLK"
 10862      69636B5F 
 10862      4354524C 
 10862      5F434C4B 
 10862      534F5552 
 10863 0586 534F5552 		.ascii	"SOURCE_Pos)\000"
 10863      43455F50 
 10863      6F732900 
 10864              	.LASF235:
 10865 0592 5F5F5553 		.ascii	"__USACCUM_MAX__ 0XFFFFP-8UHK\000"
 10865      41434355 
 10865      4D5F4D41 
 10865      585F5F20 
 10865      30584646 
 10866              	.LASF169:
ARM GAS  /tmp/ccXw4jW7.s 			page 215


 10867 05af 5F5F4445 		.ascii	"__DEC32_MIN__ 1E-95DF\000"
 10867      4333325F 
 10867      4D494E5F 
 10867      5F203145 
 10867      2D393544 
 10868              	.LASF572:
 10869 05c5 5343425F 		.ascii	"SCB_ICSR_NMIPENDSET_Pos 31\000"
 10869      49435352 
 10869      5F4E4D49 
 10869      50454E44 
 10869      5345545F 
 10870              	.LASF1039:
 10871 05e0 43414E5F 		.ascii	"CAN_MSGOBJ_STD 0x00000000UL\000"
 10871      4D53474F 
 10871      424A5F53 
 10871      54442030 
 10871      78303030 
 10872              	.LASF646:
 10873 05fc 4C50435F 		.ascii	"LPC_TIMER32_1_BASE 0x40018000\000"
 10873      54494D45 
 10873      5233325F 
 10873      315F4241 
 10873      53452030 
 10874              	.LASF272:
 10875 061a 5F5F5351 		.ascii	"__SQ_IBIT__ 0\000"
 10875      5F494249 
 10875      545F5F20 
 10875      3000
 10876              	.LASF26:
 10877 0628 5F5F4F52 		.ascii	"__ORDER_PDP_ENDIAN__ 3412\000"
 10877      4445525F 
 10877      5044505F 
 10877      454E4449 
 10877      414E5F5F 
 10878              	.LASF1175:
 10879 0642 43484950 		.ascii	"CHIP_SYSCTL_CLOCK_T\000"
 10879      5F535953 
 10879      43544C5F 
 10879      434C4F43 
 10879      4B5F5400 
 10880              	.LASF175:
 10881 0656 5F5F4445 		.ascii	"__DEC64_MAX_EXP__ 385\000"
 10881      4336345F 
 10881      4D41585F 
 10881      4558505F 
 10881      5F203338 
 10882              	.LASF1134:
 10883 066c 424F4443 		.ascii	"BODCTRL\000"
 10883      54524C00 
 10884              	.LASF609:
 10885 0674 5343425F 		.ascii	"SCB_CCR_UNALIGN_TRP_Msk (1UL << SCB_CCR_UNALIGN_TRP"
 10885      4343525F 
 10885      554E414C 
 10885      49474E5F 
 10885      5452505F 
 10886 06a7 5F506F73 		.ascii	"_Pos)\000"
 10886      2900
ARM GAS  /tmp/ccXw4jW7.s 			page 216


 10887              	.LASF135:
 10888 06ad 5F5F464C 		.ascii	"__FLT_HAS_DENORM__ 1\000"
 10888      545F4841 
 10888      535F4445 
 10888      4E4F524D 
 10888      5F5F2031 
 10889              	.LASF39:
 10890 06c2 5F5F494E 		.ascii	"__INT8_TYPE__ signed char\000"
 10890      54385F54 
 10890      5950455F 
 10890      5F207369 
 10890      676E6564 
 10891              	.LASF335:
 10892 06dc 5F5F4152 		.ascii	"__ARM_ARCH_PROFILE 77\000"
 10892      4D5F4152 
 10892      43485F50 
 10892      524F4649 
 10892      4C452037 
 10893              	.LASF882:
 10894 06f2 55415254 		.ascii	"UART_TER2_TXEN (1 << 0)\000"
 10894      5F544552 
 10894      325F5458 
 10894      454E2028 
 10894      31203C3C 
 10895              	.LASF579:
 10896 070a 5343425F 		.ascii	"SCB_ICSR_PENDSTSET_Msk (1UL << SCB_ICSR_PENDSTSET_P"
 10896      49435352 
 10896      5F50454E 
 10896      44535453 
 10896      45545F4D 
 10897 073d 6F732900 		.ascii	"os)\000"
 10898              	.LASF1164:
 10899 0741 53595343 		.ascii	"SYSCTL_CLOCK_CT16B1\000"
 10899      544C5F43 
 10899      4C4F434B 
 10899      5F435431 
 10899      36423100 
 10900              	.LASF899:
 10901 0755 5353505F 		.ascii	"SSP_CR0_FRF_SPI ((uint32_t) (0 << 4))\000"
 10901      4352305F 
 10901      4652465F 
 10901      53504920 
 10901      28287569 
 10902              	.LASF842:
 10903 077b 55415254 		.ascii	"UART_LSR_TXFE (1 << 8)\000"
 10903      5F4C5352 
 10903      5F545846 
 10903      45202831 
 10903      203C3C20 
 10904              	.LASF154:
 10905 0792 5F5F4C44 		.ascii	"__LDBL_MIN_EXP__ (-1021)\000"
 10905      424C5F4D 
 10905      494E5F45 
 10905      58505F5F 
 10905      20282D31 
 10906              	.LASF390:
 10907 07ab 5F5F5853 		.ascii	"__XSI_VISIBLE 0\000"
ARM GAS  /tmp/ccXw4jW7.s 			page 217


 10907      495F5649 
 10907      5349424C 
 10907      45203000 
 10908              	.LASF152:
 10909 07bb 5F5F4C44 		.ascii	"__LDBL_MANT_DIG__ 53\000"
 10909      424C5F4D 
 10909      414E545F 
 10909      4449475F 
 10909      5F203533 
 10910              	.LASF984:
 10911 07d0 4932435F 		.ascii	"I2C_I2STAT_M_RX_SLAR_NACK ((0x48))\000"
 10911      49325354 
 10911      41545F4D 
 10911      5F52585F 
 10911      534C4152 
 10912              	.LASF917:
 10913 07f3 5353505F 		.ascii	"SSP_ICR_BITMASK ((uint32_t) (0x03))\000"
 10913      4943525F 
 10913      4249544D 
 10913      41534B20 
 10913      28287569 
 10914              	.LASF690:
 10915 0817 53595343 		.ascii	"SYSCTL_RST_EXTRST (1 << 1)\000"
 10915      544C5F52 
 10915      53545F45 
 10915      58545253 
 10915      54202831 
 10916              	.LASF102:
 10917 0832 5F5F5549 		.ascii	"__UINT8_C(c) c\000"
 10917      4E54385F 
 10917      43286329 
 10917      206300
 10918              	.LASF40:
 10919 0841 5F5F494E 		.ascii	"__INT16_TYPE__ short int\000"
 10919      5431365F 
 10919      54595045 
 10919      5F5F2073 
 10919      686F7274 
 10920              	.LASF406:
 10921 085a 756E7369 		.ascii	"unsigned\000"
 10921      676E6564 
 10921      00
 10922              	.LASF1225:
 10923 0863 6D586665 		.ascii	"mXfer\000"
 10923      7200
 10924              	.LASF926:
 10925 0869 434F4D50 		.ascii	"COMPILE_TIME_ASSERT(pred) switch(0){case 0:case pre"
 10925      494C455F 
 10925      54494D45 
 10925      5F415353 
 10925      45525428 
 10926 089c 643A3B7D 		.ascii	"d:;}\000"
 10926      00
 10927              	.LASF524:
 10928 08a1 50415241 		.ascii	"PARAM_SETSTATE(State) ((State == RESET) || (State ="
 10928      4D5F5345 
 10928      54535441 
ARM GAS  /tmp/ccXw4jW7.s 			page 218


 10928      54452853 
 10928      74617465 
 10929 08d4 3D205345 		.ascii	"= SET))\000"
 10929      54292900 
 10930              	.LASF250:
 10931 08dc 5F5F4C41 		.ascii	"__LACCUM_MAX__ 0X7FFFFFFFFFFFFFFFP-31LK\000"
 10931      4343554D 
 10931      5F4D4158 
 10931      5F5F2030 
 10931      58374646 
 10932              	.LASF645:
 10933 0904 4C50435F 		.ascii	"LPC_TIMER32_0_BASE 0x40014000\000"
 10933      54494D45 
 10933      5233325F 
 10933      305F4241 
 10933      53452030 
 10934              	.LASF1224:
 10935 0922 73457665 		.ascii	"sEvent\000"
 10935      6E7400
 10936              	.LASF525:
 10937 0929 50415241 		.ascii	"PARAM_FUNCTIONALSTATE(State) ((State == DISABLE) ||"
 10937      4D5F4655 
 10937      4E435449 
 10937      4F4E414C 
 10937      53544154 
 10938 095c 20285374 		.ascii	" (State == ENABLE))\000"
 10938      61746520 
 10938      3D3D2045 
 10938      4E41424C 
 10938      45292900 
 10939              	.LASF760:
 10940 0970 54494D45 		.ascii	"TIMER_IR_CLR(n) _BIT(n)\000"
 10940      525F4952 
 10940      5F434C52 
 10940      286E2920 
 10940      5F424954 
 10941              	.LASF972:
 10942 0988 4932435F 		.ascii	"I2C_I2STAT_BUS_ERROR ((0x00))\000"
 10942      49325354 
 10942      41545F42 
 10942      55535F45 
 10942      52524F52 
 10943              	.LASF903:
 10944 09a6 5353505F 		.ascii	"SSP_CR0_CPOL_HI ((uint32_t) (1 << 6))\000"
 10944      4352305F 
 10944      43504F4C 
 10944      5F484920 
 10944      28287569 
 10945              	.LASF420:
 10946 09cc 5F5F494E 		.ascii	"__INT8 \"hh\"\000"
 10946      54382022 
 10946      68682200 
 10947              	.LASF1189:
 10948 09d8 4932435F 		.ascii	"I2C_SLAVE_GENERAL\000"
 10948      534C4156 
 10948      455F4745 
 10948      4E455241 
ARM GAS  /tmp/ccXw4jW7.s 			page 219


 10948      4C00
 10949              	.LASF717:
 10950 09ea 494F434F 		.ascii	"IOCON_FUNC1 0x1\000"
 10950      4E5F4655 
 10950      4E433120 
 10950      30783100 
 10951              	.LASF470:
 10952 09fa 494E545F 		.ascii	"INT_LEAST16_MAX (__INT_LEAST16_MAX__)\000"
 10952      4C454153 
 10952      5431365F 
 10952      4D415820 
 10952      285F5F49 
 10953              	.LASF1:
 10954 0a20 5F5F5354 		.ascii	"__STDC_HOSTED__ 1\000"
 10954      44435F48 
 10954      4F535445 
 10954      445F5F20 
 10954      3100
 10955              	.LASF222:
 10956 0a32 5F5F554C 		.ascii	"__ULLFRACT_FBIT__ 64\000"
 10956      4C465241 
 10956      43545F46 
 10956      4249545F 
 10956      5F203634 
 10957              	.LASF789:
 10958 0a47 55415254 		.ascii	"UART2_IER_BITMASK (0x38F)\000"
 10958      325F4945 
 10958      525F4249 
 10958      544D4153 
 10958      4B202830 
 10959              	.LASF1122:
 10960 0a61 55534243 		.ascii	"USBCLKDIV\000"
 10960      4C4B4449 
 10960      5600
 10961              	.LASF58:
 10962 0a6b 5F5F494E 		.ascii	"__INT_FAST64_TYPE__ long long int\000"
 10962      545F4641 
 10962      53543634 
 10962      5F545950 
 10962      455F5F20 
 10963              	.LASF1244:
 10964 0a8d 43686970 		.ascii	"Chip_I2C_GetMasterEventHandler\000"
 10964      5F493243 
 10964      5F476574 
 10964      4D617374 
 10964      65724576 
 10965              	.LASF578:
 10966 0aac 5343425F 		.ascii	"SCB_ICSR_PENDSTSET_Pos 26\000"
 10966      49435352 
 10966      5F50454E 
 10966      44535453 
 10966      45545F50 
 10967              	.LASF461:
 10968 0ac6 494E5438 		.ascii	"INT8_MAX (__INT8_MAX__)\000"
 10968      5F4D4158 
 10968      20285F5F 
 10968      494E5438 
ARM GAS  /tmp/ccXw4jW7.s 			page 220


 10968      5F4D4158 
 10969              	.LASF710:
 10970 0ade 53595343 		.ascii	"SYSCTL_POWERDOWN_SYSOSC_PD (1 << 5)\000"
 10970      544C5F50 
 10970      4F574552 
 10970      444F574E 
 10970      5F535953 
 10971              	.LASF411:
 10972 0b02 7369676E 		.ascii	"signed +0\000"
 10972      6564202B 
 10972      3000
 10973              	.LASF502:
 10974 0b0c 50545244 		.ascii	"PTRDIFF_MAX (__PTRDIFF_MAX__)\000"
 10974      4946465F 
 10974      4D415820 
 10974      285F5F50 
 10974      54524449 
 10975              	.LASF955:
 10976 0b2a 4932435F 		.ascii	"I2C_I2CONSET_SI ((0x08))\000"
 10976      4932434F 
 10976      4E534554 
 10976      5F534920 
 10976      28283078 
 10977              	.LASF1032:
 10978 0b43 43414E5F 		.ascii	"CAN_ERROR_BOFF 0x00000004UL\000"
 10978      4552524F 
 10978      525F424F 
 10978      46462030 
 10978      78303030 
 10979              	.LASF833:
 10980 0b5f 55415254 		.ascii	"UART_MCR_BITMASK (0xD3)\000"
 10980      5F4D4352 
 10980      5F424954 
 10980      4D41534B 
 10980      20283078 
 10981              	.LASF305:
 10982 0b77 5F5F474E 		.ascii	"__GNUC_GNU_INLINE__ 1\000"
 10982      55435F47 
 10982      4E555F49 
 10982      4E4C494E 
 10982      455F5F20 
 10983              	.LASF536:
 10984 0b8d 554E5553 		.ascii	"UNUSED(x) (void)(x)\000"
 10984      45442878 
 10984      29202876 
 10984      6F696429 
 10984      28782900 
 10985              	.LASF195:
 10986 0ba1 5F5F5553 		.ascii	"__USFRACT_MAX__ 0XFFP-8UHR\000"
 10986      46524143 
 10986      545F4D41 
 10986      585F5F20 
 10986      30584646 
 10987              	.LASF331:
 10988 0bbc 5F5F4152 		.ascii	"__ARM_FEATURE_CLZ\000"
 10988      4D5F4645 
 10988      41545552 
ARM GAS  /tmp/ccXw4jW7.s 			page 221


 10988      455F434C 
 10988      5A00
 10989              	.LASF871:
 10990 0bce 55415254 		.ascii	"UART_ICR_BITMASK (0x3F)\000"
 10990      5F494352 
 10990      5F424954 
 10990      4D41534B 
 10990      20283078 
 10991              	.LASF737:
 10992 0be6 4D445F50 		.ascii	"MD_PLN (0x0 << 3)\000"
 10992      4C4E2028 
 10992      30783020 
 10992      3C3C2033 
 10992      2900
 10993              	.LASF1255:
 10994 0bf8 43686970 		.ascii	"Chip_I2C_EventHandler\000"
 10994      5F493243 
 10994      5F457665 
 10994      6E744861 
 10994      6E646C65 
 10995              	.LASF800:
 10996 0c0e 55415254 		.ascii	"UART_IIR_INTID_MODEM (0 << 1)\000"
 10996      5F494952 
 10996      5F494E54 
 10996      49445F4D 
 10996      4F44454D 
 10997              	.LASF1177:
 10998 0c2c 53544154 		.ascii	"STAT\000"
 10998      00
 10999              	.LASF592:
 11000 0c31 5343425F 		.ascii	"SCB_AIRCR_VECTKEYSTAT_Pos 16\000"
 11000      41495243 
 11000      525F5645 
 11000      43544B45 
 11000      59535441 
 11001              	.LASF807:
 11002 0c4e 55415254 		.ascii	"UART_FCR_TRG_LEV0 (0)\000"
 11002      5F464352 
 11002      5F545247 
 11002      5F4C4556 
 11002      30202830 
 11003              	.LASF960:
 11004 0c64 4932435F 		.ascii	"I2C_I2CONCLR_SIC ((1 << 3))\000"
 11004      4932434F 
 11004      4E434C52 
 11004      5F534943 
 11004      20282831 
 11005              	.LASF588:
 11006 0c80 5343425F 		.ascii	"SCB_ICSR_VECTACTIVE_Pos 0\000"
 11006      49435352 
 11006      5F564543 
 11006      54414354 
 11006      4956455F 
 11007              	.LASF1222:
 11008 0c9a 53797374 		.ascii	"SystemCoreClock\000"
 11008      656D436F 
 11008      7265436C 
ARM GAS  /tmp/ccXw4jW7.s 			page 222


 11008      6F636B00 
 11009              	.LASF467:
 11010 0caa 494E5431 		.ascii	"INT16_MAX (__INT16_MAX__)\000"
 11010      365F4D41 
 11010      5820285F 
 11010      5F494E54 
 11010      31365F4D 
 11011              	.LASF962:
 11012 0cc4 4932435F 		.ascii	"I2C_I2CONCLR_STAC ((1 << 5))\000"
 11012      4932434F 
 11012      4E434C52 
 11012      5F535441 
 11012      43202828 
 11013              	.LASF952:
 11014 0ce1 5245545F 		.ascii	"RET_SLAVE_BUSY 0\000"
 11014      534C4156 
 11014      455F4255 
 11014      53592030 
 11014      00
 11015              	.LASF212:
 11016 0cf2 5F5F554C 		.ascii	"__ULFRACT_FBIT__ 32\000"
 11016      46524143 
 11016      545F4642 
 11016      49545F5F 
 11016      20333200 
 11017              	.LASF992:
 11018 0d06 4932435F 		.ascii	"I2C_I2STAT_S_RX_PRE_SLA_DAT_NACK ((0x88))\000"
 11018      49325354 
 11018      41545F53 
 11018      5F52585F 
 11018      5052455F 
 11019              	.LASF985:
 11020 0d30 4932435F 		.ascii	"I2C_I2STAT_M_RX_DAT_ACK ((0x50))\000"
 11020      49325354 
 11020      41545F4D 
 11020      5F52585F 
 11020      4441545F 
 11021              	.LASF455:
 11022 0d51 5F5F696E 		.ascii	"__int_fast32_t_defined 1\000"
 11022      745F6661 
 11022      73743332 
 11022      5F745F64 
 11022      6566696E 
 11023              	.LASF1046:
 11024 0d6a 53444F5F 		.ascii	"SDO_ABORT_UNSUPPORTED 0x06010000UL\000"
 11024      41424F52 
 11024      545F554E 
 11024      53555050 
 11024      4F525445 
 11025              	.LASF843:
 11026 0d8d 55415254 		.ascii	"UART_LSR_BITMASK (0xFF)\000"
 11026      5F4C5352 
 11026      5F424954 
 11026      4D41534B 
 11026      20283078 
 11027              	.LASF510:
 11028 0da5 494E5431 		.ascii	"INT16_C(x) __INT16_C(x)\000"
ARM GAS  /tmp/ccXw4jW7.s 			page 223


 11028      365F4328 
 11028      7829205F 
 11028      5F494E54 
 11028      31365F43 
 11029              	.LASF996:
 11030 0dbd 4932435F 		.ascii	"I2C_I2STAT_S_TX_SLAR_ACK ((0xA8))\000"
 11030      49325354 
 11030      41545F53 
 11030      5F54585F 
 11030      534C4152 
 11031              	.LASF191:
 11032 0ddf 5F5F5346 		.ascii	"__SFRACT_EPSILON__ 0x1P-7HR\000"
 11032      52414354 
 11032      5F455053 
 11032      494C4F4E 
 11032      5F5F2030 
 11033              	.LASF1194:
 11034 0dfb 4932435F 		.ascii	"I2C_SLAVE_NUM_INTERFACE\000"
 11034      534C4156 
 11034      455F4E55 
 11034      4D5F494E 
 11034      54455246 
 11035              	.LASF281:
 11036 0e13 5F5F5553 		.ascii	"__USQ_FBIT__ 32\000"
 11036      515F4642 
 11036      49545F5F 
 11036      20333200 
 11037              	.LASF25:
 11038 0e23 5F5F4F52 		.ascii	"__ORDER_BIG_ENDIAN__ 4321\000"
 11038      4445525F 
 11038      4249475F 
 11038      454E4449 
 11038      414E5F5F 
 11039              	.LASF1165:
 11040 0e3d 53595343 		.ascii	"SYSCTL_CLOCK_CT32B0\000"
 11040      544C5F43 
 11040      4C4F434B 
 11040      5F435433 
 11040      32423000 
 11041              	.LASF1166:
 11042 0e51 53595343 		.ascii	"SYSCTL_CLOCK_CT32B1\000"
 11042      544C5F43 
 11042      4C4F434B 
 11042      5F435433 
 11042      32423100 
 11043              	.LASF271:
 11044 0e65 5F5F5351 		.ascii	"__SQ_FBIT__ 31\000"
 11044      5F464249 
 11044      545F5F20 
 11044      333100
 11045              	.LASF949:
 11046 0e74 5245545F 		.ascii	"RET_SLAVE_TX 6\000"
 11046      534C4156 
 11046      455F5458 
 11046      203600
 11047              	.LASF1038:
 11048 0e83 43414E5F 		.ascii	"CAN_ERROR_CRC 0x00000100UL\000"
ARM GAS  /tmp/ccXw4jW7.s 			page 224


 11048      4552524F 
 11048      525F4352 
 11048      43203078 
 11048      30303030 
 11049              	.LASF301:
 11050 0e9e 5F5F5554 		.ascii	"__UTA_FBIT__ 64\000"
 11050      415F4642 
 11050      49545F5F 
 11050      20363400 
 11051              	.LASF138:
 11052 0eae 5F5F4442 		.ascii	"__DBL_MANT_DIG__ 53\000"
 11052      4C5F4D41 
 11052      4E545F44 
 11052      49475F5F 
 11052      20353300 
 11053              	.LASF437:
 11054 0ec2 5F55494E 		.ascii	"_UINT16_T_DECLARED \000"
 11054      5431365F 
 11054      545F4445 
 11054      434C4152 
 11054      45442000 
 11055              	.LASF694:
 11056 0ed6 53595343 		.ascii	"SYSCTL_NMISRC_ENABLE ((uint32_t) 1 << 31)\000"
 11056      544C5F4E 
 11056      4D495352 
 11056      435F454E 
 11056      41424C45 
 11057              	.LASF806:
 11058 0f00 55415254 		.ascii	"UART_TX_FIFO_SIZE (16)\000"
 11058      5F54585F 
 11058      4649464F 
 11058      5F53495A 
 11058      45202831 
 11059              	.LASF279:
 11060 0f17 5F5F5548 		.ascii	"__UHQ_FBIT__ 16\000"
 11060      515F4642 
 11060      49545F5F 
 11060      20313600 
 11061              	.LASF482:
 11062 0f27 494E545F 		.ascii	"INT_LEAST64_MAX (__INT_LEAST64_MAX__)\000"
 11062      4C454153 
 11062      5436345F 
 11062      4D415820 
 11062      285F5F49 
 11063              	.LASF706:
 11064 0f4d 53595343 		.ascii	"SYSCTL_POWERDOWN_IRC_PD (1 << 1)\000"
 11064      544C5F50 
 11064      4F574552 
 11064      444F574E 
 11064      5F495243 
 11065              	.LASF626:
 11066 0f6e 53797354 		.ascii	"SysTick_CALIB_SKEW_Pos 30\000"
 11066      69636B5F 
 11066      43414C49 
 11066      425F534B 
 11066      45575F50 
 11067              	.LASF113:
ARM GAS  /tmp/ccXw4jW7.s 			page 225


 11068 0f88 5F5F5549 		.ascii	"__UINT_FAST8_MAX__ 0xffffffffU\000"
 11068      4E545F46 
 11068      41535438 
 11068      5F4D4158 
 11068      5F5F2030 
 11069              	.LASF171:
 11070 0fa7 5F5F4445 		.ascii	"__DEC32_EPSILON__ 1E-6DF\000"
 11070      4333325F 
 11070      45505349 
 11070      4C4F4E5F 
 11070      5F203145 
 11071              	.LASF505:
 11072 0fc0 57434841 		.ascii	"WCHAR_MAX (__WCHAR_MAX__)\000"
 11072      525F4D41 
 11072      5820285F 
 11072      5F574348 
 11072      41525F4D 
 11073              	.LASF1034:
 11074 0fda 43414E5F 		.ascii	"CAN_ERROR_FORM 0x00000010UL\000"
 11074      4552524F 
 11074      525F464F 
 11074      524D2030 
 11074      78303030 
 11075              	.LASF1171:
 11076 0ff6 53595343 		.ascii	"SYSCTL_CLOCK_WDT\000"
 11076      544C5F43 
 11076      4C4F434B 
 11076      5F574454 
 11076      00
 11077              	.LASF464:
 11078 1007 494E545F 		.ascii	"INT_LEAST8_MAX (__INT_LEAST8_MAX__)\000"
 11078      4C454153 
 11078      54385F4D 
 11078      41582028 
 11078      5F5F494E 
 11079              	.LASF552:
 11080 102b 5F5F4153 		.ascii	"__ASM __asm\000"
 11080      4D205F5F 
 11080      61736D00 
 11081              	.LASF1080:
 11082 1037 5F5F7569 		.ascii	"__uint8_t\000"
 11082      6E74385F 
 11082      7400
 11083              	.LASF881:
 11084 1041 55415254 		.ascii	"UART_TER1_TXEN (1 << 7)\000"
 11084      5F544552 
 11084      315F5458 
 11084      454E2028 
 11084      31203C3C 
 11085              	.LASF700:
 11086 1059 53595343 		.ascii	"SYSCTL_SLPWAKE_BOD_PD (1 << 3)\000"
 11086      544C5F53 
 11086      4C505741 
 11086      4B455F42 
 11086      4F445F50 
 11087              	.LASF929:
 11088 1078 4144435F 		.ascii	"ADC_DR_RESULT(n) ((((n) >> 6) & 0x3FF))\000"
ARM GAS  /tmp/ccXw4jW7.s 			page 226


 11088      44525F52 
 11088      4553554C 
 11088      54286E29 
 11088      20282828 
 11089              	.LASF1155:
 11090 10a0 4C50435F 		.ascii	"LPC_SYSCTL_T\000"
 11090      53595343 
 11090      544C5F54 
 11090      00
 11091              	.LASF787:
 11092 10ad 55415254 		.ascii	"UART_IER_BITMASK (0x307)\000"
 11092      5F494552 
 11092      5F424954 
 11092      4D41534B 
 11092      20283078 
 11093              	.LASF763:
 11094 10c6 54494D45 		.ascii	"TIMER_ENABLE ((uint32_t) (1 << 0))\000"
 11094      525F454E 
 11094      41424C45 
 11094      20282875 
 11094      696E7433 
 11095              	.LASF345:
 11096 10e9 5F5F5646 		.ascii	"__VFP_FP__ 1\000"
 11096      505F4650 
 11096      5F5F2031 
 11096      00
 11097              	.LASF430:
 11098 10f6 5F5F4C45 		.ascii	"__LEAST32 \"l\"\000"
 11098      41535433 
 11098      3220226C 
 11098      2200
 11099              	.LASF423:
 11100 1104 5F5F494E 		.ascii	"__INT64 \"ll\"\000"
 11100      54363420 
 11100      226C6C22 
 11100      00
 11101              	.LASF117:
 11102 1111 5F5F494E 		.ascii	"__INTPTR_MAX__ 0x7fffffff\000"
 11102      54505452 
 11102      5F4D4158 
 11102      5F5F2030 
 11102      78376666 
 11103              	.LASF675:
 11104 112b 4C50435F 		.ascii	"LPC_IOCON ((LPC_IOCON_T *) LPC_IOCON_BASE)\000"
 11104      494F434F 
 11104      4E202828 
 11104      4C50435F 
 11104      494F434F 
 11105              	.LASF890:
 11106 1156 5F5F5757 		.ascii	"__WWDT_11XX_H_ \000"
 11106      44545F31 
 11106      3158585F 
 11106      485F2000 
 11107              	.LASF986:
 11108 1166 4932435F 		.ascii	"I2C_I2STAT_M_RX_DAT_NACK ((0x58))\000"
 11108      49325354 
 11108      41545F4D 
ARM GAS  /tmp/ccXw4jW7.s 			page 227


 11108      5F52585F 
 11108      4441545F 
 11109              	.LASF1190:
 11110 1188 4932435F 		.ascii	"I2C_SLAVE_0\000"
 11110      534C4156 
 11110      455F3000 
 11111              	.LASF1191:
 11112 1194 4932435F 		.ascii	"I2C_SLAVE_1\000"
 11112      534C4156 
 11112      455F3100 
 11113              	.LASF1192:
 11114 11a0 4932435F 		.ascii	"I2C_SLAVE_2\000"
 11114      534C4156 
 11114      455F3200 
 11115              	.LASF1193:
 11116 11ac 4932435F 		.ascii	"I2C_SLAVE_3\000"
 11116      534C4156 
 11116      455F3300 
 11117              	.LASF1091:
 11118 11b8 45787452 		.ascii	"ExtRateIn\000"
 11118      61746549 
 11118      6E00
 11119              	.LASF808:
 11120 11c2 55415254 		.ascii	"UART_FCR_TRG_LEV1 (1 << 6)\000"
 11120      5F464352 
 11120      5F545247 
 11120      5F4C4556 
 11120      31202831 
 11121              	.LASF831:
 11122 11dd 55415254 		.ascii	"UART_MCR_AUTO_RTS_EN (1 << 6)\000"
 11122      5F4D4352 
 11122      5F415554 
 11122      4F5F5254 
 11122      535F454E 
 11123              	.LASF1139:
 11124 11fb 50494E54 		.ascii	"PINTSEL\000"
 11124      53454C00 
 11125              	.LASF170:
 11126 1203 5F5F4445 		.ascii	"__DEC32_MAX__ 9.999999E96DF\000"
 11126      4333325F 
 11126      4D41585F 
 11126      5F20392E 
 11126      39393939 
 11127              	.LASF204:
 11128 121f 5F5F5546 		.ascii	"__UFRACT_MIN__ 0.0UR\000"
 11128      52414354 
 11128      5F4D494E 
 11128      5F5F2030 
 11128      2E305552 
 11129              	.LASF861:
 11130 1234 55415254 		.ascii	"UART_RS485CTRL_RX_DIS (1 << 1)\000"
 11130      5F525334 
 11130      38354354 
 11130      524C5F52 
 11130      585F4449 
 11131              	.LASF165:
 11132 1253 5F5F4C44 		.ascii	"__LDBL_HAS_QUIET_NAN__ 1\000"
ARM GAS  /tmp/ccXw4jW7.s 			page 228


 11132      424C5F48 
 11132      41535F51 
 11132      55494554 
 11132      5F4E414E 
 11133              	.LASF907:
 11134 126c 5353505F 		.ascii	"SSP_CR0_BITMASK ((uint32_t) (0xFFFF))\000"
 11134      4352305F 
 11134      4249544D 
 11134      41534B20 
 11134      28287569 
 11135              	.LASF447:
 11136 1292 5F494E54 		.ascii	"_INTPTR_T_DECLARED \000"
 11136      5054525F 
 11136      545F4445 
 11136      434C4152 
 11136      45442000 
 11137              	.LASF658:
 11138 12a6 4C50435F 		.ascii	"LPC_GPIO_PORT0_BASE 0x50000000\000"
 11138      4750494F 
 11138      5F504F52 
 11138      54305F42 
 11138      41534520 
 11139              	.LASF490:
 11140 12c5 494E545F 		.ascii	"INT_FAST32_MIN (-__INT_FAST32_MAX__ - 1)\000"
 11140      46415354 
 11140      33325F4D 
 11140      494E2028 
 11140      2D5F5F49 
 11141              	.LASF616:
 11142 12ee 53797354 		.ascii	"SysTick_CTRL_TICKINT_Pos 1\000"
 11142      69636B5F 
 11142      4354524C 
 11142      5F544943 
 11142      4B494E54 
 11143              	.LASF547:
 11144 1309 5F5F434F 		.ascii	"__CORE_CM0_H_GENERIC \000"
 11144      52455F43 
 11144      4D305F48 
 11144      5F47454E 
 11144      45524943 
 11145              	.LASF51:
 11146 131f 5F5F5549 		.ascii	"__UINT_LEAST8_TYPE__ unsigned char\000"
 11146      4E545F4C 
 11146      45415354 
 11146      385F5459 
 11146      50455F5F 
 11147              	.LASF994:
 11148 1342 4932435F 		.ascii	"I2C_I2STAT_S_RX_PRE_GENCALL_DAT_NACK ((0x98))\000"
 11148      49325354 
 11148      41545F53 
 11148      5F52585F 
 11148      5052455F 
 11149              	.LASF237:
 11150 1370 5F5F4143 		.ascii	"__ACCUM_FBIT__ 15\000"
 11150      43554D5F 
 11150      46424954 
 11150      5F5F2031 
ARM GAS  /tmp/ccXw4jW7.s 			page 229


 11150      3500
 11151              	.LASF372:
 11152 1382 5F5F474E 		.ascii	"__GNUC_PREREQ(maj,min) ((__GNUC__ << 16) + __GNUC_M"
 11152      55435F50 
 11152      52455245 
 11152      51286D61 
 11152      6A2C6D69 
 11153 13b5 494E4F52 		.ascii	"INOR__ >= ((maj) << 16) + (min))\000"
 11153      5F5F203E 
 11153      3D202828 
 11153      6D616A29 
 11153      203C3C20 
 11154              	.LASF678:
 11155 13d6 4C50435F 		.ascii	"LPC_CCAN ((LPC_CCAN_T *) LPC_CAN0_BASE)\000"
 11155      4343414E 
 11155      2028284C 
 11155      50435F43 
 11155      43414E5F 
 11156              	.LASF243:
 11157 13fe 5F5F5541 		.ascii	"__UACCUM_IBIT__ 16\000"
 11157      4343554D 
 11157      5F494249 
 11157      545F5F20 
 11157      313600
 11158              	.LASF1079:
 11159 1411 6C6F6E67 		.ascii	"long int\000"
 11159      20696E74 
 11159      00
 11160              	.LASF993:
 11161 141a 4932435F 		.ascii	"I2C_I2STAT_S_RX_PRE_GENCALL_DAT_ACK ((0x90))\000"
 11161      49325354 
 11161      41545F53 
 11161      5F52585F 
 11161      5052455F 
 11162              	.LASF441:
 11163 1447 5F5F696E 		.ascii	"__int32_t_defined 1\000"
 11163      7433325F 
 11163      745F6465 
 11163      66696E65 
 11163      64203100 
 11164              	.LASF112:
 11165 145b 5F5F494E 		.ascii	"__INT_FAST64_MAX__ 0x7fffffffffffffffLL\000"
 11165      545F4641 
 11165      53543634 
 11165      5F4D4158 
 11165      5F5F2030 
 11166              	.LASF146:
 11167 1483 5F5F4442 		.ascii	"__DBL_MIN__ ((double)2.2250738585072014e-308L)\000"
 11167      4C5F4D49 
 11167      4E5F5F20 
 11167      2828646F 
 11167      75626C65 
 11168              	.LASF1059:
 11169 14b2 4F445F45 		.ascii	"OD_EXP_RO 0x10\000"
 11169      58505F52 
 11169      4F203078 
 11169      313000
ARM GAS  /tmp/ccXw4jW7.s 			page 230


 11170              	.LASF1132:
 11171 14c1 50494F50 		.ascii	"PIOPORCAP\000"
 11171      4F524341 
 11171      5000
 11172              	.LASF399:
 11173 14cb 5F5F5F69 		.ascii	"___int_least16_t_defined 1\000"
 11173      6E745F6C 
 11173      65617374 
 11173      31365F74 
 11173      5F646566 
 11174              	.LASF607:
 11175 14e6 5343425F 		.ascii	"SCB_CCR_STKALIGN_Msk (1UL << SCB_CCR_STKALIGN_Pos)\000"
 11175      4343525F 
 11175      53544B41 
 11175      4C49474E 
 11175      5F4D736B 
 11176              	.LASF181:
 11177 1519 5F5F4445 		.ascii	"__DEC128_MIN_EXP__ (-6142)\000"
 11177      43313238 
 11177      5F4D494E 
 11177      5F455850 
 11177      5F5F2028 
 11178              	.LASF736:
 11179 1534 494F434F 		.ascii	"IOCON_OPENDRAIN_EN (0x1 << 10)\000"
 11179      4E5F4F50 
 11179      454E4452 
 11179      41494E5F 
 11179      454E2028 
 11180              	.LASF55:
 11181 1553 5F5F494E 		.ascii	"__INT_FAST8_TYPE__ int\000"
 11181      545F4641 
 11181      5354385F 
 11181      54595045 
 11181      5F5F2069 
 11182              	.LASF1105:
 11183 156a 53595350 		.ascii	"SYSPLLCLKSEL\000"
 11183      4C4C434C 
 11183      4B53454C 
 11183      00
 11184              	.LASF299:
 11185 1577 5F5F5544 		.ascii	"__UDA_FBIT__ 32\000"
 11185      415F4642 
 11185      49545F5F 
 11185      20333200 
 11186              	.LASF1125:
 11187 1587 57445443 		.ascii	"WDTCLKUEN\000"
 11187      4C4B5545 
 11187      4E00
 11188              	.LASF829:
 11189 1591 55415254 		.ascii	"UART_MCR_RTS_CTRL (1 << 1)\000"
 11189      5F4D4352 
 11189      5F525453 
 11189      5F435452 
 11189      4C202831 
 11190              	.LASF1217:
 11191 15ac 4932435F 		.ascii	"I2C_EVENT_UNLOCK\000"
 11191      4556454E 
ARM GAS  /tmp/ccXw4jW7.s 			page 231


 11191      545F554E 
 11191      4C4F434B 
 11191      00
 11192              	.LASF82:
 11193 15bd 5F5F5549 		.ascii	"__UINTMAX_C(c) c ## ULL\000"
 11193      4E544D41 
 11193      585F4328 
 11193      63292063 
 11193      20232320 
 11194              	.LASF29:
 11195 15d5 5F5F5349 		.ascii	"__SIZEOF_POINTER__ 4\000"
 11195      5A454F46 
 11195      5F504F49 
 11195      4E544552 
 11195      5F5F2034 
 11196              	.LASF47:
 11197 15ea 5F5F494E 		.ascii	"__INT_LEAST8_TYPE__ signed char\000"
 11197      545F4C45 
 11197      41535438 
 11197      5F545950 
 11197      455F5F20 
 11198              	.LASF307:
 11199 160a 5F5F4743 		.ascii	"__GCC_ATOMIC_BOOL_LOCK_FREE 1\000"
 11199      435F4154 
 11199      4F4D4943 
 11199      5F424F4F 
 11199      4C5F4C4F 
 11200              	.LASF723:
 11201 1628 494F434F 		.ascii	"IOCON_FUNC7 0x7\000"
 11201      4E5F4655 
 11201      4E433720 
 11201      30783700 
 11202              	.LASF649:
 11203 1638 4C50435F 		.ascii	"LPC_ACMP_BASE 0x40028000\000"
 11203      41434D50 
 11203      5F424153 
 11203      45203078 
 11203      34303032 
 11204              	.LASF348:
 11205 1651 5F5F4152 		.ascii	"__ARM_NEON__\000"
 11205      4D5F4E45 
 11205      4F4E5F5F 
 11205      00
 11206              	.LASF459:
 11207 165e 55494E54 		.ascii	"UINTPTR_MAX (__UINTPTR_MAX__)\000"
 11207      5054525F 
 11207      4D415820 
 11207      285F5F55 
 11207      494E5450 
 11208              	.LASF351:
 11209 167c 5F5F5448 		.ascii	"__THUMB_INTERWORK__ 1\000"
 11209      554D425F 
 11209      494E5445 
 11209      52574F52 
 11209      4B5F5F20 
 11210              	.LASF225:
 11211 1692 5F5F554C 		.ascii	"__ULLFRACT_MAX__ 0XFFFFFFFFFFFFFFFFP-64ULLR\000"
ARM GAS  /tmp/ccXw4jW7.s 			page 232


 11211      4C465241 
 11211      43545F4D 
 11211      41585F5F 
 11211      20305846 
 11212              	.LASF1024:
 11213 16be 4932435F 		.ascii	"I2C_NAK_RECV (0x10000000 | 0x01)\000"
 11213      4E414B5F 
 11213      52454356 
 11213      20283078 
 11213      31303030 
 11214              	.LASF745:
 11215 16df 4D445F44 		.ascii	"MD_DISFIL (0x0 << 8)\000"
 11215      49534649 
 11215      4C202830 
 11215      7830203C 
 11215      3C203829 
 11216              	.LASF968:
 11217 16f4 4932435F 		.ascii	"I2C_CON_I2EN (1UL << 6)\000"
 11217      434F4E5F 
 11217      4932454E 
 11217      20283155 
 11217      4C203C3C 
 11218              	.LASF669:
 11219 170c 4C50435F 		.ascii	"LPC_TIMER32_0 ((LPC_TIMER_T *) LPC_TIMER32_0_BASE)\000"
 11219      54494D45 
 11219      5233325F 
 11219      30202828 
 11219      4C50435F 
 11220              	.LASF443:
 11221 173f 5F55494E 		.ascii	"_UINT64_T_DECLARED \000"
 11221      5436345F 
 11221      545F4445 
 11221      434C4152 
 11221      45442000 
 11222              	.LASF37:
 11223 1753 5F5F4348 		.ascii	"__CHAR32_TYPE__ long unsigned int\000"
 11223      41523332 
 11223      5F545950 
 11223      455F5F20 
 11223      6C6F6E67 
 11224              	.LASF481:
 11225 1775 494E545F 		.ascii	"INT_LEAST64_MIN (-__INT_LEAST64_MAX__ - 1)\000"
 11225      4C454153 
 11225      5436345F 
 11225      4D494E20 
 11225      282D5F5F 
 11226              	.LASF379:
 11227 17a0 5F504F53 		.ascii	"_POSIX_C_SOURCE 200809L\000"
 11227      49585F43 
 11227      5F534F55 
 11227      52434520 
 11227      32303038 
 11228              	.LASF115:
 11229 17b8 5F5F5549 		.ascii	"__UINT_FAST32_MAX__ 0xffffffffU\000"
 11229      4E545F46 
 11229      41535433 
 11229      325F4D41 
ARM GAS  /tmp/ccXw4jW7.s 			page 233


 11229      585F5F20 
 11230              	.LASF128:
 11231 17d8 5F5F464C 		.ascii	"__FLT_MAX_EXP__ 128\000"
 11231      545F4D41 
 11231      585F4558 
 11231      505F5F20 
 11231      31323800 
 11232              	.LASF15:
 11233 17ec 5F5F5349 		.ascii	"__SIZEOF_LONG__ 4\000"
 11233      5A454F46 
 11233      5F4C4F4E 
 11233      475F5F20 
 11233      3400
 11234              	.LASF394:
 11235 17fe 5F5F5F69 		.ascii	"___int8_t_defined 1\000"
 11235      6E74385F 
 11235      745F6465 
 11235      66696E65 
 11235      64203100 
 11236              	.LASF664:
 11237 1812 4C50435F 		.ascii	"LPC_I2C ((LPC_I2C_T *) LPC_I2C_BASE)\000"
 11237      49324320 
 11237      28284C50 
 11237      435F4932 
 11237      435F5420 
 11238              	.LASF863:
 11239 1837 55415254 		.ascii	"UART_RS485CTRL_SEL_DTR (1 << 3)\000"
 11239      5F525334 
 11239      38354354 
 11239      524C5F53 
 11239      454C5F44 
 11240              	.LASF19:
 11241 1857 5F5F5349 		.ascii	"__SIZEOF_DOUBLE__ 8\000"
 11241      5A454F46 
 11241      5F444F55 
 11241      424C455F 
 11241      5F203800 
 11242              	.LASF830:
 11243 186b 55415254 		.ascii	"UART_MCR_LOOPB_EN (1 << 4)\000"
 11243      5F4D4352 
 11243      5F4C4F4F 
 11243      50425F45 
 11243      4E202831 
 11244              	.LASF998:
 11245 1886 4932435F 		.ascii	"I2C_I2STAT_S_TX_DAT_ACK ((0xB8))\000"
 11245      49325354 
 11245      41545F53 
 11245      5F54585F 
 11245      4441545F 
 11246              	.LASF743:
 11247 18a7 4D445F41 		.ascii	"MD_ADMODE (0x0 << 7)\000"
 11247      444D4F44 
 11247      45202830 
 11247      7830203C 
 11247      3C203729 
 11248              	.LASF740:
 11249 18bc 4D445F42 		.ascii	"MD_BUK (0x3 << 3)\000"
ARM GAS  /tmp/ccXw4jW7.s 			page 234


 11249      554B2028 
 11249      30783320 
 11249      3C3C2033 
 11249      2900
 11250              	.LASF1252:
 11251 18ce 43686970 		.ascii	"Chip_I2C_EventHandlerPolling\000"
 11251      5F493243 
 11251      5F457665 
 11251      6E744861 
 11251      6E646C65 
 11252              	.LASF1033:
 11253 18eb 43414E5F 		.ascii	"CAN_ERROR_STUF 0x00000008UL\000"
 11253      4552524F 
 11253      525F5354 
 11253      55462030 
 11253      78303030 
 11254              	.LASF801:
 11255 1907 55415254 		.ascii	"UART_FCR_FIFO_EN (1 << 0)\000"
 11255      5F464352 
 11255      5F464946 
 11255      4F5F454E 
 11255      20283120 
 11256              	.LASF718:
 11257 1921 494F434F 		.ascii	"IOCON_FUNC2 0x2\000"
 11257      4E5F4655 
 11257      4E433220 
 11257      30783200 
 11258              	.LASF425:
 11259 1931 5F5F4641 		.ascii	"__FAST16 \000"
 11259      53543136 
 11259      2000
 11260              	.LASF954:
 11261 193b 4932435F 		.ascii	"I2C_I2CONSET_AA ((0x04))\000"
 11261      4932434F 
 11261      4E534554 
 11261      5F414120 
 11261      28283078 
 11262              	.LASF613:
 11263 1954 53797354 		.ascii	"SysTick_CTRL_COUNTFLAG_Msk (1UL << SysTick_CTRL_COU"
 11263      69636B5F 
 11263      4354524C 
 11263      5F434F55 
 11263      4E54464C 
 11264 1987 4E54464C 		.ascii	"NTFLAG_Pos)\000"
 11264      41475F50 
 11264      6F732900 
 11265              	.LASF386:
 11266 1993 5F5F4C41 		.ascii	"__LARGEFILE_VISIBLE 0\000"
 11266      52474546 
 11266      494C455F 
 11266      56495349 
 11266      424C4520 
 11267              	.LASF177:
 11268 19a9 5F5F4445 		.ascii	"__DEC64_MAX__ 9.999999999999999E384DD\000"
 11268      4336345F 
 11268      4D41585F 
 11268      5F20392E 
ARM GAS  /tmp/ccXw4jW7.s 			page 235


 11268      39393939 
 11269              	.LASF369:
 11270 19cf 5F5F4E45 		.ascii	"__NEWLIB__ 2\000"
 11270      574C4942 
 11270      5F5F2032 
 11270      00
 11271              	.LASF1152:
 11272 19dc 50445255 		.ascii	"PDRUNCFG\000"
 11272      4E434647 
 11272      00
 11273              	.LASF603:
 11274 19e5 5343425F 		.ascii	"SCB_SCR_SLEEPDEEP_Msk (1UL << SCB_SCR_SLEEPDEEP_Pos"
 11274      5343525F 
 11274      534C4545 
 11274      50444545 
 11274      505F4D73 
 11275 1a18 2900     		.ascii	")\000"
 11276              	.LASF974:
 11277 1a1a 4932435F 		.ascii	"I2C_I2STAT_M_TX_RESTART ((0x10))\000"
 11277      49325354 
 11277      41545F4D 
 11277      5F54585F 
 11277      52455354 
 11278              	.LASF920:
 11279 1a3b 5353505F 		.ascii	"SSP_CPOL_HI SSP_CR0_CPOL_LO\000"
 11279      43504F4C 
 11279      5F484920 
 11279      5353505F 
 11279      4352305F 
 11280              	.LASF127:
 11281 1a57 5F5F464C 		.ascii	"__FLT_MIN_10_EXP__ (-37)\000"
 11281      545F4D49 
 11281      4E5F3130 
 11281      5F455850 
 11281      5F5F2028 
 11282              	.LASF385:
 11283 1a70 5F5F4953 		.ascii	"__ISO_C_VISIBLE 1999\000"
 11283      4F5F435F 
 11283      56495349 
 11283      424C4520 
 11283      31393939 
 11284              	.LASF788:
 11285 1a85 55415254 		.ascii	"UART1_IER_BITMASK (0x30F)\000"
 11285      315F4945 
 11285      525F4249 
 11285      544D4153 
 11285      4B202830 
 11286              	.LASF938:
 11287 1a9f 4144435F 		.ascii	"ADC_CR_START_MODE_SEL(SEL) ((SEL << 24))\000"
 11287      43525F53 
 11287      54415254 
 11287      5F4D4F44 
 11287      455F5345 
 11288              	.LASF130:
 11289 1ac8 5F5F464C 		.ascii	"__FLT_DECIMAL_DIG__ 9\000"
 11289      545F4445 
 11289      43494D41 
ARM GAS  /tmp/ccXw4jW7.s 			page 236


 11289      4C5F4449 
 11289      475F5F20 
 11290              	.LASF434:
 11291 1ade 5F55494E 		.ascii	"_UINT8_T_DECLARED \000"
 11291      54385F54 
 11291      5F444543 
 11291      4C415245 
 11291      442000
 11292              	.LASF795:
 11293 1af1 55415254 		.ascii	"UART_IIR_INTID_MASK (7 << 1)\000"
 11293      5F494952 
 11293      5F494E54 
 11293      49445F4D 
 11293      41534B20 
 11294              	.LASF1075:
 11295 1b0e 7369676E 		.ascii	"signed char\000"
 11295      65642063 
 11295      68617200 
 11296              	.LASF862:
 11297 1b1a 55415254 		.ascii	"UART_RS485CTRL_AADEN (1 << 2)\000"
 11297      5F525334 
 11297      38354354 
 11297      524C5F41 
 11297      4144454E 
 11298              	.LASF927:
 11299 1b38 5F5F4144 		.ascii	"__ADC_11XX_H_ \000"
 11299      435F3131 
 11299      58585F48 
 11299      5F2000
 11300              	.LASF1086:
 11301 1b47 75696E74 		.ascii	"uint8_t\000"
 11301      385F7400 
 11302              	.LASF707:
 11303 1b4f 53595343 		.ascii	"SYSCTL_POWERDOWN_FLASH_PD (1 << 2)\000"
 11303      544C5F50 
 11303      4F574552 
 11303      444F574E 
 11303      5F464C41 
 11304              	.LASF1107:
 11305 1b72 55534250 		.ascii	"USBPLLCLKSEL\000"
 11305      4C4C434C 
 11305      4B53454C 
 11305      00
 11306              	.LASF541:
 11307 1b7f 43484950 		.ascii	"CHIP_LPC11CXX \000"
 11307      5F4C5043 
 11307      31314358 
 11307      582000
 11308              	.LASF1064:
 11309 1b8e 4F445F53 		.ascii	"OD_SEG_RW 0x60\000"
 11309      45475F52 
 11309      57203078 
 11309      363000
 11310              	.LASF909:
 11311 1b9d 5353505F 		.ascii	"SSP_CR1_SSP_EN ((uint32_t) (1 << 1))\000"
 11311      4352315F 
 11311      5353505F 
ARM GAS  /tmp/ccXw4jW7.s 			page 237


 11311      454E2028 
 11311      2875696E 
 11312              	.LASF1250:
 11313 1bc2 43686970 		.ascii	"Chip_I2C_DeInit\000"
 11313      5F493243 
 11313      5F446549 
 11313      6E697400 
 11314              	.LASF979:
 11315 1bd2 4932435F 		.ascii	"I2C_I2STAT_M_TX_ARB_LOST ((0x38))\000"
 11315      49325354 
 11315      41545F4D 
 11315      5F54585F 
 11315      4152425F 
 11316              	.LASF504:
 11317 1bf4 57434841 		.ascii	"WCHAR_MIN (__WCHAR_MIN__)\000"
 11317      525F4D49 
 11317      4E20285F 
 11317      5F574348 
 11317      41525F4D 
 11318              	.LASF951:
 11319 1c0e 5245545F 		.ascii	"RET_SLAVE_IDLE 2\000"
 11319      534C4156 
 11319      455F4944 
 11319      4C452032 
 11319      00
 11320              	.LASF197:
 11321 1c1f 5F5F4652 		.ascii	"__FRACT_FBIT__ 15\000"
 11321      4143545F 
 11321      46424954 
 11321      5F5F2031 
 11321      3500
 11322              	.LASF1129:
 11323 1c31 434C4B4F 		.ascii	"CLKOUTUEN\000"
 11323      55545545 
 11323      4E00
 11324              	.LASF137:
 11325 1c3b 5F5F464C 		.ascii	"__FLT_HAS_QUIET_NAN__ 1\000"
 11325      545F4841 
 11325      535F5155 
 11325      4945545F 
 11325      4E414E5F 
 11326              	.LASF529:
 11327 1c53 5F534246 		.ascii	"_SBF(f,v) ((v) << (f))\000"
 11327      28662C76 
 11327      29202828 
 11327      7629203C 
 11327      3C202866 
 11328              	.LASF4:
 11329 1c6a 5F5F474E 		.ascii	"__GNUC_PATCHLEVEL__ 1\000"
 11329      55435F50 
 11329      41544348 
 11329      4C455645 
 11329      4C5F5F20 
 11330              	.LASF595:
 11331 1c80 5343425F 		.ascii	"SCB_AIRCR_ENDIANESS_Msk (1UL << SCB_AIRCR_ENDIANESS"
 11331      41495243 
 11331      525F454E 
ARM GAS  /tmp/ccXw4jW7.s 			page 238


 11331      4449414E 
 11331      4553535F 
 11332 1cb3 5F506F73 		.ascii	"_Pos)\000"
 11332      2900
 11333              	.LASF103:
 11334 1cb9 5F5F5549 		.ascii	"__UINT_LEAST16_MAX__ 0xffff\000"
 11334      4E545F4C 
 11334      45415354 
 11334      31365F4D 
 11334      41585F5F 
 11335              	.LASF870:
 11336 1cd5 55415254 		.ascii	"UART_ICR_PULSEDIV(n) ((n & 0x07) << 3)\000"
 11336      5F494352 
 11336      5F50554C 
 11336      53454449 
 11336      56286E29 
 11337              	.LASF836:
 11338 1cfc 55415254 		.ascii	"UART_LSR_PE (1 << 2)\000"
 11338      5F4C5352 
 11338      5F504520 
 11338      2831203C 
 11338      3C203229 
 11339              	.LASF921:
 11340 1d11 5353505F 		.ascii	"SSP_CPOL_LO SSP_CR0_CPOL_HI\000"
 11340      43504F4C 
 11340      5F4C4F20 
 11340      5353505F 
 11340      4352305F 
 11341              	.LASF1263:
 11342 1d2d 6973536C 		.ascii	"isSlaveAddrMatching\000"
 11342      61766541 
 11342      6464724D 
 11342      61746368 
 11342      696E6700 
 11343              	.LASF364:
 11344 1d41 5F535444 		.ascii	"_STDINT_H \000"
 11344      494E545F 
 11344      482000
 11345              	.LASF673:
 11346 1d4c 4C50435F 		.ascii	"LPC_FMC ((LPC_FMC_T *) LPC_FLASH_BASE)\000"
 11346      464D4320 
 11346      28284C50 
 11346      435F464D 
 11346      435F5420 
 11347              	.LASF589:
 11348 1d73 5343425F 		.ascii	"SCB_ICSR_VECTACTIVE_Msk (0x1FFUL << SCB_ICSR_VECTAC"
 11348      49435352 
 11348      5F564543 
 11348      54414354 
 11348      4956455F 
 11349 1da6 54495645 		.ascii	"TIVE_Pos)\000"
 11349      5F506F73 
 11349      2900
 11350              	.LASF826:
 11351 1db0 55415254 		.ascii	"UART_LCR_DLAB_EN (1 << 7)\000"
 11351      5F4C4352 
 11351      5F444C41 
ARM GAS  /tmp/ccXw4jW7.s 			page 239


 11351      425F454E 
 11351      20283120 
 11352              	.LASF556:
 11353 1dca 5F5F434F 		.ascii	"__CORE_CMINSTR_H \000"
 11353      52455F43 
 11353      4D494E53 
 11353      54525F48 
 11353      2000
 11354              	.LASF487:
 11355 1ddc 494E545F 		.ascii	"INT_FAST16_MIN (-__INT_FAST16_MAX__ - 1)\000"
 11355      46415354 
 11355      31365F4D 
 11355      494E2028 
 11355      2D5F5F49 
 11356              	.LASF853:
 11357 1e05 55415254 		.ascii	"UART_MSR_BITMASK (0xFF)\000"
 11357      5F4D5352 
 11357      5F424954 
 11357      4D41534B 
 11357      20283078 
 11358              	.LASF1213:
 11359 1e1d 4932435F 		.ascii	"I2C_ID_T\000"
 11359      49445F54 
 11359      00
 11360              	.LASF867:
 11361 1e26 55415254 		.ascii	"UART_ICR_IRDAEN (1 << 0)\000"
 11361      5F494352 
 11361      5F495244 
 11361      41454E20 
 11361      2831203C 
 11362              	.LASF396:
 11363 1e3f 5F5F5F69 		.ascii	"___int32_t_defined 1\000"
 11363      6E743332 
 11363      5F745F64 
 11363      6566696E 
 11363      65642031 
 11364              	.LASF1098:
 11365 1e54 52455345 		.ascii	"RESERVED1\000"
 11365      52564544 
 11365      3100
 11366              	.LASF1076:
 11367 1e5e 756E7369 		.ascii	"unsigned char\000"
 11367      676E6564 
 11367      20636861 
 11367      7200
 11368              	.LASF1109:
 11369 1e6c 52455345 		.ascii	"RESERVED3\000"
 11369      52564544 
 11369      3300
 11370              	.LASF1113:
 11371 1e76 52455345 		.ascii	"RESERVED4\000"
 11371      52564544 
 11371      3400
 11372              	.LASF1115:
 11373 1e80 52455345 		.ascii	"RESERVED5\000"
 11373      52564544 
 11373      3500
ARM GAS  /tmp/ccXw4jW7.s 			page 240


 11374              	.LASF1119:
 11375 1e8a 52455345 		.ascii	"RESERVED6\000"
 11375      52564544 
 11375      3600
 11376              	.LASF1123:
 11377 1e94 52455345 		.ascii	"RESERVED7\000"
 11377      52564544 
 11377      3700
 11378              	.LASF1127:
 11379 1e9e 52455345 		.ascii	"RESERVED8\000"
 11379      52564544 
 11379      3800
 11380              	.LASF1131:
 11381 1ea8 52455345 		.ascii	"RESERVED9\000"
 11381      52564544 
 11381      3900
 11382              	.LASF182:
 11383 1eb2 5F5F4445 		.ascii	"__DEC128_MAX_EXP__ 6145\000"
 11383      43313238 
 11383      5F4D4158 
 11383      5F455850 
 11383      5F5F2036 
 11384              	.LASF119:
 11385 1eca 5F5F4743 		.ascii	"__GCC_IEC_559 0\000"
 11385      435F4945 
 11385      435F3535 
 11385      39203000 
 11386              	.LASF1110:
 11387 1eda 4D41494E 		.ascii	"MAINCLKSEL\000"
 11387      434C4B53 
 11387      454C00
 11388              	.LASF1054:
 11389 1ee5 53444F5F 		.ascii	"SDO_ABORT_VALUE_RANGE 0x06090030UL\000"
 11389      41424F52 
 11389      545F5641 
 11389      4C55455F 
 11389      52414E47 
 11390              	.LASF111:
 11391 1f08 5F5F494E 		.ascii	"__INT_FAST32_MAX__ 0x7fffffff\000"
 11391      545F4641 
 11391      53543332 
 11391      5F4D4158 
 11391      5F5F2030 
 11392              	.LASF7:
 11393 1f26 5F5F4154 		.ascii	"__ATOMIC_SEQ_CST 5\000"
 11393      4F4D4943 
 11393      5F534551 
 11393      5F435354 
 11393      203500
 11394              	.LASF605:
 11395 1f39 5343425F 		.ascii	"SCB_SCR_SLEEPONEXIT_Msk (1UL << SCB_SCR_SLEEPONEXIT"
 11395      5343525F 
 11395      534C4545 
 11395      504F4E45 
 11395      5849545F 
 11396 1f6c 5F506F73 		.ascii	"_Pos)\000"
 11396      2900
ARM GAS  /tmp/ccXw4jW7.s 			page 241


 11397              	.LASF355:
 11398 1f72 5F5F4152 		.ascii	"__ARM_ARCH_EXT_IDIV__\000"
 11398      4D5F4152 
 11398      43485F45 
 11398      58545F49 
 11398      4449565F 
 11399              	.LASF741:
 11400 1f88 4D445F48 		.ascii	"MD_HYS (0x1 << 5)\000"
 11400      59532028 
 11400      30783120 
 11400      3C3C2035 
 11400      2900
 11401              	.LASF915:
 11402 1f9a 5353505F 		.ascii	"SSP_DR_BITMASK(n) ((n) & 0xFFFF)\000"
 11402      44525F42 
 11402      49544D41 
 11402      534B286E 
 11402      29202828 
 11403              	.LASF919:
 11404 1fbb 5353505F 		.ascii	"SSP_CPHA_SECOND SSP_CR0_CPHA_SECOND\000"
 11404      43504841 
 11404      5F534543 
 11404      4F4E4420 
 11404      5353505F 
 11405              	.LASF824:
 11406 1fdf 55415254 		.ascii	"UART_LCR_PARITY_F_0 (3 << 4)\000"
 11406      5F4C4352 
 11406      5F504152 
 11406      4954595F 
 11406      465F3020 
 11407              	.LASF671:
 11408 1ffc 4C50435F 		.ascii	"LPC_ADC ((LPC_ADC_T *) LPC_ADC_BASE)\000"
 11408      41444320 
 11408      28284C50 
 11408      435F4144 
 11408      435F5420 
 11409              	.LASF625:
 11410 2021 53797354 		.ascii	"SysTick_CALIB_NOREF_Msk (1UL << SysTick_CALIB_NOREF"
 11410      69636B5F 
 11410      43414C49 
 11410      425F4E4F 
 11410      5245465F 
 11411 2054 5F506F73 		.ascii	"_Pos)\000"
 11411      2900
 11412              	.LASF485:
 11413 205a 494E545F 		.ascii	"INT_FAST8_MAX (__INT_FAST8_MAX__)\000"
 11413      46415354 
 11413      385F4D41 
 11413      5820285F 
 11413      5F494E54 
 11414              	.LASF1027:
 11415 207c 4932435F 		.ascii	"I2C_MONITOR_CFG_MATCHALL I2C_I2MMCTRL_MATCH_ALL\000"
 11415      4D4F4E49 
 11415      544F525F 
 11415      4346475F 
 11415      4D415443 
 11416              	.LASF90:
ARM GAS  /tmp/ccXw4jW7.s 			page 242


 11417 20ac 5F5F5549 		.ascii	"__UINT16_MAX__ 0xffff\000"
 11417      4E543136 
 11417      5F4D4158 
 11417      5F5F2030 
 11417      78666666 
 11418              	.LASF967:
 11419 20c2 4932435F 		.ascii	"I2C_CON_STA (1UL << 5)\000"
 11419      434F4E5F 
 11419      53544120 
 11419      2831554C 
 11419      203C3C20 
 11420              	.LASF275:
 11421 20d9 5F5F5451 		.ascii	"__TQ_FBIT__ 127\000"
 11421      5F464249 
 11421      545F5F20 
 11421      31323700 
 11422              	.LASF939:
 11423 20e9 4144435F 		.ascii	"ADC_CR_START_NOW ((1UL << 24))\000"
 11423      43525F53 
 11423      54415254 
 11423      5F4E4F57 
 11423      20282831 
 11424              	.LASF198:
 11425 2108 5F5F4652 		.ascii	"__FRACT_IBIT__ 0\000"
 11425      4143545F 
 11425      49424954 
 11425      5F5F2030 
 11425      00
 11426              	.LASF1043:
 11427 2119 53444F5F 		.ascii	"SDO_ABORT_TOGGLE 0x05030000UL\000"
 11427      41424F52 
 11427      545F544F 
 11427      47474C45 
 11427      20307830 
 11428              	.LASF456:
 11429 2137 5F5F696E 		.ascii	"__int_fast64_t_defined 1\000"
 11429      745F6661 
 11429      73743634 
 11429      5F745F64 
 11429      6566696E 
 11430              	.LASF663:
 11431 2150 4C50435F 		.ascii	"LPC_ROM_API_BASE_LOC 0x1FFF1FF8\000"
 11431      524F4D5F 
 11431      4150495F 
 11431      42415345 
 11431      5F4C4F43 
 11432              	.LASF360:
 11433 2170 5F5F5553 		.ascii	"__USES_INITFINI__ 1\000"
 11433      45535F49 
 11433      4E495446 
 11433      494E495F 
 11433      5F203100 
 11434              	.LASF566:
 11435 2184 5343425F 		.ascii	"SCB_CPUID_ARCHITECTURE_Pos 16\000"
 11435      43505549 
 11435      445F4152 
 11435      43484954 
ARM GAS  /tmp/ccXw4jW7.s 			page 243


 11435      45435455 
 11436              	.LASF904:
 11437 21a2 5353505F 		.ascii	"SSP_CR0_CPHA_FIRST ((uint32_t) (0))\000"
 11437      4352305F 
 11437      43504841 
 11437      5F464952 
 11437      53542028 
 11438              	.LASF1198:
 11439 21c6 4932435F 		.ascii	"I2C_STATUS_ARBLOST\000"
 11439      53544154 
 11439      55535F41 
 11439      52424C4F 
 11439      535400
 11440              	.LASF262:
 11441 21d9 5F5F554C 		.ascii	"__ULLACCUM_FBIT__ 32\000"
 11441      4C414343 
 11441      554D5F46 
 11441      4249545F 
 11441      5F203332 
 11442              	.LASF1073:
 11443 21ee 4C50435F 		.ascii	"LPC_I2Cx(id) ((i2c.ip))\000"
 11443      49324378 
 11443      28696429 
 11443      20282869 
 11443      32632E69 
 11444              	.LASF1088:
 11445 2206 5F426F6F 		.ascii	"_Bool\000"
 11445      6C00
 11446              	.LASF805:
 11447 220c 55415254 		.ascii	"UART_FCR_BITMASK (0xCF)\000"
 11447      5F464352 
 11447      5F424954 
 11447      4D41534B 
 11447      20283078 
 11448              	.LASF633:
 11449 2224 5343425F 		.ascii	"SCB_BASE (SCS_BASE + 0x0D00UL)\000"
 11449      42415345 
 11449      20285343 
 11449      535F4241 
 11449      5345202B 
 11450              	.LASF680:
 11451 2243 4C50435F 		.ascii	"LPC_GPIO ((LPC_GPIO_T *) LPC_GPIO_PORT0_BASE)\000"
 11451      4750494F 
 11451      2028284C 
 11451      50435F47 
 11451      50494F5F 
 11452              	.LASF363:
 11453 2271 5F5F4C50 		.ascii	"__LPC_TYPES_H_ \000"
 11453      435F5459 
 11453      5045535F 
 11453      485F2000 
 11454              	.LASF251:
 11455 2281 5F5F4C41 		.ascii	"__LACCUM_EPSILON__ 0x1P-31LK\000"
 11455      4343554D 
 11455      5F455053 
 11455      494C4F4E 
 11455      5F5F2030 
ARM GAS  /tmp/ccXw4jW7.s 			page 244


 11456              	.LASF1060:
 11457 229e 4F445F45 		.ascii	"OD_EXP_WO 0x20\000"
 11457      58505F57 
 11457      4F203078 
 11457      323000
 11458              	.LASF534:
 11459 22ad 53544154 		.ascii	"STATIC static\000"
 11459      49432073 
 11459      74617469 
 11459      6300
 11460              	.LASF1104:
 11461 22bb 52455345 		.ascii	"RESERVED2\000"
 11461      52564544 
 11461      3200
 11462              	.LASF729:
 11463 22c5 494F434F 		.ascii	"IOCON_INV_EN (0x1 << 6)\000"
 11463      4E5F494E 
 11463      565F454E 
 11463      20283078 
 11463      31203C3C 
 11464              	.LASF20:
 11465 22dd 5F5F5349 		.ascii	"__SIZEOF_LONG_DOUBLE__ 8\000"
 11465      5A454F46 
 11465      5F4C4F4E 
 11465      475F444F 
 11465      55424C45 
 11466              	.LASF838:
 11467 22f6 55415254 		.ascii	"UART_LSR_BI (1 << 4)\000"
 11467      5F4C5352 
 11467      5F424920 
 11467      2831203C 
 11467      3C203429 
 11468              	.LASF816:
 11469 230b 55415254 		.ascii	"UART_LCR_SBS_MASK (1 << 2)\000"
 11469      5F4C4352 
 11469      5F534253 
 11469      5F4D4153 
 11469      4B202831 
 11470              	.LASF319:
 11471 2326 5F5F5052 		.ascii	"__PRAGMA_REDEFINE_EXTNAME 1\000"
 11471      41474D41 
 11471      5F524544 
 11471      4546494E 
 11471      455F4558 
 11472              	.LASF32:
 11473 2342 5F5F5743 		.ascii	"__WCHAR_TYPE__ unsigned int\000"
 11473      4841525F 
 11473      54595045 
 11473      5F5F2075 
 11473      6E736967 
 11474              	.LASF68:
 11475 235e 5F5F5343 		.ascii	"__SCHAR_MAX__ 0x7f\000"
 11475      4841525F 
 11475      4D41585F 
 11475      5F203078 
 11475      376600
 11476              	.LASF407:
ARM GAS  /tmp/ccXw4jW7.s 			page 245


 11477 2371 63686172 		.ascii	"char\000"
 11477      00
 11478              	.LASF298:
 11479 2376 5F5F5553 		.ascii	"__USA_IBIT__ 16\000"
 11479      415F4942 
 11479      49545F5F 
 11479      20313600 
 11480              	.LASF516:
 11481 2386 494E544D 		.ascii	"INTMAX_C(x) __INTMAX_C(x)\000"
 11481      41585F43 
 11481      28782920 
 11481      5F5F494E 
 11481      544D4158 
 11482              	.LASF503:
 11483 23a0 50545244 		.ascii	"PTRDIFF_MIN (-PTRDIFF_MAX - 1)\000"
 11483      4946465F 
 11483      4D494E20 
 11483      282D5054 
 11483      52444946 
 11484              	.LASF748:
 11485 23bf 4D445F53 		.ascii	"MD_STDI2C (0x1 << 8)\000"
 11485      54444932 
 11485      43202830 
 11485      7831203C 
 11485      3C203829 
 11486              	.LASF1117:
 11487 23d4 55534152 		.ascii	"USARTCLKDIV\000"
 11487      54434C4B 
 11487      44495600 
 11488              	.LASF1052:
 11489 23e0 53444F5F 		.ascii	"SDO_ABORT_TYPEMISMATCH 0x06070010UL\000"
 11489      41424F52 
 11489      545F5459 
 11489      50454D49 
 11489      534D4154 
 11490              	.LASF62:
 11491 2404 5F5F5549 		.ascii	"__UINT_FAST64_TYPE__ long long unsigned int\000"
 11491      4E545F46 
 11491      41535436 
 11491      345F5459 
 11491      50455F5F 
 11492              	.LASF1167:
 11493 2430 53595343 		.ascii	"SYSCTL_CLOCK_SSP0\000"
 11493      544C5F43 
 11493      4C4F434B 
 11493      5F535350 
 11493      3000
 11494              	.LASF1174:
 11495 2442 53595343 		.ascii	"SYSCTL_CLOCK_SSP1\000"
 11495      544C5F43 
 11495      4C4F434B 
 11495      5F535350 
 11495      3100
 11496              	.LASF735:
 11497 2454 494F434F 		.ascii	"IOCON_FILT_DIS (0x1 << 8)\000"
 11497      4E5F4649 
 11497      4C545F44 
ARM GAS  /tmp/ccXw4jW7.s 			page 246


 11497      49532028 
 11497      30783120 
 11498              	.LASF132:
 11499 246e 5F5F464C 		.ascii	"__FLT_MIN__ 1.1754943508222875e-38F\000"
 11499      545F4D49 
 11499      4E5F5F20 
 11499      312E3137 
 11499      35343934 
 11500              	.LASF287:
 11501 2492 5F5F4841 		.ascii	"__HA_FBIT__ 7\000"
 11501      5F464249 
 11501      545F5F20 
 11501      3700
 11502              	.LASF676:
 11503 24a0 4C50435F 		.ascii	"LPC_SYSCTL ((LPC_SYSCTL_T *) LPC_SYSCTL_BASE)\000"
 11503      53595343 
 11503      544C2028 
 11503      284C5043 
 11503      5F535953 
 11504              	.LASF28:
 11505 24ce 5F5F464C 		.ascii	"__FLOAT_WORD_ORDER__ __ORDER_LITTLE_ENDIAN__\000"
 11505      4F41545F 
 11505      574F5244 
 11505      5F4F5244 
 11505      45525F5F 
 11506              	.LASF1062:
 11507 24fb 4F445F53 		.ascii	"OD_SEG_RO 0x40\000"
 11507      45475F52 
 11507      4F203078 
 11507      343000
 11508              	.LASF501:
 11509 250a 5349475F 		.ascii	"SIG_ATOMIC_MAX (__STDINT_EXP(INT_MAX))\000"
 11509      41544F4D 
 11509      49435F4D 
 11509      41582028 
 11509      5F5F5354 
 11510              	.LASF771:
 11511 2531 5F5F5541 		.ascii	"__UART_11XX_H_ \000"
 11511      52545F31 
 11511      3158585F 
 11511      485F2000 
 11512              	.LASF1058:
 11513 2541 4F445F4E 		.ascii	"OD_NONE 0x00\000"
 11513      4F4E4520 
 11513      30783030 
 11513      00
 11514              	.LASF492:
 11515 254e 55494E54 		.ascii	"UINT_FAST32_MAX (__UINT_FAST32_MAX__)\000"
 11515      5F464153 
 11515      5433325F 
 11515      4D415820 
 11515      285F5F55 
 11516              	.LASF647:
 11517 2574 4C50435F 		.ascii	"LPC_ADC_BASE 0x4001C000\000"
 11517      4144435F 
 11517      42415345 
 11517      20307834 
ARM GAS  /tmp/ccXw4jW7.s 			page 247


 11517      30303143 
 11518              	.LASF975:
 11519 258c 4932435F 		.ascii	"I2C_I2STAT_M_TX_SLAW_ACK ((0x18))\000"
 11519      49325354 
 11519      41545F4D 
 11519      5F54585F 
 11519      534C4157 
 11520              	.LASF167:
 11521 25ae 5F5F4445 		.ascii	"__DEC32_MIN_EXP__ (-94)\000"
 11521      4333325F 
 11521      4D494E5F 
 11521      4558505F 
 11521      5F20282D 
 11522              	.LASF193:
 11523 25c6 5F5F5553 		.ascii	"__USFRACT_IBIT__ 0\000"
 11523      46524143 
 11523      545F4942 
 11523      49545F5F 
 11523      203000
 11524              	.LASF98:
 11525 25d9 5F5F494E 		.ascii	"__INT32_C(c) c ## L\000"
 11525      5433325F 
 11525      43286329 
 11525      20632023 
 11525      23204C00 
 11526              	.LASF991:
 11527 25ed 4932435F 		.ascii	"I2C_I2STAT_S_RX_PRE_SLA_DAT_ACK ((0x80))\000"
 11527      49325354 
 11527      41545F53 
 11527      5F52585F 
 11527      5052455F 
 11528              	.LASF584:
 11529 2616 5343425F 		.ascii	"SCB_ICSR_ISRPENDING_Pos 22\000"
 11529      49435352 
 11529      5F495352 
 11529      50454E44 
 11529      494E475F 
 11530              	.LASF963:
 11531 2631 4932435F 		.ascii	"I2C_I2CONCLR_I2ENC ((1 << 6))\000"
 11531      4932434F 
 11531      4E434C52 
 11531      5F493245 
 11531      4E432028 
 11532              	.LASF194:
 11533 264f 5F5F5553 		.ascii	"__USFRACT_MIN__ 0.0UHR\000"
 11533      46524143 
 11533      545F4D49 
 11533      4E5F5F20 
 11533      302E3055 
 11534              	.LASF756:
 11535 2666 46554E43 		.ascii	"FUNC5 0x5\000"
 11535      35203078 
 11535      3500
 11536              	.LASF349:
 11537 2670 5F5F4152 		.ascii	"__ARM_NEON\000"
 11537      4D5F4E45 
 11537      4F4E00
ARM GAS  /tmp/ccXw4jW7.s 			page 248


 11538              	.LASF858:
 11539 267b 55415254 		.ascii	"UART_ACR_ABTOINT_CLR (1 << 9)\000"
 11539      5F414352 
 11539      5F414254 
 11539      4F494E54 
 11539      5F434C52 
 11540              	.LASF89:
 11541 2699 5F5F5549 		.ascii	"__UINT8_MAX__ 0xff\000"
 11541      4E54385F 
 11541      4D41585F 
 11541      5F203078 
 11541      666600
 11542              	.LASF395:
 11543 26ac 5F5F5F69 		.ascii	"___int16_t_defined 1\000"
 11543      6E743136 
 11543      5F745F64 
 11543      6566696E 
 11543      65642031 
 11544              	.LASF156:
 11545 26c1 5F5F4C44 		.ascii	"__LDBL_MAX_EXP__ 1024\000"
 11545      424C5F4D 
 11545      41585F45 
 11545      58505F5F 
 11545      20313032 
 11546              	.LASF722:
 11547 26d7 494F434F 		.ascii	"IOCON_FUNC6 0x6\000"
 11547      4E5F4655 
 11547      4E433620 
 11547      30783600 
 11548              	.LASF604:
 11549 26e7 5343425F 		.ascii	"SCB_SCR_SLEEPONEXIT_Pos 1\000"
 11549      5343525F 
 11549      534C4545 
 11549      504F4E45 
 11549      5849545F 
 11550              	.LASF602:
 11551 2701 5343425F 		.ascii	"SCB_SCR_SLEEPDEEP_Pos 2\000"
 11551      5343525F 
 11551      534C4545 
 11551      50444545 
 11551      505F506F 
 11552              	.LASF794:
 11553 2719 55415254 		.ascii	"UART_IIR_BITMASK (0x3CF)\000"
 11553      5F494952 
 11553      5F424954 
 11553      4D41534B 
 11553      20283078 
 11554              	.LASF435:
 11555 2732 5F5F696E 		.ascii	"__int8_t_defined 1\000"
 11555      74385F74 
 11555      5F646566 
 11555      696E6564 
 11555      203100
 11556              	.LASF1040:
 11557 2745 43414E5F 		.ascii	"CAN_MSGOBJ_EXT 0x20000000UL\000"
 11557      4D53474F 
 11557      424A5F45 
ARM GAS  /tmp/ccXw4jW7.s 			page 249


 11557      58542030 
 11557      78323030 
 11558              	.LASF149:
 11559 2761 5F5F4442 		.ascii	"__DBL_HAS_DENORM__ 1\000"
 11559      4C5F4841 
 11559      535F4445 
 11559      4E4F524D 
 11559      5F5F2031 
 11560              	.LASF1071:
 11561 2776 4C50435F 		.ascii	"LPC_CCAN_API ((CCAN_API_T *) (LPC_ROM_API->candApiB"
 11561      4343414E 
 11561      5F415049 
 11561      20282843 
 11561      43414E5F 
 11562 27a9 61736529 		.ascii	"ase))\000"
 11562      2900
 11563              	.LASF901:
 11564 27af 5353505F 		.ascii	"SSP_CR0_FRF_MICROWIRE ((uint32_t) (2 << 4))\000"
 11564      4352305F 
 11564      4652465F 
 11564      4D494352 
 11564      4F574952 
 11565              	.LASF695:
 11566 27db 53595343 		.ascii	"SYSCTL_DEEPSLP_BOD_PD (1 << 3)\000"
 11566      544C5F44 
 11566      45455053 
 11566      4C505F42 
 11566      4F445F50 
 11567              	.LASF618:
 11568 27fa 53797354 		.ascii	"SysTick_CTRL_ENABLE_Pos 0\000"
 11568      69636B5F 
 11568      4354524C 
 11568      5F454E41 
 11568      424C455F 
 11569              	.LASF496:
 11570 2814 494E544D 		.ascii	"INTMAX_MAX (__INTMAX_MAX__)\000"
 11570      41585F4D 
 11570      41582028 
 11570      5F5F494E 
 11570      544D4158 
 11571              	.LASF473:
 11572 2830 494E5433 		.ascii	"INT32_MAX (__INT32_MAX__)\000"
 11572      325F4D41 
 11572      5820285F 
 11572      5F494E54 
 11572      33325F4D 
 11573              	.LASF811:
 11574 284a 55415254 		.ascii	"UART_LCR_WLEN_MASK (3 << 0)\000"
 11574      5F4C4352 
 11574      5F574C45 
 11574      4E5F4D41 
 11574      534B2028 
 11575              	.LASF67:
 11576 2866 5F5F4758 		.ascii	"__GXX_ABI_VERSION 1010\000"
 11576      585F4142 
 11576      495F5645 
 11576      5253494F 
ARM GAS  /tmp/ccXw4jW7.s 			page 250


 11576      4E203130 
 11577              	.LASF1238:
 11578 287d 43686970 		.ascii	"Chip_I2C_IsMasterActive\000"
 11578      5F493243 
 11578      5F49734D 
 11578      61737465 
 11578      72416374 
 11579              	.LASF291:
 11580 2895 5F5F4441 		.ascii	"__DA_FBIT__ 31\000"
 11580      5F464249 
 11580      545F5F20 
 11580      333100
 11581              	.LASF1227:
 11582 28a4 666C6167 		.ascii	"flags\000"
 11582      7300
 11583              	.LASF1022:
 11584 28aa 4932435F 		.ascii	"I2C_RECV_END 0x10\000"
 11584      52454356 
 11584      5F454E44 
 11584      20307831 
 11584      3000
 11585              	.LASF95:
 11586 28bc 5F5F494E 		.ascii	"__INT_LEAST16_MAX__ 0x7fff\000"
 11586      545F4C45 
 11586      41535431 
 11586      365F4D41 
 11586      585F5F20 
 11587              	.LASF1176:
 11588 28d7 434F4E53 		.ascii	"CONSET\000"
 11588      455400
 11589              	.LASF577:
 11590 28de 5343425F 		.ascii	"SCB_ICSR_PENDSVCLR_Msk (1UL << SCB_ICSR_PENDSVCLR_P"
 11590      49435352 
 11590      5F50454E 
 11590      44535643 
 11590      4C525F4D 
 11591 2911 6F732900 		.ascii	"os)\000"
 11592              	.LASF134:
 11593 2915 5F5F464C 		.ascii	"__FLT_DENORM_MIN__ 1.4012984643248171e-45F\000"
 11593      545F4445 
 11593      4E4F524D 
 11593      5F4D494E 
 11593      5F5F2031 
 11594              	.LASF428:
 11595 2940 5F5F4C45 		.ascii	"__LEAST8 \"hh\"\000"
 11595      41535438 
 11595      20226868 
 11595      2200
 11596              	.LASF1178:
 11597 294e 41445230 		.ascii	"ADR0\000"
 11597      00
 11598              	.LASF1183:
 11599 2953 41445231 		.ascii	"ADR1\000"
 11599      00
 11600              	.LASF1184:
 11601 2958 41445232 		.ascii	"ADR2\000"
 11601      00
ARM GAS  /tmp/ccXw4jW7.s 			page 251


 11602              	.LASF1185:
 11603 295d 41445233 		.ascii	"ADR3\000"
 11603      00
 11604              	.LASF1234:
 11605 2962 43686970 		.ascii	"Chip_I2C_SlaveStateHandler\000"
 11605      5F493243 
 11605      5F536C61 
 11605      76655374 
 11605      61746548 
 11606              	.LASF66:
 11607 297d 5F5F6861 		.ascii	"__has_include_next(STR) __has_include_next__(STR)\000"
 11607      735F696E 
 11607      636C7564 
 11607      655F6E65 
 11607      78742853 
 11608              	.LASF900:
 11609 29af 5353505F 		.ascii	"SSP_CR0_FRF_TI ((uint32_t) (1 << 4))\000"
 11609      4352305F 
 11609      4652465F 
 11609      54492028 
 11609      2875696E 
 11610              	.LASF471:
 11611 29d4 55494E54 		.ascii	"UINT_LEAST16_MAX (__UINT_LEAST16_MAX__)\000"
 11611      5F4C4541 
 11611      53543136 
 11611      5F4D4158 
 11611      20285F5F 
 11612              	.LASF106:
 11613 29fc 5F5F5549 		.ascii	"__UINT32_C(c) c ## UL\000"
 11613      4E543332 
 11613      5F432863 
 11613      29206320 
 11613      23232055 
 11614              	.LASF568:
 11615 2a12 5343425F 		.ascii	"SCB_CPUID_PARTNO_Pos 4\000"
 11615      43505549 
 11615      445F5041 
 11615      52544E4F 
 11615      5F506F73 
 11616              	.LASF573:
 11617 2a29 5343425F 		.ascii	"SCB_ICSR_NMIPENDSET_Msk (1UL << SCB_ICSR_NMIPENDSET"
 11617      49435352 
 11617      5F4E4D49 
 11617      50454E44 
 11617      5345545F 
 11618 2a5c 5F506F73 		.ascii	"_Pos)\000"
 11618      2900
 11619              	.LASF814:
 11620 2a62 55415254 		.ascii	"UART_LCR_WLEN7 (2 << 0)\000"
 11620      5F4C4352 
 11620      5F574C45 
 11620      4E372028 
 11620      32203C3C 
 11621              	.LASF528:
 11622 2a7a 5F534246 		.ascii	"_SBF\000"
 11622      00
 11623              	.LASF244:
ARM GAS  /tmp/ccXw4jW7.s 			page 252


 11624 2a7f 5F5F5541 		.ascii	"__UACCUM_MIN__ 0.0UK\000"
 11624      4343554D 
 11624      5F4D494E 
 11624      5F5F2030 
 11624      2E30554B 
 11625              	.LASF785:
 11626 2a94 55415254 		.ascii	"UART_IER_ABEOINT (1 << 8)\000"
 11626      5F494552 
 11626      5F414245 
 11626      4F494E54 
 11626      20283120 
 11627              	.LASF133:
 11628 2aae 5F5F464C 		.ascii	"__FLT_EPSILON__ 1.1920928955078125e-7F\000"
 11628      545F4550 
 11628      53494C4F 
 11628      4E5F5F20 
 11628      312E3139 
 11629              	.LASF1235:
 11630 2ad5 73693263 		.ascii	"si2c\000"
 11630      00
 11631              	.LASF1025:
 11632 2ada 4932435F 		.ascii	"I2C_CheckError(ErrorCode) (ErrorCode & 0x10000000)\000"
 11632      43686563 
 11632      6B457272 
 11632      6F722845 
 11632      72726F72 
 11633              	.LASF445:
 11634 2b0d 5F494E54 		.ascii	"_INTMAX_T_DECLARED \000"
 11634      4D41585F 
 11634      545F4445 
 11634      434C4152 
 11634      45442000 
 11635              	.LASF543:
 11636 2b21 5F5F434D 		.ascii	"__CMSIS_11CXX_H_ \000"
 11636      5349535F 
 11636      31314358 
 11636      585F485F 
 11636      2000
 11637              	.LASF878:
 11638 2b33 55415254 		.ascii	"UART_FDR_DIVADDVAL(n) (n & 0x0F)\000"
 11638      5F464452 
 11638      5F444956 
 11638      41444456 
 11638      414C286E 
 11639              	.LASF809:
 11640 2b54 55415254 		.ascii	"UART_FCR_TRG_LEV2 (2 << 6)\000"
 11640      5F464352 
 11640      5F545247 
 11640      5F4C4556 
 11640      32202832 
 11641              	.LASF1050:
 11642 2b6f 53444F5F 		.ascii	"SDO_ABORT_PARAINCOMP 0x06040043UL\000"
 11642      41424F52 
 11642      545F5041 
 11642      5241494E 
 11642      434F4D50 
 11643              	.LASF612:
ARM GAS  /tmp/ccXw4jW7.s 			page 253


 11644 2b91 53797354 		.ascii	"SysTick_CTRL_COUNTFLAG_Pos 16\000"
 11644      69636B5F 
 11644      4354524C 
 11644      5F434F55 
 11644      4E54464C 
 11645              	.LASF450:
 11646 2baf 5F5F696E 		.ascii	"__int_least16_t_defined 1\000"
 11646      745F6C65 
 11646      61737431 
 11646      365F745F 
 11646      64656669 
 11647              	.LASF246:
 11648 2bc9 5F5F5541 		.ascii	"__UACCUM_EPSILON__ 0x1P-16UK\000"
 11648      4343554D 
 11648      5F455053 
 11648      494C4F4E 
 11648      5F5F2030 
 11649              	.LASF527:
 11650 2be6 5F424954 		.ascii	"_BIT(n) (1 << (n))\000"
 11650      286E2920 
 11650      2831203C 
 11650      3C20286E 
 11650      292900
 11651              	.LASF476:
 11652 2bf9 494E545F 		.ascii	"INT_LEAST32_MAX (__INT_LEAST32_MAX__)\000"
 11652      4C454153 
 11652      5433325F 
 11652      4D415820 
 11652      285F5F49 
 11653              	.LASF312:
 11654 2c1f 5F5F4743 		.ascii	"__GCC_ATOMIC_SHORT_LOCK_FREE 1\000"
 11654      435F4154 
 11654      4F4D4943 
 11654      5F53484F 
 11654      52545F4C 
 11655              	.LASF522:
 11656 2c3e 66616C73 		.ascii	"false 0\000"
 11656      65203000 
 11657              	.LASF586:
 11658 2c46 5343425F 		.ascii	"SCB_ICSR_VECTPENDING_Pos 12\000"
 11658      49435352 
 11658      5F564543 
 11658      5450454E 
 11658      44494E47 
 11659              	.LASF779:
 11660 2c62 55415254 		.ascii	"UART_DLM_MASKBIT (0xFF)\000"
 11660      5F444C4D 
 11660      5F4D4153 
 11660      4B424954 
 11660      20283078 
 11661              	.LASF897:
 11662 2c7a 5F5F5353 		.ascii	"__SSP_11XX_H_ \000"
 11662      505F3131 
 11662      58585F48 
 11662      5F2000
 11663              	.LASF270:
 11664 2c89 5F5F4851 		.ascii	"__HQ_IBIT__ 0\000"
ARM GAS  /tmp/ccXw4jW7.s 			page 254


 11664      5F494249 
 11664      545F5F20 
 11664      3000
 11665              	.LASF551:
 11666 2c97 5F5F434F 		.ascii	"__CORTEX_M (0x00)\000"
 11666      52544558 
 11666      5F4D2028 
 11666      30783030 
 11666      2900
 11667              	.LASF232:
 11668 2ca9 5F5F5553 		.ascii	"__USACCUM_FBIT__ 8\000"
 11668      41434355 
 11668      4D5F4642 
 11668      49545F5F 
 11668      203800
 11669              	.LASF316:
 11670 2cbc 5F5F4743 		.ascii	"__GCC_ATOMIC_TEST_AND_SET_TRUEVAL 1\000"
 11670      435F4154 
 11670      4F4D4943 
 11670      5F544553 
 11670      545F414E 
 11671              	.LASF982:
 11672 2ce0 4932435F 		.ascii	"I2C_I2STAT_M_RX_ARB_LOST ((0x38))\000"
 11672      49325354 
 11672      41545F4D 
 11672      5F52585F 
 11672      4152425F 
 11673              	.LASF587:
 11674 2d02 5343425F 		.ascii	"SCB_ICSR_VECTPENDING_Msk (0x1FFUL << SCB_ICSR_VECTP"
 11674      49435352 
 11674      5F564543 
 11674      5450454E 
 11674      44494E47 
 11675 2d35 454E4449 		.ascii	"ENDING_Pos)\000"
 11675      4E475F50 
 11675      6F732900 
 11676              	.LASF792:
 11677 2d41 55415254 		.ascii	"UART_IIR_ABEO_INT (1 << 8)\000"
 11677      5F494952 
 11677      5F414245 
 11677      4F5F494E 
 11677      54202831 
 11678              	.LASF766:
 11679 2d5c 54494D45 		.ascii	"TIMER_RESET_ON_MATCH(n) (_BIT((((n) * 3) + 1)))\000"
 11679      525F5245 
 11679      5345545F 
 11679      4F4E5F4D 
 11679      41544348 
 11680              	.LASF247:
 11681 2d8c 5F5F4C41 		.ascii	"__LACCUM_FBIT__ 31\000"
 11681      4343554D 
 11681      5F464249 
 11681      545F5F20 
 11681      333100
 11682              	.LASF1029:
 11683 2d9f 43414E5F 		.ascii	"CAN_ERROR_NONE 0x00000000UL\000"
 11683      4552524F 
ARM GAS  /tmp/ccXw4jW7.s 			page 255


 11683      525F4E4F 
 11683      4E452030 
 11683      78303030 
 11684              	.LASF715:
 11685 2dbb 5F5F494F 		.ascii	"__IOCON_11XX_H_ \000"
 11685      434F4E5F 
 11685      31315858 
 11685      5F485F20 
 11685      00
 11686              	.LASF1007:
 11687 2dcc 4932435F 		.ascii	"I2C_I2MMCTRL_BITMASK ((0x07))\000"
 11687      49324D4D 
 11687      4354524C 
 11687      5F424954 
 11687      4D41534B 
 11688              	.LASF762:
 11689 2dea 54494D45 		.ascii	"TIMER_CAP_INT(n) (_BIT((((n) & 0x0F) + 4)))\000"
 11689      525F4341 
 11689      505F494E 
 11689      54286E29 
 11689      20285F42 
 11690              	.LASF924:
 11691 2e16 5F5F524F 		.ascii	"__ROMAPI_11XX_H_ \000"
 11691      4D415049 
 11691      5F313158 
 11691      585F485F 
 11691      2000
 11692              	.LASF1094:
 11693 2e28 53595350 		.ascii	"SYSPLLCTRL\000"
 11693      4C4C4354 
 11693      524C00
 11694              	.LASF293:
 11695 2e33 5F5F5441 		.ascii	"__TA_FBIT__ 63\000"
 11695      5F464249 
 11695      545F5F20 
 11695      363300
 11696              	.LASF942:
 11697 2e42 4144435F 		.ascii	"ADC_CR_START_ADCTRIG0 ((4UL << 24))\000"
 11697      43525F53 
 11697      54415254 
 11697      5F414443 
 11697      54524947 
 11698              	.LASF987:
 11699 2e66 4932435F 		.ascii	"I2C_I2STAT_S_RX_SLAW_ACK ((0x60))\000"
 11699      49325354 
 11699      41545F53 
 11699      5F52585F 
 11699      534C4157 
 11700              	.LASF457:
 11701 2e88 494E5450 		.ascii	"INTPTR_MIN (-__INTPTR_MAX__ - 1)\000"
 11701      54525F4D 
 11701      494E2028 
 11701      2D5F5F49 
 11701      4E545054 
 11702              	.LASF1092:
 11703 2ea9 5359534D 		.ascii	"SYSMEMREMAP\000"
 11703      454D5245 
ARM GAS  /tmp/ccXw4jW7.s 			page 256


 11703      4D415000 
 11704              	.LASF656:
 11705 2eb5 4C50435F 		.ascii	"LPC_CAN0_BASE 0x40050000\000"
 11705      43414E30 
 11705      5F424153 
 11705      45203078 
 11705      34303035 
 11706              	.LASF93:
 11707 2ece 5F5F494E 		.ascii	"__INT_LEAST8_MAX__ 0x7f\000"
 11707      545F4C45 
 11707      41535438 
 11707      5F4D4158 
 11707      5F5F2030 
 11708              	.LASF614:
 11709 2ee6 53797354 		.ascii	"SysTick_CTRL_CLKSOURCE_Pos 2\000"
 11709      69636B5F 
 11709      4354524C 
 11709      5F434C4B 
 11709      534F5552 
 11710              	.LASF353:
 11711 2f03 5F5F4152 		.ascii	"__ARM_PCS 1\000"
 11711      4D5F5043 
 11711      53203100 
 11712              	.LASF1218:
 11713 2f0f 4932435F 		.ascii	"I2C_EVENT_SLAVE_RX\000"
 11713      4556454E 
 11713      545F534C 
 11713      4156455F 
 11713      525800
 11714              	.LASF957:
 11715 2f22 4932435F 		.ascii	"I2C_I2CONSET_STA ((0x20))\000"
 11715      4932434F 
 11715      4E534554 
 11715      5F535441 
 11715      20282830 
 11716              	.LASF1036:
 11717 2f3c 43414E5F 		.ascii	"CAN_ERROR_BIT1 0x00000040UL\000"
 11717      4552524F 
 11717      525F4249 
 11717      54312030 
 11717      78303030 
 11718              	.LASF691:
 11719 2f58 53595343 		.ascii	"SYSCTL_RST_WDT (1 << 2)\000"
 11719      544C5F52 
 11719      53545F57 
 11719      44542028 
 11719      31203C3C 
 11720              	.LASF654:
 11721 2f70 4C50435F 		.ascii	"LPC_SYSCTL_BASE 0x40048000\000"
 11721      53595343 
 11721      544C5F42 
 11721      41534520 
 11721      30783430 
 11722              	.LASF84:
 11723 2f8b 5F5F5349 		.ascii	"__SIG_ATOMIC_MIN__ (-__SIG_ATOMIC_MAX__ - 1)\000"
 11723      475F4154 
 11723      4F4D4943 
ARM GAS  /tmp/ccXw4jW7.s 			page 257


 11723      5F4D494E 
 11723      5F5F2028 
 11724              	.LASF101:
 11725 2fb8 5F5F5549 		.ascii	"__UINT_LEAST8_MAX__ 0xff\000"
 11725      4E545F4C 
 11725      45415354 
 11725      385F4D41 
 11725      585F5F20 
 11726              	.LASF574:
 11727 2fd1 5343425F 		.ascii	"SCB_ICSR_PENDSVSET_Pos 28\000"
 11727      49435352 
 11727      5F50454E 
 11727      44535653 
 11727      45545F50 
 11728              	.LASF925:
 11729 2feb 5F5F4C50 		.ascii	"__LPC_ERROR_H__ \000"
 11729      435F4552 
 11729      524F525F 
 11729      485F5F20 
 11729      00
 11730              	.LASF596:
 11731 2ffc 5343425F 		.ascii	"SCB_AIRCR_SYSRESETREQ_Pos 2\000"
 11731      41495243 
 11731      525F5359 
 11731      53524553 
 11731      45545245 
 11732              	.LASF560:
 11733 3018 5F5F4F20 		.ascii	"__O volatile\000"
 11733      766F6C61 
 11733      74696C65 
 11733      00
 11734              	.LASF1280:
 11735 3025 474E5520 		.ascii	"GNU C89 6.2.1 20161205 (release) [ARM/embedded-6-br"
 11735      43383920 
 11735      362E322E 
 11735      31203230 
 11735      31363132 
 11736 3058 616E6368 		.ascii	"anch revision 243739] -mcpu=cortex-m0 -mthumb -g -g"
 11736      20726576 
 11736      6973696F 
 11736      6E203234 
 11736      33373339 
 11737 308b 67646233 		.ascii	"gdb3 -O2 -std=gnu90 -ffunction-sections -fdata-sect"
 11737      202D4F32 
 11737      202D7374 
 11737      643D676E 
 11737      75393020 
 11738 30be 696F6E73 		.ascii	"ions\000"
 11738      00
 11739              	.LASF995:
 11740 30c3 4932435F 		.ascii	"I2C_I2STAT_S_RX_STA_STO_SLVREC_SLVTRX ((0xA0))\000"
 11740      49325354 
 11740      41545F53 
 11740      5F52585F 
 11740      5354415F 
 11741              	.LASF500:
 11742 30f2 5349475F 		.ascii	"SIG_ATOMIC_MIN (-__STDINT_EXP(INT_MAX) - 1)\000"
ARM GAS  /tmp/ccXw4jW7.s 			page 258


 11742      41544F4D 
 11742      49435F4D 
 11742      494E2028 
 11742      2D5F5F53 
 11743              	.LASF977:
 11744 311e 4932435F 		.ascii	"I2C_I2STAT_M_TX_DAT_ACK ((0x28))\000"
 11744      49325354 
 11744      41545F4D 
 11744      5F54585F 
 11744      4441545F 
 11745              	.LASF847:
 11746 313f 55415254 		.ascii	"UART_MSR_LO2HI_RI (1 << 2)\000"
 11746      5F4D5352 
 11746      5F4C4F32 
 11746      48495F52 
 11746      49202831 
 11747              	.LASF436:
 11748 315a 5F494E54 		.ascii	"_INT16_T_DECLARED \000"
 11748      31365F54 
 11748      5F444543 
 11748      4C415245 
 11748      442000
 11749              	.LASF1121:
 11750 316d 55534243 		.ascii	"USBCLKUEN\000"
 11750      4C4B5545 
 11750      4E00
 11751              	.LASF1248:
 11752 3177 636C6F63 		.ascii	"clockrate\000"
 11752      6B726174 
 11752      6500
 11753              	.LASF1041:
 11754 3181 43414E5F 		.ascii	"CAN_MSGOBJ_DAT 0x00000000UL\000"
 11754      4D53474F 
 11754      424A5F44 
 11754      41542030 
 11754      78303030 
 11755              	.LASF1001:
 11756 319d 4932435F 		.ascii	"I2C_SLAVE_TIME_OUT 0x10000000UL\000"
 11756      534C4156 
 11756      455F5449 
 11756      4D455F4F 
 11756      55542030 
 11757              	.LASF854:
 11758 31bd 55415254 		.ascii	"UART_ACR_START (1 << 0)\000"
 11758      5F414352 
 11758      5F535441 
 11758      52542028 
 11758      31203C3C 
 11759              	.LASF875:
 11760 31d5 55415254 		.ascii	"UART_SCICTRL_PROTSEL_T1 (1 << 2)\000"
 11760      5F534349 
 11760      4354524C 
 11760      5F50524F 
 11760      5453454C 
 11761              	.LASF452:
 11762 31f6 5F5F696E 		.ascii	"__int_least64_t_defined 1\000"
 11762      745F6C65 
ARM GAS  /tmp/ccXw4jW7.s 			page 259


 11762      61737436 
 11762      345F745F 
 11762      64656669 
 11763              	.LASF774:
 11764 3210 52425F56 		.ascii	"RB_VTAIL(rb) ((volatile uint32_t)(rb->tail))\000"
 11764      5441494C 
 11764      28726229 
 11764      20282876 
 11764      6F6C6174 
 11765              	.LASF877:
 11766 323d 55415254 		.ascii	"UART_SCICTRL_GUARDTIME(n) ((n & 0xFF) << 8)\000"
 11766      5F534349 
 11766      4354524C 
 11766      5F475541 
 11766      52445449 
 11767              	.LASF1140:
 11768 3269 55534243 		.ascii	"USBCLKCTRL\000"
 11768      4C4B4354 
 11768      524C00
 11769              	.LASF179:
 11770 3274 5F5F4445 		.ascii	"__DEC64_SUBNORMAL_MIN__ 0.000000000000001E-383DD\000"
 11770      4336345F 
 11770      5355424E 
 11770      4F524D41 
 11770      4C5F4D49 
 11771              	.LASF196:
 11772 32a5 5F5F5553 		.ascii	"__USFRACT_EPSILON__ 0x1P-8UHR\000"
 11772      46524143 
 11772      545F4550 
 11772      53494C4F 
 11772      4E5F5F20 
 11773              	.LASF1274:
 11774 32c3 73746172 		.ascii	"startSlaverXfer\000"
 11774      74536C61 
 11774      76657258 
 11774      66657200 
 11775              	.LASF530:
 11776 32d3 5F424954 		.ascii	"_BITMASK\000"
 11776      4D41534B 
 11776      00
 11777              	.LASF651:
 11778 32dc 4C50435F 		.ascii	"LPC_FLASH_BASE 0x4003C000\000"
 11778      464C4153 
 11778      485F4241 
 11778      53452030 
 11778      78343030 
 11779              	.LASF674:
 11780 32f6 4C50435F 		.ascii	"LPC_SSP0 ((LPC_SSP_T *) LPC_SSP0_BASE)\000"
 11780      53535030 
 11780      2028284C 
 11780      50435F53 
 11780      53505F54 
 11781              	.LASF192:
 11782 331d 5F5F5553 		.ascii	"__USFRACT_FBIT__ 8\000"
 11782      46524143 
 11782      545F4642 
 11782      49545F5F 
ARM GAS  /tmp/ccXw4jW7.s 			page 260


 11782      203800
 11783              	.LASF260:
 11784 3330 5F5F4C4C 		.ascii	"__LLACCUM_MAX__ 0X7FFFFFFFFFFFFFFFP-31LLK\000"
 11784      41434355 
 11784      4D5F4D41 
 11784      585F5F20 
 11784      30583746 
 11785              	.LASF791:
 11786 335a 55415254 		.ascii	"UART_IIR_FIFO_EN (3 << 6)\000"
 11786      5F494952 
 11786      5F464946 
 11786      4F5F454E 
 11786      20283320 
 11787              	.LASF757:
 11788 3374 46554E43 		.ascii	"FUNC6 0x6\000"
 11788      36203078 
 11788      3600
 11789              	.LASF451:
 11790 337e 5F5F696E 		.ascii	"__int_least32_t_defined 1\000"
 11790      745F6C65 
 11790      61737433 
 11790      325F745F 
 11790      64656669 
 11791              	.LASF304:
 11792 3398 5F5F5553 		.ascii	"__USER_LABEL_PREFIX__ \000"
 11792      45525F4C 
 11792      4142454C 
 11792      5F505245 
 11792      4649585F 
 11793              	.LASF92:
 11794 33af 5F5F5549 		.ascii	"__UINT64_MAX__ 0xffffffffffffffffULL\000"
 11794      4E543634 
 11794      5F4D4158 
 11794      5F5F2030 
 11794      78666666 
 11795              	.LASF661:
 11796 33d4 4C50435F 		.ascii	"LPC_GPIO_PORT3_BASE 0x50030000\000"
 11796      4750494F 
 11796      5F504F52 
 11796      54335F42 
 11796      41534520 
 11797              	.LASF1002:
 11798 33f3 4932435F 		.ascii	"I2C_I2DAT_BITMASK ((0xFF))\000"
 11798      49324441 
 11798      545F4249 
 11798      544D4153 
 11798      4B202828 
 11799              	.LASF815:
 11800 340e 55415254 		.ascii	"UART_LCR_WLEN8 (3 << 0)\000"
 11800      5F4C4352 
 11800      5F574C45 
 11800      4E382028 
 11800      33203C3C 
 11801              	.LASF1160:
 11802 3426 53595343 		.ascii	"SYSCTL_CLOCK_FLASHARRAY\000"
 11802      544C5F43 
 11802      4C4F434B 
ARM GAS  /tmp/ccXw4jW7.s 			page 261


 11802      5F464C41 
 11802      53484152 
 11803              	.LASF91:
 11804 343e 5F5F5549 		.ascii	"__UINT32_MAX__ 0xffffffffUL\000"
 11804      4E543332 
 11804      5F4D4158 
 11804      5F5F2030 
 11804      78666666 
 11805              	.LASF514:
 11806 345a 494E5436 		.ascii	"INT64_C(x) __INT64_C(x)\000"
 11806      345F4328 
 11806      7829205F 
 11806      5F494E54 
 11806      36345F43 
 11807              	.LASF380:
 11808 3472 5F415446 		.ascii	"_ATFILE_SOURCE\000"
 11808      494C455F 
 11808      534F5552 
 11808      434500
 11809              	.LASF460:
 11810 3481 494E5438 		.ascii	"INT8_MIN (-__INT8_MAX__ - 1)\000"
 11810      5F4D494E 
 11810      20282D5F 
 11810      5F494E54 
 11810      385F4D41 
 11811              	.LASF1268:
 11812 349e 696E6465 		.ascii	"index\000"
 11812      7800
 11813              	.LASF1162:
 11814 34a4 53595343 		.ascii	"SYSCTL_CLOCK_GPIO\000"
 11814      544C5F43 
 11814      4C4F434B 
 11814      5F475049 
 11814      4F00
 11815              	.LASF591:
 11816 34b6 5343425F 		.ascii	"SCB_AIRCR_VECTKEY_Msk (0xFFFFUL << SCB_AIRCR_VECTKE"
 11816      41495243 
 11816      525F5645 
 11816      43544B45 
 11816      595F4D73 
 11817 34e9 595F506F 		.ascii	"Y_Pos)\000"
 11817      732900
 11818              	.LASF356:
 11819 34f0 5F5F4152 		.ascii	"__ARM_FEATURE_IDIV\000"
 11819      4D5F4645 
 11819      41545552 
 11819      455F4944 
 11819      495600
 11820              	.LASF1242:
 11821 3503 43686970 		.ascii	"Chip_I2C_MasterSend\000"
 11821      5F493243 
 11821      5F4D6173 
 11821      74657253 
 11821      656E6400 
 11822              	.LASF1278:
 11823 3517 43686970 		.ascii	"Chip_Clock_DisablePeriphClock\000"
 11823      5F436C6F 
ARM GAS  /tmp/ccXw4jW7.s 			page 262


 11823      636B5F44 
 11823      69736162 
 11823      6C655065 
 11824              	.LASF684:
 11825 3535 504D555F 		.ascii	"PMU_PCON_PM_DEEPPOWERDOWN (0x2)\000"
 11825      50434F4E 
 11825      5F504D5F 
 11825      44454550 
 11825      504F5745 
 11826              	.LASF798:
 11827 3555 55415254 		.ascii	"UART_IIR_INTID_CTI (6 << 1)\000"
 11827      5F494952 
 11827      5F494E54 
 11827      49445F43 
 11827      54492028 
 11828              	.LASF1097:
 11829 3571 55534250 		.ascii	"USBPLLSTAT\000"
 11829      4C4C5354 
 11829      415400
 11830              	.LASF1237:
 11831 357c 61646472 		.ascii	"addrMask\000"
 11831      4D61736B 
 11831      00
 11832              	.LASF418:
 11833 3585 5F494E54 		.ascii	"_INTPTR_EQ_INT \000"
 11833      5054525F 
 11833      45515F49 
 11833      4E542000 
 11834              	.LASF334:
 11835 3595 5F5F4152 		.ascii	"__ARM_SIZEOF_WCHAR_T 4\000"
 11835      4D5F5349 
 11835      5A454F46 
 11835      5F574348 
 11835      41525F54 
 11836              	.LASF468:
 11837 35ac 55494E54 		.ascii	"UINT16_MAX (__UINT16_MAX__)\000"
 11837      31365F4D 
 11837      41582028 
 11837      5F5F5549 
 11837      4E543136 
 11838              	.LASF65:
 11839 35c8 5F5F6861 		.ascii	"__has_include(STR) __has_include__(STR)\000"
 11839      735F696E 
 11839      636C7564 
 11839      65285354 
 11839      5229205F 
 11840              	.LASF1053:
 11841 35f0 53444F5F 		.ascii	"SDO_ABORT_UNKNOWNSUB 0x06090011UL\000"
 11841      41424F52 
 11841      545F554E 
 11841      4B4E4F57 
 11841      4E535542 
 11842              	.LASF906:
 11843 3612 5353505F 		.ascii	"SSP_CR0_SCR(n) ((uint32_t) ((n & 0xFF) << 8))\000"
 11843      4352305F 
 11843      53435228 
 11843      6E292028 
ARM GAS  /tmp/ccXw4jW7.s 			page 263


 11843      2875696E 
 11844              	.LASF105:
 11845 3640 5F5F5549 		.ascii	"__UINT_LEAST32_MAX__ 0xffffffffUL\000"
 11845      4E545F4C 
 11845      45415354 
 11845      33325F4D 
 11845      41585F5F 
 11846              	.LASF803:
 11847 3662 55415254 		.ascii	"UART_FCR_TX_RS (1 << 2)\000"
 11847      5F464352 
 11847      5F54585F 
 11847      52532028 
 11847      31203C3C 
 11848              	.LASF716:
 11849 367a 494F434F 		.ascii	"IOCON_FUNC0 0x0\000"
 11849      4E5F4655 
 11849      4E433020 
 11849      30783000 
 11850              	.LASF147:
 11851 368a 5F5F4442 		.ascii	"__DBL_EPSILON__ ((double)2.2204460492503131e-16L)\000"
 11851      4C5F4550 
 11851      53494C4F 
 11851      4E5F5F20 
 11851      2828646F 
 11852              	.LASF837:
 11853 36bc 55415254 		.ascii	"UART_LSR_FE (1 << 3)\000"
 11853      5F4C5352 
 11853      5F464520 
 11853      2831203C 
 11853      3C203329 
 11854              	.LASF136:
 11855 36d1 5F5F464C 		.ascii	"__FLT_HAS_INFINITY__ 1\000"
 11855      545F4841 
 11855      535F494E 
 11855      46494E49 
 11855      54595F5F 
 11856              	.LASF1010:
 11857 36e8 4932435F 		.ascii	"I2C_I2ADR_BITMASK ((0xFF))\000"
 11857      49324144 
 11857      525F4249 
 11857      544D4153 
 11857      4B202828 
 11858              	.LASF585:
 11859 3703 5343425F 		.ascii	"SCB_ICSR_ISRPENDING_Msk (1UL << SCB_ICSR_ISRPENDING"
 11859      49435352 
 11859      5F495352 
 11859      50454E44 
 11859      494E475F 
 11860 3736 5F506F73 		.ascii	"_Pos)\000"
 11860      2900
 11861              	.LASF85:
 11862 373c 5F5F494E 		.ascii	"__INT8_MAX__ 0x7f\000"
 11862      54385F4D 
 11862      41585F5F 
 11862      20307837 
 11862      6600
 11863              	.LASF868:
ARM GAS  /tmp/ccXw4jW7.s 			page 264


 11864 374e 55415254 		.ascii	"UART_ICR_IRDAINV (1 << 1)\000"
 11864      5F494352 
 11864      5F495244 
 11864      41494E56 
 11864      20283120 
 11865              	.LASF1182:
 11866 3768 4D4D4354 		.ascii	"MMCTRL\000"
 11866      524C00
 11867              	.LASF667:
 11868 376f 4C50435F 		.ascii	"LPC_TIMER16_0 ((LPC_TIMER_T *) LPC_TIMER16_0_BASE)\000"
 11868      54494D45 
 11868      5231365F 
 11868      30202828 
 11868      4C50435F 
 11869              	.LASF318:
 11870 37a2 5F5F4743 		.ascii	"__GCC_HAVE_DWARF2_CFI_ASM 1\000"
 11870      435F4841 
 11870      56455F44 
 11870      57415246 
 11870      325F4346 
 11871              	.LASF1277:
 11872 37be 656E6162 		.ascii	"enableClk\000"
 11872      6C65436C 
 11872      6B00
 11873              	.LASF189:
 11874 37c8 5F5F5346 		.ascii	"__SFRACT_MIN__ (-0.5HR-0.5HR)\000"
 11874      52414354 
 11874      5F4D494E 
 11874      5F5F2028 
 11874      2D302E35 
 11875              	.LASF1082:
 11876 37e6 6C6F6E67 		.ascii	"long unsigned int\000"
 11876      20756E73 
 11876      69676E65 
 11876      6420696E 
 11876      7400
 11877              	.LASF290:
 11878 37f8 5F5F5341 		.ascii	"__SA_IBIT__ 16\000"
 11878      5F494249 
 11878      545F5F20 
 11878      313600
 11879              	.LASF1269:
 11880 3807 61626173 		.ascii	"abase\000"
 11880      6500
 11881              	.LASF120:
 11882 380d 5F5F4743 		.ascii	"__GCC_IEC_559_COMPLEX 0\000"
 11882      435F4945 
 11882      435F3535 
 11882      395F434F 
 11882      4D504C45 
 11883              	.LASF1199:
 11884 3825 4932435F 		.ascii	"I2C_STATUS_BUSERR\000"
 11884      53544154 
 11884      55535F42 
 11884      55534552 
 11884      5200
 11885              	.LASF1208:
ARM GAS  /tmp/ccXw4jW7.s 			page 265


 11886 3837 4932435F 		.ascii	"I2C_XFER_T\000"
 11886      58464552 
 11886      5F5400
 11887              	.LASF1219:
 11888 3842 4932435F 		.ascii	"I2C_EVENT_SLAVE_TX\000"
 11888      4556454E 
 11888      545F534C 
 11888      4156455F 
 11888      545800
 11889              	.LASF761:
 11890 3855 54494D45 		.ascii	"TIMER_MATCH_INT(n) (_BIT((n) & 0x0F))\000"
 11890      525F4D41 
 11890      5443485F 
 11890      494E5428 
 11890      6E292028 
 11891              	.LASF44:
 11892 387b 5F5F5549 		.ascii	"__UINT16_TYPE__ short unsigned int\000"
 11892      4E543136 
 11892      5F545950 
 11892      455F5F20 
 11892      73686F72 
 11893              	.LASF376:
 11894 389e 5F504F53 		.ascii	"_POSIX_SOURCE\000"
 11894      49585F53 
 11894      4F555243 
 11894      4500
 11895              	.LASF344:
 11896 38ac 5F5F534F 		.ascii	"__SOFTFP__ 1\000"
 11896      46544650 
 11896      5F5F2031 
 11896      00
 11897              	.LASF1207:
 11898 38b9 73746174 		.ascii	"status\000"
 11898      757300
 11899              	.LASF499:
 11900 38c0 53495A45 		.ascii	"SIZE_MAX (__SIZE_MAX__)\000"
 11900      5F4D4158 
 11900      20285F5F 
 11900      53495A45 
 11900      5F4D4158 
 11901              	.LASF168:
 11902 38d8 5F5F4445 		.ascii	"__DEC32_MAX_EXP__ 97\000"
 11902      4333325F 
 11902      4D41585F 
 11902      4558505F 
 11902      5F203937 
 11903              	.LASF628:
 11904 38ed 53797354 		.ascii	"SysTick_CALIB_TENMS_Pos 0\000"
 11904      69636B5F 
 11904      43414C49 
 11904      425F5445 
 11904      4E4D535F 
 11905              	.LASF884:
 11906 3907 55415254 		.ascii	"UART_SYNCCTRL_CSRC_MASTER (1 << 1)\000"
 11906      5F53594E 
 11906      43435452 
 11906      4C5F4353 
ARM GAS  /tmp/ccXw4jW7.s 			page 266


 11906      52435F4D 
 11907              	.LASF699:
 11908 392a 53595343 		.ascii	"SYSCTL_SLPWAKE_FLASH_PD (1 << 2)\000"
 11908      544C5F53 
 11908      4C505741 
 11908      4B455F46 
 11908      4C415348 
 11909              	.LASF416:
 11910 394b 696E7420 		.ascii	"int +2\000"
 11910      2B3200
 11911              	.LASF1196:
 11912 3952 4932435F 		.ascii	"I2C_STATUS_DONE\000"
 11912      53544154 
 11912      55535F44 
 11912      4F4E4500 
 11913              	.LASF947:
 11914 3962 5F5F4750 		.ascii	"__GPIO_11XX_2_H_ \000"
 11914      494F5F31 
 11914      3158585F 
 11914      325F485F 
 11914      2000
 11915              	.LASF508:
 11916 3974 494E5438 		.ascii	"INT8_C(x) __INT8_C(x)\000"
 11916      5F432878 
 11916      29205F5F 
 11916      494E5438 
 11916      5F432878 
 11917              	.LASF59:
 11918 398a 5F5F5549 		.ascii	"__UINT_FAST8_TYPE__ unsigned int\000"
 11918      4E545F46 
 11918      41535438 
 11918      5F545950 
 11918      455F5F20 
 11919              	.LASF258:
 11920 39ab 5F5F4C4C 		.ascii	"__LLACCUM_IBIT__ 32\000"
 11920      41434355 
 11920      4D5F4942 
 11920      49545F5F 
 11920      20333200 
 11921              	.LASF1195:
 11922 39bf 4932435F 		.ascii	"I2C_SLAVE_ID\000"
 11922      534C4156 
 11922      455F4944 
 11922      00
 11923              	.LASF201:
 11924 39cc 5F5F4652 		.ascii	"__FRACT_EPSILON__ 0x1P-15R\000"
 11924      4143545F 
 11924      45505349 
 11924      4C4F4E5F 
 11924      5F203078 
 11925              	.LASF535:
 11926 39e7 45585445 		.ascii	"EXTERN extern\000"
 11926      524E2065 
 11926      78746572 
 11926      6E00
 11927              	.LASF583:
 11928 39f5 5343425F 		.ascii	"SCB_ICSR_ISRPREEMPT_Msk (1UL << SCB_ICSR_ISRPREEMPT"
ARM GAS  /tmp/ccXw4jW7.s 			page 267


 11928      49435352 
 11928      5F495352 
 11928      50524545 
 11928      4D50545F 
 11929 3a28 5F506F73 		.ascii	"_Pos)\000"
 11929      2900
 11930              	.LASF910:
 11931 3a2e 5353505F 		.ascii	"SSP_CR1_SLAVE_EN ((uint32_t) (1 << 2))\000"
 11931      4352315F 
 11931      534C4156 
 11931      455F454E 
 11931      20282875 
 11932              	.LASF87:
 11933 3a55 5F5F494E 		.ascii	"__INT32_MAX__ 0x7fffffffL\000"
 11933      5433325F 
 11933      4D41585F 
 11933      5F203078 
 11933      37666666 
 11934              	.LASF911:
 11935 3a6f 5353505F 		.ascii	"SSP_CR1_MASTER_EN ((uint32_t) (0))\000"
 11935      4352315F 
 11935      4D415354 
 11935      45525F45 
 11935      4E202828 
 11936              	.LASF1020:
 11937 3a92 4932435F 		.ascii	"I2C_LAST_BYTE_RECV 0x04\000"
 11937      4C415354 
 11937      5F425954 
 11937      455F5245 
 11937      43562030 
 11938              	.LASF358:
 11939 3aaa 5F5F4758 		.ascii	"__GXX_TYPEINFO_EQUALITY_INLINE 0\000"
 11939      585F5459 
 11939      5045494E 
 11939      464F5F45 
 11939      5155414C 
 11940              	.LASF544:
 11941 3acb 5F5F4D50 		.ascii	"__MPU_PRESENT 0\000"
 11941      555F5052 
 11941      4553454E 
 11941      54203000 
 11942              	.LASF38:
 11943 3adb 5F5F5349 		.ascii	"__SIG_ATOMIC_TYPE__ int\000"
 11943      475F4154 
 11943      4F4D4943 
 11943      5F545950 
 11943      455F5F20 
 11944              	.LASF327:
 11945 3af3 5F5F4152 		.ascii	"__ARM_FEATURE_UNALIGNED\000"
 11945      4D5F4645 
 11945      41545552 
 11945      455F554E 
 11945      414C4947 
 11946              	.LASF375:
 11947 3b0b 5F444546 		.ascii	"_DEFAULT_SOURCE 1\000"
 11947      41554C54 
 11947      5F534F55 
ARM GAS  /tmp/ccXw4jW7.s 			page 268


 11947      52434520 
 11947      3100
 11948              	.LASF184:
 11949 3b1d 5F5F4445 		.ascii	"__DEC128_MAX__ 9.999999999999999999999999999999999E"
 11949      43313238 
 11949      5F4D4158 
 11949      5F5F2039 
 11949      2E393939 
 11950 3b50 36313434 		.ascii	"6144DL\000"
 11950      444C00
 11951              	.LASF118:
 11952 3b57 5F5F5549 		.ascii	"__UINTPTR_MAX__ 0xffffffffU\000"
 11952      4E545054 
 11952      525F4D41 
 11952      585F5F20 
 11952      30786666 
 11953              	.LASF742:
 11954 3b73 4D445F49 		.ascii	"MD_INV (0x1 << 6)\000"
 11954      4E562028 
 11954      30783120 
 11954      3C3C2036 
 11954      2900
 11955              	.LASF54:
 11956 3b85 5F5F5549 		.ascii	"__UINT_LEAST64_TYPE__ long long unsigned int\000"
 11956      4E545F4C 
 11956      45415354 
 11956      36345F54 
 11956      5950455F 
 11957              	.LASF1254:
 11958 3bb2 43686970 		.ascii	"Chip_I2C_MasterStateHandler\000"
 11958      5F493243 
 11958      5F4D6173 
 11958      74657253 
 11958      74617465 
 11959              	.LASF161:
 11960 3bce 5F5F4C44 		.ascii	"__LDBL_EPSILON__ 2.2204460492503131e-16L\000"
 11960      424C5F45 
 11960      5053494C 
 11960      4F4E5F5F 
 11960      20322E32 
 11961              	.LASF1063:
 11962 3bf7 4F445F53 		.ascii	"OD_SEG_WO 0x50\000"
 11962      45475F57 
 11962      4F203078 
 11962      353000
 11963              	.LASF721:
 11964 3c06 494F434F 		.ascii	"IOCON_FUNC5 0x5\000"
 11964      4E5F4655 
 11964      4E433520 
 11964      30783500 
 11965              	.LASF309:
 11966 3c16 5F5F4743 		.ascii	"__GCC_ATOMIC_CHAR16_T_LOCK_FREE 1\000"
 11966      435F4154 
 11966      4F4D4943 
 11966      5F434841 
 11966      5231365F 
 11967              	.LASF1226:
ARM GAS  /tmp/ccXw4jW7.s 			page 269


 11968 3c38 73586665 		.ascii	"sXfer\000"
 11968      7200
 11969              	.LASF142:
 11970 3c3e 5F5F4442 		.ascii	"__DBL_MAX_EXP__ 1024\000"
 11970      4C5F4D41 
 11970      585F4558 
 11970      505F5F20 
 11970      31303234 
 11971              	.LASF427:
 11972 3c53 5F5F4641 		.ascii	"__FAST64 \"ll\"\000"
 11972      53543634 
 11972      20226C6C 
 11972      2200
 11973              	.LASF9:
 11974 3c61 5F5F4154 		.ascii	"__ATOMIC_RELEASE 3\000"
 11974      4F4D4943 
 11974      5F52454C 
 11974      45415345 
 11974      203300
 11975              	.LASF412:
 11976 3c74 756E7369 		.ascii	"unsigned +0\000"
 11976      676E6564 
 11976      202B3000 
 11977              	.LASF124:
 11978 3c80 5F5F464C 		.ascii	"__FLT_MANT_DIG__ 24\000"
 11978      545F4D41 
 11978      4E545F44 
 11978      49475F5F 
 11978      20323400 
 11979              	.LASF1209:
 11980 3c94 43484950 		.ascii	"CHIP_SYSCTL_CLOCK\000"
 11980      5F535953 
 11980      43544C5F 
 11980      434C4F43 
 11980      4B00
 11981              	.LASF1137:
 11982 3ca6 4952514C 		.ascii	"IRQLATENCY\000"
 11982      4154454E 
 11982      435900
 11983              	.LASF57:
 11984 3cb1 5F5F494E 		.ascii	"__INT_FAST32_TYPE__ int\000"
 11984      545F4641 
 11984      53543332 
 11984      5F545950 
 11984      455F5F20 
 11985              	.LASF1172:
 11986 3cc9 53595343 		.ascii	"SYSCTL_CLOCK_IOCON\000"
 11986      544C5F43 
 11986      4C4F434B 
 11986      5F494F43 
 11986      4F4E00
 11987              	.LASF498:
 11988 3cdc 55494E54 		.ascii	"UINTMAX_MAX (__UINTMAX_MAX__)\000"
 11988      4D41585F 
 11988      4D415820 
 11988      285F5F55 
 11988      494E544D 
ARM GAS  /tmp/ccXw4jW7.s 			page 270


 11989              	.LASF933:
 11990 3cfa 4144435F 		.ascii	"ADC_CR_CH_SEL(n) ((1UL << (n)))\000"
 11990      43525F43 
 11990      485F5345 
 11990      4C286E29 
 11990      20282831 
 11991              	.LASF1281:
 11992 3d1a 2E2E2F2E 		.ascii	"../../lpc11cx4-library/lpc_chip_11cxx_lib/src/i2c_1"
 11992      2E2F6C70 
 11992      63313163 
 11992      78342D6C 
 11992      69627261 
 11993 3d4d 3178782E 		.ascii	"1xx.c\000"
 11993      6300
 11994              	.LASF12:
 11995 3d53 5F5F4F50 		.ascii	"__OPTIMIZE__ 1\000"
 11995      54494D49 
 11995      5A455F5F 
 11995      203100
 11996              	.LASF245:
 11997 3d62 5F5F5541 		.ascii	"__UACCUM_MAX__ 0XFFFFFFFFP-16UK\000"
 11997      4343554D 
 11997      5F4D4158 
 11997      5F5F2030 
 11997      58464646 
 11998              	.LASF1203:
 11999 3d82 74784275 		.ascii	"txBuff\000"
 11999      666600
 12000              	.LASF1239:
 12001 3d89 43686970 		.ascii	"Chip_I2C_MasterRead\000"
 12001      5F493243 
 12001      5F4D6173 
 12001      74657252 
 12001      65616400 
 12002              	.LASF681:
 12003 3d9d 4C50435F 		.ascii	"LPC_ROM_API (*((LPC_ROM_API_T * *) LPC_ROM_API_BASE"
 12003      524F4D5F 
 12003      41504920 
 12003      282A2828 
 12003      4C50435F 
 12004 3dd0 5F4C4F43 		.ascii	"_LOC))\000"
 12004      292900
 12005              	.LASF426:
 12006 3dd7 5F5F4641 		.ascii	"__FAST32 \000"
 12006      53543332 
 12006      2000
 12007              	.LASF415:
 12008 3de1 5F5F696E 		.ascii	"__int20 +2\000"
 12008      74323020 
 12008      2B3200
 12009              	.LASF894:
 12010 3dec 57574454 		.ascii	"WWDT_WDMOD_WDTOF ((uint32_t) (1 << 2))\000"
 12010      5F57444D 
 12010      4F445F57 
 12010      44544F46 
 12010      20282875 
 12011              	.LASF943:
ARM GAS  /tmp/ccXw4jW7.s 			page 271


 12012 3e13 4144435F 		.ascii	"ADC_CR_START_ADCTRIG1 ((5UL << 24))\000"
 12012      43525F53 
 12012      54415254 
 12012      5F414443 
 12012      54524947 
 12013              	.LASF162:
 12014 3e37 5F5F4C44 		.ascii	"__LDBL_DENORM_MIN__ 4.9406564584124654e-324L\000"
 12014      424C5F44 
 12014      454E4F52 
 12014      4D5F4D49 
 12014      4E5F5F20 
 12015              	.LASF88:
 12016 3e64 5F5F494E 		.ascii	"__INT64_MAX__ 0x7fffffffffffffffLL\000"
 12016      5436345F 
 12016      4D41585F 
 12016      5F203078 
 12016      37666666 
 12017              	.LASF1276:
 12018 3e87 64697361 		.ascii	"disableClk\000"
 12018      626C6543 
 12018      6C6B00
 12019              	.LASF438:
 12020 3e92 5F5F696E 		.ascii	"__int16_t_defined 1\000"
 12020      7431365F 
 12020      745F6465 
 12020      66696E65 
 12020      64203100 
 12021              	.LASF223:
 12022 3ea6 5F5F554C 		.ascii	"__ULLFRACT_IBIT__ 0\000"
 12022      4C465241 
 12022      43545F49 
 12022      4249545F 
 12022      5F203000 
 12023              	.LASF1157:
 12024 3eba 53595343 		.ascii	"SYSCTL_CLOCK_ROM\000"
 12024      544C5F43 
 12024      4C4F434B 
 12024      5F524F4D 
 12024      00
 12025              	.LASF844:
 12026 3ecb 55415254 		.ascii	"UART1_LSR_BITMASK (0x1FF)\000"
 12026      315F4C53 
 12026      525F4249 
 12026      544D4153 
 12026      4B202830 
 12027              	.LASF810:
 12028 3ee5 55415254 		.ascii	"UART_FCR_TRG_LEV3 (3 << 6)\000"
 12028      5F464352 
 12028      5F545247 
 12028      5F4C4556 
 12028      33202833 
 12029              	.LASF860:
 12030 3f00 55415254 		.ascii	"UART_RS485CTRL_NMM_EN (1 << 0)\000"
 12030      5F525334 
 12030      38354354 
 12030      524C5F4E 
 12030      4D4D5F45 
ARM GAS  /tmp/ccXw4jW7.s 			page 272


 12031              	.LASF677:
 12032 3f1f 4C50435F 		.ascii	"LPC_SSP1 ((LPC_SSP_T *) LPC_SSP1_BASE)\000"
 12032      53535031 
 12032      2028284C 
 12032      50435F53 
 12032      53505F54 
 12033              	.LASF872:
 12034 3f46 55415254 		.ascii	"UART_HDEN_HDEN ((1 << 0))\000"
 12034      5F484445 
 12034      4E5F4844 
 12034      454E2028 
 12034      2831203C 
 12035              	.LASF570:
 12036 3f60 5343425F 		.ascii	"SCB_CPUID_REVISION_Pos 0\000"
 12036      43505549 
 12036      445F5245 
 12036      56495349 
 12036      4F4E5F50 
 12037              	.LASF1253:
 12038 3f79 73746174 		.ascii	"stat\000"
 12038      00
 12039              	.LASF554:
 12040 3f7e 5F5F5354 		.ascii	"__STATIC_INLINE static inline\000"
 12040      41544943 
 12040      5F494E4C 
 12040      494E4520 
 12040      73746174 
 12041              	.LASF650:
 12042 3f9c 4C50435F 		.ascii	"LPC_PMU_BASE 0x40038000\000"
 12042      504D555F 
 12042      42415345 
 12042      20307834 
 12042      30303338 
 12043              	.LASF969:
 12044 3fb4 4932435F 		.ascii	"I2C_STAT_CODE_BITMASK ((0xF8))\000"
 12044      53544154 
 12044      5F434F44 
 12044      455F4249 
 12044      544D4153 
 12045              	.LASF131:
 12046 3fd3 5F5F464C 		.ascii	"__FLT_MAX__ 3.4028234663852886e+38F\000"
 12046      545F4D41 
 12046      585F5F20 
 12046      332E3430 
 12046      32383233 
 12047              	.LASF713:
 12048 3ff7 5F5F434C 		.ascii	"__CLOCK_11XX_H_ \000"
 12048      4F434B5F 
 12048      31315858 
 12048      5F485F20 
 12048      00
 12049              	.LASF242:
 12050 4008 5F5F5541 		.ascii	"__UACCUM_FBIT__ 16\000"
 12050      4343554D 
 12050      5F464249 
 12050      545F5F20 
 12050      313600
ARM GAS  /tmp/ccXw4jW7.s 			page 273


 12051              	.LASF1012:
 12052 401b 4932435F 		.ascii	"I2C_I2SCLH_BITMASK ((0xFFFF))\000"
 12052      49325343 
 12052      4C485F42 
 12052      49544D41 
 12052      534B2028 
 12053              	.LASF206:
 12054 4039 5F5F5546 		.ascii	"__UFRACT_EPSILON__ 0x1P-16UR\000"
 12054      52414354 
 12054      5F455053 
 12054      494C4F4E 
 12054      5F5F2030 
 12055              	.LASF74:
 12056 4056 5F5F5743 		.ascii	"__WCHAR_MIN__ 0U\000"
 12056      4841525F 
 12056      4D494E5F 
 12056      5F203055 
 12056      00
 12057              	.LASF540:
 12058 4067 5F5F5359 		.ascii	"__SYS_CONFIG_H_ \000"
 12058      535F434F 
 12058      4E464947 
 12058      5F485F20 
 12058      00
 12059              	.LASF278:
 12060 4078 5F5F5551 		.ascii	"__UQQ_IBIT__ 0\000"
 12060      515F4942 
 12060      49545F5F 
 12060      203000
 12061              	.LASF368:
 12062 4087 5F4E4557 		.ascii	"_NEWLIB_VERSION \"2.4.0\"\000"
 12062      4C49425F 
 12062      56455253 
 12062      494F4E20 
 12062      22322E34 
 12063              	.LASF314:
 12064 409f 5F5F4743 		.ascii	"__GCC_ATOMIC_LONG_LOCK_FREE 1\000"
 12064      435F4154 
 12064      4F4D4943 
 12064      5F4C4F4E 
 12064      475F4C4F 
 12065              	.LASF254:
 12066 40bd 5F5F554C 		.ascii	"__ULACCUM_MIN__ 0.0ULK\000"
 12066      41434355 
 12066      4D5F4D49 
 12066      4E5F5F20 
 12066      302E3055 
 12067              	.LASF1081:
 12068 40d4 5F5F7569 		.ascii	"__uint32_t\000"
 12068      6E743332 
 12068      5F7400
 12069              	.LASF159:
 12070 40df 5F5F4C44 		.ascii	"__LDBL_MAX__ 1.7976931348623157e+308L\000"
 12070      424C5F4D 
 12070      41585F5F 
 12070      20312E37 
 12070      39373639 
ARM GAS  /tmp/ccXw4jW7.s 			page 274


 12071              	.LASF123:
 12072 4105 5F5F464C 		.ascii	"__FLT_RADIX__ 2\000"
 12072      545F5241 
 12072      4449585F 
 12072      5F203200 
 12073              	.LASF902:
 12074 4115 5353505F 		.ascii	"SSP_CR0_CPOL_LO ((uint32_t) (0))\000"
 12074      4352305F 
 12074      43504F4C 
 12074      5F4C4F20 
 12074      28287569 
 12075              	.LASF1083:
 12076 4136 6C6F6E67 		.ascii	"long long int\000"
 12076      206C6F6E 
 12076      6720696E 
 12076      7400
 12077              	.LASF923:
 12078 4144 5353505F 		.ascii	"SSP_MASTER_MODE SSP_CR1_MASTER_EN\000"
 12078      4D415354 
 12078      45525F4D 
 12078      4F444520 
 12078      5353505F 
 12079              	.LASF755:
 12080 4166 46554E43 		.ascii	"FUNC4 0x4\000"
 12080      34203078 
 12080      3400
 12081              	.LASF474:
 12082 4170 55494E54 		.ascii	"UINT32_MAX (__UINT32_MAX__)\000"
 12082      33325F4D 
 12082      41582028 
 12082      5F5F5549 
 12082      4E543332 
 12083              	.LASF827:
 12084 418c 55415254 		.ascii	"UART_LCR_BITMASK (0xFF)\000"
 12084      5F4C4352 
 12084      5F424954 
 12084      4D41534B 
 12084      20283078 
 12085              	.LASF1243:
 12086 41a4 43686970 		.ascii	"Chip_I2C_MasterTransfer\000"
 12086      5F493243 
 12086      5F4D6173 
 12086      74657254 
 12086      72616E73 
 12087              	.LASF775:
 12088 41bc 55415254 		.ascii	"UART_RBR_MASKBIT (0xFF)\000"
 12088      5F524252 
 12088      5F4D4153 
 12088      4B424954 
 12088      20283078 
 12089              	.LASF1016:
 12090 41d4 4932435F 		.ascii	"I2C_SETUP_STATUS_DONE (1 << 10)\000"
 12090      53455455 
 12090      505F5354 
 12090      41545553 
 12090      5F444F4E 
 12091              	.LASF702:
ARM GAS  /tmp/ccXw4jW7.s 			page 275


 12092 41f4 53595343 		.ascii	"SYSCTL_SLPWAKE_SYSOSC_PD (1 << 5)\000"
 12092      544C5F53 
 12092      4C505741 
 12092      4B455F53 
 12092      59534F53 
 12093              	.LASF506:
 12094 4216 57494E54 		.ascii	"WINT_MAX (__WINT_MAX__)\000"
 12094      5F4D4158 
 12094      20285F5F 
 12094      57494E54 
 12094      5F4D4158 
 12095              	.LASF732:
 12096 422e 494F434F 		.ascii	"IOCON_SFI2C_EN (0x0 << 8)\000"
 12096      4E5F5346 
 12096      4932435F 
 12096      454E2028 
 12096      30783020 
 12097              	.LASF1031:
 12098 4248 43414E5F 		.ascii	"CAN_ERROR_WARN 0x00000002UL\000"
 12098      4552524F 
 12098      525F5741 
 12098      524E2030 
 12098      78303030 
 12099              	.LASF931:
 12100 4264 4144435F 		.ascii	"ADC_DR_DONE(n) (((n) >> 31))\000"
 12100      44525F44 
 12100      4F4E4528 
 12100      6E292028 
 12100      28286E29 
 12101              	.LASF495:
 12102 4281 55494E54 		.ascii	"UINT_FAST64_MAX (__UINT_FAST64_MAX__)\000"
 12102      5F464153 
 12102      5436345F 
 12102      4D415820 
 12102      285F5F55 
 12103              	.LASF346:
 12104 42a7 5F5F4152 		.ascii	"__ARM_FP\000"
 12104      4D5F4650 
 12104      00
 12105              	.LASF288:
 12106 42b0 5F5F4841 		.ascii	"__HA_IBIT__ 8\000"
 12106      5F494249 
 12106      545F5F20 
 12106      3800
 12107              	.LASF323:
 12108 42be 5F5F4152 		.ascii	"__ARM_FEATURE_DSP\000"
 12108      4D5F4645 
 12108      41545552 
 12108      455F4453 
 12108      5000
 12109              	.LASF315:
 12110 42d0 5F5F4743 		.ascii	"__GCC_ATOMIC_LLONG_LOCK_FREE 1\000"
 12110      435F4154 
 12110      4F4D4943 
 12110      5F4C4C4F 
 12110      4E475F4C 
 12111              	.LASF966:
ARM GAS  /tmp/ccXw4jW7.s 			page 276


 12112 42ef 4932435F 		.ascii	"I2C_CON_STO (1UL << 4)\000"
 12112      434F4E5F 
 12112      53544F20 
 12112      2831554C 
 12112      203C3C20 
 12113              	.LASF1246:
 12114 4306 43686970 		.ascii	"Chip_I2C_GetClockRate\000"
 12114      5F493243 
 12114      5F476574 
 12114      436C6F63 
 12114      6B526174 
 12115              	.LASF637:
 12116 431c 5F424954 		.ascii	"_BIT_SHIFT(IRQn) ( (((uint32_t)(IRQn) ) & 0x03) * 8"
 12116      5F534849 
 12116      46542849 
 12116      52516E29 
 12116      20282028 
 12117 434f 202900   		.ascii	" )\000"
 12118              	.LASF839:
 12119 4352 55415254 		.ascii	"UART_LSR_THRE (1 << 5)\000"
 12119      5F4C5352 
 12119      5F544852 
 12119      45202831 
 12119      203C3C20 
 12120              	.LASF848:
 12121 4369 55415254 		.ascii	"UART_MSR_DELTA_DCD (1 << 3)\000"
 12121      5F4D5352 
 12121      5F44454C 
 12121      54415F44 
 12121      43442028 
 12122              	.LASF873:
 12123 4385 55415254 		.ascii	"UART_SCICTRL_SCIEN (1 << 0)\000"
 12123      5F534349 
 12123      4354524C 
 12123      5F534349 
 12123      454E2028 
 12124              	.LASF1013:
 12125 43a1 4932435F 		.ascii	"I2C_I2SCLL_BITMASK ((0xFFFF))\000"
 12125      49325343 
 12125      4C4C5F42 
 12125      49544D41 
 12125      534B2028 
 12126              	.LASF1103:
 12127 43bf 53595352 		.ascii	"SYSRSTSTAT\000"
 12127      53545354 
 12127      415400
 12128              	.LASF80:
 12129 43ca 5F5F494E 		.ascii	"__INTMAX_C(c) c ## LL\000"
 12129      544D4158 
 12129      5F432863 
 12129      29206320 
 12129      2323204C 
 12130              	.LASF896:
 12131 43e0 57574454 		.ascii	"WWDT_WDMOD_WDPROTECT ((uint32_t) (1 << 4))\000"
 12131      5F57444D 
 12131      4F445F57 
 12131      4450524F 
ARM GAS  /tmp/ccXw4jW7.s 			page 277


 12131      54454354 
 12132              	.LASF976:
 12133 440b 4932435F 		.ascii	"I2C_I2STAT_M_TX_SLAW_NACK ((0x20))\000"
 12133      49325354 
 12133      41545F4D 
 12133      5F54585F 
 12133      534C4157 
 12134              	.LASF823:
 12135 442e 55415254 		.ascii	"UART_LCR_PARITY_F_1 (2 << 4)\000"
 12135      5F4C4352 
 12135      5F504152 
 12135      4954595F 
 12135      465F3120 
 12136              	.LASF819:
 12137 444b 55415254 		.ascii	"UART_LCR_PARITY_EN (1 << 3)\000"
 12137      5F4C4352 
 12137      5F504152 
 12137      4954595F 
 12137      454E2028 
 12138              	.LASF42:
 12139 4467 5F5F494E 		.ascii	"__INT64_TYPE__ long long int\000"
 12139      5436345F 
 12139      54595045 
 12139      5F5F206C 
 12139      6F6E6720 
 12140              	.LASF207:
 12141 4484 5F5F4C46 		.ascii	"__LFRACT_FBIT__ 31\000"
 12141      52414354 
 12141      5F464249 
 12141      545F5F20 
 12141      333100
 12142              	.LASF22:
 12143 4497 5F5F4348 		.ascii	"__CHAR_BIT__ 8\000"
 12143      41525F42 
 12143      49545F5F 
 12143      203800
 12144              	.LASF320:
 12145 44a6 5F5F5349 		.ascii	"__SIZEOF_WCHAR_T__ 4\000"
 12145      5A454F46 
 12145      5F574348 
 12145      41525F54 
 12145      5F5F2034 
 12146              	.LASF383:
 12147 44bb 5F5F4253 		.ascii	"__BSD_VISIBLE 1\000"
 12147      445F5649 
 12147      5349424C 
 12147      45203100 
 12148              	.LASF469:
 12149 44cb 494E545F 		.ascii	"INT_LEAST16_MIN (-__INT_LEAST16_MAX__ - 1)\000"
 12149      4C454153 
 12149      5431365F 
 12149      4D494E20 
 12149      282D5F5F 
 12150              	.LASF1266:
 12151 44f6 6D61736B 		.ascii	"mask\000"
 12151      00
 12152              	.LASF855:
ARM GAS  /tmp/ccXw4jW7.s 			page 278


 12153 44fb 55415254 		.ascii	"UART_ACR_MODE (1 << 1)\000"
 12153      5F414352 
 12153      5F4D4F44 
 12153      45202831 
 12153      203C3C20 
 12154              	.LASF1214:
 12155 4512 4932435F 		.ascii	"I2C_EVENT_WAIT\000"
 12155      4556454E 
 12155      545F5741 
 12155      495400
 12156              	.LASF790:
 12157 4521 55415254 		.ascii	"UART_IIR_INTSTAT_PEND (1 << 0)\000"
 12157      5F494952 
 12157      5F494E54 
 12157      53544154 
 12157      5F50454E 
 12158              	.LASF1215:
 12159 4540 4932435F 		.ascii	"I2C_EVENT_DONE\000"
 12159      4556454E 
 12159      545F444F 
 12159      4E4500
 12160              	.LASF1283:
 12161 454f 67657443 		.ascii	"getClkRate\000"
 12161      6C6B5261 
 12161      746500
 12162              	.LASF940:
 12163 455a 4144435F 		.ascii	"ADC_CR_START_CTOUT15 ((2UL << 24))\000"
 12163      43525F53 
 12163      54415254 
 12163      5F43544F 
 12163      55543135 
 12164              	.LASF205:
 12165 457d 5F5F5546 		.ascii	"__UFRACT_MAX__ 0XFFFFP-16UR\000"
 12165      52414354 
 12165      5F4D4158 
 12165      5F5F2030 
 12165      58464646 
 12166              	.LASF401:
 12167 4599 5F5F5F69 		.ascii	"___int_least64_t_defined 1\000"
 12167      6E745F6C 
 12167      65617374 
 12167      36345F74 
 12167      5F646566 
 12168              	.LASF1006:
 12169 45b4 4932435F 		.ascii	"I2C_I2MMCTRL_MATCH_ALL ((1 << 2))\000"
 12169      49324D4D 
 12169      4354524C 
 12169      5F4D4154 
 12169      43485F41 
 12170              	.LASF769:
 12171 45d6 54494D45 		.ascii	"TIMER_CAP_FALLING(n) (_BIT((((n) * 3) + 1)))\000"
 12171      525F4341 
 12171      505F4641 
 12171      4C4C494E 
 12171      47286E29 
 12172              	.LASF1201:
 12173 4603 4932435F 		.ascii	"I2C_STATUS_T\000"
ARM GAS  /tmp/ccXw4jW7.s 			page 279


 12173      53544154 
 12173      55535F54 
 12173      00
 12174              	.LASF1229:
 12175 4610 6932635F 		.ascii	"i2c_slave_interface\000"
 12175      736C6176 
 12175      655F696E 
 12175      74657266 
 12175      61636500 
 12176              	.LASF188:
 12177 4624 5F5F5346 		.ascii	"__SFRACT_IBIT__ 0\000"
 12177      52414354 
 12177      5F494249 
 12177      545F5F20 
 12177      3000
 12178              	.LASF1068:
 12179 4636 43414E5F 		.ascii	"CAN_SDOSEG_SEGMENT 0\000"
 12179      53444F53 
 12179      45475F53 
 12179      45474D45 
 12179      4E542030 
 12180              	.LASF381:
 12181 464b 5F415446 		.ascii	"_ATFILE_SOURCE 1\000"
 12181      494C455F 
 12181      534F5552 
 12181      43452031 
 12181      00
 12182              	.LASF404:
 12183 465c 5F5F5354 		.ascii	"__STDINT_EXP(x) __ ##x ##__\000"
 12183      44494E54 
 12183      5F455850 
 12183      28782920 
 12183      5F5F2023 
 12184              	.LASF391:
 12185 4678 5F5F4558 		.ascii	"__EXP(x) __ ##x ##__\000"
 12185      50287829 
 12185      205F5F20 
 12185      23237820 
 12185      23235F5F 
 12186              	.LASF27:
 12187 468d 5F5F4259 		.ascii	"__BYTE_ORDER__ __ORDER_LITTLE_ENDIAN__\000"
 12187      54455F4F 
 12187      52444552 
 12187      5F5F205F 
 12187      5F4F5244 
 12188              	.LASF1240:
 12189 46b4 62756666 		.ascii	"buff\000"
 12189      00
 12190              	.LASF350:
 12191 46b9 5F5F4152 		.ascii	"__ARM_NEON_FP\000"
 12191      4D5F4E45 
 12191      4F4E5F46 
 12191      5000
 12192              	.LASF660:
 12193 46c7 4C50435F 		.ascii	"LPC_GPIO_PORT2_BASE 0x50020000\000"
 12193      4750494F 
 12193      5F504F52 
ARM GAS  /tmp/ccXw4jW7.s 			page 280


 12193      54325F42 
 12193      41534520 
 12194              	.LASF845:
 12195 46e6 55415254 		.ascii	"UART_MSR_DELTA_CTS (1 << 0)\000"
 12195      5F4D5352 
 12195      5F44454C 
 12195      54415F43 
 12195      54532028 
 12196              	.LASF749:
 12197 4702 4D445F46 		.ascii	"MD_FASTI2C (0x2 << 8)\000"
 12197      41535449 
 12197      32432028 
 12197      30783220 
 12197      3C3C2038 
 12198              	.LASF768:
 12199 4718 54494D45 		.ascii	"TIMER_CAP_RISING(n) (_BIT(((n) * 3)))\000"
 12199      525F4341 
 12199      505F5249 
 12199      53494E47 
 12199      286E2920 
 12200              	.LASF581:
 12201 473e 5343425F 		.ascii	"SCB_ICSR_PENDSTCLR_Msk (1UL << SCB_ICSR_PENDSTCLR_P"
 12201      49435352 
 12201      5F50454E 
 12201      44535443 
 12201      4C525F4D 
 12202 4771 6F732900 		.ascii	"os)\000"
 12203              	.LASF388:
 12204 4775 5F5F504F 		.ascii	"__POSIX_VISIBLE 200809\000"
 12204      5349585F 
 12204      56495349 
 12204      424C4520 
 12204      32303038 
 12205              	.LASF840:
 12206 478c 55415254 		.ascii	"UART_LSR_TEMT (1 << 6)\000"
 12206      5F4C5352 
 12206      5F54454D 
 12206      54202831 
 12206      203C3C20 
 12207              	.LASF708:
 12208 47a3 53595343 		.ascii	"SYSCTL_POWERDOWN_BOD_PD (1 << 3)\000"
 12208      544C5F50 
 12208      4F574552 
 12208      444F574E 
 12208      5F424F44 
 12209              	.LASF1231:
 12210 47c4 6576656E 		.ascii	"event\000"
 12210      7400
 12211              	.LASF33:
 12212 47ca 5F5F5749 		.ascii	"__WINT_TYPE__ unsigned int\000"
 12212      4E545F54 
 12212      5950455F 
 12212      5F20756E 
 12212      7369676E 
 12213              	.LASF1267:
 12214 47e5 61646472 		.ascii	"addr\000"
 12214      00
ARM GAS  /tmp/ccXw4jW7.s 			page 281


 12215              	.LASF283:
 12216 47ea 5F5F5544 		.ascii	"__UDQ_FBIT__ 64\000"
 12216      515F4642 
 12216      49545F5F 
 12216      20363400 
 12217              	.LASF639:
 12218 47fa 5F49505F 		.ascii	"_IP_IDX(IRQn) ( ((uint32_t)(IRQn) >> 2) )\000"
 12218      49445828 
 12218      4952516E 
 12218      29202820 
 12218      28287569 
 12219              	.LASF454:
 12220 4824 5F5F696E 		.ascii	"__int_fast16_t_defined 1\000"
 12220      745F6661 
 12220      73743136 
 12220      5F745F64 
 12220      6566696E 
 12221              	.LASF782:
 12222 483d 55415254 		.ascii	"UART_IER_RLSINT (1 << 2)\000"
 12222      5F494552 
 12222      5F524C53 
 12222      494E5420 
 12222      2831203C 
 12223              	.LASF157:
 12224 4856 5F5F4C44 		.ascii	"__LDBL_MAX_10_EXP__ 308\000"
 12224      424C5F4D 
 12224      41585F31 
 12224      305F4558 
 12224      505F5F20 
 12225              	.LASF959:
 12226 486e 4932435F 		.ascii	"I2C_I2CONCLR_AAC ((1 << 2))\000"
 12226      4932434F 
 12226      4E434C52 
 12226      5F414143 
 12226      20282831 
 12227              	.LASF636:
 12228 488a 4E564943 		.ascii	"NVIC ((NVIC_Type *) NVIC_BASE )\000"
 12228      2028284E 
 12228      5649435F 
 12228      54797065 
 12228      202A2920 
 12229              	.LASF1057:
 12230 48aa 53444F5F 		.ascii	"SDO_ABORT_DEVSTAT 0x08000022UL\000"
 12230      41424F52 
 12230      545F4445 
 12230      56535441 
 12230      54203078 
 12231              	.LASF479:
 12232 48c9 494E5436 		.ascii	"INT64_MAX (__INT64_MAX__)\000"
 12232      345F4D41 
 12232      5820285F 
 12232      5F494E54 
 12232      36345F4D 
 12233              	.LASF711:
 12234 48e3 53595343 		.ascii	"SYSCTL_POWERDOWN_WDTOSC_PD (1 << 6)\000"
 12234      544C5F50 
 12234      4F574552 
ARM GAS  /tmp/ccXw4jW7.s 			page 282


 12234      444F574E 
 12234      5F574454 
 12235              	.LASF164:
 12236 4907 5F5F4C44 		.ascii	"__LDBL_HAS_INFINITY__ 1\000"
 12236      424C5F48 
 12236      41535F49 
 12236      4E46494E 
 12236      4954595F 
 12237              	.LASF580:
 12238 491f 5343425F 		.ascii	"SCB_ICSR_PENDSTCLR_Pos 25\000"
 12238      49435352 
 12238      5F50454E 
 12238      44535443 
 12238      4C525F50 
 12239              	.LASF1085:
 12240 4939 756E7369 		.ascii	"unsigned int\000"
 12240      676E6564 
 12240      20696E74 
 12240      00
 12241              	.LASF200:
 12242 4946 5F5F4652 		.ascii	"__FRACT_MAX__ 0X7FFFP-15R\000"
 12242      4143545F 
 12242      4D41585F 
 12242      5F203058 
 12242      37464646 
 12243              	.LASF1106:
 12244 4960 53595350 		.ascii	"SYSPLLCLKUEN\000"
 12244      4C4C434C 
 12244      4B55454E 
 12244      00
 12245              	.LASF126:
 12246 496d 5F5F464C 		.ascii	"__FLT_MIN_EXP__ (-125)\000"
 12246      545F4D49 
 12246      4E5F4558 
 12246      505F5F20 
 12246      282D3132 
 12247              	.LASF122:
 12248 4984 5F5F4445 		.ascii	"__DEC_EVAL_METHOD__ 2\000"
 12248      435F4556 
 12248      414C5F4D 
 12248      4554484F 
 12248      445F5F20 
 12249              	.LASF513:
 12250 499a 55494E54 		.ascii	"UINT32_C(x) __UINT32_C(x)\000"
 12250      33325F43 
 12250      28782920 
 12250      5F5F5549 
 12250      4E543332 
 12251              	.LASF565:
 12252 49b4 5343425F 		.ascii	"SCB_CPUID_VARIANT_Msk (0xFUL << SCB_CPUID_VARIANT_P"
 12252      43505549 
 12252      445F5641 
 12252      5249414E 
 12252      545F4D73 
 12253 49e7 6F732900 		.ascii	"os)\000"
 12254              	.LASF744:
 12255 49eb 4D445F44 		.ascii	"MD_DIGMODE (0x1 << 7)\000"
ARM GAS  /tmp/ccXw4jW7.s 			page 283


 12255      49474D4F 
 12255      44452028 
 12255      30783120 
 12255      3C3C2037 
 12256              	.LASF233:
 12257 4a01 5F5F5553 		.ascii	"__USACCUM_IBIT__ 8\000"
 12257      41434355 
 12257      4D5F4942 
 12257      49545F5F 
 12257      203800
 12258              	.LASF518:
 12259 4a14 5F474343 		.ascii	"_GCC_WRAP_STDINT_H \000"
 12259      5F575241 
 12259      505F5354 
 12259      44494E54 
 12259      5F482000 
 12260              	.LASF709:
 12261 4a28 53595343 		.ascii	"SYSCTL_POWERDOWN_ADC_PD (1 << 4)\000"
 12261      544C5F50 
 12261      4F574552 
 12261      444F574E 
 12261      5F414443 
 12262              	.LASF484:
 12263 4a49 494E545F 		.ascii	"INT_FAST8_MIN (-__INT_FAST8_MAX__ - 1)\000"
 12263      46415354 
 12263      385F4D49 
 12263      4E20282D 
 12263      5F5F494E 
 12264              	.LASF747:
 12265 4a70 4D445F53 		.ascii	"MD_SFI2C (0x0 << 8)\000"
 12265      46493243 
 12265      20283078 
 12265      30203C3C 
 12265      20382900 
 12266              	.LASF125:
 12267 4a84 5F5F464C 		.ascii	"__FLT_DIG__ 6\000"
 12267      545F4449 
 12267      475F5F20 
 12267      3600
 12268              	.LASF35:
 12269 4a92 5F5F5549 		.ascii	"__UINTMAX_TYPE__ long long unsigned int\000"
 12269      4E544D41 
 12269      585F5459 
 12269      50455F5F 
 12269      206C6F6E 
 12270              	.LASF864:
 12271 4aba 55415254 		.ascii	"UART_RS485CTRL_DCTRL_EN (1 << 4)\000"
 12271      5F525334 
 12271      38354354 
 12271      524C5F44 
 12271      4354524C 
 12272              	.LASF488:
 12273 4adb 494E545F 		.ascii	"INT_FAST16_MAX (__INT_FAST16_MAX__)\000"
 12273      46415354 
 12273      31365F4D 
 12273      41582028 
 12273      5F5F494E 
ARM GAS  /tmp/ccXw4jW7.s 			page 284


 12274              	.LASF121:
 12275 4aff 5F5F464C 		.ascii	"__FLT_EVAL_METHOD__ 0\000"
 12275      545F4556 
 12275      414C5F4D 
 12275      4554484F 
 12275      445F5F20 
 12276              	.LASF834:
 12277 4b15 55415254 		.ascii	"UART_LSR_RDR (1 << 0)\000"
 12277      5F4C5352 
 12277      5F524452 
 12277      20283120 
 12277      3C3C2030 
 12278              	.LASF5:
 12279 4b2b 5F5F5645 		.ascii	"__VERSION__ \"6.2.1 20161205 (release) [ARM/embedde"
 12279      5253494F 
 12279      4E5F5F20 
 12279      22362E32 
 12279      2E312032 
 12280 4b5d 642D362D 		.ascii	"d-6-branch revision 243739]\"\000"
 12280      6272616E 
 12280      63682072 
 12280      65766973 
 12280      696F6E20 
 12281              	.LASF857:
 12282 4b7a 55415254 		.ascii	"UART_ACR_ABEOINT_CLR (1 << 8)\000"
 12282      5F414352 
 12282      5F414245 
 12282      4F494E54 
 12282      5F434C52 
 12283              	.LASF421:
 12284 4b98 5F5F494E 		.ascii	"__INT16 \"h\"\000"
 12284      54313620 
 12284      22682200 
 12285              	.LASF340:
 12286 4ba4 5F5F7468 		.ascii	"__thumb2__\000"
 12286      756D6232 
 12286      5F5F00
 12287              	.LASF1236:
 12288 4baf 43686970 		.ascii	"Chip_I2C_SlaveSetup\000"
 12288      5F493243 
 12288      5F536C61 
 12288      76655365 
 12288      74757000 
 12289              	.LASF330:
 12290 4bc3 5F5F4152 		.ascii	"__ARM_FEATURE_LDREX\000"
 12290      4D5F4645 
 12290      41545552 
 12290      455F4C44 
 12290      52455800 
 12291              	.LASF930:
 12292 4bd7 4144435F 		.ascii	"ADC_CR_BITACC(n) ((((n) & 0x7) << 17))\000"
 12292      43525F42 
 12292      49544143 
 12292      43286E29 
 12292      20282828 
 12293              	.LASF277:
 12294 4bfe 5F5F5551 		.ascii	"__UQQ_FBIT__ 8\000"
ARM GAS  /tmp/ccXw4jW7.s 			page 285


 12294      515F4642 
 12294      49545F5F 
 12294      203800
 12295              	.LASF818:
 12296 4c0d 55415254 		.ascii	"UART_LCR_SBS_2BIT (1 << 2)\000"
 12296      5F4C4352 
 12296      5F534253 
 12296      5F324249 
 12296      54202831 
 12297              	.LASF866:
 12298 4c28 55415254 		.ascii	"UART_RS485CTRL_BITMASK (0x3F)\000"
 12298      5F525334 
 12298      38354354 
 12298      524C5F42 
 12298      49544D41 
 12299              	.LASF623:
 12300 4c46 53797354 		.ascii	"SysTick_VAL_CURRENT_Msk (0xFFFFFFUL << SysTick_VAL_"
 12300      69636B5F 
 12300      56414C5F 
 12300      43555252 
 12300      454E545F 
 12301 4c79 43555252 		.ascii	"CURRENT_Pos)\000"
 12301      454E545F 
 12301      506F7329 
 12301      00
 12302              	.LASF174:
 12303 4c86 5F5F4445 		.ascii	"__DEC64_MIN_EXP__ (-382)\000"
 12303      4336345F 
 12303      4D494E5F 
 12303      4558505F 
 12303      5F20282D 
 12304              	.LASF1112:
 12305 4c9f 53595341 		.ascii	"SYSAHBCLKDIV\000"
 12305      4842434C 
 12305      4B444956 
 12305      00
 12306              	.LASF973:
 12307 4cac 4932435F 		.ascii	"I2C_I2STAT_M_TX_START ((0x08))\000"
 12307      49325354 
 12307      41545F4D 
 12307      5F54585F 
 12307      53544152 
 12308              	.LASF781:
 12309 4ccb 55415254 		.ascii	"UART_IER_THREINT (1 << 1)\000"
 12309      5F494552 
 12309      5F544852 
 12309      45494E54 
 12309      20283120 
 12310              	.LASF413:
 12311 4ce5 63686172 		.ascii	"char +0\000"
 12311      202B3000 
 12312              	.LASF210:
 12313 4ced 5F5F4C46 		.ascii	"__LFRACT_MAX__ 0X7FFFFFFFP-31LR\000"
 12313      52414354 
 12313      5F4D4158 
 12313      5F5F2030 
 12313      58374646 
ARM GAS  /tmp/ccXw4jW7.s 			page 286


 12314              	.LASF1212:
 12315 4d0d 4932435F 		.ascii	"I2C_NUM_INTERFACE\000"
 12315      4E554D5F 
 12315      494E5445 
 12315      52464143 
 12315      4500
 12316              	.LASF538:
 12317 4d1f 4D494E28 		.ascii	"MIN(a,b) (((a) < (b)) ? (a) : (b))\000"
 12317      612C6229 
 12317      20282828 
 12317      6129203C 
 12317      20286229 
 12318              	.LASF0:
 12319 4d42 5F5F5354 		.ascii	"__STDC__ 1\000"
 12319      44435F5F 
 12319      203100
 12320              	.LASF1150:
 12321 4d4d 5044534C 		.ascii	"PDSLEEPCFG\000"
 12321      45455043 
 12321      464700
 12322              	.LASF398:
 12323 4d58 5F5F5F69 		.ascii	"___int_least8_t_defined 1\000"
 12323      6E745F6C 
 12323      65617374 
 12323      385F745F 
 12323      64656669 
 12324              	.LASF1216:
 12325 4d72 4932435F 		.ascii	"I2C_EVENT_LOCK\000"
 12325      4556454E 
 12325      545F4C4F 
 12325      434B00
 12326              	.LASF497:
 12327 4d81 494E544D 		.ascii	"INTMAX_MIN (-INTMAX_MAX - 1)\000"
 12327      41585F4D 
 12327      494E2028 
 12327      2D494E54 
 12327      4D41585F 
 12328              	.LASF43:
 12329 4d9e 5F5F5549 		.ascii	"__UINT8_TYPE__ unsigned char\000"
 12329      4E54385F 
 12329      54595045 
 12329      5F5F2075 
 12329      6E736967 
 12330              	.LASF964:
 12331 4dbb 4932435F 		.ascii	"I2C_CON_AA (1UL << 2)\000"
 12331      434F4E5F 
 12331      41412028 
 12331      31554C20 
 12331      3C3C2032 
 12332              	.LASF898:
 12333 4dd1 5353505F 		.ascii	"SSP_CR0_DSS(n) ((uint32_t) ((n) & 0xF))\000"
 12333      4352305F 
 12333      44535328 
 12333      6E292028 
 12333      2875696E 
 12334              	.LASF453:
 12335 4df9 5F5F696E 		.ascii	"__int_fast8_t_defined 1\000"
ARM GAS  /tmp/ccXw4jW7.s 			page 287


 12335      745F6661 
 12335      7374385F 
 12335      745F6465 
 12335      66696E65 
 12336              	.LASF1259:
 12337 4e11 43686970 		.ascii	"Chip_I2C_IsStateChanged\000"
 12337      5F493243 
 12337      5F497353 
 12337      74617465 
 12337      4368616E 
 12338              	.LASF99:
 12339 4e29 5F5F494E 		.ascii	"__INT_LEAST64_MAX__ 0x7fffffffffffffffLL\000"
 12339      545F4C45 
 12339      41535436 
 12339      345F4D41 
 12339      585F5F20 
 12340              	.LASF989:
 12341 4e52 4932435F 		.ascii	"I2C_I2STAT_S_RX_GENCALL_ACK ((0x70))\000"
 12341      49325354 
 12341      41545F53 
 12341      5F52585F 
 12341      47454E43 
 12342              	.LASF754:
 12343 4e77 46554E43 		.ascii	"FUNC3 0x3\000"
 12343      33203078 
 12343      3300
 12344              	.LASF712:
 12345 4e81 53595343 		.ascii	"SYSCTL_POWERDOWN_SYSPLL_PD (1 << 7)\000"
 12345      544C5F50 
 12345      4F574552 
 12345      444F574E 
 12345      5F535953 
 12346              	.LASF1143:
 12347 4ea5 53544152 		.ascii	"STARTAPRP0\000"
 12347      54415052 
 12347      503000
 12348              	.LASF180:
 12349 4eb0 5F5F4445 		.ascii	"__DEC128_MANT_DIG__ 34\000"
 12349      43313238 
 12349      5F4D414E 
 12349      545F4449 
 12349      475F5F20 
 12350              	.LASF458:
 12351 4ec7 494E5450 		.ascii	"INTPTR_MAX (__INTPTR_MAX__)\000"
 12351      54525F4D 
 12351      41582028 
 12351      5F5F494E 
 12351      54505452 
 12352              	.LASF521:
 12353 4ee3 74727565 		.ascii	"true 1\000"
 12353      203100
 12354              	.LASF720:
 12355 4eea 494F434F 		.ascii	"IOCON_FUNC4 0x4\000"
 12355      4E5F4655 
 12355      4E433420 
 12355      30783400 
 12356              	.LASF297:
ARM GAS  /tmp/ccXw4jW7.s 			page 288


 12357 4efa 5F5F5553 		.ascii	"__USA_FBIT__ 16\000"
 12357      415F4642 
 12357      49545F5F 
 12357      20313600 
 12358              	.LASF2:
 12359 4f0a 5F5F474E 		.ascii	"__GNUC__ 6\000"
 12359      55435F5F 
 12359      203600
 12360              	.LASF631:
 12361 4f15 53797354 		.ascii	"SysTick_BASE (SCS_BASE + 0x0010UL)\000"
 12361      69636B5F 
 12361      42415345 
 12361      20285343 
 12361      535F4241 
 12362              	.LASF820:
 12363 4f38 55415254 		.ascii	"UART_LCR_PARITY_DIS (0 << 3)\000"
 12363      5F4C4352 
 12363      5F504152 
 12363      4954595F 
 12363      44495320 
 12364              	.LASF155:
 12365 4f55 5F5F4C44 		.ascii	"__LDBL_MIN_10_EXP__ (-307)\000"
 12365      424C5F4D 
 12365      494E5F31 
 12365      305F4558 
 12365      505F5F20 
 12366              	.LASF1232:
 12367 4f70 6932635F 		.ascii	"i2c_slave\000"
 12367      736C6176 
 12367      6500
 12368              	.LASF865:
 12369 4f7a 55415254 		.ascii	"UART_RS485CTRL_OINV_1 (1 << 5)\000"
 12369      5F525334 
 12369      38354354 
 12369      524C5F4F 
 12369      494E565F 
 12370              	.LASF308:
 12371 4f99 5F5F4743 		.ascii	"__GCC_ATOMIC_CHAR_LOCK_FREE 1\000"
 12371      435F4154 
 12371      4F4D4943 
 12371      5F434841 
 12371      525F4C4F 
 12372              	.LASF382:
 12373 4fb7 5F5F4154 		.ascii	"__ATFILE_VISIBLE 1\000"
 12373      46494C45 
 12373      5F564953 
 12373      49424C45 
 12373      203100
 12374              	.LASF1108:
 12375 4fca 55534250 		.ascii	"USBPLLCLKUEN\000"
 12375      4C4C434C 
 12375      4B55454E 
 12375      00
 12376              	.LASF682:
 12377 4fd7 5F5F504D 		.ascii	"__PMU_11XX_H_ \000"
 12377      555F3131 
 12377      58585F48 
ARM GAS  /tmp/ccXw4jW7.s 			page 289


 12377      5F2000
 12378              	.LASF211:
 12379 4fe6 5F5F4C46 		.ascii	"__LFRACT_EPSILON__ 0x1P-31LR\000"
 12379      52414354 
 12379      5F455053 
 12379      494C4F4E 
 12379      5F5F2030 
 12380              	.LASF670:
 12381 5003 4C50435F 		.ascii	"LPC_TIMER32_1 ((LPC_TIMER_T *) LPC_TIMER32_1_BASE)\000"
 12381      54494D45 
 12381      5233325F 
 12381      31202828 
 12381      4C50435F 
 12382              	.LASF608:
 12383 5036 5343425F 		.ascii	"SCB_CCR_UNALIGN_TRP_Pos 3\000"
 12383      4343525F 
 12383      554E414C 
 12383      49474E5F 
 12383      5452505F 
 12384              	.LASF333:
 12385 5050 5F5F4152 		.ascii	"__ARM_SIZEOF_MINIMAL_ENUM 1\000"
 12385      4D5F5349 
 12385      5A454F46 
 12385      5F4D494E 
 12385      494D414C 
 12386              	.LASF1228:
 12387 506c 6932635F 		.ascii	"i2c_interface\000"
 12387      696E7465 
 12387      72666163 
 12387      6500
 12388              	.LASF1220:
 12389 507a 4932435F 		.ascii	"I2C_EVENT_T\000"
 12389      4556454E 
 12389      545F5400 
 12390              	.LASF336:
 12391 5086 5F5F6172 		.ascii	"__arm__ 1\000"
 12391      6D5F5F20 
 12391      3100
 12392              	.LASF725:
 12393 5090 494F434F 		.ascii	"IOCON_MODE_PULLDOWN (0x1 << 3)\000"
 12393      4E5F4D4F 
 12393      44455F50 
 12393      554C4C44 
 12393      4F574E20 
 12394              	.LASF1061:
 12395 50af 4F445F45 		.ascii	"OD_EXP_RW 0x30\000"
 12395      58505F52 
 12395      57203078 
 12395      333000
 12396              	.LASF652:
 12397 50be 4C50435F 		.ascii	"LPC_SSP0_BASE 0x40040000\000"
 12397      53535030 
 12397      5F424153 
 12397      45203078 
 12397      34303034 
 12398              	.LASF1258:
 12399 50d7 63636C72 		.ascii	"cclr\000"
ARM GAS  /tmp/ccXw4jW7.s 			page 290


 12399      00
 12400              	.LASF997:
 12401 50dc 4932435F 		.ascii	"I2C_I2STAT_S_TX_ARB_LOST_M_SLA ((0xB0))\000"
 12401      49325354 
 12401      41545F53 
 12401      5F54585F 
 12401      4152425F 
 12402              	.LASF990:
 12403 5104 4932435F 		.ascii	"I2C_I2STAT_S_RX_ARB_LOST_M_GENCALL ((0x78))\000"
 12403      49325354 
 12403      41545F53 
 12403      5F52585F 
 12403      4152425F 
 12404              	.LASF542:
 12405 5130 5F5F434D 		.ascii	"__CMSIS_H_ \000"
 12405      5349535F 
 12405      485F2000 
 12406              	.LASF821:
 12407 513c 55415254 		.ascii	"UART_LCR_PARITY_ODD (0 << 4)\000"
 12407      5F4C4352 
 12407      5F504152 
 12407      4954595F 
 12407      4F444420 
 12408              	.LASF466:
 12409 5159 494E5431 		.ascii	"INT16_MIN (-__INT16_MAX__ - 1)\000"
 12409      365F4D49 
 12409      4E20282D 
 12409      5F5F494E 
 12409      5431365F 
 12410              	.LASF679:
 12411 5178 4C50435F 		.ascii	"LPC_USB ((LPC_USB_T *) LPC_USB0_BASE)\000"
 12411      55534220 
 12411      28284C50 
 12411      435F5553 
 12411      425F5420 
 12412              	.LASF659:
 12413 519e 4C50435F 		.ascii	"LPC_GPIO_PORT1_BASE 0x50010000\000"
 12413      4750494F 
 12413      5F504F52 
 12413      54315F42 
 12413      41534520 
 12414              	.LASF632:
 12415 51bd 4E564943 		.ascii	"NVIC_BASE (SCS_BASE + 0x0100UL)\000"
 12415      5F424153 
 12415      45202853 
 12415      43535F42 
 12415      41534520 
 12416              	.LASF970:
 12417 51dd 4932435F 		.ascii	"I2C_STAT_CODE_ERROR ((0xFF))\000"
 12417      53544154 
 12417      5F434F44 
 12417      455F4552 
 12417      524F5220 
 12418              	.LASF799:
 12419 51fa 55415254 		.ascii	"UART_IIR_INTID_THRE (1 << 1)\000"
 12419      5F494952 
 12419      5F494E54 
ARM GAS  /tmp/ccXw4jW7.s 			page 291


 12419      49445F54 
 12419      48524520 
 12420              	.LASF166:
 12421 5217 5F5F4445 		.ascii	"__DEC32_MANT_DIG__ 7\000"
 12421      4333325F 
 12421      4D414E54 
 12421      5F444947 
 12421      5F5F2037 
 12422              	.LASF493:
 12423 522c 494E545F 		.ascii	"INT_FAST64_MIN (-__INT_FAST64_MAX__ - 1)\000"
 12423      46415354 
 12423      36345F4D 
 12423      494E2028 
 12423      2D5F5F49 
 12424              	.LASF365:
 12425 5255 5F4D4143 		.ascii	"_MACHINE__DEFAULT_TYPES_H \000"
 12425      48494E45 
 12425      5F5F4445 
 12425      4641554C 
 12425      545F5459 
 12426              	.LASF23:
 12427 5270 5F5F4249 		.ascii	"__BIGGEST_ALIGNMENT__ 8\000"
 12427      47474553 
 12427      545F414C 
 12427      49474E4D 
 12427      454E545F 
 12428              	.LASF999:
 12429 5288 4932435F 		.ascii	"I2C_I2STAT_S_TX_DAT_NACK ((0xC0))\000"
 12429      49325354 
 12429      41545F53 
 12429      5F54585F 
 12429      4441545F 
 12430              	.LASF234:
 12431 52aa 5F5F5553 		.ascii	"__USACCUM_MIN__ 0.0UHK\000"
 12431      41434355 
 12431      4D5F4D49 
 12431      4E5F5F20 
 12431      302E3055 
 12432              	.LASF600:
 12433 52c1 5343425F 		.ascii	"SCB_SCR_SEVONPEND_Pos 4\000"
 12433      5343525F 
 12433      5345564F 
 12433      4E50454E 
 12433      445F506F 
 12434              	.LASF728:
 12435 52d9 494F434F 		.ascii	"IOCON_HYS_EN (0x1 << 5)\000"
 12435      4E5F4859 
 12435      535F454E 
 12435      20283078 
 12435      31203C3C 
 12436              	.LASF294:
 12437 52f1 5F5F5441 		.ascii	"__TA_IBIT__ 64\000"
 12437      5F494249 
 12437      545F5F20 
 12437      363400
 12438              	.LASF332:
 12439 5300 5F5F4152 		.ascii	"__ARM_FEATURE_SIMD32\000"
ARM GAS  /tmp/ccXw4jW7.s 			page 292


 12439      4D5F4645 
 12439      41545552 
 12439      455F5349 
 12439      4D443332 
 12440              	.LASF885:
 12441 5315 55415254 		.ascii	"UART_SYNCCTRL_FES (1 << 2)\000"
 12441      5F53594E 
 12441      43435452 
 12441      4C5F4645 
 12441      53202831 
 12442              	.LASF431:
 12443 5330 5F5F4C45 		.ascii	"__LEAST64 \"ll\"\000"
 12443      41535436 
 12443      3420226C 
 12443      6C2200
 12444              	.LASF1111:
 12445 533f 4D41494E 		.ascii	"MAINCLKUEN\000"
 12445      434C4B55 
 12445      454E00
 12446              	.LASF1026:
 12447 534a 4932435F 		.ascii	"I2C_MONITOR_CFG_SCL_OUTPUT I2C_I2MMCTRL_ENA_SCL\000"
 12447      4D4F4E49 
 12447      544F525F 
 12447      4346475F 
 12447      53434C5F 
 12448              	.LASF978:
 12449 537a 4932435F 		.ascii	"I2C_I2STAT_M_TX_DAT_NACK ((0x30))\000"
 12449      49325354 
 12449      41545F4D 
 12449      5F54585F 
 12449      4441545F 
 12450              	.LASF908:
 12451 539c 5353505F 		.ascii	"SSP_CR1_LBM_EN ((uint32_t) (1 << 0))\000"
 12451      4352315F 
 12451      4C424D5F 
 12451      454E2028 
 12451      2875696E 
 12452              	.LASF981:
 12453 53c1 4932435F 		.ascii	"I2C_I2STAT_M_RX_RESTART ((0x10))\000"
 12453      49325354 
 12453      41545F4D 
 12453      5F52585F 
 12453      52455354 
 12454              	.LASF582:
 12455 53e2 5343425F 		.ascii	"SCB_ICSR_ISRPREEMPT_Pos 23\000"
 12455      49435352 
 12455      5F495352 
 12455      50524545 
 12455      4D50545F 
 12456              	.LASF328:
 12457 53fd 5F5F4152 		.ascii	"__ARM_FEATURE_QRDMX\000"
 12457      4D5F4645 
 12457      41545552 
 12457      455F5152 
 12457      444D5800 
 12458              	.LASF1056:
 12459 5411 53444F5F 		.ascii	"SDO_ABORT_LOCAL 0x08000021UL\000"
ARM GAS  /tmp/ccXw4jW7.s 			page 293


 12459      41424F52 
 12459      545F4C4F 
 12459      43414C20 
 12459      30783038 
 12460              	.LASF772:
 12461 542e 5F5F5249 		.ascii	"__RING_BUFFER_H_ \000"
 12461      4E475F42 
 12461      55464645 
 12461      525F485F 
 12461      2000
 12462              	.LASF342:
 12463 5440 5F5F4152 		.ascii	"__ARM_ARCH_ISA_THUMB 1\000"
 12463      4D5F4152 
 12463      43485F49 
 12463      53415F54 
 12463      48554D42 
 12464              	.LASF548:
 12465 5457 5F5F434D 		.ascii	"__CM0_CMSIS_VERSION_MAIN (0x03)\000"
 12465      305F434D 
 12465      5349535F 
 12465      56455253 
 12465      494F4E5F 
 12466              	.LASF72:
 12467 5477 5F5F4C4F 		.ascii	"__LONG_LONG_MAX__ 0x7fffffffffffffffLL\000"
 12467      4E475F4C 
 12467      4F4E475F 
 12467      4D41585F 
 12467      5F203078 
 12468              	.LASF887:
 12469 549e 55415254 		.ascii	"UART_SYNCCTRL_CSCEN (1 << 4)\000"
 12469      5F53594E 
 12469      43435452 
 12469      4C5F4353 
 12469      43454E20 
 12470              	.LASF410:
 12471 54bb 6C6F6E67 		.ascii	"long\000"
 12471      00
 12472              	.LASF1099:
 12473 54c0 5359534F 		.ascii	"SYSOSCCTRL\000"
 12473      53434354 
 12473      524C00
 12474              	.LASF282:
 12475 54cb 5F5F5553 		.ascii	"__USQ_IBIT__ 0\000"
 12475      515F4942 
 12475      49545F5F 
 12475      203000
 12476              	.LASF813:
 12477 54da 55415254 		.ascii	"UART_LCR_WLEN6 (1 << 0)\000"
 12477      5F4C4352 
 12477      5F574C45 
 12477      4E362028 
 12477      31203C3C 
 12478              	.LASF965:
 12479 54f2 4932435F 		.ascii	"I2C_CON_SI (1UL << 3)\000"
 12479      434F4E5F 
 12479      53492028 
 12479      31554C20 
ARM GAS  /tmp/ccXw4jW7.s 			page 294


 12479      3C3C2033 
 12480              	.LASF203:
 12481 5508 5F5F5546 		.ascii	"__UFRACT_IBIT__ 0\000"
 12481      52414354 
 12481      5F494249 
 12481      545F5F20 
 12481      3000
 12482              	.LASF958:
 12483 551a 4932435F 		.ascii	"I2C_I2CONSET_I2EN ((0x40))\000"
 12483      4932434F 
 12483      4E534554 
 12483      5F493245 
 12483      4E202828 
 12484              	.LASF347:
 12485 5535 5F5F4152 		.ascii	"__ARM_FEATURE_FMA\000"
 12485      4D5F4645 
 12485      41545552 
 12485      455F464D 
 12485      4100
 12486              	.LASF630:
 12487 5547 5343535F 		.ascii	"SCS_BASE (0xE000E000UL)\000"
 12487      42415345 
 12487      20283078 
 12487      45303030 
 12487      45303030 
 12488              	.LASF94:
 12489 555f 5F5F494E 		.ascii	"__INT8_C(c) c\000"
 12489      54385F43 
 12489      28632920 
 12489      6300
 12490              	.LASF208:
 12491 556d 5F5F4C46 		.ascii	"__LFRACT_IBIT__ 0\000"
 12491      52414354 
 12491      5F494249 
 12491      545F5F20 
 12491      3000
 12492              	.LASF945:
 12493 557f 4144435F 		.ascii	"ADC_CR_EDGE ((1UL << 27))\000"
 12493      43525F45 
 12493      44474520 
 12493      28283155 
 12493      4C203C3C 
 12494              	.LASF546:
 12495 5599 5F5F5665 		.ascii	"__Vendor_SysTickConfig 0\000"
 12495      6E646F72 
 12495      5F537973 
 12495      5469636B 
 12495      436F6E66 
 12496              	.LASF776:
 12497 55b2 55415254 		.ascii	"UART_LOAD_DLL(div) ((div) & 0xFF)\000"
 12497      5F4C4F41 
 12497      445F444C 
 12497      4C286469 
 12497      76292028 
 12498              	.LASF571:
 12499 55d4 5343425F 		.ascii	"SCB_CPUID_REVISION_Msk (0xFUL << SCB_CPUID_REVISION"
 12499      43505549 
ARM GAS  /tmp/ccXw4jW7.s 			page 295


 12499      445F5245 
 12499      56495349 
 12499      4F4E5F4D 
 12500 5607 5F506F73 		.ascii	"_Pos)\000"
 12500      2900
 12501              	.LASF317:
 12502 560d 5F5F4743 		.ascii	"__GCC_ATOMIC_POINTER_LOCK_FREE 1\000"
 12502      435F4154 
 12502      4F4D4943 
 12502      5F504F49 
 12502      4E544552 
 12503              	.LASF140:
 12504 562e 5F5F4442 		.ascii	"__DBL_MIN_EXP__ (-1021)\000"
 12504      4C5F4D49 
 12504      4E5F4558 
 12504      505F5F20 
 12504      282D3130 
 12505              	.LASF532:
 12506 5646 4E554C4C 		.ascii	"NULL ((void *) 0)\000"
 12506      20282876 
 12506      6F696420 
 12506      2A292030 
 12506      2900
 12507              	.LASF1017:
 12508 5658 4932435F 		.ascii	"I2C_OK 0x00\000"
 12508      4F4B2030 
 12508      78303000 
 12509              	.LASF310:
 12510 5664 5F5F4743 		.ascii	"__GCC_ATOMIC_CHAR32_T_LOCK_FREE 1\000"
 12510      435F4154 
 12510      4F4D4943 
 12510      5F434841 
 12510      5233325F 
 12511              	.LASF173:
 12512 5686 5F5F4445 		.ascii	"__DEC64_MANT_DIG__ 16\000"
 12512      4336345F 
 12512      4D414E54 
 12512      5F444947 
 12512      5F5F2031 
 12513              	.LASF1241:
 12514 569c 43686970 		.ascii	"Chip_I2C_MasterCmdRead\000"
 12514      5F493243 
 12514      5F4D6173 
 12514      74657243 
 12514      6D645265 
 12515              	.LASF889:
 12516 56b3 55415254 		.ascii	"UART_SYNCCTRL_CCCLR (1 << 6)\000"
 12516      5F53594E 
 12516      43435452 
 12516      4C5F4343 
 12516      434C5220 
 12517              	.LASF1159:
 12518 56d0 53595343 		.ascii	"SYSCTL_CLOCK_FLASHREG\000"
 12518      544C5F43 
 12518      4C4F434B 
 12518      5F464C41 
 12518      53485245 
ARM GAS  /tmp/ccXw4jW7.s 			page 296


 12519              	.LASF259:
 12520 56e6 5F5F4C4C 		.ascii	"__LLACCUM_MIN__ (-0X1P31LLK-0X1P31LLK)\000"
 12520      41434355 
 12520      4D5F4D49 
 12520      4E5F5F20 
 12520      282D3058 
 12521              	.LASF850:
 12522 570d 55415254 		.ascii	"UART_MSR_DSR (1 << 5)\000"
 12522      5F4D5352 
 12522      5F445352 
 12522      20283120 
 12522      3C3C2035 
 12523              	.LASF752:
 12524 5723 46554E43 		.ascii	"FUNC1 0x1\000"
 12524      31203078 
 12524      3100
 12525              	.LASF517:
 12526 572d 55494E54 		.ascii	"UINTMAX_C(x) __UINTMAX_C(x)\000"
 12526      4D41585F 
 12526      43287829 
 12526      205F5F55 
 12526      494E544D 
 12527              	.LASF387:
 12528 5749 5F5F4D49 		.ascii	"__MISC_VISIBLE 1\000"
 12528      53435F56 
 12528      49534942 
 12528      4C452031 
 12528      00
 12529              	.LASF1090:
 12530 575a 4F736352 		.ascii	"OscRateIn\000"
 12530      61746549 
 12530      6E00
 12531              	.LASF402:
 12532 5764 5F5F4558 		.ascii	"__EXP\000"
 12532      5000
 12533              	.LASF730:
 12534 576a 494F434F 		.ascii	"IOCON_ADMODE_EN (0x0 << 7)\000"
 12534      4E5F4144 
 12534      4D4F4445 
 12534      5F454E20 
 12534      28307830 
 12535              	.LASF397:
 12536 5785 5F5F5F69 		.ascii	"___int64_t_defined 1\000"
 12536      6E743634 
 12536      5F745F64 
 12536      6566696E 
 12536      65642031 
 12537              	.LASF163:
 12538 579a 5F5F4C44 		.ascii	"__LDBL_HAS_DENORM__ 1\000"
 12538      424C5F48 
 12538      41535F44 
 12538      454E4F52 
 12538      4D5F5F20 
 12539              	.LASF622:
 12540 57b0 53797354 		.ascii	"SysTick_VAL_CURRENT_Pos 0\000"
 12540      69636B5F 
 12540      56414C5F 
ARM GAS  /tmp/ccXw4jW7.s 			page 297


 12540      43555252 
 12540      454E545F 
 12541              	.LASF778:
 12542 57ca 55415254 		.ascii	"UART_LOAD_DLM(div) (((div) >> 8) & 0xFF)\000"
 12542      5F4C4F41 
 12542      445F444C 
 12542      4D286469 
 12542      76292028 
 12543              	.LASF780:
 12544 57f3 55415254 		.ascii	"UART_IER_RBRINT (1 << 0)\000"
 12544      5F494552 
 12544      5F524252 
 12544      494E5420 
 12544      2831203C 
 12545              	.LASF108:
 12546 580c 5F5F5549 		.ascii	"__UINT64_C(c) c ## ULL\000"
 12546      4E543634 
 12546      5F432863 
 12546      29206320 
 12546      23232055 
 12547              	.LASF240:
 12548 5823 5F5F4143 		.ascii	"__ACCUM_MAX__ 0X7FFFFFFFP-15K\000"
 12548      43554D5F 
 12548      4D41585F 
 12548      5F203058 
 12548      37464646 
 12549              	.LASF629:
 12550 5841 53797354 		.ascii	"SysTick_CALIB_TENMS_Msk (0xFFFFFFUL << SysTick_VAL_"
 12550      69636B5F 
 12550      43414C49 
 12550      425F5445 
 12550      4E4D535F 
 12551 5874 43555252 		.ascii	"CURRENT_Pos)\000"
 12551      454E545F 
 12551      506F7329 
 12551      00
 12552              	.LASF326:
 12553 5881 5F5F4152 		.ascii	"__ARM_FEATURE_CRYPTO\000"
 12553      4D5F4645 
 12553      41545552 
 12553      455F4352 
 12553      5950544F 
 12554              	.LASF49:
 12555 5896 5F5F494E 		.ascii	"__INT_LEAST32_TYPE__ long int\000"
 12555      545F4C45 
 12555      41535433 
 12555      325F5459 
 12555      50455F5F 
 12556              	.LASF1211:
 12557 58b4 49324330 		.ascii	"I2C0\000"
 12557      00
 12558              	.LASF1169:
 12559 58b9 53595343 		.ascii	"SYSCTL_CLOCK_ADC\000"
 12559      544C5F43 
 12559      4C4F434B 
 12559      5F414443 
 12559      00
ARM GAS  /tmp/ccXw4jW7.s 			page 298


 12560              	.LASF746:
 12561 58ca 4D445F45 		.ascii	"MD_ENFIL (0x1 << 8)\000"
 12561      4E46494C 
 12561      20283078 
 12561      31203C3C 
 12561      20382900 
 12562              	.LASF611:
 12563 58de 5343425F 		.ascii	"SCB_SHCSR_SVCALLPENDED_Msk (1UL << SCB_SHCSR_SVCALL"
 12563      53484353 
 12563      525F5356 
 12563      43414C4C 
 12563      50454E44 
 12564 5911 50454E44 		.ascii	"PENDED_Pos)\000"
 12564      45445F50 
 12564      6F732900 
 12565              	.LASF1051:
 12566 591d 53444F5F 		.ascii	"SDO_ABORT_ACCINCOMP 0x06040047UL\000"
 12566      41424F52 
 12566      545F4143 
 12566      43494E43 
 12566      4F4D5020 
 12567              	.LASF107:
 12568 593e 5F5F5549 		.ascii	"__UINT_LEAST64_MAX__ 0xffffffffffffffffULL\000"
 12568      4E545F4C 
 12568      45415354 
 12568      36345F4D 
 12568      41585F5F 
 12569              	.LASF116:
 12570 5969 5F5F5549 		.ascii	"__UINT_FAST64_MAX__ 0xffffffffffffffffULL\000"
 12570      4E545F46 
 12570      41535436 
 12570      345F4D41 
 12570      585F5F20 
 12571              	.LASF8:
 12572 5993 5F5F4154 		.ascii	"__ATOMIC_ACQUIRE 2\000"
 12572      4F4D4943 
 12572      5F414351 
 12572      55495245 
 12572      203200
 12573              	.LASF950:
 12574 59a6 5245545F 		.ascii	"RET_SLAVE_RX 5\000"
 12574      534C4156 
 12574      455F5258 
 12574      203500
 12575              	.LASF1047:
 12576 59b5 53444F5F 		.ascii	"SDO_ABORT_WRITEONLY 0x06010001UL\000"
 12576      41424F52 
 12576      545F5752 
 12576      4954454F 
 12576      4E4C5920 
 12577              	.LASF371:
 12578 59d6 5F5F4E45 		.ascii	"__NEWLIB_PATCHLEVEL__ 0\000"
 12578      574C4942 
 12578      5F504154 
 12578      43484C45 
 12578      56454C5F 
 12579              	.LASF893:
ARM GAS  /tmp/ccXw4jW7.s 			page 299


 12580 59ee 57574454 		.ascii	"WWDT_WDMOD_WDRESET ((uint32_t) (1 << 1))\000"
 12580      5F57444D 
 12580      4F445F57 
 12580      44524553 
 12580      45542028 
 12581              	.LASF1074:
 12582 5a17 534C4156 		.ascii	"SLAVE_ACTIVE(iic) (((iic)->flags & 0xFF00) != 0)\000"
 12582      455F4143 
 12582      54495645 
 12582      28696963 
 12582      29202828 
 12583              	.LASF24:
 12584 5a48 5F5F4F52 		.ascii	"__ORDER_LITTLE_ENDIAN__ 1234\000"
 12584      4445525F 
 12584      4C495454 
 12584      4C455F45 
 12584      4E444941 
 12585              	.LASF1011:
 12586 5a65 4932435F 		.ascii	"I2C_I2MASK_MASK(n) ((n & 0xFE))\000"
 12586      49324D41 
 12586      534B5F4D 
 12586      41534B28 
 12586      6E292028 
 12587              	.LASF1084:
 12588 5a85 6C6F6E67 		.ascii	"long long unsigned int\000"
 12588      206C6F6E 
 12588      6720756E 
 12588      7369676E 
 12588      65642069 
 12589              	.LASF483:
 12590 5a9c 55494E54 		.ascii	"UINT_LEAST64_MAX (__UINT_LEAST64_MAX__)\000"
 12590      5F4C4541 
 12590      53543634 
 12590      5F4D4158 
 12590      20285F5F 
 12591              	.LASF253:
 12592 5ac4 5F5F554C 		.ascii	"__ULACCUM_IBIT__ 32\000"
 12592      41434355 
 12592      4D5F4942 
 12592      49545F5F 
 12592      20333200 
 12593              	.LASF69:
 12594 5ad8 5F5F5348 		.ascii	"__SHRT_MAX__ 0x7fff\000"
 12594      52545F4D 
 12594      41585F5F 
 12594      20307837 
 12594      66666600 
 12595              	.LASF486:
 12596 5aec 55494E54 		.ascii	"UINT_FAST8_MAX (__UINT_FAST8_MAX__)\000"
 12596      5F464153 
 12596      54385F4D 
 12596      41582028 
 12596      5F5F5549 
 12597              	.LASF1170:
 12598 5b10 53595343 		.ascii	"SYSCTL_CLOCK_RESERVED14\000"
 12598      544C5F43 
 12598      4C4F434B 
ARM GAS  /tmp/ccXw4jW7.s 			page 300


 12598      5F524553 
 12598      45525645 
 12599              	.LASF31:
 12600 5b28 5F5F5054 		.ascii	"__PTRDIFF_TYPE__ int\000"
 12600      52444946 
 12600      465F5459 
 12600      50455F5F 
 12600      20696E74 
 12601              	.LASF338:
 12602 5b3d 5F5F4150 		.ascii	"__APCS_32__ 1\000"
 12602      43535F33 
 12602      325F5F20 
 12602      3100
 12603              	.LASF1279:
 12604 5b4b 43686970 		.ascii	"Chip_Clock_EnablePeriphClock\000"
 12604      5F436C6F 
 12604      636B5F45 
 12604      6E61626C 
 12604      65506572 
 12605              	.LASF384:
 12606 5b68 5F5F474E 		.ascii	"__GNU_VISIBLE 0\000"
 12606      555F5649 
 12606      5349424C 
 12606      45203000 
 12607              	.LASF783:
 12608 5b78 55415254 		.ascii	"UART_IER_MSINT (1 << 3)\000"
 12608      5F494552 
 12608      5F4D5349 
 12608      4E542028 
 12608      31203C3C 
 12609              	.LASF228:
 12610 5b90 5F5F5341 		.ascii	"__SACCUM_IBIT__ 8\000"
 12610      4343554D 
 12610      5F494249 
 12610      545F5F20 
 12610      3800
 12611              	.LASF273:
 12612 5ba2 5F5F4451 		.ascii	"__DQ_FBIT__ 63\000"
 12612      5F464249 
 12612      545F5F20 
 12612      363300
 12613              	.LASF1168:
 12614 5bb1 53595343 		.ascii	"SYSCTL_CLOCK_UART0\000"
 12614      544C5F43 
 12614      4C4F434B 
 12614      5F554152 
 12614      543000
 12615              	.LASF1161:
 12616 5bc4 53595343 		.ascii	"SYSCTL_CLOCK_I2C\000"
 12616      544C5F43 
 12616      4C4F434B 
 12616      5F493243 
 12616      00
 12617              	.LASF61:
 12618 5bd5 5F5F5549 		.ascii	"__UINT_FAST32_TYPE__ unsigned int\000"
 12618      4E545F46 
 12618      41535433 
ARM GAS  /tmp/ccXw4jW7.s 			page 301


 12618      325F5459 
 12618      50455F5F 
 12619              	.LASF56:
 12620 5bf7 5F5F494E 		.ascii	"__INT_FAST16_TYPE__ int\000"
 12620      545F4641 
 12620      53543136 
 12620      5F545950 
 12620      455F5F20 
 12621              	.LASF701:
 12622 5c0f 53595343 		.ascii	"SYSCTL_SLPWAKE_ADC_PD (1 << 4)\000"
 12622      544C5F53 
 12622      4C505741 
 12622      4B455F41 
 12622      44435F50 
 12623              	.LASF446:
 12624 5c2e 5F55494E 		.ascii	"_UINTMAX_T_DECLARED \000"
 12624      544D4158 
 12624      5F545F44 
 12624      45434C41 
 12624      52454420 
 12625              	.LASF1067:
 12626 5c43 43414E5F 		.ascii	"CAN_SDOREQ_HANDLED_NOSEND 2\000"
 12626      53444F52 
 12626      45515F48 
 12626      414E444C 
 12626      45445F4E 
 12627              	.LASF229:
 12628 5c5f 5F5F5341 		.ascii	"__SACCUM_MIN__ (-0X1P7HK-0X1P7HK)\000"
 12628      4343554D 
 12628      5F4D494E 
 12628      5F5F2028 
 12628      2D305831 
 12629              	.LASF1205:
 12630 5c81 72784275 		.ascii	"rxBuff\000"
 12630      666600
 12631              	.LASF557:
 12632 5c88 5F5F434F 		.ascii	"__CORE_CMFUNC_H \000"
 12632      52455F43 
 12632      4D46554E 
 12632      435F4820 
 12632      00
 12633              	.LASF52:
 12634 5c99 5F5F5549 		.ascii	"__UINT_LEAST16_TYPE__ short unsigned int\000"
 12634      4E545F4C 
 12634      45415354 
 12634      31365F54 
 12634      5950455F 
 12635              	.LASF946:
 12636 5cc2 4144435F 		.ascii	"ADC_SAMPLE_RATE_CONFIG_MASK (ADC_CR_CLKDIV(0xFF) | "
 12636      53414D50 
 12636      4C455F52 
 12636      4154455F 
 12636      434F4E46 
 12637 5cf5 4144435F 		.ascii	"ADC_CR_BITACC(0x07))\000"
 12637      43525F42 
 12637      49544143 
 12637      43283078 
ARM GAS  /tmp/ccXw4jW7.s 			page 302


 12637      30372929 
 12638              	.LASF1133:
 12639 5d0a 52455345 		.ascii	"RESERVED10\000"
 12639      52564544 
 12639      313000
 12640              	.LASF1136:
 12641 5d15 52455345 		.ascii	"RESERVED11\000"
 12641      52564544 
 12641      313100
 12642              	.LASF1142:
 12643 5d20 52455345 		.ascii	"RESERVED12\000"
 12643      52564544 
 12643      313200
 12644              	.LASF1147:
 12645 5d2b 52455345 		.ascii	"RESERVED13\000"
 12645      52564544 
 12645      313300
 12646              	.LASF1149:
 12647 5d36 52455345 		.ascii	"RESERVED14\000"
 12647      52564544 
 12647      313400
 12648              	.LASF1153:
 12649 5d41 52455345 		.ascii	"RESERVED15\000"
 12649      52564544 
 12649      313500
 12650              	.LASF918:
 12651 5d4c 5353505F 		.ascii	"SSP_CPHA_FIRST SSP_CR0_CPHA_FIRST\000"
 12651      43504841 
 12651      5F464952 
 12651      53542053 
 12651      53505F43 
 12652              	.LASF285:
 12653 5d6e 5F5F5554 		.ascii	"__UTQ_FBIT__ 128\000"
 12653      515F4642 
 12653      49545F5F 
 12653      20313238 
 12653      00
 12654              	.LASF767:
 12655 5d7f 54494D45 		.ascii	"TIMER_STOP_ON_MATCH(n) (_BIT((((n) * 3) + 2)))\000"
 12655      525F5354 
 12655      4F505F4F 
 12655      4E5F4D41 
 12655      54434828 
 12656              	.LASF1021:
 12657 5dae 4932435F 		.ascii	"I2C_SEND_END 0x08\000"
 12657      53454E44 
 12657      5F454E44 
 12657      20307830 
 12657      3800
 12658              	.LASF1014:
 12659 5dc0 4932435F 		.ascii	"I2C_SETUP_STATUS_ARBF (1 << 8)\000"
 12659      53455455 
 12659      505F5354 
 12659      41545553 
 12659      5F415242 
 12660              	.LASF261:
 12661 5ddf 5F5F4C4C 		.ascii	"__LLACCUM_EPSILON__ 0x1P-31LLK\000"
ARM GAS  /tmp/ccXw4jW7.s 			page 303


 12661      41434355 
 12661      4D5F4550 
 12661      53494C4F 
 12661      4E5F5F20 
 12662              	.LASF13:
 12663 5dfe 5F5F4649 		.ascii	"__FINITE_MATH_ONLY__ 0\000"
 12663      4E495445 
 12663      5F4D4154 
 12663      485F4F4E 
 12663      4C595F5F 
 12664              	.LASF110:
 12665 5e15 5F5F494E 		.ascii	"__INT_FAST16_MAX__ 0x7fffffff\000"
 12665      545F4641 
 12665      53543136 
 12665      5F4D4158 
 12665      5F5F2030 
 12666              	.LASF392:
 12667 5e33 5F5F6861 		.ascii	"__have_longlong64 1\000"
 12667      76655F6C 
 12667      6F6E676C 
 12667      6F6E6736 
 12667      34203100 
 12668              	.LASF562:
 12669 5e47 5343425F 		.ascii	"SCB_CPUID_IMPLEMENTER_Pos 24\000"
 12669      43505549 
 12669      445F494D 
 12669      504C454D 
 12669      454E5445 
 12670              	.LASF1114:
 12671 5e64 53595341 		.ascii	"SYSAHBCLKCTRL\000"
 12671      4842434C 
 12671      4B435452 
 12671      4C00
 12672              	.LASF1223:
 12673 5e72 6D457665 		.ascii	"mEvent\000"
 12673      6E7400
 12674              	.LASF17:
 12675 5e79 5F5F5349 		.ascii	"__SIZEOF_SHORT__ 2\000"
 12675      5A454F46 
 12675      5F53484F 
 12675      52545F5F 
 12675      203200
 12676              	.LASF1101:
 12677 5e8c 49524343 		.ascii	"IRCCTRL\000"
 12677      54524C00 
 12678              	.LASF883:
 12679 5e94 55415254 		.ascii	"UART_SYNCCTRL_SYNC (1 << 0)\000"
 12679      5F53594E 
 12679      43435452 
 12679      4C5F5359 
 12679      4E432028 
 12680              	.LASF448:
 12681 5eb0 5F55494E 		.ascii	"_UINTPTR_T_DECLARED \000"
 12681      54505452 
 12681      5F545F44 
 12681      45434C41 
 12681      52454420 
ARM GAS  /tmp/ccXw4jW7.s 			page 304


 12682              	.LASF337:
 12683 5ec5 5F5F4152 		.ascii	"__ARM_ARCH 6\000"
 12683      4D5F4152 
 12683      43482036 
 12683      00
 12684              	.LASF886:
 12685 5ed2 55415254 		.ascii	"UART_SYNCCTRL_TSBYPASS (1 << 3)\000"
 12685      5F53594E 
 12685      43435452 
 12685      4C5F5453 
 12685      42595041 
 12686              	.LASF1018:
 12687 5ef2 4932435F 		.ascii	"I2C_BYTE_SENT 0x01\000"
 12687      42595445 
 12687      5F53454E 
 12687      54203078 
 12687      303100
 12688              	.LASF255:
 12689 5f05 5F5F554C 		.ascii	"__ULACCUM_MAX__ 0XFFFFFFFFFFFFFFFFP-32ULK\000"
 12689      41434355 
 12689      4D5F4D41 
 12689      585F5F20 
 12689      30584646 
 12690              	.LASF1210:
 12691 5f2f 4932435F 		.ascii	"I2C_ID\000"
 12691      494400
 12692              	.LASF1247:
 12693 5f36 43686970 		.ascii	"Chip_I2C_SetClockRate\000"
 12693      5F493243 
 12693      5F536574 
 12693      436C6F63 
 12693      6B526174 
 12694              	.LASF214:
 12695 5f4c 5F5F554C 		.ascii	"__ULFRACT_MIN__ 0.0ULR\000"
 12695      46524143 
 12695      545F4D49 
 12695      4E5F5F20 
 12695      302E3055 
 12696              	.LASF1151:
 12697 5f63 50445741 		.ascii	"PDWAKECFG\000"
 12697      4B454346 
 12697      4700
 12698              	.LASF1188:
 12699 5f6d 4C50435F 		.ascii	"LPC_I2C_T\000"
 12699      4932435F 
 12699      5400
 12700              	.LASF274:
 12701 5f77 5F5F4451 		.ascii	"__DQ_IBIT__ 0\000"
 12701      5F494249 
 12701      545F5F20 
 12701      3000
 12702              	.LASF1141:
 12703 5f85 55534243 		.ascii	"USBCLKST\000"
 12703      4C4B5354 
 12703      00
 12704              	.LASF1093:
 12705 5f8e 50524553 		.ascii	"PRESETCTRL\000"
ARM GAS  /tmp/ccXw4jW7.s 			page 305


 12705      45544354 
 12705      524C00
 12706              	.LASF704:
 12707 5f99 53595343 		.ascii	"SYSCTL_SLPWAKE_SYSPLL_PD (1 << 7)\000"
 12707      544C5F53 
 12707      4C505741 
 12707      4B455F53 
 12707      5953504C 
 12708              	.LASF731:
 12709 5fbb 494F434F 		.ascii	"IOCON_DIGMODE_EN (0x1 << 7)\000"
 12709      4E5F4449 
 12709      474D4F44 
 12709      455F454E 
 12709      20283078 
 12710              	.LASF564:
 12711 5fd7 5343425F 		.ascii	"SCB_CPUID_VARIANT_Pos 20\000"
 12711      43505549 
 12711      445F5641 
 12711      5249414E 
 12711      545F506F 
 12712              	.LASF696:
 12713 5ff0 53595343 		.ascii	"SYSCTL_DEEPSLP_WDTOSC_PD (1 << 6)\000"
 12713      544C5F44 
 12713      45455053 
 12713      4C505F57 
 12713      44544F53 
 12714              	.LASF796:
 12715 6012 55415254 		.ascii	"UART_IIR_INTID_RLS (3 << 1)\000"
 12715      5F494952 
 12715      5F494E54 
 12715      49445F52 
 12715      4C532028 
 12716              	.LASF1261:
 12717 602e 68616E64 		.ascii	"handleMasterXferState\000"
 12717      6C654D61 
 12717      73746572 
 12717      58666572 
 12717      53746174 
 12718              	.LASF442:
 12719 6044 5F494E54 		.ascii	"_INT64_T_DECLARED \000"
 12719      36345F54 
 12719      5F444543 
 12719      4C415245 
 12719      442000
 12720              	.LASF876:
 12721 6057 55415254 		.ascii	"UART_SCICTRL_TXRETRY(n) ((n & 0x07) << 5)\000"
 12721      5F534349 
 12721      4354524C 
 12721      5F545852 
 12721      45545259 
 12722              	.LASF638:
 12723 6081 5F534850 		.ascii	"_SHP_IDX(IRQn) ( ((((uint32_t)(IRQn) & 0x0F)-8) >> "
 12723      5F494458 
 12723      28495251 
 12723      6E292028 
 12723      20282828 
 12724 60b4 32292029 		.ascii	"2) )\000"
ARM GAS  /tmp/ccXw4jW7.s 			page 306


 12724      00
 12725              	.LASF665:
 12726 60b9 4C50435F 		.ascii	"LPC_WWDT ((LPC_WWDT_T *) LPC_WWDT_BASE)\000"
 12726      57574454 
 12726      2028284C 
 12726      50435F57 
 12726      5744545F 
 12727              	.LASF617:
 12728 60e1 53797354 		.ascii	"SysTick_CTRL_TICKINT_Msk (1UL << SysTick_CTRL_TICKI"
 12728      69636B5F 
 12728      4354524C 
 12728      5F544943 
 12728      4B494E54 
 12729 6114 4E545F50 		.ascii	"NT_Pos)\000"
 12729      6F732900 
 12730              	.LASF851:
 12731 611c 55415254 		.ascii	"UART_MSR_RI (1 << 6)\000"
 12731      5F4D5352 
 12731      5F524920 
 12731      2831203C 
 12731      3C203629 
 12732              	.LASF912:
 12733 6131 5353505F 		.ascii	"SSP_CR1_SO_DISABLE ((uint32_t) (1 << 3))\000"
 12733      4352315F 
 12733      534F5F44 
 12733      49534142 
 12733      4C452028 
 12734              	.LASF634:
 12735 615a 53434220 		.ascii	"SCB ((SCB_Type *) SCB_BASE )\000"
 12735      28285343 
 12735      425F5479 
 12735      7065202A 
 12735      29205343 
 12736              	.LASF286:
 12737 6177 5F5F5554 		.ascii	"__UTQ_IBIT__ 0\000"
 12737      515F4942 
 12737      49545F5F 
 12737      203000
 12738              	.LASF289:
 12739 6186 5F5F5341 		.ascii	"__SA_FBIT__ 15\000"
 12739      5F464249 
 12739      545F5F20 
 12739      313500
 12740              	.LASF221:
 12741 6195 5F5F4C4C 		.ascii	"__LLFRACT_EPSILON__ 0x1P-63LLR\000"
 12741      46524143 
 12741      545F4550 
 12741      53494C4F 
 12741      4E5F5F20 
 12742              	.LASF1272:
 12743 61b4 69734932 		.ascii	"isI2CBusFree\000"
 12743      43427573 
 12743      46726565 
 12743      00
 12744              	.LASF753:
 12745 61c1 46554E43 		.ascii	"FUNC2 0x2\000"
 12745      32203078 
ARM GAS  /tmp/ccXw4jW7.s 			page 307


 12745      3200
 12746              	.LASF1124:
 12747 61cb 57445443 		.ascii	"WDTCLKSEL\000"
 12747      4C4B5345 
 12747      4C00
 12748              	.LASF354:
 12749 61d5 5F5F4152 		.ascii	"__ARM_EABI__ 1\000"
 12749      4D5F4541 
 12749      42495F5F 
 12749      203100
 12750              	.LASF1048:
 12751 61e4 53444F5F 		.ascii	"SDO_ABORT_READONLY 0x06010002UL\000"
 12751      41424F52 
 12751      545F5245 
 12751      41444F4E 
 12751      4C592030 
 12752              	.LASF856:
 12753 6204 55415254 		.ascii	"UART_ACR_AUTO_RESTART (1 << 2)\000"
 12753      5F414352 
 12753      5F415554 
 12753      4F5F5245 
 12753      53544152 
 12754              	.LASF359:
 12755 6223 5F5F454C 		.ascii	"__ELF__ 1\000"
 12755      465F5F20 
 12755      3100
 12756              	.LASF472:
 12757 622d 494E5433 		.ascii	"INT32_MIN (-__INT32_MAX__ - 1)\000"
 12757      325F4D49 
 12757      4E20282D 
 12757      5F5F494E 
 12757      5433325F 
 12758              	.LASF341:
 12759 624c 5F5F5448 		.ascii	"__THUMBEL__ 1\000"
 12759      554D4245 
 12759      4C5F5F20 
 12759      3100
 12760              	.LASF719:
 12761 625a 494F434F 		.ascii	"IOCON_FUNC3 0x3\000"
 12761      4E5F4655 
 12761      4E433320 
 12761      30783300 
 12762              	.LASF268:
 12763 626a 5F5F5151 		.ascii	"__QQ_IBIT__ 0\000"
 12763      5F494249 
 12763      545F5F20 
 12763      3000
 12764              	.LASF944:
 12765 6278 4144435F 		.ascii	"ADC_CR_START_MCOA2 ((6UL << 24))\000"
 12765      43525F53 
 12765      54415254 
 12765      5F4D434F 
 12765      41322028 
 12766              	.LASF937:
 12767 6299 4144435F 		.ascii	"ADC_CR_START_MASK ((7UL << 24))\000"
 12767      43525F53 
 12767      54415254 
ARM GAS  /tmp/ccXw4jW7.s 			page 308


 12767      5F4D4153 
 12767      4B202828 
 12768              	.LASF643:
 12769 62b9 4C50435F 		.ascii	"LPC_TIMER16_0_BASE 0x4000C000\000"
 12769      54494D45 
 12769      5231365F 
 12769      305F4241 
 12769      53452030 
 12770              	.LASF432:
 12771 62d7 5F535953 		.ascii	"_SYS__STDINT_H \000"
 12771      5F5F5354 
 12771      44494E54 
 12771      5F482000 
 12772              	.LASF257:
 12773 62e7 5F5F4C4C 		.ascii	"__LLACCUM_FBIT__ 31\000"
 12773      41434355 
 12773      4D5F4642 
 12773      49545F5F 
 12773      20333100 
 12774              	.LASF129:
 12775 62fb 5F5F464C 		.ascii	"__FLT_MAX_10_EXP__ 38\000"
 12775      545F4D41 
 12775      585F3130 
 12775      5F455850 
 12775      5F5F2033 
 12776              	.LASF465:
 12777 6311 55494E54 		.ascii	"UINT_LEAST8_MAX (__UINT_LEAST8_MAX__)\000"
 12777      5F4C4541 
 12777      5354385F 
 12777      4D415820 
 12777      285F5F55 
 12778              	.LASF3:
 12779 6337 5F5F474E 		.ascii	"__GNUC_MINOR__ 2\000"
 12779      55435F4D 
 12779      494E4F52 
 12779      5F5F2032 
 12779      00
 12780              	.LASF1069:
 12781 6348 43414E5F 		.ascii	"CAN_SDOSEG_OPEN 1\000"
 12781      53444F53 
 12781      45475F4F 
 12781      50454E20 
 12781      3100
 12782              	.LASF53:
 12783 635a 5F5F5549 		.ascii	"__UINT_LEAST32_TYPE__ long unsigned int\000"
 12783      4E545F4C 
 12783      45415354 
 12783      33325F54 
 12783      5950455F 
 12784              	.LASF280:
 12785 6382 5F5F5548 		.ascii	"__UHQ_IBIT__ 0\000"
 12785      515F4942 
 12785      49545F5F 
 12785      203000
 12786              	.LASF34:
 12787 6391 5F5F494E 		.ascii	"__INTMAX_TYPE__ long long int\000"
 12787      544D4158 
ARM GAS  /tmp/ccXw4jW7.s 			page 309


 12787      5F545950 
 12787      455F5F20 
 12787      6C6F6E67 
 12788              	.LASF313:
 12789 63af 5F5F4743 		.ascii	"__GCC_ATOMIC_INT_LOCK_FREE 1\000"
 12789      435F4154 
 12789      4F4D4943 
 12789      5F494E54 
 12789      5F4C4F43 
 12790              	.LASF408:
 12791 63cc 73686F72 		.ascii	"short\000"
 12791      7400
 12792              	.LASF306:
 12793 63d2 5F5F4348 		.ascii	"__CHAR_UNSIGNED__ 1\000"
 12793      41525F55 
 12793      4E534947 
 12793      4E45445F 
 12793      5F203100 
 12794              	.LASF693:
 12795 63e6 53595343 		.ascii	"SYSCTL_RST_SYSRST (1 << 4)\000"
 12795      544C5F52 
 12795      53545F53 
 12795      59535253 
 12795      54202831 
 12796              	.LASF983:
 12797 6401 4932435F 		.ascii	"I2C_I2STAT_M_RX_SLAR_ACK ((0x40))\000"
 12797      49325354 
 12797      41545F4D 
 12797      5F52585F 
 12797      534C4152 
 12798              	.LASF726:
 12799 6423 494F434F 		.ascii	"IOCON_MODE_PULLUP (0x2 << 3)\000"
 12799      4E5F4D4F 
 12799      44455F50 
 12799      554C4C55 
 12799      50202830 
 12800              	.LASF1251:
 12801 6440 43686970 		.ascii	"Chip_I2C_Init\000"
 12801      5F493243 
 12801      5F496E69 
 12801      7400
 12802              	.LASF812:
 12803 644e 55415254 		.ascii	"UART_LCR_WLEN5 (0 << 0)\000"
 12803      5F4C4352 
 12803      5F574C45 
 12803      4E352028 
 12803      30203C3C 
 12804              	.LASF739:
 12805 6466 4D445F50 		.ascii	"MD_PUP (0x2 << 3)\000"
 12805      55502028 
 12805      30783220 
 12805      3C3C2033 
 12805      2900
 12806              	.LASF400:
 12807 6478 5F5F5F69 		.ascii	"___int_least32_t_defined 1\000"
 12807      6E745F6C 
 12807      65617374 
ARM GAS  /tmp/ccXw4jW7.s 			page 310


 12807      33325F74 
 12807      5F646566 
 12808              	.LASF236:
 12809 6493 5F5F5553 		.ascii	"__USACCUM_EPSILON__ 0x1P-8UHK\000"
 12809      41434355 
 12809      4D5F4550 
 12809      53494C4F 
 12809      4E5F5F20 
 12810              	.LASF151:
 12811 64b1 5F5F4442 		.ascii	"__DBL_HAS_QUIET_NAN__ 1\000"
 12811      4C5F4841 
 12811      535F5155 
 12811      4945545F 
 12811      4E414E5F 
 12812              	.LASF526:
 12813 64c9 5F424954 		.ascii	"_BIT\000"
 12813      00
 12814              	.LASF512:
 12815 64ce 494E5433 		.ascii	"INT32_C(x) __INT32_C(x)\000"
 12815      325F4328 
 12815      7829205F 
 12815      5F494E54 
 12815      33325F43 
 12816              	.LASF489:
 12817 64e6 55494E54 		.ascii	"UINT_FAST16_MAX (__UINT_FAST16_MAX__)\000"
 12817      5F464153 
 12817      5431365F 
 12817      4D415820 
 12817      285F5F55 
 12818              	.LASF1202:
 12819 650c 736C6176 		.ascii	"slaveAddr\000"
 12819      65416464 
 12819      7200
 12820              	.LASF220:
 12821 6516 5F5F4C4C 		.ascii	"__LLFRACT_MAX__ 0X7FFFFFFFFFFFFFFFP-63LLR\000"
 12821      46524143 
 12821      545F4D41 
 12821      585F5F20 
 12821      30583746 
 12822              	.LASF621:
 12823 6540 53797354 		.ascii	"SysTick_LOAD_RELOAD_Msk (0xFFFFFFUL << SysTick_LOAD"
 12823      69636B5F 
 12823      4C4F4144 
 12823      5F52454C 
 12823      4F41445F 
 12824 6573 5F52454C 		.ascii	"_RELOAD_Pos)\000"
 12824      4F41445F 
 12824      506F7329 
 12824      00
 12825              	.LASF477:
 12826 6580 55494E54 		.ascii	"UINT_LEAST32_MAX (__UINT_LEAST32_MAX__)\000"
 12826      5F4C4541 
 12826      53543332 
 12826      5F4D4158 
 12826      20285F5F 
 12827              	.LASF1221:
 12828 65a8 4932435F 		.ascii	"I2C_EVENTHANDLER_T\000"
ARM GAS  /tmp/ccXw4jW7.s 			page 311


 12828      4556454E 
 12828      5448414E 
 12828      444C4552 
 12828      5F5400
 12829              	.LASF714:
 12830 65bb 53595343 		.ascii	"SYSCTL_IRC_FREQ (12000000)\000"
 12830      544C5F49 
 12830      52435F46 
 12830      52455120 
 12830      28313230 
 12831              	.LASF550:
 12832 65d6 5F5F434D 		.ascii	"__CM0_CMSIS_VERSION ((__CM0_CMSIS_VERSION_MAIN << 1"
 12832      305F434D 
 12832      5349535F 
 12832      56455253 
 12832      494F4E20 
 12833 6609 3629207C 		.ascii	"6) | __CM0_CMSIS_VERSION_SUB )\000"
 12833      205F5F43 
 12833      4D305F43 
 12833      4D534953 
 12833      5F564552 
 12834              	.LASF575:
 12835 6628 5343425F 		.ascii	"SCB_ICSR_PENDSVSET_Msk (1UL << SCB_ICSR_PENDSVSET_P"
 12835      49435352 
 12835      5F50454E 
 12835      44535653 
 12835      45545F4D 
 12836 665b 6F732900 		.ascii	"os)\000"
 12837              	.LASF624:
 12838 665f 53797354 		.ascii	"SysTick_CALIB_NOREF_Pos 31\000"
 12838      69636B5F 
 12838      43414C49 
 12838      425F4E4F 
 12838      5245465F 
 12839              	.LASF230:
 12840 667a 5F5F5341 		.ascii	"__SACCUM_MAX__ 0X7FFFP-7HK\000"
 12840      4343554D 
 12840      5F4D4158 
 12840      5F5F2030 
 12840      58374646 
 12841              	.LASF63:
 12842 6695 5F5F494E 		.ascii	"__INTPTR_TYPE__ int\000"
 12842      54505452 
 12842      5F545950 
 12842      455F5F20 
 12842      696E7400 
 12843              	.LASF36:
 12844 66a9 5F5F4348 		.ascii	"__CHAR16_TYPE__ short unsigned int\000"
 12844      41523136 
 12844      5F545950 
 12844      455F5F20 
 12844      73686F72 
 12845              	.LASF64:
 12846 66cc 5F5F5549 		.ascii	"__UINTPTR_TYPE__ unsigned int\000"
 12846      4E545054 
 12846      525F5459 
 12846      50455F5F 
ARM GAS  /tmp/ccXw4jW7.s 			page 312


 12846      20756E73 
 12847              	.LASF879:
 12848 66ea 55415254 		.ascii	"UART_FDR_MULVAL(n) ((n << 4) & 0xF0)\000"
 12848      5F464452 
 12848      5F4D554C 
 12848      56414C28 
 12848      6E292028 
 12849              	.LASF619:
 12850 670f 53797354 		.ascii	"SysTick_CTRL_ENABLE_Msk (1UL << SysTick_CTRL_ENABLE"
 12850      69636B5F 
 12850      4354524C 
 12850      5F454E41 
 12850      424C455F 
 12851 6742 5F506F73 		.ascii	"_Pos)\000"
 12851      2900
 12852              	.LASF303:
 12853 6748 5F5F5245 		.ascii	"__REGISTER_PREFIX__ \000"
 12853      47495354 
 12853      45525F50 
 12853      52454649 
 12853      585F5F20 
 12854              	.LASF186:
 12855 675d 5F5F4445 		.ascii	"__DEC128_SUBNORMAL_MIN__ 0.000000000000000000000000"
 12855      43313238 
 12855      5F535542 
 12855      4E4F524D 
 12855      414C5F4D 
 12856 6790 30303030 		.ascii	"000000001E-6143DL\000"
 12856      30303030 
 12856      31452D36 
 12856      31343344 
 12856      4C00
 12857              	.LASF1102:
 12858 67a2 4C464F53 		.ascii	"LFOSCCTRL\000"
 12858      43435452 
 12858      4C00
 12859              	.LASF216:
 12860 67ac 5F5F554C 		.ascii	"__ULFRACT_EPSILON__ 0x1P-32ULR\000"
 12860      46524143 
 12860      545F4550 
 12860      53494C4F 
 12860      4E5F5F20 
 12861              	.LASF1066:
 12862 67cb 43414E5F 		.ascii	"CAN_SDOREQ_HANDLED_SEND 1\000"
 12862      53444F52 
 12862      45515F48 
 12862      414E444C 
 12862      45445F53 
 12863              	.LASF352:
 12864 67e5 5F5F4152 		.ascii	"__ARM_ARCH_6M__ 1\000"
 12864      4D5F4152 
 12864      43485F36 
 12864      4D5F5F20 
 12864      3100
 12865              	.LASF21:
 12866 67f7 5F5F5349 		.ascii	"__SIZEOF_SIZE_T__ 4\000"
 12866      5A454F46 
ARM GAS  /tmp/ccXw4jW7.s 			page 313


 12866      5F53495A 
 12866      455F545F 
 12866      5F203400 
 12867              	.LASF1200:
 12868 680b 4932435F 		.ascii	"I2C_STATUS_BUSY\000"
 12868      53544154 
 12868      55535F42 
 12868      55535900 
 12869              	.LASF891:
 12870 681b 57574454 		.ascii	"WWDT_WDMOD_BITMASK ((uint32_t) 0x1F)\000"
 12870      5F57444D 
 12870      4F445F42 
 12870      49544D41 
 12870      534B2028 
 12871              	.LASF46:
 12872 6840 5F5F5549 		.ascii	"__UINT64_TYPE__ long long unsigned int\000"
 12872      4E543634 
 12872      5F545950 
 12872      455F5F20 
 12872      6C6F6E67 
 12873              	.LASF183:
 12874 6867 5F5F4445 		.ascii	"__DEC128_MIN__ 1E-6143DL\000"
 12874      43313238 
 12874      5F4D494E 
 12874      5F5F2031 
 12874      452D3631 
 12875              	.LASF100:
 12876 6880 5F5F494E 		.ascii	"__INT64_C(c) c ## LL\000"
 12876      5436345F 
 12876      43286329 
 12876      20632023 
 12876      23204C4C 
 12877              	.LASF248:
 12878 6895 5F5F4C41 		.ascii	"__LACCUM_IBIT__ 32\000"
 12878      4343554D 
 12878      5F494249 
 12878      545F5F20 
 12878      333200
 12879              	.LASF1154:
 12880 68a8 44455649 		.ascii	"DEVICEID\000"
 12880      43454944 
 12880      00
 12881              	.LASF475:
 12882 68b1 494E545F 		.ascii	"INT_LEAST32_MIN (-__INT_LEAST32_MAX__ - 1)\000"
 12882      4C454153 
 12882      5433325F 
 12882      4D494E20 
 12882      282D5F5F 
 12883              	.LASF733:
 12884 68dc 494F434F 		.ascii	"IOCON_STDI2C_EN (0x1 << 8)\000"
 12884      4E5F5354 
 12884      44493243 
 12884      5F454E20 
 12884      28307831 
 12885              	.LASF329:
 12886 68f7 5F5F4152 		.ascii	"__ARM_32BIT_STATE\000"
 12886      4D5F3332 
ARM GAS  /tmp/ccXw4jW7.s 			page 314


 12886      4249545F 
 12886      53544154 
 12886      4500
 12887              	.LASF1009:
 12888 6909 4932435F 		.ascii	"I2C_I2ADR_GC ((1 << 0))\000"
 12888      49324144 
 12888      525F4743 
 12888      20282831 
 12888      203C3C20 
 12889              	.LASF1128:
 12890 6921 434C4B4F 		.ascii	"CLKOUTSEL\000"
 12890      55545345 
 12890      4C00
 12891              	.LASF160:
 12892 692b 5F5F4C44 		.ascii	"__LDBL_MIN__ 2.2250738585072014e-308L\000"
 12892      424C5F4D 
 12892      494E5F5F 
 12892      20322E32 
 12892      32353037 
 12893              	.LASF238:
 12894 6951 5F5F4143 		.ascii	"__ACCUM_IBIT__ 16\000"
 12894      43554D5F 
 12894      49424954 
 12894      5F5F2031 
 12894      3600
 12895              	.LASF1037:
 12896 6963 43414E5F 		.ascii	"CAN_ERROR_BIT0 0x00000080UL\000"
 12896      4552524F 
 12896      525F4249 
 12896      54302030 
 12896      78303030 
 12897              	.LASF370:
 12898 697f 5F5F4E45 		.ascii	"__NEWLIB_MINOR__ 4\000"
 12898      574C4942 
 12898      5F4D494E 
 12898      4F525F5F 
 12898      203400
 12899              	.LASF1187:
 12900 6992 4D41534B 		.ascii	"MASK\000"
 12900      00
 12901              	.LASF1077:
 12902 6997 73686F72 		.ascii	"short int\000"
 12902      7420696E 
 12902      7400
 12903              	.LASF734:
 12904 69a1 494F434F 		.ascii	"IOCON_FASTI2C_EN (0x2 << 8)\000"
 12904      4E5F4641 
 12904      53544932 
 12904      435F454E 
 12904      20283078 
 12905              	.LASF610:
 12906 69bd 5343425F 		.ascii	"SCB_SHCSR_SVCALLPENDED_Pos 15\000"
 12906      53484353 
 12906      525F5356 
 12906      43414C4C 
 12906      50454E44 
 12907              	.LASF724:
ARM GAS  /tmp/ccXw4jW7.s 			page 315


 12908 69db 494F434F 		.ascii	"IOCON_MODE_INACT (0x0 << 3)\000"
 12908      4E5F4D4F 
 12908      44455F49 
 12908      4E414354 
 12908      20283078 
 12909              	.LASF804:
 12910 69f7 55415254 		.ascii	"UART_FCR_DMAMODE_SEL (1 << 3)\000"
 12910      5F464352 
 12910      5F444D41 
 12910      4D4F4445 
 12910      5F53454C 
 12911              	.LASF202:
 12912 6a15 5F5F5546 		.ascii	"__UFRACT_FBIT__ 16\000"
 12912      52414354 
 12912      5F464249 
 12912      545F5F20 
 12912      313600
 12913              	.LASF104:
 12914 6a28 5F5F5549 		.ascii	"__UINT16_C(c) c\000"
 12914      4E543136 
 12914      5F432863 
 12914      29206300 
 12915              	.LASF537:
 12916 6a38 4D415828 		.ascii	"MAX(a,b) (((a) > (b)) ? (a) : (b))\000"
 12916      612C6229 
 12916      20282828 
 12916      6129203E 
 12916      20286229 
 12917              	.LASF322:
 12918 6a5b 5F5F5349 		.ascii	"__SIZEOF_PTRDIFF_T__ 4\000"
 12918      5A454F46 
 12918      5F505452 
 12918      44494646 
 12918      5F545F5F 
 12919              	.LASF114:
 12920 6a72 5F5F5549 		.ascii	"__UINT_FAST16_MAX__ 0xffffffffU\000"
 12920      4E545F46 
 12920      41535431 
 12920      365F4D41 
 12920      585F5F20 
 12921              	.LASF429:
 12922 6a92 5F5F4C45 		.ascii	"__LEAST16 \"h\"\000"
 12922      41535431 
 12922      36202268 
 12922      2200
 12923              	.LASF971:
 12924 6aa0 4932435F 		.ascii	"I2C_I2STAT_NO_INF ((0xF8))\000"
 12924      49325354 
 12924      41545F4E 
 12924      4F5F494E 
 12924      46202828 
 12925              	.LASF478:
 12926 6abb 494E5436 		.ascii	"INT64_MIN (-__INT64_MAX__ - 1)\000"
 12926      345F4D49 
 12926      4E20282D 
 12926      5F5F494E 
 12926      5436345F 
ARM GAS  /tmp/ccXw4jW7.s 			page 316


 12927              	.LASF6:
 12928 6ada 5F5F4154 		.ascii	"__ATOMIC_RELAXED 0\000"
 12928      4F4D4943 
 12928      5F52454C 
 12928      41584544 
 12928      203000
 12929              	.LASF802:
 12930 6aed 55415254 		.ascii	"UART_FCR_RX_RS (1 << 1)\000"
 12930      5F464352 
 12930      5F52585F 
 12930      52532028 
 12930      31203C3C 
 12931              	.LASF687:
 12932 6b05 5F5F464D 		.ascii	"__FMC_11XX_H_ \000"
 12932      435F3131 
 12932      58585F48 
 12932      5F2000
 12933              	.LASF784:
 12934 6b14 55415254 		.ascii	"UART_IER_CTSINT (1 << 7)\000"
 12934      5F494552 
 12934      5F435453 
 12934      494E5420 
 12934      2831203C 
 12935              	.LASF150:
 12936 6b2d 5F5F4442 		.ascii	"__DBL_HAS_INFINITY__ 1\000"
 12936      4C5F4841 
 12936      535F494E 
 12936      46494E49 
 12936      54595F5F 
 12937              	.LASF683:
 12938 6b44 504D555F 		.ascii	"PMU_PCON_PM_SLEEP (0x0)\000"
 12938      50434F4E 
 12938      5F504D5F 
 12938      534C4545 
 12938      50202830 
 12939              	.LASF83:
 12940 6b5c 5F5F5349 		.ascii	"__SIG_ATOMIC_MAX__ 0x7fffffff\000"
 12940      475F4154 
 12940      4F4D4943 
 12940      5F4D4158 
 12940      5F5F2030 
 12941              	.LASF480:
 12942 6b7a 55494E54 		.ascii	"UINT64_MAX (__UINT64_MAX__)\000"
 12942      36345F4D 
 12942      41582028 
 12942      5F5F5549 
 12942      4E543634 
 12943              	.LASF953:
 12944 6b96 4932435F 		.ascii	"I2C_STA_STO_RECV 0x20\000"
 12944      5354415F 
 12944      53544F5F 
 12944      52454356 
 12944      20307832 
 12945              	.LASF822:
 12946 6bac 55415254 		.ascii	"UART_LCR_PARITY_EVEN (1 << 4)\000"
 12946      5F4C4352 
 12946      5F504152 
ARM GAS  /tmp/ccXw4jW7.s 			page 317


 12946      4954595F 
 12946      4556454E 
 12947              	.LASF1144:
 12948 6bca 53544152 		.ascii	"STARTERP0\000"
 12948      54455250 
 12948      3000
 12949              	.LASF1148:
 12950 6bd4 53544152 		.ascii	"STARTERP1\000"
 12950      54455250 
 12950      3100
 12951              	.LASF561:
 12952 6bde 5F5F494F 		.ascii	"__IO volatile\000"
 12952      20766F6C 
 12952      6174696C 
 12952      6500
 12953              	.LASF738:
 12954 6bec 4D445F50 		.ascii	"MD_PDN (0x1 << 3)\000"
 12954      444E2028 
 12954      30783120 
 12954      3C3C2033 
 12954      2900
 12955              	.LASF786:
 12956 6bfe 55415254 		.ascii	"UART_IER_ABTOINT (1 << 9)\000"
 12956      5F494552 
 12956      5F414254 
 12956      4F494E54 
 12956      20283120 
 12957              	.LASF18:
 12958 6c18 5F5F5349 		.ascii	"__SIZEOF_FLOAT__ 4\000"
 12958      5A454F46 
 12958      5F464C4F 
 12958      41545F5F 
 12958      203400
 12959              	.LASF509:
 12960 6c2b 55494E54 		.ascii	"UINT8_C(x) __UINT8_C(x)\000"
 12960      385F4328 
 12960      7829205F 
 12960      5F55494E 
 12960      54385F43 
 12961              	.LASF176:
 12962 6c43 5F5F4445 		.ascii	"__DEC64_MIN__ 1E-383DD\000"
 12962      4336345F 
 12962      4D494E5F 
 12962      5F203145 
 12962      2D333833 
 12963              	.LASF635:
 12964 6c5a 53797354 		.ascii	"SysTick ((SysTick_Type *) SysTick_BASE )\000"
 12964      69636B20 
 12964      28285379 
 12964      73546963 
 12964      6B5F5479 
 12965              	.LASF215:
 12966 6c83 5F5F554C 		.ascii	"__ULFRACT_MAX__ 0XFFFFFFFFP-32ULR\000"
 12966      46524143 
 12966      545F4D41 
 12966      585F5F20 
 12966      30584646 
ARM GAS  /tmp/ccXw4jW7.s 			page 318


 12967              	.LASF144:
 12968 6ca5 5F5F4442 		.ascii	"__DBL_DECIMAL_DIG__ 17\000"
 12968      4C5F4445 
 12968      43494D41 
 12968      4C5F4449 
 12968      475F5F20 
 12969              	.LASF576:
 12970 6cbc 5343425F 		.ascii	"SCB_ICSR_PENDSVCLR_Pos 27\000"
 12970      49435352 
 12970      5F50454E 
 12970      44535643 
 12970      4C525F50 
 12971              	.LASF393:
 12972 6cd6 5F5F6861 		.ascii	"__have_long32 1\000"
 12972      76655F6C 
 12972      6F6E6733 
 12972      32203100 
 12973              	.LASF463:
 12974 6ce6 494E545F 		.ascii	"INT_LEAST8_MIN (-__INT_LEAST8_MAX__ - 1)\000"
 12974      4C454153 
 12974      54385F4D 
 12974      494E2028 
 12974      2D5F5F49 
 12975              	.LASF252:
 12976 6d0f 5F5F554C 		.ascii	"__ULACCUM_FBIT__ 32\000"
 12976      41434355 
 12976      4D5F4642 
 12976      49545F5F 
 12976      20333200 
 12977              	.LASF594:
 12978 6d23 5343425F 		.ascii	"SCB_AIRCR_ENDIANESS_Pos 15\000"
 12978      41495243 
 12978      525F454E 
 12978      4449414E 
 12978      4553535F 
 12979              	.LASF703:
 12980 6d3e 53595343 		.ascii	"SYSCTL_SLPWAKE_WDTOSC_PD (1 << 6)\000"
 12980      544C5F53 
 12980      4C505741 
 12980      4B455F57 
 12980      44544F53 
 12981              	.LASF515:
 12982 6d60 55494E54 		.ascii	"UINT64_C(x) __UINT64_C(x)\000"
 12982      36345F43 
 12982      28782920 
 12982      5F5F5549 
 12982      4E543634 
 12983              	.LASF444:
 12984 6d7a 5F5F696E 		.ascii	"__int64_t_defined 1\000"
 12984      7436345F 
 12984      745F6465 
 12984      66696E65 
 12984      64203100 
 12985              	.LASF86:
 12986 6d8e 5F5F494E 		.ascii	"__INT16_MAX__ 0x7fff\000"
 12986      5431365F 
 12986      4D41585F 
ARM GAS  /tmp/ccXw4jW7.s 			page 319


 12986      5F203078 
 12986      37666666 
 12987              	.LASF773:
 12988 6da3 52425F56 		.ascii	"RB_VHEAD(rb) ((volatile uint32_t)(rb->head))\000"
 12988      48454144 
 12988      28726229 
 12988      20282876 
 12988      6F6C6174 
 12989              	.LASF916:
 12990 6dd0 5353505F 		.ascii	"SSP_SR_BITMASK ((uint32_t) (0x1F))\000"
 12990      53525F42 
 12990      49544D41 
 12990      534B2028 
 12990      2875696E 
 12991              	.LASF559:
 12992 6df3 5F5F4920 		.ascii	"__I volatile const\000"
 12992      766F6C61 
 12992      74696C65 
 12992      20636F6E 
 12992      737400
 12993              	.LASF880:
 12994 6e06 55415254 		.ascii	"UART_FDR_BITMASK (0xFF)\000"
 12994      5F464452 
 12994      5F424954 
 12994      4D41534B 
 12994      20283078 
 12995              	.LASF657:
 12996 6e1e 4C50435F 		.ascii	"LPC_SSP1_BASE 0x40058000\000"
 12996      53535031 
 12996      5F424153 
 12996      45203078 
 12996      34303035 
 12997              	.LASF424:
 12998 6e37 5F5F4641 		.ascii	"__FAST8 \000"
 12998      53543820 
 12998      00
 12999              	.LASF1138:
 13000 6e40 4E4D4953 		.ascii	"NMISRC\000"
 13000      524300
 13001              	.LASF668:
 13002 6e47 4C50435F 		.ascii	"LPC_TIMER16_1 ((LPC_TIMER_T *) LPC_TIMER16_1_BASE)\000"
 13002      54494D45 
 13002      5231365F 
 13002      31202828 
 13002      4C50435F 
 13003              	.LASF267:
 13004 6e7a 5F5F5151 		.ascii	"__QQ_FBIT__ 7\000"
 13004      5F464249 
 13004      545F5F20 
 13004      3700
 13005              	.LASF1023:
 13006 6e88 4932435F 		.ascii	"I2C_ERR (0x10000000)\000"
 13006      45525220 
 13006      28307831 
 13006      30303030 
 13006      30303029 
 13007              	.LASF1003:
ARM GAS  /tmp/ccXw4jW7.s 			page 320


 13008 6e9d 4932435F 		.ascii	"I2C_I2DAT_IDLE_CHAR (0xFF)\000"
 13008      49324441 
 13008      545F4944 
 13008      4C455F43 
 13008      48415220 
 13009              	.LASF539:
 13010 6eb8 494E4C49 		.ascii	"INLINE inline\000"
 13010      4E452069 
 13010      6E6C696E 
 13010      6500
 13011              	.LASF932:
 13012 6ec6 4144435F 		.ascii	"ADC_DR_OVERRUN(n) ((((n) >> 30) & (1UL)))\000"
 13012      44525F4F 
 13012      56455252 
 13012      554E286E 
 13012      29202828 
 13013              	.LASF606:
 13014 6ef0 5343425F 		.ascii	"SCB_CCR_STKALIGN_Pos 9\000"
 13014      4343525F 
 13014      53544B41 
 13014      4C49474E 
 13014      5F506F73 
 13015              	.LASF948:
 13016 6f07 5F5F4932 		.ascii	"__I2C_11XX_H_ \000"
 13016      435F3131 
 13016      58585F48 
 13016      5F2000
 13017              	.LASF841:
 13018 6f16 55415254 		.ascii	"UART_LSR_RXFE (1 << 7)\000"
 13018      5F4C5352 
 13018      5F525846 
 13018      45202831 
 13018      203C3C20 
 13019              	.LASF373:
 13020 6f2d 5F5F474E 		.ascii	"__GNUC_PREREQ__(ma,mi) __GNUC_PREREQ(ma, mi)\000"
 13020      55435F50 
 13020      52455245 
 13020      515F5F28 
 13020      6D612C6D 
 13021              	.LASF642:
 13022 6f5a 4C50435F 		.ascii	"LPC_USART_BASE 0x40008000\000"
 13022      55534152 
 13022      545F4241 
 13022      53452030 
 13022      78343030 
 13023              	.LASF1197:
 13024 6f74 4932435F 		.ascii	"I2C_STATUS_NAK\000"
 13024      53544154 
 13024      55535F4E 
 13024      414B00
 13025              	.LASF302:
 13026 6f83 5F5F5554 		.ascii	"__UTA_IBIT__ 64\000"
 13026      415F4942 
 13026      49545F5F 
 13026      20363400 
 13027              	.LASF263:
 13028 6f93 5F5F554C 		.ascii	"__ULLACCUM_IBIT__ 32\000"
ARM GAS  /tmp/ccXw4jW7.s 			page 321


 13028      4C414343 
 13028      554D5F49 
 13028      4249545F 
 13028      5F203332 
 13029              	.LASF555:
 13030 6fa8 5F5F4650 		.ascii	"__FPU_USED 0\000"
 13030      555F5553 
 13030      45442030 
 13030      00
 13031              	.LASF533:
 13032 6fb5 4E454C45 		.ascii	"NELEMENTS(array) (sizeof(array) / sizeof(array[0]))"
 13032      4D454E54 
 13032      53286172 
 13032      72617929 
 13032      20287369 
 13033 6fe8 00       		.ascii	"\000"
 13034              	.LASF797:
 13035 6fe9 55415254 		.ascii	"UART_IIR_INTID_RDA (2 << 1)\000"
 13035      5F494952 
 13035      5F494E54 
 13035      49445F52 
 13035      44412028 
 13036              	.LASF226:
 13037 7005 5F5F554C 		.ascii	"__ULLFRACT_EPSILON__ 0x1P-64ULLR\000"
 13037      4C465241 
 13037      43545F45 
 13037      5053494C 
 13037      4F4E5F5F 
 13038              	.LASF1126:
 13039 7026 57445443 		.ascii	"WDTCLKDIV\000"
 13039      4C4B4449 
 13039      5600
 13040              	.LASF549:
 13041 7030 5F5F434D 		.ascii	"__CM0_CMSIS_VERSION_SUB (0x01)\000"
 13041      305F434D 
 13041      5349535F 
 13041      56455253 
 13041      494F4E5F 
 13042              	.LASF321:
 13043 704f 5F5F5349 		.ascii	"__SIZEOF_WINT_T__ 4\000"
 13043      5A454F46 
 13043      5F57494E 
 13043      545F545F 
 13043      5F203400 
 13044              	.LASF686:
 13045 7063 504D555F 		.ascii	"PMU_PCON_DPDFLAG (1 << 11)\000"
 13045      50434F4E 
 13045      5F445044 
 13045      464C4147 
 13045      20283120 
 13046              	.LASF97:
 13047 707e 5F5F494E 		.ascii	"__INT_LEAST32_MAX__ 0x7fffffffL\000"
 13047      545F4C45 
 13047      41535433 
 13047      325F4D41 
 13047      585F5F20 
 13048              	.LASF219:
ARM GAS  /tmp/ccXw4jW7.s 			page 322


 13049 709e 5F5F4C4C 		.ascii	"__LLFRACT_MIN__ (-0.5LLR-0.5LLR)\000"
 13049      46524143 
 13049      545F4D49 
 13049      4E5F5F20 
 13049      282D302E 
 13050              	.LASF1096:
 13051 70bf 55534250 		.ascii	"USBPLLCTRL\000"
 13051      4C4C4354 
 13051      524C00
 13052              	.LASF1145:
 13053 70ca 53544152 		.ascii	"STARTRSRP0CLR\000"
 13053      54525352 
 13053      5030434C 
 13053      5200
 13054              	.LASF1095:
 13055 70d8 53595350 		.ascii	"SYSPLLSTAT\000"
 13055      4C4C5354 
 13055      415400
 13056              	.LASF249:
 13057 70e3 5F5F4C41 		.ascii	"__LACCUM_MIN__ (-0X1P31LK-0X1P31LK)\000"
 13057      4343554D 
 13057      5F4D494E 
 13057      5F5F2028 
 13057      2D305831 
 13058              	.LASF662:
 13059 7107 4941505F 		.ascii	"IAP_ENTRY_LOCATION 0X1FFF1FF1\000"
 13059      454E5452 
 13059      595F4C4F 
 13059      43415449 
 13059      4F4E2030 
 13060              	.LASF109:
 13061 7125 5F5F494E 		.ascii	"__INT_FAST8_MAX__ 0x7fffffff\000"
 13061      545F4641 
 13061      5354385F 
 13061      4D41585F 
 13061      5F203078 
 13062              	.LASF750:
 13063 7142 4D445F4F 		.ascii	"MD_OPENDRAIN (0x1 << 10)\000"
 13063      50454E44 
 13063      5241494E 
 13063      20283078 
 13063      31203C3C 
 13064              	.LASF148:
 13065 715b 5F5F4442 		.ascii	"__DBL_DENORM_MIN__ ((double)4.9406564584124654e-324"
 13065      4C5F4445 
 13065      4E4F524D 
 13065      5F4D494E 
 13065      5F5F2028 
 13066 718e 4C2900   		.ascii	"L)\000"
 13067              	.LASF1116:
 13068 7191 53535030 		.ascii	"SSP0CLKDIV\000"
 13068      434C4B44 
 13068      495600
 13069              	.LASF433:
 13070 719c 5F494E54 		.ascii	"_INT8_T_DECLARED \000"
 13070      385F545F 
 13070      4445434C 
ARM GAS  /tmp/ccXw4jW7.s 			page 323


 13070      41524544 
 13070      2000
 13071              	.LASF1070:
 13072 71ae 43414E5F 		.ascii	"CAN_SDOSEG_CLOSE 2\000"
 13072      53444F53 
 13072      45475F43 
 13072      4C4F5345 
 13072      203200
 13073              	.LASF648:
 13074 71c1 4C50435F 		.ascii	"LPC_DAC_BASE 0x40024000\000"
 13074      4441435F 
 13074      42415345 
 13074      20307834 
 13074      30303234 
 13075              	.LASF422:
 13076 71d9 5F5F494E 		.ascii	"__INT32 \"l\"\000"
 13076      54333220 
 13076      226C2200 
 13077              	.LASF590:
 13078 71e5 5343425F 		.ascii	"SCB_AIRCR_VECTKEY_Pos 16\000"
 13078      41495243 
 13078      525F5645 
 13078      43544B45 
 13078      595F506F 
 13079              	.LASF531:
 13080 71fe 5F424954 		.ascii	"_BITMASK(field_width) ( _BIT(field_width) - 1)\000"
 13080      4D41534B 
 13080      28666965 
 13080      6C645F77 
 13080      69647468 
 13081              	.LASF692:
 13082 722d 53595343 		.ascii	"SYSCTL_RST_BOD (1 << 3)\000"
 13082      544C5F52 
 13082      53545F42 
 13082      4F442028 
 13082      31203C3C 
 13083              	.LASF688:
 13084 7245 5F5F5359 		.ascii	"__SYSCTL_11XX_H_ \000"
 13084      5343544C 
 13084      5F313158 
 13084      585F485F 
 13084      2000
 13085              	.LASF45:
 13086 7257 5F5F5549 		.ascii	"__UINT32_TYPE__ long unsigned int\000"
 13086      4E543332 
 13086      5F545950 
 13086      455F5F20 
 13086      6C6F6E67 
 13087              	.LASF361:
 13088 7279 434F5245 		.ascii	"CORE_M0 1\000"
 13088      5F4D3020 
 13088      3100
 13089              	.LASF905:
 13090 7283 5353505F 		.ascii	"SSP_CR0_CPHA_SECOND ((uint32_t) (1 << 7))\000"
 13090      4352305F 
 13090      43504841 
 13090      5F534543 
ARM GAS  /tmp/ccXw4jW7.s 			page 324


 13090      4F4E4420 
 13091              	.LASF759:
 13092 72ad 5F5F5449 		.ascii	"__TIMER_11XX_H_ \000"
 13092      4D45525F 
 13092      31315858 
 13092      5F485F20 
 13092      00
 13093              	.LASF374:
 13094 72be 5F444546 		.ascii	"_DEFAULT_SOURCE\000"
 13094      41554C54 
 13094      5F534F55 
 13094      52434500 
 13095              	.LASF705:
 13096 72ce 53595343 		.ascii	"SYSCTL_POWERDOWN_IRCOUT_PD (1 << 0)\000"
 13096      544C5F50 
 13096      4F574552 
 13096      444F574E 
 13096      5F495243 
 13097              	.LASF751:
 13098 72f2 46554E43 		.ascii	"FUNC0 0x0\000"
 13098      30203078 
 13098      3000
 13099              	.LASF1044:
 13100 72fc 53444F5F 		.ascii	"SDO_ABORT_SDOTIMEOUT 0x05040000UL\000"
 13100      41424F52 
 13100      545F5344 
 13100      4F54494D 
 13100      454F5554 
 13101              	.LASF846:
 13102 731e 55415254 		.ascii	"UART_MSR_DELTA_DSR (1 << 1)\000"
 13102      5F4D5352 
 13102      5F44454C 
 13102      54415F44 
 13102      53522028 
 13103              	.LASF224:
 13104 733a 5F5F554C 		.ascii	"__ULLFRACT_MIN__ 0.0ULLR\000"
 13104      4C465241 
 13104      43545F4D 
 13104      494E5F5F 
 13104      20302E30 
 13105              	.LASF519:
 13106 7353 5F535444 		.ascii	"_STDBOOL_H \000"
 13106      424F4F4C 
 13106      5F482000 
 13107              	.LASF697:
 13108 735f 53595343 		.ascii	"SYSCTL_SLPWAKE_IRCOUT_PD (1 << 0)\000"
 13108      544C5F53 
 13108      4C505741 
 13108      4B455F49 
 13108      52434F55 
 13109              	.LASF1282:
 13110 7381 2F686F6D 		.ascii	"/home/tianye/FSAEARM/psychic-guacamole/uart\000"
 13110      652F7469 
 13110      616E7965 
 13110      2F465341 
 13110      4541524D 
 13111              	.LASF284:
ARM GAS  /tmp/ccXw4jW7.s 			page 325


 13112 73ad 5F5F5544 		.ascii	"__UDQ_IBIT__ 0\000"
 13112      515F4942 
 13112      49545F5F 
 13112      203000
 13113              	.LASF14:
 13114 73bc 5F5F5349 		.ascii	"__SIZEOF_INT__ 4\000"
 13114      5A454F46 
 13114      5F494E54 
 13114      5F5F2034 
 13114      00
 13115              	.LASF218:
 13116 73cd 5F5F4C4C 		.ascii	"__LLFRACT_IBIT__ 0\000"
 13116      46524143 
 13116      545F4942 
 13116      49545F5F 
 13116      203000
 13117              	.LASF511:
 13118 73e0 55494E54 		.ascii	"UINT16_C(x) __UINT16_C(x)\000"
 13118      31365F43 
 13118      28782920 
 13118      5F5F5549 
 13118      4E543136 
 13119              	.LASF1000:
 13120 73fa 4932435F 		.ascii	"I2C_I2STAT_S_TX_LAST_DAT_ACK ((0xC8))\000"
 13120      49325354 
 13120      41545F53 
 13120      5F54585F 
 13120      4C415354 
 13121              	.LASF1163:
 13122 7420 53595343 		.ascii	"SYSCTL_CLOCK_CT16B0\000"
 13122      544C5F43 
 13122      4C4F434B 
 13122      5F435431 
 13122      36423000 
 13123              	.LASF1087:
 13124 7434 75696E74 		.ascii	"uint32_t\000"
 13124      33325F74 
 13124      00
 13125              	.LASF874:
 13126 743d 55415254 		.ascii	"UART_SCICTRL_NACKDIS (1 << 1)\000"
 13126      5F534349 
 13126      4354524C 
 13126      5F4E4143 
 13126      4B444953 
 13127              	.LASF403:
 13128 745b 5F535953 		.ascii	"_SYS__INTSUP_H \000"
 13128      5F5F494E 
 13128      54535550 
 13128      5F482000 
 13129              	.LASF1146:
 13130 746b 53544152 		.ascii	"STARTSRP0\000"
 13130      54535250 
 13130      3000
 13131              	.LASF620:
 13132 7475 53797354 		.ascii	"SysTick_LOAD_RELOAD_Pos 0\000"
 13132      69636B5F 
 13132      4C4F4144 
ARM GAS  /tmp/ccXw4jW7.s 			page 326


 13132      5F52454C 
 13132      4F41445F 
 13133              	.LASF231:
 13134 748f 5F5F5341 		.ascii	"__SACCUM_EPSILON__ 0x1P-7HK\000"
 13134      4343554D 
 13134      5F455053 
 13134      494C4F4E 
 13134      5F5F2030 
 13135              	.LASF685:
 13136 74ab 504D555F 		.ascii	"PMU_PCON_SLEEPFLAG (1 << 8)\000"
 13136      50434F4E 
 13136      5F534C45 
 13136      4550464C 
 13136      41472028 
 13137              	.LASF1249:
 13138 74c7 53434C56 		.ascii	"SCLValue\000"
 13138      616C7565 
 13138      00
 13139              	.LASF494:
 13140 74d0 494E545F 		.ascii	"INT_FAST64_MAX (__INT_FAST64_MAX__)\000"
 13140      46415354 
 13140      36345F4D 
 13140      41582028 
 13140      5F5F494E 
 13141              	.LASF1181:
 13142 74f4 434F4E43 		.ascii	"CONCLR\000"
 13142      4C5200
 13143              	.LASF777:
 13144 74fb 55415254 		.ascii	"UART_DLL_MASKBIT (0xFF)\000"
 13144      5F444C4C 
 13144      5F4D4153 
 13144      4B424954 
 13144      20283078 
 13145              	.LASF1186:
 13146 7513 44415441 		.ascii	"DATA_BUFFER\000"
 13146      5F425546 
 13146      46455200 
 13147              	.LASF545:
 13148 751f 5F5F4E56 		.ascii	"__NVIC_PRIO_BITS 2\000"
 13148      49435F50 
 13148      52494F5F 
 13148      42495453 
 13148      203200
 13149              	.LASF60:
 13150 7532 5F5F5549 		.ascii	"__UINT_FAST16_TYPE__ unsigned int\000"
 13150      4E545F46 
 13150      41535431 
 13150      365F5459 
 13150      50455F5F 
 13151              	.LASF627:
 13152 7554 53797354 		.ascii	"SysTick_CALIB_SKEW_Msk (1UL << SysTick_CALIB_SKEW_P"
 13152      69636B5F 
 13152      43414C49 
 13152      425F534B 
 13152      45575F4D 
 13153 7587 6F732900 		.ascii	"os)\000"
 13154              	.LASF296:
ARM GAS  /tmp/ccXw4jW7.s 			page 327


 13155 758b 5F5F5548 		.ascii	"__UHA_IBIT__ 8\000"
 13155      415F4942 
 13155      49545F5F 
 13155      203800
 13156              	.LASF367:
 13157 759a 5F4E4557 		.ascii	"_NEWLIB_VERSION_H__ 1\000"
 13157      4C49425F 
 13157      56455253 
 13157      494F4E5F 
 13157      485F5F20 
 13158              	.LASF241:
 13159 75b0 5F5F4143 		.ascii	"__ACCUM_EPSILON__ 0x1P-15K\000"
 13159      43554D5F 
 13159      45505349 
 13159      4C4F4E5F 
 13159      5F203078 
 13160              	.LASF256:
 13161 75cb 5F5F554C 		.ascii	"__ULACCUM_EPSILON__ 0x1P-32ULK\000"
 13161      41434355 
 13161      4D5F4550 
 13161      53494C4F 
 13161      4E5F5F20 
 13162              	.LASF1072:
 13163 75ea 4932435F 		.ascii	"I2C_CON_FLAGS (I2C_CON_AA | I2C_CON_SI | I2C_CON_ST"
 13163      434F4E5F 
 13163      464C4147 
 13163      53202849 
 13163      32435F43 
 13164 761d 4F207C20 		.ascii	"O | I2C_CON_STA)\000"
 13164      4932435F 
 13164      434F4E5F 
 13164      53544129 
 13164      00
 13165              	.LASF153:
 13166 762e 5F5F4C44 		.ascii	"__LDBL_DIG__ 15\000"
 13166      424C5F44 
 13166      49475F5F 
 13166      20313500 
 13167              	.LASF1100:
 13168 763e 5744544F 		.ascii	"WDTOSCCTRL\000"
 13168      53434354 
 13168      524C00
 13169              	.LASF835:
 13170 7649 55415254 		.ascii	"UART_LSR_OE (1 << 1)\000"
 13170      5F4C5352 
 13170      5F4F4520 
 13170      2831203C 
 13170      3C203129 
 13171              	.LASF1005:
 13172 765e 4932435F 		.ascii	"I2C_I2MMCTRL_ENA_SCL ((1 << 1))\000"
 13172      49324D4D 
 13172      4354524C 
 13172      5F454E41 
 13172      5F53434C 
 13173              	.LASF449:
 13174 767e 5F5F696E 		.ascii	"__int_least8_t_defined 1\000"
 13174      745F6C65 
ARM GAS  /tmp/ccXw4jW7.s 			page 328


 13174      61737438 
 13174      5F745F64 
 13174      6566696E 
 13175              	.LASF1130:
 13176 7697 434C4B4F 		.ascii	"CLKOUTDIV\000"
 13176      55544449 
 13176      5600
 13177              	.LASF76:
 13178 76a1 5F5F5749 		.ascii	"__WINT_MIN__ 0U\000"
 13178      4E545F4D 
 13178      494E5F5F 
 13178      20305500 
 13179              	.LASF727:
 13180 76b1 494F434F 		.ascii	"IOCON_MODE_REPEATER (0x3 << 3)\000"
 13180      4E5F4D4F 
 13180      44455F52 
 13180      45504541 
 13180      54455220 
 13181              	.LASF178:
 13182 76d0 5F5F4445 		.ascii	"__DEC64_EPSILON__ 1E-15DD\000"
 13182      4336345F 
 13182      45505349 
 13182      4C4F4E5F 
 13182      5F203145 
 13183              	.LASF597:
 13184 76ea 5343425F 		.ascii	"SCB_AIRCR_SYSRESETREQ_Msk (1UL << SCB_AIRCR_SYSRESE"
 13184      41495243 
 13184      525F5359 
 13184      53524553 
 13184      45545245 
 13185 771d 54524551 		.ascii	"TREQ_Pos)\000"
 13185      5F506F73 
 13185      2900
 13186              	.LASF75:
 13187 7727 5F5F5749 		.ascii	"__WINT_MAX__ 0xffffffffU\000"
 13187      4E545F4D 
 13187      41585F5F 
 13187      20307866 
 13187      66666666 
 13188              	.LASF1230:
 13189 7740 78666572 		.ascii	"xfer\000"
 13189      00
 13190              	.LASF1256:
 13191 7745 68616E64 		.ascii	"handleSlaveXferState\000"
 13191      6C65536C 
 13191      61766558 
 13191      66657253 
 13191      74617465 
 13192              	.LASF48:
 13193 775a 5F5F494E 		.ascii	"__INT_LEAST16_TYPE__ short int\000"
 13193      545F4C45 
 13193      41535431 
 13193      365F5459 
 13193      50455F5F 
 13194              	.LASF1118:
 13195 7779 53535031 		.ascii	"SSP1CLKDIV\000"
 13195      434C4B44 
ARM GAS  /tmp/ccXw4jW7.s 			page 329


 13195      495600
 13196              	.LASF266:
 13197 7784 5F5F554C 		.ascii	"__ULLACCUM_EPSILON__ 0x1P-32ULLK\000"
 13197      4C414343 
 13197      554D5F45 
 13197      5053494C 
 13197      4F4E5F5F 
 13198              	.LASF698:
 13199 77a5 53595343 		.ascii	"SYSCTL_SLPWAKE_IRC_PD (1 << 1)\000"
 13199      544C5F53 
 13199      4C505741 
 13199      4B455F49 
 13199      52435F50 
 13200              	.LASF145:
 13201 77c4 5F5F4442 		.ascii	"__DBL_MAX__ ((double)1.7976931348623157e+308L)\000"
 13201      4C5F4D41 
 13201      585F5F20 
 13201      2828646F 
 13201      75626C65 
 13202              	.LASF1078:
 13203 77f3 73686F72 		.ascii	"short unsigned int\000"
 13203      7420756E 
 13203      7369676E 
 13203      65642069 
 13203      6E7400
 13204              	.LASF217:
 13205 7806 5F5F4C4C 		.ascii	"__LLFRACT_FBIT__ 63\000"
 13205      46524143 
 13205      545F4642 
 13205      49545F5F 
 13205      20363300 
 13206              	.LASF563:
 13207 781a 5343425F 		.ascii	"SCB_CPUID_IMPLEMENTER_Msk (0xFFUL << SCB_CPUID_IMPL"
 13207      43505549 
 13207      445F494D 
 13207      504C454D 
 13207      454E5445 
 13208 784d 454D454E 		.ascii	"EMENTER_Pos)\000"
 13208      5445525F 
 13208      506F7329 
 13208      00
 13209              	.LASF339:
 13210 785a 5F5F7468 		.ascii	"__thumb__ 1\000"
 13210      756D625F 
 13210      5F203100 
 13211              	.LASF936:
 13212 7866 4144435F 		.ascii	"ADC_CR_PDN ((1UL << 21))\000"
 13212      43525F50 
 13212      444E2028 
 13212      2831554C 
 13212      203C3C20 
 13213              	.LASF1245:
 13214 787f 43686970 		.ascii	"Chip_I2C_SetMasterEventHandler\000"
 13214      5F493243 
 13214      5F536574 
 13214      4D617374 
 13214      65724576 
ARM GAS  /tmp/ccXw4jW7.s 			page 330


 13215              	.LASF1206:
 13216 789e 7278537A 		.ascii	"rxSz\000"
 13216      00
 13217              	.LASF343:
 13218 78a3 5F5F4152 		.ascii	"__ARMEL__ 1\000"
 13218      4D454C5F 
 13218      5F203100 
 13219              	.LASF1260:
 13220 78af 67657453 		.ascii	"getSlaveIndex\000"
 13220      6C617665 
 13220      496E6465 
 13220      7800
 13221              	.LASF269:
 13222 78bd 5F5F4851 		.ascii	"__HQ_FBIT__ 15\000"
 13222      5F464249 
 13222      545F5F20 
 13222      313500
 13223              	.LASF523:
 13224 78cc 5F5F626F 		.ascii	"__bool_true_false_are_defined 1\000"
 13224      6F6C5F74 
 13224      7275655F 
 13224      66616C73 
 13224      655F6172 
 13225              	.LASF988:
 13226 78ec 4932435F 		.ascii	"I2C_I2STAT_S_RX_ARB_LOST_M_SLA ((0x68))\000"
 13226      49325354 
 13226      41545F53 
 13226      5F52585F 
 13226      4152425F 
 13227              	.LASF419:
 13228 7914 5F494E54 		.ascii	"_INT32_EQ_LONG \000"
 13228      33325F45 
 13228      515F4C4F 
 13228      4E472000 
 13229              	.LASF598:
 13230 7924 5343425F 		.ascii	"SCB_AIRCR_VECTCLRACTIVE_Pos 1\000"
 13230      41495243 
 13230      525F5645 
 13230      4354434C 
 13230      52414354 
 13231              	.LASF961:
 13232 7942 4932435F 		.ascii	"I2C_I2CONCLR_STOC ((1 << 4))\000"
 13232      4932434F 
 13232      4E434C52 
 13232      5F53544F 
 13232      43202828 
 13233              	.LASF78:
 13234 795f 5F5F5349 		.ascii	"__SIZE_MAX__ 0xffffffffU\000"
 13234      5A455F4D 
 13234      41585F5F 
 13234      20307866 
 13234      66666666 
 13235              	.LASF325:
 13236 7978 5F5F4152 		.ascii	"__ARM_FEATURE_SAT\000"
 13236      4D5F4645 
 13236      41545552 
 13236      455F5341 
ARM GAS  /tmp/ccXw4jW7.s 			page 331


 13236      5400
 13237              	.LASF1049:
 13238 798a 53444F5F 		.ascii	"SDO_ABORT_NOT_EXISTS 0x06020000UL\000"
 13238      41424F52 
 13238      545F4E4F 
 13238      545F4558 
 13238      49535453 
 13239              	.LASF1204:
 13240 79ac 7478537A 		.ascii	"txSz\000"
 13240      00
 13241              	.LASF640:
 13242 79b1 4C50435F 		.ascii	"LPC_I2C_BASE 0x40000000\000"
 13242      4932435F 
 13242      42415345 
 13242      20307834 
 13242      30303030 
 13243              	.LASF869:
 13244 79c9 55415254 		.ascii	"UART_ICR_FIXPULSE_EN (1 << 2)\000"
 13244      5F494352 
 13244      5F464958 
 13244      50554C53 
 13244      455F454E 
 13245              	.LASF1065:
 13246 79e7 43414E5F 		.ascii	"CAN_SDOREQ_NOTHANDLED 0\000"
 13246      53444F52 
 13246      45515F4E 
 13246      4F544841 
 13246      4E444C45 
 13247              	.LASF462:
 13248 79ff 55494E54 		.ascii	"UINT8_MAX (__UINT8_MAX__)\000"
 13248      385F4D41 
 13248      5820285F 
 13248      5F55494E 
 13248      54385F4D 
 13249              	.LASF71:
 13250 7a19 5F5F4C4F 		.ascii	"__LONG_MAX__ 0x7fffffffL\000"
 13250      4E475F4D 
 13250      41585F5F 
 13250      20307837 
 13250      66666666 
 13251              	.LASF558:
 13252 7a32 5F5F434F 		.ascii	"__CORE_CM0_H_DEPENDANT \000"
 13252      52455F43 
 13252      4D305F48 
 13252      5F444550 
 13252      454E4441 
 13253              	.LASF1257:
 13254 7a4a 70493243 		.ascii	"pI2C\000"
 13254      00
 13255              	.LASF895:
 13256 7a4f 57574454 		.ascii	"WWDT_WDMOD_WDINT ((uint32_t) (1 << 3))\000"
 13256      5F57444D 
 13256      4F445F57 
 13256      44494E54 
 13256      20282875 
 13257              	.LASF941:
 13258 7a76 4144435F 		.ascii	"ADC_CR_START_CTOUT8 ((3UL << 24))\000"
ARM GAS  /tmp/ccXw4jW7.s 			page 332


 13258      43525F53 
 13258      54415254 
 13258      5F43544F 
 13258      55543820 
 13259              	.LASF417:
 13260 7a98 6C6F6E67 		.ascii	"long +4\000"
 13260      202B3400 
 13261              	.LASF1262:
 13262 7aa0 6C6F6F6B 		.ascii	"lookupSlaveIndex\000"
 13262      7570536C 
 13262      61766549 
 13262      6E646578 
 13262      00
 13263              	.LASF644:
 13264 7ab1 4C50435F 		.ascii	"LPC_TIMER16_1_BASE 0x40010000\000"
 13264      54494D45 
 13264      5231365F 
 13264      315F4241 
 13264      53452030 
 13265              	.LASF655:
 13266 7acf 4C50435F 		.ascii	"LPC_USB0_BASE 0x40080000\000"
 13266      55534230 
 13266      5F424153 
 13266      45203078 
 13266      34303038 
 13267              	.LASF1135:
 13268 7ae8 53595354 		.ascii	"SYSTCKCAL\000"
 13268      434B4341 
 13268      4C00
 13269              	.LASF914:
 13270 7af2 5353505F 		.ascii	"SSP_CPSR_BITMASK ((uint32_t) (0xFF))\000"
 13270      43505352 
 13270      5F424954 
 13270      4D41534B 
 13270      20282875 
 13271              	.LASF30:
 13272 7b17 5F5F5349 		.ascii	"__SIZE_TYPE__ unsigned int\000"
 13272      5A455F54 
 13272      5950455F 
 13272      5F20756E 
 13272      7369676E 
 13273              	.LASF888:
 13274 7b32 55415254 		.ascii	"UART_SYNCCTRL_STARTSTOPDISABLE (1 << 5)\000"
 13274      5F53594E 
 13274      43435452 
 13274      4C5F5354 
 13274      41525453 
 13275              	.LASF1120:
 13276 7b5a 55534243 		.ascii	"USBCLKSEL\000"
 13276      4C4B5345 
 13276      4C00
 13277              	.LASF1055:
 13278 7b64 53444F5F 		.ascii	"SDO_ABORT_TRANSFER 0x08000020UL\000"
 13278      41424F52 
 13278      545F5452 
 13278      414E5346 
 13278      45522030 
ARM GAS  /tmp/ccXw4jW7.s 			page 333


 13279              	.LASF935:
 13280 7b84 4144435F 		.ascii	"ADC_CR_BURST ((1UL << 16))\000"
 13280      43525F42 
 13280      55525354 
 13280      20282831 
 13280      554C203C 
 13281              	.LASF190:
 13282 7b9f 5F5F5346 		.ascii	"__SFRACT_MAX__ 0X7FP-7HR\000"
 13282      52414354 
 13282      5F4D4158 
 13282      5F5F2030 
 13282      58374650 
 13283              	.LASF770:
 13284 7bb8 54494D45 		.ascii	"TIMER_INT_ON_CAP(n) (_BIT((((n) * 3) + 2)))\000"
 13284      525F494E 
 13284      545F4F4E 
 13284      5F434150 
 13284      286E2920 
 13285              	.LASF357:
 13286 7be4 5F5F4152 		.ascii	"__ARM_ASM_SYNTAX_UNIFIED__\000"
 13286      4D5F4153 
 13286      4D5F5359 
 13286      4E544158 
 13286      5F554E49 
 13287              	.LASF913:
 13288 7bff 5353505F 		.ascii	"SSP_CR1_BITMASK ((uint32_t) (0x0F))\000"
 13288      4352315F 
 13288      4249544D 
 13288      41534B20 
 13288      28287569 
 13289              	.LASF96:
 13290 7c23 5F5F494E 		.ascii	"__INT16_C(c) c\000"
 13290      5431365F 
 13290      43286329 
 13290      206300
 13291              	.LASF666:
 13292 7c32 4C50435F 		.ascii	"LPC_USART ((LPC_USART_T *) LPC_USART_BASE)\000"
 13292      55534152 
 13292      54202828 
 13292      4C50435F 
 13292      55534152 
 13293              	.LASF292:
 13294 7c5d 5F5F4441 		.ascii	"__DA_IBIT__ 32\000"
 13294      5F494249 
 13294      545F5F20 
 13294      333200
 13295              	.LASF1035:
 13296 7c6c 43414E5F 		.ascii	"CAN_ERROR_ACK 0x00000020UL\000"
 13296      4552524F 
 13296      525F4143 
 13296      4B203078 
 13296      30303030 
 13297              	.LASF414:
 13298 7c87 73686F72 		.ascii	"short +1\000"
 13298      74202B31 
 13298      00
 13299              	.LASF1042:
ARM GAS  /tmp/ccXw4jW7.s 			page 334


 13300 7c90 43414E5F 		.ascii	"CAN_MSGOBJ_RTR 0x40000000UL\000"
 13300      4D53474F 
 13300      424A5F52 
 13300      54522030 
 13300      78343030 
 13301              	.LASF601:
 13302 7cac 5343425F 		.ascii	"SCB_SCR_SEVONPEND_Msk (1UL << SCB_SCR_SEVONPEND_Pos"
 13302      5343525F 
 13302      5345564F 
 13302      4E50454E 
 13302      445F4D73 
 13303 7cdf 2900     		.ascii	")\000"
 13304              	.LASF1264:
 13305 7ce1 61646472 		.ascii	"addr1\000"
 13305      3100
 13306              	.LASF1265:
 13307 7ce7 61646472 		.ascii	"addr2\000"
 13307      3200
 13308              	.LASF10:
 13309 7ced 5F5F4154 		.ascii	"__ATOMIC_ACQ_REL 4\000"
 13309      4F4D4943 
 13309      5F414351 
 13309      5F52454C 
 13309      203400
 13310              	.LASF41:
 13311 7d00 5F5F494E 		.ascii	"__INT32_TYPE__ long int\000"
 13311      5433325F 
 13311      54595045 
 13311      5F5F206C 
 13311      6F6E6720 
 13312              	.LASF362:
 13313 7d18 5F5F4348 		.ascii	"__CHIP_H_ \000"
 13313      49505F48 
 13313      5F2000
 13314              	.LASF141:
 13315 7d23 5F5F4442 		.ascii	"__DBL_MIN_10_EXP__ (-307)\000"
 13315      4C5F4D49 
 13315      4E5F3130 
 13315      5F455850 
 13315      5F5F2028 
 13316              	.LASF922:
 13317 7d3d 5353505F 		.ascii	"SSP_SLAVE_MODE SSP_CR1_SLAVE_EN\000"
 13317      534C4156 
 13317      455F4D4F 
 13317      44452053 
 13317      53505F43 
 13318              	.LASF593:
 13319 7d5d 5343425F 		.ascii	"SCB_AIRCR_VECTKEYSTAT_Msk (0xFFFFUL << SCB_AIRCR_VE"
 13319      41495243 
 13319      525F5645 
 13319      43544B45 
 13319      59535441 
 13320 7d90 43544B45 		.ascii	"CTKEYSTAT_Pos)\000"
 13320      59535441 
 13320      545F506F 
 13320      732900
 13321              	.LASF1273:
ARM GAS  /tmp/ccXw4jW7.s 			page 335


 13322 7d9f 73657453 		.ascii	"setSlaveAddr\000"
 13322      6C617665 
 13322      41646472 
 13322      00
 13323              	.LASF758:
 13324 7dac 46554E43 		.ascii	"FUNC7 0x7\000"
 13324      37203078 
 13324      3700
 13325              	.LASF409:
 13326 7db6 5F5F696E 		.ascii	"__int20\000"
 13326      74323000 
 13327              	.LASF672:
 13328 7dbe 4C50435F 		.ascii	"LPC_PMU ((LPC_PMU_T *) LPC_PMU_BASE)\000"
 13328      504D5520 
 13328      28284C50 
 13328      435F504D 
 13328      555F5420 
 13329              	.LASF553:
 13330 7de3 5F5F494E 		.ascii	"__INLINE inline\000"
 13330      4C494E45 
 13330      20696E6C 
 13330      696E6500 
 13331              	.LASF491:
 13332 7df3 494E545F 		.ascii	"INT_FAST32_MAX (__INT_FAST32_MAX__)\000"
 13332      46415354 
 13332      33325F4D 
 13332      41582028 
 13332      5F5F494E 
 13333              	.LASF852:
 13334 7e17 55415254 		.ascii	"UART_MSR_DCD (1 << 7)\000"
 13334      5F4D5352 
 13334      5F444344 
 13334      20283120 
 13334      3C3C2037 
 13335              	.LASF520:
 13336 7e2d 626F6F6C 		.ascii	"bool _Bool\000"
 13336      205F426F 
 13336      6F6C00
 13337              	.LASF928:
 13338 7e38 4144435F 		.ascii	"ADC_MAX_SAMPLE_RATE 400000\000"
 13338      4D41585F 
 13338      53414D50 
 13338      4C455F52 
 13338      41544520 
 13339              	.LASF1028:
 13340 7e53 5F5F4343 		.ascii	"__CCAND_11XX_H_ \000"
 13340      414E445F 
 13340      31315858 
 13340      5F485F20 
 13340      00
 13341              	.LASF378:
 13342 7e64 5F504F53 		.ascii	"_POSIX_C_SOURCE\000"
 13342      49585F43 
 13342      5F534F55 
 13342      52434500 
 13343              	.LASF81:
 13344 7e74 5F5F5549 		.ascii	"__UINTMAX_MAX__ 0xffffffffffffffffULL\000"
ARM GAS  /tmp/ccXw4jW7.s 			page 336


 13344      4E544D41 
 13344      585F4D41 
 13344      585F5F20 
 13344      30786666 
 13345              	.LASF1173:
 13346 7e9a 53595343 		.ascii	"SYSCTL_CLOCK_CAN\000"
 13346      544C5F43 
 13346      4C4F434B 
 13346      5F43414E 
 13346      00
 13347              	.LASF213:
 13348 7eab 5F5F554C 		.ascii	"__ULFRACT_IBIT__ 0\000"
 13348      46524143 
 13348      545F4942 
 13348      49545F5F 
 13348      203000
 13349              	.LASF1233:
 13350 7ebe 43686970 		.ascii	"Chip_I2C_Disable\000"
 13350      5F493243 
 13350      5F446973 
 13350      61626C65 
 13350      00
 13351              	.LASF764:
 13352 7ecf 54494D45 		.ascii	"TIMER_RESET ((uint32_t) (1 << 1))\000"
 13352      525F5245 
 13352      53455420 
 13352      28287569 
 13352      6E743332 
 13353              	.LASF817:
 13354 7ef1 55415254 		.ascii	"UART_LCR_SBS_1BIT (0 << 2)\000"
 13354      5F4C4352 
 13354      5F534253 
 13354      5F314249 
 13354      54202830 
 13355              	.LASF70:
 13356 7f0c 5F5F494E 		.ascii	"__INT_MAX__ 0x7fffffff\000"
 13356      545F4D41 
 13356      585F5F20 
 13356      30783766 
 13356      66666666 
 13357              	.LASF50:
 13358 7f23 5F5F494E 		.ascii	"__INT_LEAST64_TYPE__ long long int\000"
 13358      545F4C45 
 13358      41535436 
 13358      345F5459 
 13358      50455F5F 
 13359              	.LASF793:
 13360 7f46 55415254 		.ascii	"UART_IIR_ABTO_INT (1 << 9)\000"
 13360      5F494952 
 13360      5F414254 
 13360      4F5F494E 
 13360      54202831 
 13361              	.LASF934:
 13362 7f61 4144435F 		.ascii	"ADC_CR_CLKDIV(n) ((((n) & 0xFF) << 8))\000"
 13362      43525F43 
 13362      4C4B4449 
 13362      56286E29 
ARM GAS  /tmp/ccXw4jW7.s 			page 337


 13362      20282828 
 13363              	.LASF405:
 13364 7f88 7369676E 		.ascii	"signed\000"
 13364      656400
 13365              	.LASF227:
 13366 7f8f 5F5F5341 		.ascii	"__SACCUM_FBIT__ 7\000"
 13366      4343554D 
 13366      5F464249 
 13366      545F5F20 
 13366      3700
 13367              	.LASF264:
 13368 7fa1 5F5F554C 		.ascii	"__ULLACCUM_MIN__ 0.0ULLK\000"
 13368      4C414343 
 13368      554D5F4D 
 13368      494E5F5F 
 13368      20302E30 
 13369              	.LASF849:
 13370 7fba 55415254 		.ascii	"UART_MSR_CTS (1 << 4)\000"
 13370      5F4D5352 
 13370      5F435453 
 13370      20283120 
 13370      3C3C2034 
 13371              	.LASF1015:
 13372 7fd0 4932435F 		.ascii	"I2C_SETUP_STATUS_NOACKF (1 << 9)\000"
 13372      53455455 
 13372      505F5354 
 13372      41545553 
 13372      5F4E4F41 
 13373              		.ident	"GCC: (GNU Tools for ARM Embedded Processors) 6.2.1 20161205 (release) [ARM/embedded-6-bran
ARM GAS  /tmp/ccXw4jW7.s 			page 338


DEFINED SYMBOLS
                            *ABS*:0000000000000000 i2c_11xx.c
     /tmp/ccXw4jW7.s:72     .text.Chip_I2C_EventHandler:0000000000000000 $t
     /tmp/ccXw4jW7.s:80     .text.Chip_I2C_EventHandler:0000000000000000 Chip_I2C_EventHandler
     /tmp/ccXw4jW7.s:113    .text.Chip_I2C_EventHandler:0000000000000014 $d
     /tmp/ccXw4jW7.s:120    .text.handleMasterXferState:0000000000000000 $t
     /tmp/ccXw4jW7.s:128    .text.handleMasterXferState:0000000000000000 handleMasterXferState
     /tmp/ccXw4jW7.s:170    .rodata.handleMasterXferState:0000000000000000 $d
     /tmp/ccXw4jW7.s:465    .text.handleMasterXferState:0000000000000104 $d
     /tmp/ccXw4jW7.s:470    .text.getSlaveIndex:0000000000000000 $t
     /tmp/ccXw4jW7.s:478    .text.getSlaveIndex:0000000000000000 getSlaveIndex
     /tmp/ccXw4jW7.s:648    .text.handleSlaveXferState:0000000000000000 $t
     /tmp/ccXw4jW7.s:656    .text.handleSlaveXferState:0000000000000000 handleSlaveXferState
     /tmp/ccXw4jW7.s:693    .rodata.handleSlaveXferState:0000000000000000 $d
     /tmp/ccXw4jW7.s:936    .text.handleSlaveXferState:00000000000000a8 $d
     /tmp/ccXw4jW7.s:941    .text.Chip_I2C_Init:0000000000000000 $t
     /tmp/ccXw4jW7.s:949    .text.Chip_I2C_Init:0000000000000000 Chip_I2C_Init
     /tmp/ccXw4jW7.s:1035   .text.Chip_I2C_Init:0000000000000030 $d
     /tmp/ccXw4jW7.s:1042   .text.Chip_I2C_DeInit:0000000000000000 $t
     /tmp/ccXw4jW7.s:1050   .text.Chip_I2C_DeInit:0000000000000000 Chip_I2C_DeInit
     /tmp/ccXw4jW7.s:1106   .text.Chip_I2C_DeInit:000000000000001c $d
     /tmp/ccXw4jW7.s:1113   .text.Chip_I2C_SetClockRate:0000000000000000 $t
     /tmp/ccXw4jW7.s:1121   .text.Chip_I2C_SetClockRate:0000000000000000 Chip_I2C_SetClockRate
     /tmp/ccXw4jW7.s:1158   .text.Chip_I2C_SetClockRate:000000000000001c $d
     /tmp/ccXw4jW7.s:1164   .text.Chip_I2C_GetClockRate:0000000000000000 $t
     /tmp/ccXw4jW7.s:1172   .text.Chip_I2C_GetClockRate:0000000000000000 Chip_I2C_GetClockRate
     /tmp/ccXw4jW7.s:1204   .text.Chip_I2C_GetClockRate:0000000000000018 $d
     /tmp/ccXw4jW7.s:1210   .text.Chip_I2C_SetMasterEventHandler:0000000000000000 $t
     /tmp/ccXw4jW7.s:1218   .text.Chip_I2C_SetMasterEventHandler:0000000000000000 Chip_I2C_SetMasterEventHandler
     /tmp/ccXw4jW7.s:1252   .text.Chip_I2C_SetMasterEventHandler:000000000000001c $d
     /tmp/ccXw4jW7.s:1257   .text.Chip_I2C_GetMasterEventHandler:0000000000000000 $t
     /tmp/ccXw4jW7.s:1265   .text.Chip_I2C_GetMasterEventHandler:0000000000000000 Chip_I2C_GetMasterEventHandler
     /tmp/ccXw4jW7.s:1285   .text.Chip_I2C_GetMasterEventHandler:0000000000000008 $d
     /tmp/ccXw4jW7.s:1290   .text.Chip_I2C_MasterTransfer:0000000000000000 $t
     /tmp/ccXw4jW7.s:1298   .text.Chip_I2C_MasterTransfer:0000000000000000 Chip_I2C_MasterTransfer
     /tmp/ccXw4jW7.s:1418   .text.Chip_I2C_MasterTransfer:000000000000005c $d
     /tmp/ccXw4jW7.s:1425   .text.Chip_I2C_MasterSend:0000000000000000 $t
     /tmp/ccXw4jW7.s:1433   .text.Chip_I2C_MasterSend:0000000000000000 Chip_I2C_MasterSend
     /tmp/ccXw4jW7.s:1483   .text.Chip_I2C_MasterCmdRead:0000000000000000 $t
     /tmp/ccXw4jW7.s:1491   .text.Chip_I2C_MasterCmdRead:0000000000000000 Chip_I2C_MasterCmdRead
     /tmp/ccXw4jW7.s:1551   .text.Chip_I2C_MasterRead:0000000000000000 $t
     /tmp/ccXw4jW7.s:1559   .text.Chip_I2C_MasterRead:0000000000000000 Chip_I2C_MasterRead
     /tmp/ccXw4jW7.s:1610   .text.Chip_I2C_IsMasterActive:0000000000000000 $t
     /tmp/ccXw4jW7.s:1618   .text.Chip_I2C_IsMasterActive:0000000000000000 Chip_I2C_IsMasterActive
     /tmp/ccXw4jW7.s:1663   .text.Chip_I2C_IsMasterActive:0000000000000018 $d
     /tmp/ccXw4jW7.s:1668   .text.Chip_I2C_MasterStateHandler:0000000000000000 $t
     /tmp/ccXw4jW7.s:1676   .text.Chip_I2C_MasterStateHandler:0000000000000000 Chip_I2C_MasterStateHandler
     /tmp/ccXw4jW7.s:1719   .text.Chip_I2C_MasterStateHandler:000000000000001c $d
     /tmp/ccXw4jW7.s:1724   .text.Chip_I2C_EventHandlerPolling:0000000000000000 $t
     /tmp/ccXw4jW7.s:1732   .text.Chip_I2C_EventHandlerPolling:0000000000000000 Chip_I2C_EventHandlerPolling
     /tmp/ccXw4jW7.s:1800   .text.Chip_I2C_EventHandlerPolling:0000000000000028 $d
     /tmp/ccXw4jW7.s:1805   .text.Chip_I2C_SlaveSetup:0000000000000000 $t
     /tmp/ccXw4jW7.s:1813   .text.Chip_I2C_SlaveSetup:0000000000000000 Chip_I2C_SlaveSetup
     /tmp/ccXw4jW7.s:1940   .text.Chip_I2C_SlaveSetup:0000000000000068 $d
     /tmp/ccXw4jW7.s:1949   .text.Chip_I2C_SlaveStateHandler:0000000000000000 $t
     /tmp/ccXw4jW7.s:1957   .text.Chip_I2C_SlaveStateHandler:0000000000000000 Chip_I2C_SlaveStateHandler
     /tmp/ccXw4jW7.s:2054   .text.Chip_I2C_SlaveStateHandler:0000000000000058 $d
ARM GAS  /tmp/ccXw4jW7.s 			page 339


     /tmp/ccXw4jW7.s:2061   .text.Chip_I2C_Disable:0000000000000000 $t
     /tmp/ccXw4jW7.s:2069   .text.Chip_I2C_Disable:0000000000000000 Chip_I2C_Disable
     /tmp/ccXw4jW7.s:2090   .text.Chip_I2C_Disable:000000000000000c $d
     /tmp/ccXw4jW7.s:2095   .text.Chip_I2C_IsStateChanged:0000000000000000 $t
     /tmp/ccXw4jW7.s:2103   .text.Chip_I2C_IsStateChanged:0000000000000000 Chip_I2C_IsStateChanged
     /tmp/ccXw4jW7.s:2126   .text.Chip_I2C_IsStateChanged:000000000000000c $d
     /tmp/ccXw4jW7.s:2131   .bss.i2c_slave:0000000000000000 $d
     /tmp/ccXw4jW7.s:2135   .bss.i2c_slave:0000000000000000 i2c_slave
     /tmp/ccXw4jW7.s:2138   .data.i2c:0000000000000000 $d
     /tmp/ccXw4jW7.s:2142   .data.i2c:0000000000000000 i2c
                     .debug_frame:0000000000000010 $d
                           .group:0000000000000000 wm4.0.adead285382a0a5b53a07cb69e17d027
                           .group:0000000000000000 wm4._newlib_version.h.4.ad342815780c8db09778091a421b5b5b
                           .group:0000000000000000 wm4.features.h.33.863f3be0b2e521e624fcc7d6fa31d2ca
                           .group:0000000000000000 wm4._default_types.h.15.247e5cd201eca3442cbf5404108c4935
                           .group:0000000000000000 wm4._intsup.h.10.cce27fed8484c08a33f522034c30d2b5
                           .group:0000000000000000 wm4._stdint.h.10.c24fa3af3bc1706662bb5593a907e841
                           .group:0000000000000000 wm4.stdint.h.23.d53047a68f4a85177f80b422d52785ed
                           .group:0000000000000000 wm4.stdbool.h.29.07dce69c3b78884144b7f7bd19483461
                           .group:0000000000000000 wm4.lpc_types.h.63.860ba57581a002825766a7c2ac00d549
                           .group:0000000000000000 wm4.sys_config.h.31.9f234e9c90333d233c7e647ebe63e928
                           .group:0000000000000000 wm4.cmsis_11cxx.h.33.407e9bbb5d170cd1552d3f7dc3fd5c42
                           .group:0000000000000000 wm4.core_cm0.h.32.192d13cfa8b31e63c86621de62eb153f
                           .group:0000000000000000 wm4.core_cm0.h.120.f4257ea7d0bce0cbabffe223e23b2fd4
                           .group:0000000000000000 wm4.chip.h.116.857da603c399e979152c31968de4baae
                           .group:0000000000000000 wm4.pmu_11xx.h.33.1d6b708881441cb98d19b8bab3caa180
                           .group:0000000000000000 wm4.sysctl_11xx.h.33.ae61a1181e608f8409883008e291930c
                           .group:0000000000000000 wm4.clock_11xx.h.33.23290a9e2ed919e3a6958d25130bc848
                           .group:0000000000000000 wm4.iocon_11xx.h.33.25e2b3cde122df23fb07b984cb4f3a93
                           .group:0000000000000000 wm4.timer_11xx.h.33.c92f50a9325789ee6a8ffd6248980d70
                           .group:0000000000000000 wm4.ring_buffer.h.33.2f271415f1f27d60350fb4738c5cbee6
                           .group:0000000000000000 wm4.uart_11xx.h.98.fe68b709973730a4fba3f3ce60c5c312
                           .group:0000000000000000 wm4.wwdt_11xx.h.33.5768344983cb842df69cc91ea86cabb0
                           .group:0000000000000000 wm4.ssp_11xx.h.33.af054d3d65f4cb0c078be40bb872ec37
                           .group:0000000000000000 wm4.error.h.38.ae74fe1dd9d19c80c505f1fda144fce8
                           .group:0000000000000000 wm4.adc_11xx.h.33.6ce7433ac6b30df70a6993d01dbd513f
                           .group:0000000000000000 wm4.i2c_11xx.h.33.2b506d1350e00a8c26e8bf006a5f9390
                           .group:0000000000000000 wm4.ccand_11xx.h.33.99627f4b529fecdc77b0877ab6fe5266

UNDEFINED SYMBOLS
__aeabi_uidiv
SystemCoreClock
