ARM GAS  /tmp/ccXw4jW7.s 			page 1


   1              		.cpu cortex-m0
   2              		.eabi_attribute 20, 1	@ Tag_ABI_FP_denormal
   3              		.eabi_attribute 21, 1	@ Tag_ABI_FP_exceptions
   4              		.eabi_attribute 23, 3	@ Tag_ABI_FP_number_model
   5              		.eabi_attribute 24, 1	@ Tag_ABI_align8_needed
   6              		.eabi_attribute 25, 1	@ Tag_ABI_align8_preserved
   7              		.eabi_attribute 26, 1	@ Tag_ABI_enum_size
   8              		.eabi_attribute 30, 2	@ Tag_ABI_optimization_goals
   9              		.eabi_attribute 34, 0	@ Tag_CPU_unaligned_access
  10              		.eabi_attribute 18, 4	@ Tag_ABI_PCS_wchar_t
  11              		.file	"i2c_11xx.c"
  12              	@ GNU C89 (GNU Tools for ARM Embedded Processors) version 6.2.1 20161205 (release) [ARM/embedded-6-
  13              	@	compiled by GNU C version 5.4.0 20160609, GMP version 6.1.0, MPFR version 3.1.4, MPC version 1.0.
  14              	@ GGC heuristics: --param ggc-min-expand=100 --param ggc-min-heapsize=131072
  15              	@ options passed:  -I . -I ../../lpc11cx4-library/lpc_chip_11cxx_lib/inc
  16              	@ -imultilib thumb/v6-m -iprefix /usr/bin/../lib/gcc/arm-none-eabi/6.2.1/
  17              	@ -isysroot /usr/bin/../arm-none-eabi -MD bin/i2c_11xx.d -MF bin/i2c_11xx.d
  18              	@ -MP -MQ bin/i2c_11xx.o -D__USES_INITFINI__ -D CORE_M0
  19              	@ ../../lpc11cx4-library/lpc_chip_11cxx_lib/src/i2c_11xx.c -mcpu=cortex-m0
  20              	@ -mthumb -auxbase-strip bin/i2c_11xx.o -g -ggdb3 -O2 -Wall
  21              	@ -Wstrict-prototypes -Wextra -std=gnu90 -ffunction-sections
  22              	@ -fdata-sections -fverbose-asm
  23              	@ options enabled:  -faggressive-loop-optimizations -falign-jumps
  24              	@ -falign-labels -falign-loops -fauto-inc-dec -fbranch-count-reg
  25              	@ -fcaller-saves -fchkp-check-incomplete-type -fchkp-check-read
  26              	@ -fchkp-check-write -fchkp-instrument-calls -fchkp-narrow-bounds
  27              	@ -fchkp-optimize -fchkp-store-bounds -fchkp-use-static-bounds
  28              	@ -fchkp-use-static-const-bounds -fchkp-use-wrappers
  29              	@ -fcombine-stack-adjustments -fcommon -fcompare-elim -fcprop-registers
  30              	@ -fcrossjumping -fcse-follow-jumps -fdata-sections -fdefer-pop
  31              	@ -fdelete-null-pointer-checks -fdevirtualize -fdevirtualize-speculatively
  32              	@ -fdwarf2-cfi-asm -fearly-inlining -feliminate-unused-debug-types
  33              	@ -fexpensive-optimizations -fforward-propagate -ffunction-cse
  34              	@ -ffunction-sections -fgcse -fgcse-lm -fgnu-runtime -fgnu-unique
  35              	@ -fguess-branch-probability -fhoist-adjacent-loads -fident -fif-conversion
  36              	@ -fif-conversion2 -findirect-inlining -finline -finline-atomics
  37              	@ -finline-functions-called-once -finline-small-functions -fipa-cp
  38              	@ -fipa-cp-alignment -fipa-icf -fipa-icf-functions -fipa-icf-variables
  39              	@ -fipa-profile -fipa-pure-const -fipa-reference -fipa-sra
  40              	@ -fira-hoist-pressure -fira-share-save-slots -fira-share-spill-slots
  41              	@ -fisolate-erroneous-paths-dereference -fivopts -fkeep-static-consts
  42              	@ -fleading-underscore -flifetime-dse -flra-remat -flto-odr-type-merging
  43              	@ -fmath-errno -fmerge-constants -fmerge-debug-strings
  44              	@ -fmove-loop-invariants -fomit-frame-pointer -foptimize-sibling-calls
  45              	@ -foptimize-strlen -fpartial-inlining -fpeephole -fpeephole2 -fplt
  46              	@ -fprefetch-loop-arrays -freg-struct-return -freorder-blocks
  47              	@ -freorder-functions -frerun-cse-after-loop
  48              	@ -fsched-critical-path-heuristic -fsched-dep-count-heuristic
  49              	@ -fsched-group-heuristic -fsched-interblock -fsched-last-insn-heuristic
  50              	@ -fsched-pressure -fsched-rank-heuristic -fsched-spec
  51              	@ -fsched-spec-insn-heuristic -fsched-stalled-insns-dep -fschedule-insns2
  52              	@ -fsection-anchors -fsemantic-interposition -fshow-column -fshrink-wrap
  53              	@ -fsigned-zeros -fsplit-ivs-in-unroller -fsplit-wide-types -fssa-backprop
  54              	@ -fssa-phiopt -fstdarg-opt -fstrict-aliasing -fstrict-overflow
  55              	@ -fstrict-volatile-bitfields -fsync-libcalls -fthread-jumps
  56              	@ -ftoplevel-reorder -ftrapping-math -ftree-bit-ccp -ftree-builtin-call-dce
  57              	@ -ftree-ccp -ftree-ch -ftree-coalesce-vars -ftree-copy-prop -ftree-cselim
ARM GAS  /tmp/ccXw4jW7.s 			page 2


  58              	@ -ftree-dce -ftree-dominator-opts -ftree-dse -ftree-forwprop -ftree-fre
  59              	@ -ftree-loop-if-convert -ftree-loop-im -ftree-loop-ivcanon
  60              	@ -ftree-loop-optimize -ftree-parallelize-loops= -ftree-phiprop -ftree-pre
  61              	@ -ftree-pta -ftree-reassoc -ftree-scev-cprop -ftree-sink -ftree-slsr
  62              	@ -ftree-sra -ftree-switch-conversion -ftree-tail-merge -ftree-ter
  63              	@ -ftree-vrp -funit-at-a-time -fvar-tracking -fvar-tracking-assignments
  64              	@ -fverbose-asm -fzero-initialized-in-bss -mlittle-endian
  65              	@ -mpic-data-is-text-relative -msched-prolog -mthumb
  66              	@ -mvectorize-with-neon-quad
  67              	
  68              		.text
  69              	.Ltext0:
  70              		.cfi_sections	.debug_frame
  71              		.section	.text.Chip_I2C_EventHandler,"ax",%progbits
  72              		.align	1
  73              		.p2align 2,,3
  74              		.global	Chip_I2C_EventHandler
  75              		.syntax unified
  76              		.code	16
  77              		.thumb_func
  78              		.fpu softvfp
  79              		.type	Chip_I2C_EventHandler, %function
  80              	Chip_I2C_EventHandler:
  81              	.LFB212:
  82              		.file 1 "../../lpc11cx4-library/lpc_chip_11cxx_lib/src/i2c_11xx.c"
   1:../../lpc11cx4-library/lpc_chip_11cxx_lib/src/i2c_11xx.c **** /*
   2:../../lpc11cx4-library/lpc_chip_11cxx_lib/src/i2c_11xx.c ****  * @brief LPC11xx I2C driver
   3:../../lpc11cx4-library/lpc_chip_11cxx_lib/src/i2c_11xx.c ****  *
   4:../../lpc11cx4-library/lpc_chip_11cxx_lib/src/i2c_11xx.c ****  * @note
   5:../../lpc11cx4-library/lpc_chip_11cxx_lib/src/i2c_11xx.c ****  * Copyright(C) NXP Semiconductors, 2012
   6:../../lpc11cx4-library/lpc_chip_11cxx_lib/src/i2c_11xx.c ****  * All rights reserved.
   7:../../lpc11cx4-library/lpc_chip_11cxx_lib/src/i2c_11xx.c ****  *
   8:../../lpc11cx4-library/lpc_chip_11cxx_lib/src/i2c_11xx.c ****  * @par
   9:../../lpc11cx4-library/lpc_chip_11cxx_lib/src/i2c_11xx.c ****  * Software that is described herein is for illustrative purposes only
  10:../../lpc11cx4-library/lpc_chip_11cxx_lib/src/i2c_11xx.c ****  * which provides customers with programming information regarding the
  11:../../lpc11cx4-library/lpc_chip_11cxx_lib/src/i2c_11xx.c ****  * LPC products.  This software is supplied "AS IS" without any warranties of
  12:../../lpc11cx4-library/lpc_chip_11cxx_lib/src/i2c_11xx.c ****  * any kind, and NXP Semiconductors and its licensor disclaim any and
  13:../../lpc11cx4-library/lpc_chip_11cxx_lib/src/i2c_11xx.c ****  * all warranties, express or implied, including all implied warranties of
  14:../../lpc11cx4-library/lpc_chip_11cxx_lib/src/i2c_11xx.c ****  * merchantability, fitness for a particular purpose and non-infringement of
  15:../../lpc11cx4-library/lpc_chip_11cxx_lib/src/i2c_11xx.c ****  * intellectual property rights.  NXP Semiconductors assumes no responsibility
  16:../../lpc11cx4-library/lpc_chip_11cxx_lib/src/i2c_11xx.c ****  * or liability for the use of the software, conveys no license or rights under any
  17:../../lpc11cx4-library/lpc_chip_11cxx_lib/src/i2c_11xx.c ****  * patent, copyright, mask work right, or any other intellectual property rights in
  18:../../lpc11cx4-library/lpc_chip_11cxx_lib/src/i2c_11xx.c ****  * or to any products. NXP Semiconductors reserves the right to make changes
  19:../../lpc11cx4-library/lpc_chip_11cxx_lib/src/i2c_11xx.c ****  * in the software without notification. NXP Semiconductors also makes no
  20:../../lpc11cx4-library/lpc_chip_11cxx_lib/src/i2c_11xx.c ****  * representation or warranty that such application will be suitable for the
  21:../../lpc11cx4-library/lpc_chip_11cxx_lib/src/i2c_11xx.c ****  * specified use without further testing or modification.
  22:../../lpc11cx4-library/lpc_chip_11cxx_lib/src/i2c_11xx.c ****  *
  23:../../lpc11cx4-library/lpc_chip_11cxx_lib/src/i2c_11xx.c ****  * @par
  24:../../lpc11cx4-library/lpc_chip_11cxx_lib/src/i2c_11xx.c ****  * Permission to use, copy, modify, and distribute this software and its
  25:../../lpc11cx4-library/lpc_chip_11cxx_lib/src/i2c_11xx.c ****  * documentation is hereby granted, under NXP Semiconductors' and its
  26:../../lpc11cx4-library/lpc_chip_11cxx_lib/src/i2c_11xx.c ****  * licensor's relevant copyrights in the software, without fee, provided that it
  27:../../lpc11cx4-library/lpc_chip_11cxx_lib/src/i2c_11xx.c ****  * is used in conjunction with NXP Semiconductors microcontrollers.  This
  28:../../lpc11cx4-library/lpc_chip_11cxx_lib/src/i2c_11xx.c ****  * copyright, permission, and disclaimer notice must appear in all copies of
  29:../../lpc11cx4-library/lpc_chip_11cxx_lib/src/i2c_11xx.c ****  * this code.
  30:../../lpc11cx4-library/lpc_chip_11cxx_lib/src/i2c_11xx.c ****  */
  31:../../lpc11cx4-library/lpc_chip_11cxx_lib/src/i2c_11xx.c **** 
  32:../../lpc11cx4-library/lpc_chip_11cxx_lib/src/i2c_11xx.c **** #include "chip.h"
ARM GAS  /tmp/ccXw4jW7.s 			page 3


  33:../../lpc11cx4-library/lpc_chip_11cxx_lib/src/i2c_11xx.c **** 
  34:../../lpc11cx4-library/lpc_chip_11cxx_lib/src/i2c_11xx.c **** #if !defined(CHIP_LPC110X)
  35:../../lpc11cx4-library/lpc_chip_11cxx_lib/src/i2c_11xx.c **** 
  36:../../lpc11cx4-library/lpc_chip_11cxx_lib/src/i2c_11xx.c **** /*****************************************************************************
  37:../../lpc11cx4-library/lpc_chip_11cxx_lib/src/i2c_11xx.c ****  * Private types/enumerations/variables
  38:../../lpc11cx4-library/lpc_chip_11cxx_lib/src/i2c_11xx.c ****  ****************************************************************************/
  39:../../lpc11cx4-library/lpc_chip_11cxx_lib/src/i2c_11xx.c **** 
  40:../../lpc11cx4-library/lpc_chip_11cxx_lib/src/i2c_11xx.c **** /* Control flags */
  41:../../lpc11cx4-library/lpc_chip_11cxx_lib/src/i2c_11xx.c **** #define I2C_CON_FLAGS (I2C_CON_AA | I2C_CON_SI | I2C_CON_STO | I2C_CON_STA)
  42:../../lpc11cx4-library/lpc_chip_11cxx_lib/src/i2c_11xx.c **** #define LPC_I2Cx(id)      ((i2c.ip))
  43:../../lpc11cx4-library/lpc_chip_11cxx_lib/src/i2c_11xx.c **** #define SLAVE_ACTIVE(iic) (((iic)->flags & 0xFF00) != 0)
  44:../../lpc11cx4-library/lpc_chip_11cxx_lib/src/i2c_11xx.c **** 
  45:../../lpc11cx4-library/lpc_chip_11cxx_lib/src/i2c_11xx.c **** /* I2C common interface structure */
  46:../../lpc11cx4-library/lpc_chip_11cxx_lib/src/i2c_11xx.c **** struct i2c_interface {
  47:../../lpc11cx4-library/lpc_chip_11cxx_lib/src/i2c_11xx.c **** 	LPC_I2C_T *ip;		/* IP base address of the I2C device */
  48:../../lpc11cx4-library/lpc_chip_11cxx_lib/src/i2c_11xx.c **** 	CHIP_SYSCTL_CLOCK_T clk;	/* Clock used by I2C */
  49:../../lpc11cx4-library/lpc_chip_11cxx_lib/src/i2c_11xx.c **** 	I2C_EVENTHANDLER_T mEvent;	/* Current active Master event handler */
  50:../../lpc11cx4-library/lpc_chip_11cxx_lib/src/i2c_11xx.c **** 	I2C_EVENTHANDLER_T sEvent;	/* Slave transfer events */
  51:../../lpc11cx4-library/lpc_chip_11cxx_lib/src/i2c_11xx.c **** 	I2C_XFER_T *mXfer;	/* Current active xfer pointer */
  52:../../lpc11cx4-library/lpc_chip_11cxx_lib/src/i2c_11xx.c **** 	I2C_XFER_T *sXfer;	/* Pointer to store xfer when bus is busy */
  53:../../lpc11cx4-library/lpc_chip_11cxx_lib/src/i2c_11xx.c **** 	uint32_t flags;		/* Flags used by I2C master and slave */
  54:../../lpc11cx4-library/lpc_chip_11cxx_lib/src/i2c_11xx.c **** };
  55:../../lpc11cx4-library/lpc_chip_11cxx_lib/src/i2c_11xx.c **** 
  56:../../lpc11cx4-library/lpc_chip_11cxx_lib/src/i2c_11xx.c **** /* Slave interface structure */
  57:../../lpc11cx4-library/lpc_chip_11cxx_lib/src/i2c_11xx.c **** struct i2c_slave_interface {
  58:../../lpc11cx4-library/lpc_chip_11cxx_lib/src/i2c_11xx.c **** 	I2C_XFER_T *xfer;
  59:../../lpc11cx4-library/lpc_chip_11cxx_lib/src/i2c_11xx.c **** 	I2C_EVENTHANDLER_T event;
  60:../../lpc11cx4-library/lpc_chip_11cxx_lib/src/i2c_11xx.c **** };
  61:../../lpc11cx4-library/lpc_chip_11cxx_lib/src/i2c_11xx.c **** 
  62:../../lpc11cx4-library/lpc_chip_11cxx_lib/src/i2c_11xx.c **** /* I2C interfaces */
  63:../../lpc11cx4-library/lpc_chip_11cxx_lib/src/i2c_11xx.c **** static struct i2c_interface i2c = 
  64:../../lpc11cx4-library/lpc_chip_11cxx_lib/src/i2c_11xx.c **** 	{LPC_I2C, SYSCTL_CLOCK_I2C, Chip_I2C_EventHandler, NULL, NULL, NULL, 0};
  65:../../lpc11cx4-library/lpc_chip_11cxx_lib/src/i2c_11xx.c **** 
  66:../../lpc11cx4-library/lpc_chip_11cxx_lib/src/i2c_11xx.c **** static struct i2c_slave_interface i2c_slave[I2C_NUM_INTERFACE][I2C_SLAVE_NUM_INTERFACE];
  67:../../lpc11cx4-library/lpc_chip_11cxx_lib/src/i2c_11xx.c **** 
  68:../../lpc11cx4-library/lpc_chip_11cxx_lib/src/i2c_11xx.c **** /*****************************************************************************
  69:../../lpc11cx4-library/lpc_chip_11cxx_lib/src/i2c_11xx.c ****  * Public types/enumerations/variables
  70:../../lpc11cx4-library/lpc_chip_11cxx_lib/src/i2c_11xx.c ****  ****************************************************************************/
  71:../../lpc11cx4-library/lpc_chip_11cxx_lib/src/i2c_11xx.c **** 
  72:../../lpc11cx4-library/lpc_chip_11cxx_lib/src/i2c_11xx.c **** /*****************************************************************************
  73:../../lpc11cx4-library/lpc_chip_11cxx_lib/src/i2c_11xx.c ****  * Private functions
  74:../../lpc11cx4-library/lpc_chip_11cxx_lib/src/i2c_11xx.c ****  ****************************************************************************/
  75:../../lpc11cx4-library/lpc_chip_11cxx_lib/src/i2c_11xx.c ****  
  76:../../lpc11cx4-library/lpc_chip_11cxx_lib/src/i2c_11xx.c **** STATIC INLINE void enableClk(I2C_ID_T id)
  77:../../lpc11cx4-library/lpc_chip_11cxx_lib/src/i2c_11xx.c **** {
  78:../../lpc11cx4-library/lpc_chip_11cxx_lib/src/i2c_11xx.c **** 	UNUSED(id);
  79:../../lpc11cx4-library/lpc_chip_11cxx_lib/src/i2c_11xx.c **** 	Chip_Clock_EnablePeriphClock(i2c.clk);
  80:../../lpc11cx4-library/lpc_chip_11cxx_lib/src/i2c_11xx.c **** }
  81:../../lpc11cx4-library/lpc_chip_11cxx_lib/src/i2c_11xx.c **** 
  82:../../lpc11cx4-library/lpc_chip_11cxx_lib/src/i2c_11xx.c **** STATIC INLINE void disableClk(I2C_ID_T id)
  83:../../lpc11cx4-library/lpc_chip_11cxx_lib/src/i2c_11xx.c **** {
  84:../../lpc11cx4-library/lpc_chip_11cxx_lib/src/i2c_11xx.c **** 	UNUSED(id);
  85:../../lpc11cx4-library/lpc_chip_11cxx_lib/src/i2c_11xx.c **** 	Chip_Clock_DisablePeriphClock(i2c.clk);
  86:../../lpc11cx4-library/lpc_chip_11cxx_lib/src/i2c_11xx.c **** }
  87:../../lpc11cx4-library/lpc_chip_11cxx_lib/src/i2c_11xx.c **** 
  88:../../lpc11cx4-library/lpc_chip_11cxx_lib/src/i2c_11xx.c **** /* Get the ADC Clock Rate */
  89:../../lpc11cx4-library/lpc_chip_11cxx_lib/src/i2c_11xx.c **** STATIC INLINE uint32_t getClkRate(void)
ARM GAS  /tmp/ccXw4jW7.s 			page 4


  90:../../lpc11cx4-library/lpc_chip_11cxx_lib/src/i2c_11xx.c **** {
  91:../../lpc11cx4-library/lpc_chip_11cxx_lib/src/i2c_11xx.c **** 	// return Chip_Clock_GetMainClockRate();
  92:../../lpc11cx4-library/lpc_chip_11cxx_lib/src/i2c_11xx.c **** 	return SystemCoreClock;
  93:../../lpc11cx4-library/lpc_chip_11cxx_lib/src/i2c_11xx.c **** }
  94:../../lpc11cx4-library/lpc_chip_11cxx_lib/src/i2c_11xx.c **** 
  95:../../lpc11cx4-library/lpc_chip_11cxx_lib/src/i2c_11xx.c **** /* Enable I2C and start master transfer */
  96:../../lpc11cx4-library/lpc_chip_11cxx_lib/src/i2c_11xx.c **** STATIC INLINE void startMasterXfer(LPC_I2C_T *pI2C)
  97:../../lpc11cx4-library/lpc_chip_11cxx_lib/src/i2c_11xx.c **** {
  98:../../lpc11cx4-library/lpc_chip_11cxx_lib/src/i2c_11xx.c **** 	/* Reset STA, STO, SI */
  99:../../lpc11cx4-library/lpc_chip_11cxx_lib/src/i2c_11xx.c **** 	pI2C->CONCLR = I2C_CON_SI | I2C_CON_STO | I2C_CON_STA | I2C_CON_AA;
 100:../../lpc11cx4-library/lpc_chip_11cxx_lib/src/i2c_11xx.c **** 
 101:../../lpc11cx4-library/lpc_chip_11cxx_lib/src/i2c_11xx.c **** 	/* Enter to Master Transmitter mode */
 102:../../lpc11cx4-library/lpc_chip_11cxx_lib/src/i2c_11xx.c **** 	pI2C->CONSET = I2C_CON_I2EN | I2C_CON_STA;
 103:../../lpc11cx4-library/lpc_chip_11cxx_lib/src/i2c_11xx.c **** }
 104:../../lpc11cx4-library/lpc_chip_11cxx_lib/src/i2c_11xx.c **** 
 105:../../lpc11cx4-library/lpc_chip_11cxx_lib/src/i2c_11xx.c **** /* Enable I2C and enable slave transfers */
 106:../../lpc11cx4-library/lpc_chip_11cxx_lib/src/i2c_11xx.c **** STATIC INLINE void startSlaverXfer(LPC_I2C_T *pI2C)
 107:../../lpc11cx4-library/lpc_chip_11cxx_lib/src/i2c_11xx.c **** {
 108:../../lpc11cx4-library/lpc_chip_11cxx_lib/src/i2c_11xx.c **** 	/* Reset STA, STO, SI */
 109:../../lpc11cx4-library/lpc_chip_11cxx_lib/src/i2c_11xx.c **** 	pI2C->CONCLR = I2C_CON_SI | I2C_CON_STO | I2C_CON_STA;
 110:../../lpc11cx4-library/lpc_chip_11cxx_lib/src/i2c_11xx.c **** 
 111:../../lpc11cx4-library/lpc_chip_11cxx_lib/src/i2c_11xx.c **** 	/* Enter to Master Transmitter mode */
 112:../../lpc11cx4-library/lpc_chip_11cxx_lib/src/i2c_11xx.c **** 	pI2C->CONSET = I2C_CON_I2EN | I2C_CON_AA;
 113:../../lpc11cx4-library/lpc_chip_11cxx_lib/src/i2c_11xx.c **** }
 114:../../lpc11cx4-library/lpc_chip_11cxx_lib/src/i2c_11xx.c **** 
 115:../../lpc11cx4-library/lpc_chip_11cxx_lib/src/i2c_11xx.c **** /* Check if I2C bus is free */
 116:../../lpc11cx4-library/lpc_chip_11cxx_lib/src/i2c_11xx.c **** STATIC INLINE int isI2CBusFree(LPC_I2C_T *pI2C)
 117:../../lpc11cx4-library/lpc_chip_11cxx_lib/src/i2c_11xx.c **** {
 118:../../lpc11cx4-library/lpc_chip_11cxx_lib/src/i2c_11xx.c **** 	return !(pI2C->CONSET & I2C_CON_STO);
 119:../../lpc11cx4-library/lpc_chip_11cxx_lib/src/i2c_11xx.c **** }
 120:../../lpc11cx4-library/lpc_chip_11cxx_lib/src/i2c_11xx.c **** 
 121:../../lpc11cx4-library/lpc_chip_11cxx_lib/src/i2c_11xx.c **** /* Get current state of the I2C peripheral */
 122:../../lpc11cx4-library/lpc_chip_11cxx_lib/src/i2c_11xx.c **** STATIC INLINE int getCurState(LPC_I2C_T *pI2C)
 123:../../lpc11cx4-library/lpc_chip_11cxx_lib/src/i2c_11xx.c **** {
 124:../../lpc11cx4-library/lpc_chip_11cxx_lib/src/i2c_11xx.c **** 	return (int) (pI2C->STAT & I2C_STAT_CODE_BITMASK);
 125:../../lpc11cx4-library/lpc_chip_11cxx_lib/src/i2c_11xx.c **** }
 126:../../lpc11cx4-library/lpc_chip_11cxx_lib/src/i2c_11xx.c **** 
 127:../../lpc11cx4-library/lpc_chip_11cxx_lib/src/i2c_11xx.c **** /* Check if the active state belongs to master mode*/
 128:../../lpc11cx4-library/lpc_chip_11cxx_lib/src/i2c_11xx.c **** STATIC INLINE int isMasterState(LPC_I2C_T *pI2C)
 129:../../lpc11cx4-library/lpc_chip_11cxx_lib/src/i2c_11xx.c **** {
 130:../../lpc11cx4-library/lpc_chip_11cxx_lib/src/i2c_11xx.c **** 	return getCurState(pI2C) < 0x60;
 131:../../lpc11cx4-library/lpc_chip_11cxx_lib/src/i2c_11xx.c **** }
 132:../../lpc11cx4-library/lpc_chip_11cxx_lib/src/i2c_11xx.c **** 
 133:../../lpc11cx4-library/lpc_chip_11cxx_lib/src/i2c_11xx.c **** /* Set OWN slave address for specific slave ID */
 134:../../lpc11cx4-library/lpc_chip_11cxx_lib/src/i2c_11xx.c **** STATIC void setSlaveAddr(LPC_I2C_T *pI2C, I2C_SLAVE_ID sid, uint8_t addr, uint8_t mask)
 135:../../lpc11cx4-library/lpc_chip_11cxx_lib/src/i2c_11xx.c **** {
 136:../../lpc11cx4-library/lpc_chip_11cxx_lib/src/i2c_11xx.c **** 	uint32_t index = (uint32_t) sid - 1;
 137:../../lpc11cx4-library/lpc_chip_11cxx_lib/src/i2c_11xx.c **** 	pI2C->MASK[index] = mask;
 138:../../lpc11cx4-library/lpc_chip_11cxx_lib/src/i2c_11xx.c **** 	if (sid == I2C_SLAVE_0) {
 139:../../lpc11cx4-library/lpc_chip_11cxx_lib/src/i2c_11xx.c **** 		pI2C->ADR0 = addr;
 140:../../lpc11cx4-library/lpc_chip_11cxx_lib/src/i2c_11xx.c **** 	}
 141:../../lpc11cx4-library/lpc_chip_11cxx_lib/src/i2c_11xx.c **** 	else {
 142:../../lpc11cx4-library/lpc_chip_11cxx_lib/src/i2c_11xx.c **** 		volatile uint32_t *abase = &pI2C->ADR1;
 143:../../lpc11cx4-library/lpc_chip_11cxx_lib/src/i2c_11xx.c **** 		abase[index - 1] = addr;
 144:../../lpc11cx4-library/lpc_chip_11cxx_lib/src/i2c_11xx.c **** 	}
 145:../../lpc11cx4-library/lpc_chip_11cxx_lib/src/i2c_11xx.c **** }
 146:../../lpc11cx4-library/lpc_chip_11cxx_lib/src/i2c_11xx.c **** 
ARM GAS  /tmp/ccXw4jW7.s 			page 5


 147:../../lpc11cx4-library/lpc_chip_11cxx_lib/src/i2c_11xx.c **** /* Match the slave address */
 148:../../lpc11cx4-library/lpc_chip_11cxx_lib/src/i2c_11xx.c **** STATIC int isSlaveAddrMatching(uint8_t addr1, uint8_t addr2, uint8_t mask)
 149:../../lpc11cx4-library/lpc_chip_11cxx_lib/src/i2c_11xx.c **** {
 150:../../lpc11cx4-library/lpc_chip_11cxx_lib/src/i2c_11xx.c **** 	mask |= 1;
 151:../../lpc11cx4-library/lpc_chip_11cxx_lib/src/i2c_11xx.c **** 	return (addr1 & ~mask) == (addr2 & ~mask);
 152:../../lpc11cx4-library/lpc_chip_11cxx_lib/src/i2c_11xx.c **** }
 153:../../lpc11cx4-library/lpc_chip_11cxx_lib/src/i2c_11xx.c **** 
 154:../../lpc11cx4-library/lpc_chip_11cxx_lib/src/i2c_11xx.c **** /* Get the index of the active slave */
 155:../../lpc11cx4-library/lpc_chip_11cxx_lib/src/i2c_11xx.c **** STATIC I2C_SLAVE_ID lookupSlaveIndex(LPC_I2C_T *pI2C, uint8_t slaveAddr)
 156:../../lpc11cx4-library/lpc_chip_11cxx_lib/src/i2c_11xx.c **** {
 157:../../lpc11cx4-library/lpc_chip_11cxx_lib/src/i2c_11xx.c **** 	if (!(slaveAddr >> 1)) {
 158:../../lpc11cx4-library/lpc_chip_11cxx_lib/src/i2c_11xx.c **** 		return I2C_SLAVE_GENERAL;					/* General call address */
 159:../../lpc11cx4-library/lpc_chip_11cxx_lib/src/i2c_11xx.c **** 	}
 160:../../lpc11cx4-library/lpc_chip_11cxx_lib/src/i2c_11xx.c **** 	if (isSlaveAddrMatching(pI2C->ADR0, slaveAddr, pI2C->MASK[0])) {
 161:../../lpc11cx4-library/lpc_chip_11cxx_lib/src/i2c_11xx.c **** 		return I2C_SLAVE_0;
 162:../../lpc11cx4-library/lpc_chip_11cxx_lib/src/i2c_11xx.c **** 	}
 163:../../lpc11cx4-library/lpc_chip_11cxx_lib/src/i2c_11xx.c **** 	if (isSlaveAddrMatching(pI2C->ADR1, slaveAddr, pI2C->MASK[1])) {
 164:../../lpc11cx4-library/lpc_chip_11cxx_lib/src/i2c_11xx.c **** 		return I2C_SLAVE_1;
 165:../../lpc11cx4-library/lpc_chip_11cxx_lib/src/i2c_11xx.c **** 	}
 166:../../lpc11cx4-library/lpc_chip_11cxx_lib/src/i2c_11xx.c **** 	if (isSlaveAddrMatching(pI2C->ADR2, slaveAddr, pI2C->MASK[2])) {
 167:../../lpc11cx4-library/lpc_chip_11cxx_lib/src/i2c_11xx.c **** 		return I2C_SLAVE_2;
 168:../../lpc11cx4-library/lpc_chip_11cxx_lib/src/i2c_11xx.c **** 	}
 169:../../lpc11cx4-library/lpc_chip_11cxx_lib/src/i2c_11xx.c **** 	if (isSlaveAddrMatching(pI2C->ADR3, slaveAddr, pI2C->MASK[3])) {
 170:../../lpc11cx4-library/lpc_chip_11cxx_lib/src/i2c_11xx.c **** 		return I2C_SLAVE_3;
 171:../../lpc11cx4-library/lpc_chip_11cxx_lib/src/i2c_11xx.c **** 	}
 172:../../lpc11cx4-library/lpc_chip_11cxx_lib/src/i2c_11xx.c **** 
 173:../../lpc11cx4-library/lpc_chip_11cxx_lib/src/i2c_11xx.c **** 	/* If everything is fine the code should never come here */
 174:../../lpc11cx4-library/lpc_chip_11cxx_lib/src/i2c_11xx.c **** 	return I2C_SLAVE_GENERAL;
 175:../../lpc11cx4-library/lpc_chip_11cxx_lib/src/i2c_11xx.c **** }
 176:../../lpc11cx4-library/lpc_chip_11cxx_lib/src/i2c_11xx.c **** 
 177:../../lpc11cx4-library/lpc_chip_11cxx_lib/src/i2c_11xx.c **** /* Master transfer state change handler handler */
 178:../../lpc11cx4-library/lpc_chip_11cxx_lib/src/i2c_11xx.c **** int handleMasterXferState(LPC_I2C_T *pI2C, I2C_XFER_T  *xfer)
 179:../../lpc11cx4-library/lpc_chip_11cxx_lib/src/i2c_11xx.c **** {
 180:../../lpc11cx4-library/lpc_chip_11cxx_lib/src/i2c_11xx.c **** 	uint32_t cclr = I2C_CON_FLAGS;
 181:../../lpc11cx4-library/lpc_chip_11cxx_lib/src/i2c_11xx.c **** 	switch (getCurState(pI2C)) {
 182:../../lpc11cx4-library/lpc_chip_11cxx_lib/src/i2c_11xx.c **** 	case 0x08:		/* Start condition on bus */
 183:../../lpc11cx4-library/lpc_chip_11cxx_lib/src/i2c_11xx.c **** 	case 0x10:		/* Repeated start condition */
 184:../../lpc11cx4-library/lpc_chip_11cxx_lib/src/i2c_11xx.c **** 		pI2C->DAT = (xfer->slaveAddr << 1) | (xfer->txSz == 0);
 185:../../lpc11cx4-library/lpc_chip_11cxx_lib/src/i2c_11xx.c **** 		break;
 186:../../lpc11cx4-library/lpc_chip_11cxx_lib/src/i2c_11xx.c **** 
 187:../../lpc11cx4-library/lpc_chip_11cxx_lib/src/i2c_11xx.c **** 	/* Tx handling */
 188:../../lpc11cx4-library/lpc_chip_11cxx_lib/src/i2c_11xx.c **** 	case 0x18:		/* SLA+W sent and ACK received */
 189:../../lpc11cx4-library/lpc_chip_11cxx_lib/src/i2c_11xx.c **** 	case 0x28:		/* DATA sent and ACK received */
 190:../../lpc11cx4-library/lpc_chip_11cxx_lib/src/i2c_11xx.c **** 		if (!xfer->txSz) {
 191:../../lpc11cx4-library/lpc_chip_11cxx_lib/src/i2c_11xx.c **** 			cclr &= ~(xfer->rxSz ? I2C_CON_STA : I2C_CON_STO);
 192:../../lpc11cx4-library/lpc_chip_11cxx_lib/src/i2c_11xx.c **** 		}
 193:../../lpc11cx4-library/lpc_chip_11cxx_lib/src/i2c_11xx.c **** 		else {
 194:../../lpc11cx4-library/lpc_chip_11cxx_lib/src/i2c_11xx.c **** 			pI2C->DAT = *xfer->txBuff++;
 195:../../lpc11cx4-library/lpc_chip_11cxx_lib/src/i2c_11xx.c **** 			xfer->txSz--;
 196:../../lpc11cx4-library/lpc_chip_11cxx_lib/src/i2c_11xx.c **** 		}
 197:../../lpc11cx4-library/lpc_chip_11cxx_lib/src/i2c_11xx.c **** 		break;
 198:../../lpc11cx4-library/lpc_chip_11cxx_lib/src/i2c_11xx.c **** 
 199:../../lpc11cx4-library/lpc_chip_11cxx_lib/src/i2c_11xx.c **** 	/* Rx handling */
 200:../../lpc11cx4-library/lpc_chip_11cxx_lib/src/i2c_11xx.c **** 	case 0x58:		/* Data Received and NACK sent */
 201:../../lpc11cx4-library/lpc_chip_11cxx_lib/src/i2c_11xx.c **** 		cclr &= ~I2C_CON_STO;
 202:../../lpc11cx4-library/lpc_chip_11cxx_lib/src/i2c_11xx.c **** 
 203:../../lpc11cx4-library/lpc_chip_11cxx_lib/src/i2c_11xx.c **** 	case 0x50:		/* Data Received and ACK sent */
ARM GAS  /tmp/ccXw4jW7.s 			page 6


 204:../../lpc11cx4-library/lpc_chip_11cxx_lib/src/i2c_11xx.c **** 		*xfer->rxBuff++ = pI2C->DAT;
 205:../../lpc11cx4-library/lpc_chip_11cxx_lib/src/i2c_11xx.c **** 		xfer->rxSz--;
 206:../../lpc11cx4-library/lpc_chip_11cxx_lib/src/i2c_11xx.c **** 
 207:../../lpc11cx4-library/lpc_chip_11cxx_lib/src/i2c_11xx.c **** 	case 0x40:		/* SLA+R sent and ACK received */
 208:../../lpc11cx4-library/lpc_chip_11cxx_lib/src/i2c_11xx.c **** 		if (xfer->rxSz > 1) {
 209:../../lpc11cx4-library/lpc_chip_11cxx_lib/src/i2c_11xx.c **** 			cclr &= ~I2C_CON_AA;
 210:../../lpc11cx4-library/lpc_chip_11cxx_lib/src/i2c_11xx.c **** 		}
 211:../../lpc11cx4-library/lpc_chip_11cxx_lib/src/i2c_11xx.c **** 		break;
 212:../../lpc11cx4-library/lpc_chip_11cxx_lib/src/i2c_11xx.c **** 
 213:../../lpc11cx4-library/lpc_chip_11cxx_lib/src/i2c_11xx.c **** 	/* NAK Handling */
 214:../../lpc11cx4-library/lpc_chip_11cxx_lib/src/i2c_11xx.c **** 	case 0x20:		/* SLA+W sent NAK received */
 215:../../lpc11cx4-library/lpc_chip_11cxx_lib/src/i2c_11xx.c **** 	case 0x30:		/* DATA sent NAK received */
 216:../../lpc11cx4-library/lpc_chip_11cxx_lib/src/i2c_11xx.c **** 	case 0x48:		/* SLA+R sent NAK received */
 217:../../lpc11cx4-library/lpc_chip_11cxx_lib/src/i2c_11xx.c **** 		xfer->status = I2C_STATUS_NAK;
 218:../../lpc11cx4-library/lpc_chip_11cxx_lib/src/i2c_11xx.c **** 		cclr &= ~I2C_CON_STO;
 219:../../lpc11cx4-library/lpc_chip_11cxx_lib/src/i2c_11xx.c **** 		break;
 220:../../lpc11cx4-library/lpc_chip_11cxx_lib/src/i2c_11xx.c **** 
 221:../../lpc11cx4-library/lpc_chip_11cxx_lib/src/i2c_11xx.c **** 	case 0x38:		/* Arbitration lost */
 222:../../lpc11cx4-library/lpc_chip_11cxx_lib/src/i2c_11xx.c **** 		xfer->status = I2C_STATUS_ARBLOST;
 223:../../lpc11cx4-library/lpc_chip_11cxx_lib/src/i2c_11xx.c **** 		break;
 224:../../lpc11cx4-library/lpc_chip_11cxx_lib/src/i2c_11xx.c **** 
 225:../../lpc11cx4-library/lpc_chip_11cxx_lib/src/i2c_11xx.c **** 	/* Bus Error */
 226:../../lpc11cx4-library/lpc_chip_11cxx_lib/src/i2c_11xx.c **** 	case 0x00:
 227:../../lpc11cx4-library/lpc_chip_11cxx_lib/src/i2c_11xx.c **** 		xfer->status = I2C_STATUS_BUSERR;
 228:../../lpc11cx4-library/lpc_chip_11cxx_lib/src/i2c_11xx.c **** 		cclr &= ~I2C_CON_STO;
 229:../../lpc11cx4-library/lpc_chip_11cxx_lib/src/i2c_11xx.c **** 	}
 230:../../lpc11cx4-library/lpc_chip_11cxx_lib/src/i2c_11xx.c **** 
 231:../../lpc11cx4-library/lpc_chip_11cxx_lib/src/i2c_11xx.c **** 
 232:../../lpc11cx4-library/lpc_chip_11cxx_lib/src/i2c_11xx.c **** 	/* Set clear control flags */
 233:../../lpc11cx4-library/lpc_chip_11cxx_lib/src/i2c_11xx.c **** 	pI2C->CONSET = cclr ^ I2C_CON_FLAGS;
 234:../../lpc11cx4-library/lpc_chip_11cxx_lib/src/i2c_11xx.c **** 	pI2C->CONCLR = cclr;
 235:../../lpc11cx4-library/lpc_chip_11cxx_lib/src/i2c_11xx.c **** 
 236:../../lpc11cx4-library/lpc_chip_11cxx_lib/src/i2c_11xx.c **** 	/* If stopped return 0 */
 237:../../lpc11cx4-library/lpc_chip_11cxx_lib/src/i2c_11xx.c **** 	if (!(cclr & I2C_CON_STO) || (xfer->status == I2C_STATUS_ARBLOST)) {
 238:../../lpc11cx4-library/lpc_chip_11cxx_lib/src/i2c_11xx.c **** 		if (xfer->status == I2C_STATUS_BUSY) {
 239:../../lpc11cx4-library/lpc_chip_11cxx_lib/src/i2c_11xx.c **** 			xfer->status = I2C_STATUS_DONE;
 240:../../lpc11cx4-library/lpc_chip_11cxx_lib/src/i2c_11xx.c **** 		}
 241:../../lpc11cx4-library/lpc_chip_11cxx_lib/src/i2c_11xx.c **** 		return 0;
 242:../../lpc11cx4-library/lpc_chip_11cxx_lib/src/i2c_11xx.c **** 	}
 243:../../lpc11cx4-library/lpc_chip_11cxx_lib/src/i2c_11xx.c **** 	return 1;
 244:../../lpc11cx4-library/lpc_chip_11cxx_lib/src/i2c_11xx.c **** }
 245:../../lpc11cx4-library/lpc_chip_11cxx_lib/src/i2c_11xx.c **** 
 246:../../lpc11cx4-library/lpc_chip_11cxx_lib/src/i2c_11xx.c **** /* Find the slave address of SLA+W or SLA+R */
 247:../../lpc11cx4-library/lpc_chip_11cxx_lib/src/i2c_11xx.c **** I2C_SLAVE_ID getSlaveIndex(LPC_I2C_T *pI2C)
 248:../../lpc11cx4-library/lpc_chip_11cxx_lib/src/i2c_11xx.c **** {
 249:../../lpc11cx4-library/lpc_chip_11cxx_lib/src/i2c_11xx.c **** 	switch (getCurState(pI2C)) {
 250:../../lpc11cx4-library/lpc_chip_11cxx_lib/src/i2c_11xx.c **** 	case 0x60:
 251:../../lpc11cx4-library/lpc_chip_11cxx_lib/src/i2c_11xx.c **** 	case 0x68:
 252:../../lpc11cx4-library/lpc_chip_11cxx_lib/src/i2c_11xx.c **** 	case 0x70:
 253:../../lpc11cx4-library/lpc_chip_11cxx_lib/src/i2c_11xx.c **** 	case 0x78:
 254:../../lpc11cx4-library/lpc_chip_11cxx_lib/src/i2c_11xx.c **** 	case 0xA8:
 255:../../lpc11cx4-library/lpc_chip_11cxx_lib/src/i2c_11xx.c **** 	case 0xB0:
 256:../../lpc11cx4-library/lpc_chip_11cxx_lib/src/i2c_11xx.c **** 		return lookupSlaveIndex(pI2C, pI2C->DAT);
 257:../../lpc11cx4-library/lpc_chip_11cxx_lib/src/i2c_11xx.c **** 	}
 258:../../lpc11cx4-library/lpc_chip_11cxx_lib/src/i2c_11xx.c **** 
 259:../../lpc11cx4-library/lpc_chip_11cxx_lib/src/i2c_11xx.c **** 	/* If everything is fine code should never come here */
 260:../../lpc11cx4-library/lpc_chip_11cxx_lib/src/i2c_11xx.c **** 	return I2C_SLAVE_GENERAL;
ARM GAS  /tmp/ccXw4jW7.s 			page 7


 261:../../lpc11cx4-library/lpc_chip_11cxx_lib/src/i2c_11xx.c **** }
 262:../../lpc11cx4-library/lpc_chip_11cxx_lib/src/i2c_11xx.c **** 
 263:../../lpc11cx4-library/lpc_chip_11cxx_lib/src/i2c_11xx.c **** /* Slave state machine handler */
 264:../../lpc11cx4-library/lpc_chip_11cxx_lib/src/i2c_11xx.c **** int handleSlaveXferState(LPC_I2C_T *pI2C, I2C_XFER_T *xfer)
 265:../../lpc11cx4-library/lpc_chip_11cxx_lib/src/i2c_11xx.c **** {
 266:../../lpc11cx4-library/lpc_chip_11cxx_lib/src/i2c_11xx.c **** 	uint32_t cclr = I2C_CON_FLAGS;
 267:../../lpc11cx4-library/lpc_chip_11cxx_lib/src/i2c_11xx.c **** 	int ret = RET_SLAVE_BUSY;
 268:../../lpc11cx4-library/lpc_chip_11cxx_lib/src/i2c_11xx.c **** 
 269:../../lpc11cx4-library/lpc_chip_11cxx_lib/src/i2c_11xx.c **** 	xfer->status = I2C_STATUS_BUSY;
 270:../../lpc11cx4-library/lpc_chip_11cxx_lib/src/i2c_11xx.c **** 	switch (getCurState(pI2C)) {
 271:../../lpc11cx4-library/lpc_chip_11cxx_lib/src/i2c_11xx.c **** 	case 0x80:		/* SLA: Data received + ACK sent */
 272:../../lpc11cx4-library/lpc_chip_11cxx_lib/src/i2c_11xx.c **** 	case 0x90:		/* GC: Data received + ACK sent */
 273:../../lpc11cx4-library/lpc_chip_11cxx_lib/src/i2c_11xx.c **** 		*xfer->rxBuff++ = pI2C->DAT;
 274:../../lpc11cx4-library/lpc_chip_11cxx_lib/src/i2c_11xx.c **** 		xfer->rxSz--;
 275:../../lpc11cx4-library/lpc_chip_11cxx_lib/src/i2c_11xx.c **** 		ret = RET_SLAVE_RX;
 276:../../lpc11cx4-library/lpc_chip_11cxx_lib/src/i2c_11xx.c **** 		if (xfer->rxSz > 1) {
 277:../../lpc11cx4-library/lpc_chip_11cxx_lib/src/i2c_11xx.c **** 			cclr &= ~I2C_CON_AA;
 278:../../lpc11cx4-library/lpc_chip_11cxx_lib/src/i2c_11xx.c **** 		}
 279:../../lpc11cx4-library/lpc_chip_11cxx_lib/src/i2c_11xx.c **** 		break;
 280:../../lpc11cx4-library/lpc_chip_11cxx_lib/src/i2c_11xx.c **** 
 281:../../lpc11cx4-library/lpc_chip_11cxx_lib/src/i2c_11xx.c **** 	case 0x60:		/* Own SLA+W received */
 282:../../lpc11cx4-library/lpc_chip_11cxx_lib/src/i2c_11xx.c **** 	case 0x68:		/* Own SLA+W received after losing arbitration */
 283:../../lpc11cx4-library/lpc_chip_11cxx_lib/src/i2c_11xx.c **** 	case 0x70:		/* GC+W received */
 284:../../lpc11cx4-library/lpc_chip_11cxx_lib/src/i2c_11xx.c **** 	case 0x78:		/* GC+W received after losing arbitration */
 285:../../lpc11cx4-library/lpc_chip_11cxx_lib/src/i2c_11xx.c **** 		xfer->slaveAddr = pI2C->DAT & ~1;
 286:../../lpc11cx4-library/lpc_chip_11cxx_lib/src/i2c_11xx.c **** 		if (xfer->rxSz > 1) {
 287:../../lpc11cx4-library/lpc_chip_11cxx_lib/src/i2c_11xx.c **** 			cclr &= ~I2C_CON_AA;
 288:../../lpc11cx4-library/lpc_chip_11cxx_lib/src/i2c_11xx.c **** 		}
 289:../../lpc11cx4-library/lpc_chip_11cxx_lib/src/i2c_11xx.c **** 		break;
 290:../../lpc11cx4-library/lpc_chip_11cxx_lib/src/i2c_11xx.c **** 
 291:../../lpc11cx4-library/lpc_chip_11cxx_lib/src/i2c_11xx.c **** 	case 0xA8:		/* SLA+R received */
 292:../../lpc11cx4-library/lpc_chip_11cxx_lib/src/i2c_11xx.c **** 	case 0xB0:		/* SLA+R received after losing arbitration */
 293:../../lpc11cx4-library/lpc_chip_11cxx_lib/src/i2c_11xx.c **** 		xfer->slaveAddr = pI2C->DAT & ~1;
 294:../../lpc11cx4-library/lpc_chip_11cxx_lib/src/i2c_11xx.c **** 
 295:../../lpc11cx4-library/lpc_chip_11cxx_lib/src/i2c_11xx.c **** 	case 0xB8:		/* DATA sent and ACK received */
 296:../../lpc11cx4-library/lpc_chip_11cxx_lib/src/i2c_11xx.c **** 		pI2C->DAT = *xfer->txBuff++;
 297:../../lpc11cx4-library/lpc_chip_11cxx_lib/src/i2c_11xx.c **** 		xfer->txSz--;
 298:../../lpc11cx4-library/lpc_chip_11cxx_lib/src/i2c_11xx.c **** 		if (xfer->txSz > 0) {
 299:../../lpc11cx4-library/lpc_chip_11cxx_lib/src/i2c_11xx.c **** 			cclr &= ~I2C_CON_AA;
 300:../../lpc11cx4-library/lpc_chip_11cxx_lib/src/i2c_11xx.c **** 		}
 301:../../lpc11cx4-library/lpc_chip_11cxx_lib/src/i2c_11xx.c **** 		ret = RET_SLAVE_TX;
 302:../../lpc11cx4-library/lpc_chip_11cxx_lib/src/i2c_11xx.c **** 		break;
 303:../../lpc11cx4-library/lpc_chip_11cxx_lib/src/i2c_11xx.c **** 
 304:../../lpc11cx4-library/lpc_chip_11cxx_lib/src/i2c_11xx.c **** 	case 0xC0:		/* Data transmitted and NAK received */
 305:../../lpc11cx4-library/lpc_chip_11cxx_lib/src/i2c_11xx.c **** 	case 0xC8:		/* Last data transmitted and ACK received */
 306:../../lpc11cx4-library/lpc_chip_11cxx_lib/src/i2c_11xx.c **** 	case 0x88:		/* SLA: Data received + NAK sent */
 307:../../lpc11cx4-library/lpc_chip_11cxx_lib/src/i2c_11xx.c **** 	case 0x98:		/* GC: Data received + NAK sent */
 308:../../lpc11cx4-library/lpc_chip_11cxx_lib/src/i2c_11xx.c **** 	case 0xA0:		/* STOP/Repeated START condition received */
 309:../../lpc11cx4-library/lpc_chip_11cxx_lib/src/i2c_11xx.c **** 		ret = RET_SLAVE_IDLE;
 310:../../lpc11cx4-library/lpc_chip_11cxx_lib/src/i2c_11xx.c **** 		cclr &= ~I2C_CON_AA;
 311:../../lpc11cx4-library/lpc_chip_11cxx_lib/src/i2c_11xx.c **** 		xfer->status = I2C_STATUS_DONE;
 312:../../lpc11cx4-library/lpc_chip_11cxx_lib/src/i2c_11xx.c **** 		if (xfer->slaveAddr & 1) {
 313:../../lpc11cx4-library/lpc_chip_11cxx_lib/src/i2c_11xx.c **** 			cclr &= ~I2C_CON_STA;
 314:../../lpc11cx4-library/lpc_chip_11cxx_lib/src/i2c_11xx.c **** 		}
 315:../../lpc11cx4-library/lpc_chip_11cxx_lib/src/i2c_11xx.c **** 		break;
 316:../../lpc11cx4-library/lpc_chip_11cxx_lib/src/i2c_11xx.c **** 	}
 317:../../lpc11cx4-library/lpc_chip_11cxx_lib/src/i2c_11xx.c **** 
ARM GAS  /tmp/ccXw4jW7.s 			page 8


 318:../../lpc11cx4-library/lpc_chip_11cxx_lib/src/i2c_11xx.c **** 	/* Set clear control flags */
 319:../../lpc11cx4-library/lpc_chip_11cxx_lib/src/i2c_11xx.c **** 	pI2C->CONSET = cclr ^ I2C_CON_FLAGS;
 320:../../lpc11cx4-library/lpc_chip_11cxx_lib/src/i2c_11xx.c **** 	pI2C->CONCLR = cclr;
 321:../../lpc11cx4-library/lpc_chip_11cxx_lib/src/i2c_11xx.c **** 
 322:../../lpc11cx4-library/lpc_chip_11cxx_lib/src/i2c_11xx.c **** 	return ret;
 323:../../lpc11cx4-library/lpc_chip_11cxx_lib/src/i2c_11xx.c **** }
 324:../../lpc11cx4-library/lpc_chip_11cxx_lib/src/i2c_11xx.c **** 
 325:../../lpc11cx4-library/lpc_chip_11cxx_lib/src/i2c_11xx.c **** /*****************************************************************************
 326:../../lpc11cx4-library/lpc_chip_11cxx_lib/src/i2c_11xx.c ****  * Public functions
 327:../../lpc11cx4-library/lpc_chip_11cxx_lib/src/i2c_11xx.c ****  ****************************************************************************/
 328:../../lpc11cx4-library/lpc_chip_11cxx_lib/src/i2c_11xx.c **** 
 329:../../lpc11cx4-library/lpc_chip_11cxx_lib/src/i2c_11xx.c **** /* Chip event handler interrupt based */
 330:../../lpc11cx4-library/lpc_chip_11cxx_lib/src/i2c_11xx.c **** void Chip_I2C_EventHandler(I2C_ID_T id, I2C_EVENT_T event)
 331:../../lpc11cx4-library/lpc_chip_11cxx_lib/src/i2c_11xx.c **** {
  83              		.loc 1 331 0
  84              		.cfi_startproc
  85              		@ args = 0, pretend = 0, frame = 0
  86              		@ frame_needed = 0, uses_anonymous_args = 0
  87              		@ link register save eliminated.
  88              	.LVL0:
 332:../../lpc11cx4-library/lpc_chip_11cxx_lib/src/i2c_11xx.c **** 	UNUSED(id);
 333:../../lpc11cx4-library/lpc_chip_11cxx_lib/src/i2c_11xx.c **** 	struct i2c_interface *iic = &i2c;
 334:../../lpc11cx4-library/lpc_chip_11cxx_lib/src/i2c_11xx.c **** 	volatile I2C_STATUS_T *stat;
 335:../../lpc11cx4-library/lpc_chip_11cxx_lib/src/i2c_11xx.c **** 
 336:../../lpc11cx4-library/lpc_chip_11cxx_lib/src/i2c_11xx.c **** 	/* Only WAIT event needs to be handled */
 337:../../lpc11cx4-library/lpc_chip_11cxx_lib/src/i2c_11xx.c **** 	if (event != I2C_EVENT_WAIT) {
  89              		.loc 1 337 0
  90 0000 0129     		cmp	r1, #1	@ event,
  91 0002 00D0     		beq	.L7	@,
  92              	.L1:
 338:../../lpc11cx4-library/lpc_chip_11cxx_lib/src/i2c_11xx.c **** 		return;
 339:../../lpc11cx4-library/lpc_chip_11cxx_lib/src/i2c_11xx.c **** 	}
 340:../../lpc11cx4-library/lpc_chip_11cxx_lib/src/i2c_11xx.c **** 
 341:../../lpc11cx4-library/lpc_chip_11cxx_lib/src/i2c_11xx.c **** 	stat = &iic->mXfer->status;
 342:../../lpc11cx4-library/lpc_chip_11cxx_lib/src/i2c_11xx.c **** 	/* Wait for the status to change */
 343:../../lpc11cx4-library/lpc_chip_11cxx_lib/src/i2c_11xx.c **** 	while (*stat == I2C_STATUS_BUSY) {
 344:../../lpc11cx4-library/lpc_chip_11cxx_lib/src/i2c_11xx.c **** 	}
 345:../../lpc11cx4-library/lpc_chip_11cxx_lib/src/i2c_11xx.c **** }
  93              		.loc 1 345 0
  94              		@ sp needed	@
  95 0004 7047     		bx	lr
  96              	.L7:
  97              	.LVL1:
  98              	.LBB59:
  99              	.LBB60:
 341:../../lpc11cx4-library/lpc_chip_11cxx_lib/src/i2c_11xx.c **** 	/* Wait for the status to change */
 100              		.loc 1 341 0
 101 0006 034B     		ldr	r3, .L8	@ tmp114,
 102 0008 1A69     		ldr	r2, [r3, #16]	@ _6, i2c.mXfer
 103              	.LVL2:
 104              	.L3:
 343:../../lpc11cx4-library/lpc_chip_11cxx_lib/src/i2c_11xx.c **** 	}
 105              		.loc 1 343 0
 106 000a 137D     		ldrb	r3, [r2, #20]	@ MEM[(volatile I2C_STATUS_T *)_6 + 20B], MEM[(volatile I2C_STATUS_T *)_6 + 20B
 107 000c 042B     		cmp	r3, #4	@ MEM[(volatile I2C_STATUS_T *)_6 + 20B],
 108 000e FCD0     		beq	.L3	@,
 109 0010 F8E7     		b	.L1	@
ARM GAS  /tmp/ccXw4jW7.s 			page 9


 110              	.L9:
 111 0012 C046     		.align	2
 112              	.L8:
 113 0014 00000000 		.word	.LANCHOR0
 114              	.LBE60:
 115              	.LBE59:
 116              		.cfi_endproc
 117              	.LFE212:
 118              		.size	Chip_I2C_EventHandler, .-Chip_I2C_EventHandler
 119              		.section	.text.handleMasterXferState,"ax",%progbits
 120              		.align	1
 121              		.p2align 2,,3
 122              		.global	handleMasterXferState
 123              		.syntax unified
 124              		.code	16
 125              		.thumb_func
 126              		.fpu softvfp
 127              		.type	handleMasterXferState, %function
 128              	handleMasterXferState:
 129              	.LFB209:
 179:../../lpc11cx4-library/lpc_chip_11cxx_lib/src/i2c_11xx.c **** 	uint32_t cclr = I2C_CON_FLAGS;
 130              		.loc 1 179 0
 131              		.cfi_startproc
 132              		@ args = 0, pretend = 0, frame = 0
 133              		@ frame_needed = 0, uses_anonymous_args = 0
 134              	.LVL3:
 135              	.LBB61:
 136              	.LBB62:
 124:../../lpc11cx4-library/lpc_chip_11cxx_lib/src/i2c_11xx.c **** }
 137              		.loc 1 124 0
 138 0000 F823     		movs	r3, #248	@ tmp153,
 139              	.LBE62:
 140              	.LBE61:
 179:../../lpc11cx4-library/lpc_chip_11cxx_lib/src/i2c_11xx.c **** 	uint32_t cclr = I2C_CON_FLAGS;
 141              		.loc 1 179 0
 142 0002 0200     		movs	r2, r0	@ pI2C, pI2C
 143              	.LBB65:
 144              	.LBB63:
 124:../../lpc11cx4-library/lpc_chip_11cxx_lib/src/i2c_11xx.c **** }
 145              		.loc 1 124 0
 146 0004 4068     		ldr	r0, [r0, #4]	@ _53, pI2C_10(D)->STAT
 147              	.LVL4:
 148              	.LBE63:
 149              	.LBE65:
 179:../../lpc11cx4-library/lpc_chip_11cxx_lib/src/i2c_11xx.c **** 	uint32_t cclr = I2C_CON_FLAGS;
 150              		.loc 1 179 0
 151 0006 30B5     		push	{r4, r5, lr}	@
 152              		.cfi_def_cfa_offset 12
 153              		.cfi_offset 4, -12
 154              		.cfi_offset 5, -8
 155              		.cfi_offset 14, -4
 156              	.LBB66:
 157              	.LBB64:
 124:../../lpc11cx4-library/lpc_chip_11cxx_lib/src/i2c_11xx.c **** }
 158              		.loc 1 124 0
 159 0008 0340     		ands	r3, r0	@ tmp154, _53
 160              	.LBE64:
ARM GAS  /tmp/ccXw4jW7.s 			page 10


 161              	.LBE66:
 181:../../lpc11cx4-library/lpc_chip_11cxx_lib/src/i2c_11xx.c **** 	case 0x08:		/* Start condition on bus */
 162              		.loc 1 181 0
 163 000a 582B     		cmp	r3, #88	@ tmp154,
 164 000c 58D8     		bhi	.L11	@,
 165 000e 3D48     		ldr	r0, .L47	@ tmp157,
 166 0010 9B00     		lsls	r3, r3, #2	@ tmp155, tmp154,
 167 0012 C358     		ldr	r3, [r0, r3]	@ tmp158,
 168 0014 9F46     		mov	pc, r3	@ tmp158
 169              		.section	.rodata.handleMasterXferState,"a",%progbits
 170              		.align	2
 171              	.L13:
 172 0000 50000000 		.word	.L12
 173 0004 C0000000 		.word	.L11
 174 0008 C0000000 		.word	.L11
 175 000c C0000000 		.word	.L11
 176 0010 C0000000 		.word	.L11
 177 0014 C0000000 		.word	.L11
 178 0018 C0000000 		.word	.L11
 179 001c C0000000 		.word	.L11
 180 0020 60000000 		.word	.L14
 181 0024 C0000000 		.word	.L11
 182 0028 C0000000 		.word	.L11
 183 002c C0000000 		.word	.L11
 184 0030 C0000000 		.word	.L11
 185 0034 C0000000 		.word	.L11
 186 0038 C0000000 		.word	.L11
 187 003c C0000000 		.word	.L11
 188 0040 60000000 		.word	.L14
 189 0044 C0000000 		.word	.L11
 190 0048 C0000000 		.word	.L11
 191 004c C0000000 		.word	.L11
 192 0050 C0000000 		.word	.L11
 193 0054 C0000000 		.word	.L11
 194 0058 C0000000 		.word	.L11
 195 005c C0000000 		.word	.L11
 196 0060 80000000 		.word	.L15
 197 0064 C0000000 		.word	.L11
 198 0068 C0000000 		.word	.L11
 199 006c C0000000 		.word	.L11
 200 0070 C0000000 		.word	.L11
 201 0074 C0000000 		.word	.L11
 202 0078 C0000000 		.word	.L11
 203 007c C0000000 		.word	.L11
 204 0080 96000000 		.word	.L16
 205 0084 C0000000 		.word	.L11
 206 0088 C0000000 		.word	.L11
 207 008c C0000000 		.word	.L11
 208 0090 C0000000 		.word	.L11
 209 0094 C0000000 		.word	.L11
 210 0098 C0000000 		.word	.L11
 211 009c C0000000 		.word	.L11
 212 00a0 80000000 		.word	.L15
 213 00a4 C0000000 		.word	.L11
 214 00a8 C0000000 		.word	.L11
 215 00ac C0000000 		.word	.L11
 216 00b0 C0000000 		.word	.L11
ARM GAS  /tmp/ccXw4jW7.s 			page 11


 217 00b4 C0000000 		.word	.L11
 218 00b8 C0000000 		.word	.L11
 219 00bc C0000000 		.word	.L11
 220 00c0 96000000 		.word	.L16
 221 00c4 C0000000 		.word	.L11
 222 00c8 C0000000 		.word	.L11
 223 00cc C0000000 		.word	.L11
 224 00d0 C0000000 		.word	.L11
 225 00d4 C0000000 		.word	.L11
 226 00d8 C0000000 		.word	.L11
 227 00dc C0000000 		.word	.L11
 228 00e0 B8000000 		.word	.L17
 229 00e4 C0000000 		.word	.L11
 230 00e8 C0000000 		.word	.L11
 231 00ec C0000000 		.word	.L11
 232 00f0 C0000000 		.word	.L11
 233 00f4 C0000000 		.word	.L11
 234 00f8 C0000000 		.word	.L11
 235 00fc C0000000 		.word	.L11
 236 0100 9C000000 		.word	.L18
 237 0104 C0000000 		.word	.L11
 238 0108 C0000000 		.word	.L11
 239 010c C0000000 		.word	.L11
 240 0110 C0000000 		.word	.L11
 241 0114 C0000000 		.word	.L11
 242 0118 C0000000 		.word	.L11
 243 011c C0000000 		.word	.L11
 244 0120 96000000 		.word	.L16
 245 0124 C0000000 		.word	.L11
 246 0128 C0000000 		.word	.L11
 247 012c C0000000 		.word	.L11
 248 0130 C0000000 		.word	.L11
 249 0134 C0000000 		.word	.L11
 250 0138 C0000000 		.word	.L11
 251 013c C0000000 		.word	.L11
 252 0140 B4000000 		.word	.L19
 253 0144 C0000000 		.word	.L11
 254 0148 C0000000 		.word	.L11
 255 014c C0000000 		.word	.L11
 256 0150 C0000000 		.word	.L11
 257 0154 C0000000 		.word	.L11
 258 0158 C0000000 		.word	.L11
 259 015c C0000000 		.word	.L11
 260 0160 16000000 		.word	.L34
 261              		.section	.text.handleMasterXferState
 262              	.L34:
 201:../../lpc11cx4-library/lpc_chip_11cxx_lib/src/i2c_11xx.c **** 
 263              		.loc 1 201 0
 264 0016 2C24     		movs	r4, #44	@ cclr,
 265              	.L20:
 266              	.LVL5:
 204:../../lpc11cx4-library/lpc_chip_11cxx_lib/src/i2c_11xx.c **** 		xfer->rxSz--;
 267              		.loc 1 204 0
 268 0018 CB68     		ldr	r3, [r1, #12]	@ _32, xfer_11(D)->rxBuff
 269 001a 581C     		adds	r0, r3, #1	@ tmp178, _32,
 270 001c C860     		str	r0, [r1, #12]	@ tmp178, xfer_11(D)->rxBuff
 271 001e 9068     		ldr	r0, [r2, #8]	@ _35, pI2C_10(D)->DAT
ARM GAS  /tmp/ccXw4jW7.s 			page 12


 272 0020 1870     		strb	r0, [r3]	@ _35, *_32
 205:../../lpc11cx4-library/lpc_chip_11cxx_lib/src/i2c_11xx.c **** 
 273              		.loc 1 205 0
 274 0022 0B69     		ldr	r3, [r1, #16]	@ tmp226, xfer_11(D)->rxSz
 275 0024 013B     		subs	r3, r3, #1	@ _39,
 276 0026 0B61     		str	r3, [r1, #16]	@ _39, xfer_11(D)->rxSz
 208:../../lpc11cx4-library/lpc_chip_11cxx_lib/src/i2c_11xx.c **** 			cclr &= ~I2C_CON_AA;
 277              		.loc 1 208 0
 278 0028 012B     		cmp	r3, #1	@ _39,
 279 002a 4EDD     		ble	.L25	@,
 280 002c 0423     		movs	r3, #4	@ tmp181,
 281 002e 2500     		movs	r5, r4	@ cclr, cclr
 282 0030 3C20     		movs	r0, #60	@ tmp182,
 283 0032 9D43     		bics	r5, r3	@ cclr, tmp181
 284 0034 0C33     		adds	r3, r3, #12	@ tmp183,
 285 0036 6840     		eors	r0, r5	@ _101, cclr
 286 0038 2340     		ands	r3, r4	@ _103, cclr
 287              	.L26:
 288              	.LVL6:
 233:../../lpc11cx4-library/lpc_chip_11cxx_lib/src/i2c_11xx.c **** 	pI2C->CONCLR = cclr;
 289              		.loc 1 233 0
 290 003a 1060     		str	r0, [r2]	@ _101, pI2C_10(D)->CONSET
 234:../../lpc11cx4-library/lpc_chip_11cxx_lib/src/i2c_11xx.c **** 
 291              		.loc 1 234 0
 292 003c 9561     		str	r5, [r2, #24]	@ cclr, pI2C_10(D)->CONCLR
 237:../../lpc11cx4-library/lpc_chip_11cxx_lib/src/i2c_11xx.c **** 		if (xfer->status == I2C_STATUS_BUSY) {
 293              		.loc 1 237 0
 294 003e 002B     		cmp	r3, #0	@ _103,
 295 0040 33D1     		bne	.L41	@,
 296              	.LVL7:
 297              	.L28:
 238:../../lpc11cx4-library/lpc_chip_11cxx_lib/src/i2c_11xx.c **** 			xfer->status = I2C_STATUS_DONE;
 298              		.loc 1 238 0
 299 0042 0B7D     		ldrb	r3, [r1, #20]	@ tmp197,
 300 0044 042B     		cmp	r3, #4	@ tmp197,
 301 0046 09D1     		bne	.L42	@,
 239:../../lpc11cx4-library/lpc_chip_11cxx_lib/src/i2c_11xx.c **** 		}
 302              		.loc 1 239 0
 303 0048 0023     		movs	r3, #0	@ tmp198,
 241:../../lpc11cx4-library/lpc_chip_11cxx_lib/src/i2c_11xx.c **** 	}
 304              		.loc 1 241 0
 305 004a 0020     		movs	r0, #0	@ <retval>,
 239:../../lpc11cx4-library/lpc_chip_11cxx_lib/src/i2c_11xx.c **** 		}
 306              		.loc 1 239 0
 307 004c 0B75     		strb	r3, [r1, #20]	@ tmp198, xfer_11(D)->status
 308              	.L10:
 244:../../lpc11cx4-library/lpc_chip_11cxx_lib/src/i2c_11xx.c **** 
 309              		.loc 1 244 0
 310              		@ sp needed	@
 311 004e 30BD     		pop	{r4, r5, pc}
 312              	.LVL8:
 313              	.L12:
 227:../../lpc11cx4-library/lpc_chip_11cxx_lib/src/i2c_11xx.c **** 		cclr &= ~I2C_CON_STO;
 314              		.loc 1 227 0
 315 0050 0323     		movs	r3, #3	@ tmp188,
 316 0052 0B75     		strb	r3, [r1, #20]	@ tmp188, xfer_11(D)->status
 317              	.LVL9:
ARM GAS  /tmp/ccXw4jW7.s 			page 13


 318              	.L27:
 233:../../lpc11cx4-library/lpc_chip_11cxx_lib/src/i2c_11xx.c **** 	pI2C->CONCLR = cclr;
 319              		.loc 1 233 0
 320 0054 1023     		movs	r3, #16	@ tmp216,
 321 0056 1360     		str	r3, [r2]	@ tmp216, pI2C_10(D)->CONSET
 234:../../lpc11cx4-library/lpc_chip_11cxx_lib/src/i2c_11xx.c **** 
 322              		.loc 1 234 0
 323 0058 1C33     		adds	r3, r3, #28	@ tmp217,
 324 005a 9361     		str	r3, [r2, #24]	@ tmp217, pI2C_10(D)->CONCLR
 325              	.LVL10:
 326              	.L42:
 241:../../lpc11cx4-library/lpc_chip_11cxx_lib/src/i2c_11xx.c **** 	}
 327              		.loc 1 241 0
 328 005c 0020     		movs	r0, #0	@ <retval>,
 329 005e F6E7     		b	.L10	@
 330              	.LVL11:
 331              	.L14:
 184:../../lpc11cx4-library/lpc_chip_11cxx_lib/src/i2c_11xx.c **** 		break;
 332              		.loc 1 184 0
 333 0060 8868     		ldr	r0, [r1, #8]	@ tmp163, xfer_11(D)->txSz
 334 0062 0B78     		ldrb	r3, [r1]	@ *xfer_11(D), *xfer_11(D)
 335 0064 4442     		rsbs	r4, r0, #0	@ tmp164, tmp163
 336 0066 6041     		adcs	r0, r0, r4	@ tmp163, tmp163, tmp164
 337 0068 5B00     		lsls	r3, r3, #1	@ tmp160, *xfer_11(D),
 338 006a 0343     		orrs	r3, r0	@ _19, tmp163
 339 006c 9360     		str	r3, [r2, #8]	@ _19, pI2C_10(D)->DAT
 340 006e 087D     		ldrb	r0, [r1, #20]	@ tmp166,
 341 0070 0238     		subs	r0, r0, #2	@ tmp168,
 342 0072 431E     		subs	r3, r0, #1	@ tmp169, tmp168
 343 0074 9841     		sbcs	r0, r0, r3	@ <retval>, tmp168, tmp169
 344              	.L21:
 233:../../lpc11cx4-library/lpc_chip_11cxx_lib/src/i2c_11xx.c **** 	pI2C->CONCLR = cclr;
 345              		.loc 1 233 0
 346 0076 0023     		movs	r3, #0	@ tmp214,
 347 0078 1360     		str	r3, [r2]	@ tmp214, pI2C_10(D)->CONSET
 234:../../lpc11cx4-library/lpc_chip_11cxx_lib/src/i2c_11xx.c **** 
 348              		.loc 1 234 0
 349 007a 3C33     		adds	r3, r3, #60	@ tmp215,
 350 007c 9361     		str	r3, [r2, #24]	@ tmp215, pI2C_10(D)->CONCLR
 351 007e E6E7     		b	.L10	@
 352              	.L15:
 190:../../lpc11cx4-library/lpc_chip_11cxx_lib/src/i2c_11xx.c **** 			cclr &= ~(xfer->rxSz ? I2C_CON_STA : I2C_CON_STO);
 353              		.loc 1 190 0
 354 0080 8B68     		ldr	r3, [r1, #8]	@ _21, xfer_11(D)->txSz
 355 0082 002B     		cmp	r3, #0	@ _21,
 356 0084 27D1     		bne	.L22	@,
 191:../../lpc11cx4-library/lpc_chip_11cxx_lib/src/i2c_11xx.c **** 		}
 357              		.loc 1 191 0
 358 0086 0B69     		ldr	r3, [r1, #16]	@ tmp225, xfer_11(D)->rxSz
 359 0088 002B     		cmp	r3, #0	@ tmp225,
 360 008a 30D0     		beq	.L45	@,
 361              	.LVL12:
 233:../../lpc11cx4-library/lpc_chip_11cxx_lib/src/i2c_11xx.c **** 	pI2C->CONCLR = cclr;
 362              		.loc 1 233 0
 363 008c 2023     		movs	r3, #32	@ tmp218,
 364 008e 1360     		str	r3, [r2]	@ tmp218, pI2C_10(D)->CONSET
 234:../../lpc11cx4-library/lpc_chip_11cxx_lib/src/i2c_11xx.c **** 
ARM GAS  /tmp/ccXw4jW7.s 			page 14


 365              		.loc 1 234 0
 366 0090 043B     		subs	r3, r3, #4	@ tmp219,
 367 0092 9361     		str	r3, [r2, #24]	@ tmp219,
 368 0094 09E0     		b	.L41	@
 369              	.LVL13:
 370              	.L16:
 217:../../lpc11cx4-library/lpc_chip_11cxx_lib/src/i2c_11xx.c **** 		cclr &= ~I2C_CON_STO;
 371              		.loc 1 217 0
 372 0096 0123     		movs	r3, #1	@ tmp184,
 373 0098 0B75     		strb	r3, [r1, #20]	@ tmp184, xfer_11(D)->status
 374              	.LVL14:
 219:../../lpc11cx4-library/lpc_chip_11cxx_lib/src/i2c_11xx.c **** 
 375              		.loc 1 219 0
 376 009a DBE7     		b	.L27	@
 377              	.LVL15:
 378              	.L18:
 208:../../lpc11cx4-library/lpc_chip_11cxx_lib/src/i2c_11xx.c **** 			cclr &= ~I2C_CON_AA;
 379              		.loc 1 208 0
 380 009c 0B69     		ldr	r3, [r1, #16]	@ tmp228, xfer_11(D)->rxSz
 381 009e 012B     		cmp	r3, #1	@ tmp228,
 382 00a0 2ADD     		ble	.L46	@,
 383              	.LVL16:
 233:../../lpc11cx4-library/lpc_chip_11cxx_lib/src/i2c_11xx.c **** 	pI2C->CONCLR = cclr;
 384              		.loc 1 233 0
 385 00a2 0423     		movs	r3, #4	@ tmp222,
 386 00a4 1360     		str	r3, [r2]	@ tmp222, pI2C_10(D)->CONSET
 234:../../lpc11cx4-library/lpc_chip_11cxx_lib/src/i2c_11xx.c **** 
 387              		.loc 1 234 0
 388 00a6 3433     		adds	r3, r3, #52	@ tmp223,
 389 00a8 9361     		str	r3, [r2, #24]	@ tmp223,
 390              	.LVL17:
 391              	.L41:
 392 00aa 087D     		ldrb	r0, [r1, #20]	@ tmp204,
 393 00ac 0238     		subs	r0, r0, #2	@ tmp206,
 394 00ae 431E     		subs	r3, r0, #1	@ tmp207, tmp206
 395 00b0 9841     		sbcs	r0, r0, r3	@ <retval>, tmp206, tmp207
 396 00b2 CCE7     		b	.L10	@
 397              	.LVL18:
 398              	.L19:
 180:../../lpc11cx4-library/lpc_chip_11cxx_lib/src/i2c_11xx.c **** 	switch (getCurState(pI2C)) {
 399              		.loc 1 180 0
 400 00b4 3C24     		movs	r4, #60	@ cclr,
 401 00b6 AFE7     		b	.L20	@
 402              	.L17:
 222:../../lpc11cx4-library/lpc_chip_11cxx_lib/src/i2c_11xx.c **** 		break;
 403              		.loc 1 222 0
 404 00b8 0223     		movs	r3, #2	@ tmp186,
 223:../../lpc11cx4-library/lpc_chip_11cxx_lib/src/i2c_11xx.c **** 
 405              		.loc 1 223 0
 406 00ba 0020     		movs	r0, #0	@ <retval>,
 222:../../lpc11cx4-library/lpc_chip_11cxx_lib/src/i2c_11xx.c **** 		break;
 407              		.loc 1 222 0
 408 00bc 0B75     		strb	r3, [r1, #20]	@ tmp186, xfer_11(D)->status
 223:../../lpc11cx4-library/lpc_chip_11cxx_lib/src/i2c_11xx.c **** 
 409              		.loc 1 223 0
 410 00be DAE7     		b	.L21	@
 411              	.L11:
ARM GAS  /tmp/ccXw4jW7.s 			page 15


 412 00c0 087D     		ldrb	r0, [r1, #20]	@ tmp210,
 413 00c2 0238     		subs	r0, r0, #2	@ tmp212,
 414 00c4 431E     		subs	r3, r0, #1	@ tmp213, tmp212
 415 00c6 9841     		sbcs	r0, r0, r3	@ <retval>, tmp212, tmp213
 416 00c8 D5E7     		b	.L21	@
 417              	.LVL19:
 418              	.L25:
 419 00ca 3C20     		movs	r0, #60	@ tmp190,
 420 00cc 1023     		movs	r3, #16	@ tmp191,
 421 00ce 6040     		eors	r0, r4	@ _101, cclr
 422 00d0 2340     		ands	r3, r4	@ _103, cclr
 208:../../lpc11cx4-library/lpc_chip_11cxx_lib/src/i2c_11xx.c **** 			cclr &= ~I2C_CON_AA;
 423              		.loc 1 208 0
 424 00d2 2500     		movs	r5, r4	@ cclr, cclr
 425 00d4 B1E7     		b	.L26	@
 426              	.LVL20:
 427              	.L22:
 194:../../lpc11cx4-library/lpc_chip_11cxx_lib/src/i2c_11xx.c **** 			xfer->txSz--;
 428              		.loc 1 194 0
 429 00d6 4868     		ldr	r0, [r1, #4]	@ _22, xfer_11(D)->txBuff
 195:../../lpc11cx4-library/lpc_chip_11cxx_lib/src/i2c_11xx.c **** 		}
 430              		.loc 1 195 0
 431 00d8 013B     		subs	r3, r3, #1	@ tmp172,
 194:../../lpc11cx4-library/lpc_chip_11cxx_lib/src/i2c_11xx.c **** 			xfer->txSz--;
 432              		.loc 1 194 0
 433 00da 441C     		adds	r4, r0, #1	@ tmp171, _22,
 434 00dc 4C60     		str	r4, [r1, #4]	@ tmp171, xfer_11(D)->txBuff
 435 00de 0078     		ldrb	r0, [r0]	@ _26, *_22
 436 00e0 9060     		str	r0, [r2, #8]	@ _26, pI2C_10(D)->DAT
 437 00e2 087D     		ldrb	r0, [r1, #20]	@ tmp174,
 195:../../lpc11cx4-library/lpc_chip_11cxx_lib/src/i2c_11xx.c **** 		}
 438              		.loc 1 195 0
 439 00e4 8B60     		str	r3, [r1, #8]	@ tmp172, xfer_11(D)->txSz
 440 00e6 0238     		subs	r0, r0, #2	@ tmp176,
 441 00e8 431E     		subs	r3, r0, #1	@ tmp177, tmp176
 442 00ea 9841     		sbcs	r0, r0, r3	@ <retval>, tmp176, tmp177
 443 00ec C3E7     		b	.L21	@
 444              	.L45:
 445              	.LVL21:
 233:../../lpc11cx4-library/lpc_chip_11cxx_lib/src/i2c_11xx.c **** 	pI2C->CONCLR = cclr;
 446              		.loc 1 233 0
 447 00ee 1023     		movs	r3, #16	@ tmp220,
 448 00f0 1360     		str	r3, [r2]	@ tmp220, pI2C_10(D)->CONSET
 234:../../lpc11cx4-library/lpc_chip_11cxx_lib/src/i2c_11xx.c **** 
 449              		.loc 1 234 0
 450 00f2 1C33     		adds	r3, r3, #28	@ tmp221,
 451 00f4 9361     		str	r3, [r2, #24]	@ tmp221, pI2C_10(D)->CONCLR
 452 00f6 A4E7     		b	.L28	@
 453              	.LVL22:
 454              	.L46:
 233:../../lpc11cx4-library/lpc_chip_11cxx_lib/src/i2c_11xx.c **** 	pI2C->CONCLR = cclr;
 455              		.loc 1 233 0
 456 00f8 0023     		movs	r3, #0	@ tmp201,
 457 00fa 1360     		str	r3, [r2]	@ tmp201, pI2C_10(D)->CONSET
 234:../../lpc11cx4-library/lpc_chip_11cxx_lib/src/i2c_11xx.c **** 
 458              		.loc 1 234 0
 459 00fc 3C33     		adds	r3, r3, #60	@ tmp202,
ARM GAS  /tmp/ccXw4jW7.s 			page 16


 460 00fe 9361     		str	r3, [r2, #24]	@ tmp202,
 461 0100 D3E7     		b	.L41	@
 462              	.L48:
 463 0102 C046     		.align	2
 464              	.L47:
 465 0104 00000000 		.word	.L13
 466              		.cfi_endproc
 467              	.LFE209:
 468              		.size	handleMasterXferState, .-handleMasterXferState
 469              		.section	.text.getSlaveIndex,"ax",%progbits
 470              		.align	1
 471              		.p2align 2,,3
 472              		.global	getSlaveIndex
 473              		.syntax unified
 474              		.code	16
 475              		.thumb_func
 476              		.fpu softvfp
 477              		.type	getSlaveIndex, %function
 478              	getSlaveIndex:
 479              	.LFB210:
 248:../../lpc11cx4-library/lpc_chip_11cxx_lib/src/i2c_11xx.c **** 	switch (getCurState(pI2C)) {
 480              		.loc 1 248 0
 481              		.cfi_startproc
 482              		@ args = 0, pretend = 0, frame = 0
 483              		@ frame_needed = 0, uses_anonymous_args = 0
 484              	.LVL23:
 485              	.LBB83:
 486              	.LBB84:
 124:../../lpc11cx4-library/lpc_chip_11cxx_lib/src/i2c_11xx.c **** }
 487              		.loc 1 124 0
 488 0000 F823     		movs	r3, #248	@ tmp158,
 489 0002 4168     		ldr	r1, [r0, #4]	@ _6, pI2C_3(D)->STAT
 490              	.LVL24:
 491              	.LBE84:
 492              	.LBE83:
 248:../../lpc11cx4-library/lpc_chip_11cxx_lib/src/i2c_11xx.c **** 	switch (getCurState(pI2C)) {
 493              		.loc 1 248 0
 494 0004 10B5     		push	{r4, lr}	@
 495              		.cfi_def_cfa_offset 8
 496              		.cfi_offset 4, -8
 497              		.cfi_offset 14, -4
 248:../../lpc11cx4-library/lpc_chip_11cxx_lib/src/i2c_11xx.c **** 	switch (getCurState(pI2C)) {
 498              		.loc 1 248 0
 499 0006 0200     		movs	r2, r0	@ pI2C, pI2C
 500              	.LBB86:
 501              	.LBB85:
 124:../../lpc11cx4-library/lpc_chip_11cxx_lib/src/i2c_11xx.c **** }
 502              		.loc 1 124 0
 503 0008 0B40     		ands	r3, r1	@ tmp159, _6
 504              	.LBE85:
 505              	.LBE86:
 249:../../lpc11cx4-library/lpc_chip_11cxx_lib/src/i2c_11xx.c **** 	case 0x60:
 506              		.loc 1 249 0
 507 000a 702B     		cmp	r3, #112	@ tmp159,
 508 000c 0CD0     		beq	.L51	@,
 509 000e 07DD     		ble	.L81	@,
 510 0010 A82B     		cmp	r3, #168	@ tmp159,
ARM GAS  /tmp/ccXw4jW7.s 			page 17


 511 0012 09D0     		beq	.L51	@,
 512 0014 B02B     		cmp	r3, #176	@ tmp159,
 513 0016 07D0     		beq	.L51	@,
 514 0018 782B     		cmp	r3, #120	@ tmp159,
 515 001a 05D0     		beq	.L51	@,
 516              	.L53:
 260:../../lpc11cx4-library/lpc_chip_11cxx_lib/src/i2c_11xx.c **** }
 517              		.loc 1 260 0
 518 001c 0020     		movs	r0, #0	@ <retval>,
 519              	.LVL25:
 520              	.L50:
 261:../../lpc11cx4-library/lpc_chip_11cxx_lib/src/i2c_11xx.c **** 
 521              		.loc 1 261 0
 522              		@ sp needed	@
 523 001e 10BD     		pop	{r4, pc}
 524              	.LVL26:
 525              	.L81:
 249:../../lpc11cx4-library/lpc_chip_11cxx_lib/src/i2c_11xx.c **** 	case 0x60:
 526              		.loc 1 249 0
 527 0020 602B     		cmp	r3, #96	@ tmp159,
 528 0022 01D0     		beq	.L51	@,
 529 0024 682B     		cmp	r3, #104	@ tmp159,
 530 0026 F9D1     		bne	.L53	@,
 531              	.L51:
 532              	.LVL27:
 533              	.LBB87:
 534              	.LBB88:
 256:../../lpc11cx4-library/lpc_chip_11cxx_lib/src/i2c_11xx.c **** 	}
 535              		.loc 1 256 0
 536 0028 9368     		ldr	r3, [r2, #8]	@ _10, pI2C_3(D)->DAT
 537              	.LBB89:
 538              	.LBB90:
 174:../../lpc11cx4-library/lpc_chip_11cxx_lib/src/i2c_11xx.c **** }
 539              		.loc 1 174 0
 540 002a 0020     		movs	r0, #0	@ <retval>,
 541              	.LVL28:
 542              	.LBE90:
 543              	.LBE89:
 256:../../lpc11cx4-library/lpc_chip_11cxx_lib/src/i2c_11xx.c **** 	}
 544              		.loc 1 256 0
 545 002c DBB2     		uxtb	r3, r3	@ _11, _10
 546              	.LVL29:
 547              	.LBB102:
 548              	.LBB101:
 157:../../lpc11cx4-library/lpc_chip_11cxx_lib/src/i2c_11xx.c **** 		return I2C_SLAVE_GENERAL;					/* General call address */
 549              		.loc 1 157 0
 550 002e 5908     		lsrs	r1, r3, #1	@ tmp162, _11,
 551 0030 F5D0     		beq	.L50	@,
 552              	.LBB91:
 553              	.LBB92:
 150:../../lpc11cx4-library/lpc_chip_11cxx_lib/src/i2c_11xx.c **** 	return (addr1 & ~mask) == (addr2 & ~mask);
 554              		.loc 1 150 0
 555 0032 0124     		movs	r4, #1	@ tmp163,
 556              	.LBE92:
 557              	.LBE91:
 160:../../lpc11cx4-library/lpc_chip_11cxx_lib/src/i2c_11xx.c **** 		return I2C_SLAVE_0;
 558              		.loc 1 160 0
ARM GAS  /tmp/ccXw4jW7.s 			page 18


 559 0034 D168     		ldr	r1, [r2, #12]	@ _15, pI2C_3(D)->ADR0
 560 0036 106B     		ldr	r0, [r2, #48]	@ _17, pI2C_3(D)->MASK
 561              	.LBB94:
 562              	.LBB93:
 151:../../lpc11cx4-library/lpc_chip_11cxx_lib/src/i2c_11xx.c **** }
 563              		.loc 1 151 0
 564 0038 5940     		eors	r1, r3	@ tmp170, _11
 150:../../lpc11cx4-library/lpc_chip_11cxx_lib/src/i2c_11xx.c **** 	return (addr1 & ~mask) == (addr2 & ~mask);
 565              		.loc 1 150 0
 566 003a 2043     		orrs	r0, r4	@ tmp166, tmp163
 151:../../lpc11cx4-library/lpc_chip_11cxx_lib/src/i2c_11xx.c **** }
 567              		.loc 1 151 0
 568 003c C0B2     		uxtb	r0, r0	@ tmp167, tmp166
 569 003e C9B2     		uxtb	r1, r1	@ tmp171, tmp170
 570 0040 8143     		bics	r1, r0	@ tmp172, tmp167
 571              	.LBE93:
 572              	.LBE94:
 161:../../lpc11cx4-library/lpc_chip_11cxx_lib/src/i2c_11xx.c **** 	}
 573              		.loc 1 161 0
 574 0042 0120     		movs	r0, #1	@ <retval>,
 160:../../lpc11cx4-library/lpc_chip_11cxx_lib/src/i2c_11xx.c **** 		return I2C_SLAVE_0;
 575              		.loc 1 160 0
 576 0044 0029     		cmp	r1, #0	@ tmp172,
 577 0046 EAD0     		beq	.L50	@,
 163:../../lpc11cx4-library/lpc_chip_11cxx_lib/src/i2c_11xx.c **** 		return I2C_SLAVE_1;
 578              		.loc 1 163 0
 579 0048 116A     		ldr	r1, [r2, #32]	@ _25, pI2C_3(D)->ADR1
 580 004a 506B     		ldr	r0, [r2, #52]	@ _27, pI2C_3(D)->MASK
 581              	.LBB95:
 582              	.LBB96:
 151:../../lpc11cx4-library/lpc_chip_11cxx_lib/src/i2c_11xx.c **** }
 583              		.loc 1 151 0
 584 004c 5940     		eors	r1, r3	@ tmp180, _11
 150:../../lpc11cx4-library/lpc_chip_11cxx_lib/src/i2c_11xx.c **** 	return (addr1 & ~mask) == (addr2 & ~mask);
 585              		.loc 1 150 0
 586 004e 2043     		orrs	r0, r4	@ tmp176, tmp163
 151:../../lpc11cx4-library/lpc_chip_11cxx_lib/src/i2c_11xx.c **** }
 587              		.loc 1 151 0
 588 0050 C0B2     		uxtb	r0, r0	@ tmp177, tmp176
 589 0052 C9B2     		uxtb	r1, r1	@ tmp181, tmp180
 590 0054 8143     		bics	r1, r0	@ tmp182, tmp177
 591              	.LBE96:
 592              	.LBE95:
 164:../../lpc11cx4-library/lpc_chip_11cxx_lib/src/i2c_11xx.c **** 	}
 593              		.loc 1 164 0
 594 0056 0220     		movs	r0, #2	@ <retval>,
 163:../../lpc11cx4-library/lpc_chip_11cxx_lib/src/i2c_11xx.c **** 		return I2C_SLAVE_1;
 595              		.loc 1 163 0
 596 0058 0029     		cmp	r1, #0	@ tmp182,
 597 005a E0D0     		beq	.L50	@,
 166:../../lpc11cx4-library/lpc_chip_11cxx_lib/src/i2c_11xx.c **** 		return I2C_SLAVE_2;
 598              		.loc 1 166 0
 599 005c 516A     		ldr	r1, [r2, #36]	@ _35, pI2C_3(D)->ADR2
 600 005e 906B     		ldr	r0, [r2, #56]	@ _37, pI2C_3(D)->MASK
 601              	.LBB97:
 602              	.LBB98:
 151:../../lpc11cx4-library/lpc_chip_11cxx_lib/src/i2c_11xx.c **** }
ARM GAS  /tmp/ccXw4jW7.s 			page 19


 603              		.loc 1 151 0
 604 0060 5940     		eors	r1, r3	@ tmp190, _11
 150:../../lpc11cx4-library/lpc_chip_11cxx_lib/src/i2c_11xx.c **** 	return (addr1 & ~mask) == (addr2 & ~mask);
 605              		.loc 1 150 0
 606 0062 2043     		orrs	r0, r4	@ tmp186, tmp163
 151:../../lpc11cx4-library/lpc_chip_11cxx_lib/src/i2c_11xx.c **** }
 607              		.loc 1 151 0
 608 0064 C0B2     		uxtb	r0, r0	@ tmp187, tmp186
 609 0066 C9B2     		uxtb	r1, r1	@ tmp191, tmp190
 610 0068 8143     		bics	r1, r0	@ tmp192, tmp187
 611              	.LBE98:
 612              	.LBE97:
 167:../../lpc11cx4-library/lpc_chip_11cxx_lib/src/i2c_11xx.c **** 	}
 613              		.loc 1 167 0
 614 006a 0320     		movs	r0, #3	@ <retval>,
 166:../../lpc11cx4-library/lpc_chip_11cxx_lib/src/i2c_11xx.c **** 		return I2C_SLAVE_2;
 615              		.loc 1 166 0
 616 006c 0029     		cmp	r1, #0	@ tmp192,
 617 006e D6D0     		beq	.L50	@,
 169:../../lpc11cx4-library/lpc_chip_11cxx_lib/src/i2c_11xx.c **** 		return I2C_SLAVE_3;
 618              		.loc 1 169 0
 619 0070 906A     		ldr	r0, [r2, #40]	@ _45, pI2C_3(D)->ADR3
 620 0072 D26B     		ldr	r2, [r2, #60]	@ _47, pI2C_3(D)->MASK
 621              	.LVL30:
 622              	.LBB99:
 623              	.LBB100:
 151:../../lpc11cx4-library/lpc_chip_11cxx_lib/src/i2c_11xx.c **** }
 624              		.loc 1 151 0
 625 0074 5840     		eors	r0, r3	@ tmp200, _11
 150:../../lpc11cx4-library/lpc_chip_11cxx_lib/src/i2c_11xx.c **** 	return (addr1 & ~mask) == (addr2 & ~mask);
 626              		.loc 1 150 0
 627 0076 1443     		orrs	r4, r2	@ tmp196, _47
 151:../../lpc11cx4-library/lpc_chip_11cxx_lib/src/i2c_11xx.c **** }
 628              		.loc 1 151 0
 629 0078 E4B2     		uxtb	r4, r4	@ tmp197, tmp196
 630 007a C0B2     		uxtb	r0, r0	@ tmp201, tmp200
 631 007c A043     		bics	r0, r4	@ tmp202, tmp197
 632              	.LBE100:
 633              	.LBE99:
 170:../../lpc11cx4-library/lpc_chip_11cxx_lib/src/i2c_11xx.c **** 	}
 634              		.loc 1 170 0
 635 007e 4342     		rsbs	r3, r0, #0	@ tmp205, tmp202
 636 0080 5841     		adcs	r0, r0, r3	@ tmp204, tmp202, tmp205
 637              	.LVL31:
 638 0082 8000     		lsls	r0, r0, #2	@ <retval>, tmp204,
 639 0084 CBE7     		b	.L50	@
 640              	.LBE101:
 641              	.LBE102:
 642              	.LBE88:
 643              	.LBE87:
 644              		.cfi_endproc
 645              	.LFE210:
 646              		.size	getSlaveIndex, .-getSlaveIndex
 647              		.section	.text.handleSlaveXferState,"ax",%progbits
 648              		.align	1
 649              		.p2align 2,,3
 650              		.global	handleSlaveXferState
ARM GAS  /tmp/ccXw4jW7.s 			page 20


 651              		.syntax unified
 652              		.code	16
 653              		.thumb_func
 654              		.fpu softvfp
 655              		.type	handleSlaveXferState, %function
 656              	handleSlaveXferState:
 657              	.LFB211:
 265:../../lpc11cx4-library/lpc_chip_11cxx_lib/src/i2c_11xx.c **** 	uint32_t cclr = I2C_CON_FLAGS;
 658              		.loc 1 265 0
 659              		.cfi_startproc
 660              		@ args = 0, pretend = 0, frame = 0
 661              		@ frame_needed = 0, uses_anonymous_args = 0
 662              		@ link register save eliminated.
 663              	.LVL32:
 269:../../lpc11cx4-library/lpc_chip_11cxx_lib/src/i2c_11xx.c **** 	switch (getCurState(pI2C)) {
 664              		.loc 1 269 0
 665 0000 0423     		movs	r3, #4	@ tmp139,
 265:../../lpc11cx4-library/lpc_chip_11cxx_lib/src/i2c_11xx.c **** 	uint32_t cclr = I2C_CON_FLAGS;
 666              		.loc 1 265 0
 667 0002 0200     		movs	r2, r0	@ pI2C, pI2C
 668              	.LBB103:
 669              	.LBB104:
 124:../../lpc11cx4-library/lpc_chip_11cxx_lib/src/i2c_11xx.c **** }
 670              		.loc 1 124 0
 671 0004 4068     		ldr	r0, [r0, #4]	@ _42, pI2C_9(D)->STAT
 672              	.LVL33:
 673              	.LBE104:
 674              	.LBE103:
 269:../../lpc11cx4-library/lpc_chip_11cxx_lib/src/i2c_11xx.c **** 	switch (getCurState(pI2C)) {
 675              		.loc 1 269 0
 676 0006 0B75     		strb	r3, [r1, #20]	@ tmp139, xfer_7(D)->status
 677              	.LBB106:
 678              	.LBB105:
 124:../../lpc11cx4-library/lpc_chip_11cxx_lib/src/i2c_11xx.c **** }
 679              		.loc 1 124 0
 680 0008 F433     		adds	r3, r3, #244	@ tmp141,
 681 000a 0340     		ands	r3, r0	@ tmp142, _42
 682              	.LBE105:
 683              	.LBE106:
 270:../../lpc11cx4-library/lpc_chip_11cxx_lib/src/i2c_11xx.c **** 	case 0x80:		/* SLA: Data received + ACK sent */
 684              		.loc 1 270 0
 685 000c 603B     		subs	r3, r3, #96	@ tmp143,
 686 000e 682B     		cmp	r3, #104	@ tmp143,
 687 0010 39D8     		bhi	.L90	@,
 688 0012 2548     		ldr	r0, .L97	@ tmp146,
 689 0014 9B00     		lsls	r3, r3, #2	@ tmp144, tmp143,
 690 0016 C358     		ldr	r3, [r0, r3]	@ tmp147,
 691 0018 9F46     		mov	pc, r3	@ tmp147
 692              		.section	.rodata.handleSlaveXferState,"a",%progbits
 693              		.align	2
 694              	.L85:
 695 0000 42000000 		.word	.L84
 696 0004 86000000 		.word	.L90
 697 0008 86000000 		.word	.L90
 698 000c 86000000 		.word	.L90
 699 0010 86000000 		.word	.L90
 700 0014 86000000 		.word	.L90
ARM GAS  /tmp/ccXw4jW7.s 			page 21


 701 0018 86000000 		.word	.L90
 702 001c 86000000 		.word	.L90
 703 0020 42000000 		.word	.L84
 704 0024 86000000 		.word	.L90
 705 0028 86000000 		.word	.L90
 706 002c 86000000 		.word	.L90
 707 0030 86000000 		.word	.L90
 708 0034 86000000 		.word	.L90
 709 0038 86000000 		.word	.L90
 710 003c 86000000 		.word	.L90
 711 0040 42000000 		.word	.L84
 712 0044 86000000 		.word	.L90
 713 0048 86000000 		.word	.L90
 714 004c 86000000 		.word	.L90
 715 0050 86000000 		.word	.L90
 716 0054 86000000 		.word	.L90
 717 0058 86000000 		.word	.L90
 718 005c 86000000 		.word	.L90
 719 0060 42000000 		.word	.L84
 720 0064 86000000 		.word	.L90
 721 0068 86000000 		.word	.L90
 722 006c 86000000 		.word	.L90
 723 0070 86000000 		.word	.L90
 724 0074 86000000 		.word	.L90
 725 0078 86000000 		.word	.L90
 726 007c 86000000 		.word	.L90
 727 0080 58000000 		.word	.L86
 728 0084 86000000 		.word	.L90
 729 0088 86000000 		.word	.L90
 730 008c 86000000 		.word	.L90
 731 0090 86000000 		.word	.L90
 732 0094 86000000 		.word	.L90
 733 0098 86000000 		.word	.L90
 734 009c 86000000 		.word	.L90
 735 00a0 74000000 		.word	.L87
 736 00a4 86000000 		.word	.L90
 737 00a8 86000000 		.word	.L90
 738 00ac 86000000 		.word	.L90
 739 00b0 86000000 		.word	.L90
 740 00b4 86000000 		.word	.L90
 741 00b8 86000000 		.word	.L90
 742 00bc 86000000 		.word	.L90
 743 00c0 58000000 		.word	.L86
 744 00c4 86000000 		.word	.L90
 745 00c8 86000000 		.word	.L90
 746 00cc 86000000 		.word	.L90
 747 00d0 86000000 		.word	.L90
 748 00d4 86000000 		.word	.L90
 749 00d8 86000000 		.word	.L90
 750 00dc 86000000 		.word	.L90
 751 00e0 74000000 		.word	.L87
 752 00e4 86000000 		.word	.L90
 753 00e8 86000000 		.word	.L90
 754 00ec 86000000 		.word	.L90
 755 00f0 86000000 		.word	.L90
 756 00f4 86000000 		.word	.L90
 757 00f8 86000000 		.word	.L90
ARM GAS  /tmp/ccXw4jW7.s 			page 22


 758 00fc 86000000 		.word	.L90
 759 0100 74000000 		.word	.L87
 760 0104 86000000 		.word	.L90
 761 0108 86000000 		.word	.L90
 762 010c 86000000 		.word	.L90
 763 0110 86000000 		.word	.L90
 764 0114 86000000 		.word	.L90
 765 0118 86000000 		.word	.L90
 766 011c 86000000 		.word	.L90
 767 0120 1A000000 		.word	.L88
 768 0124 86000000 		.word	.L90
 769 0128 86000000 		.word	.L90
 770 012c 86000000 		.word	.L90
 771 0130 86000000 		.word	.L90
 772 0134 86000000 		.word	.L90
 773 0138 86000000 		.word	.L90
 774 013c 86000000 		.word	.L90
 775 0140 1A000000 		.word	.L88
 776 0144 86000000 		.word	.L90
 777 0148 86000000 		.word	.L90
 778 014c 86000000 		.word	.L90
 779 0150 86000000 		.word	.L90
 780 0154 86000000 		.word	.L90
 781 0158 86000000 		.word	.L90
 782 015c 86000000 		.word	.L90
 783 0160 22000000 		.word	.L89
 784 0164 86000000 		.word	.L90
 785 0168 86000000 		.word	.L90
 786 016c 86000000 		.word	.L90
 787 0170 86000000 		.word	.L90
 788 0174 86000000 		.word	.L90
 789 0178 86000000 		.word	.L90
 790 017c 86000000 		.word	.L90
 791 0180 74000000 		.word	.L87
 792 0184 86000000 		.word	.L90
 793 0188 86000000 		.word	.L90
 794 018c 86000000 		.word	.L90
 795 0190 86000000 		.word	.L90
 796 0194 86000000 		.word	.L90
 797 0198 86000000 		.word	.L90
 798 019c 86000000 		.word	.L90
 799 01a0 74000000 		.word	.L87
 800              		.section	.text.handleSlaveXferState
 801              	.L88:
 293:../../lpc11cx4-library/lpc_chip_11cxx_lib/src/i2c_11xx.c **** 
 802              		.loc 1 293 0
 803 001a 0120     		movs	r0, #1	@ tmp158,
 804 001c 9368     		ldr	r3, [r2, #8]	@ _24, pI2C_9(D)->DAT
 805 001e 8343     		bics	r3, r0	@ tmp157, tmp158
 806 0020 0B70     		strb	r3, [r1]	@ tmp157, xfer_7(D)->slaveAddr
 807              	.L89:
 296:../../lpc11cx4-library/lpc_chip_11cxx_lib/src/i2c_11xx.c **** 		xfer->txSz--;
 808              		.loc 1 296 0
 809 0022 4B68     		ldr	r3, [r1, #4]	@ _28, xfer_7(D)->txBuff
 810 0024 581C     		adds	r0, r3, #1	@ tmp160, _28,
 811 0026 4860     		str	r0, [r1, #4]	@ tmp160, xfer_7(D)->txBuff
 812 0028 1B78     		ldrb	r3, [r3]	@ _32, *_28
ARM GAS  /tmp/ccXw4jW7.s 			page 23


 813 002a 9360     		str	r3, [r2, #8]	@ _32, pI2C_9(D)->DAT
 297:../../lpc11cx4-library/lpc_chip_11cxx_lib/src/i2c_11xx.c **** 		if (xfer->txSz > 0) {
 814              		.loc 1 297 0
 815 002c 8B68     		ldr	r3, [r1, #8]	@ tmp175, xfer_7(D)->txSz
 816 002e 013B     		subs	r3, r3, #1	@ _35,
 817 0030 8B60     		str	r3, [r1, #8]	@ _35, xfer_7(D)->txSz
 298:../../lpc11cx4-library/lpc_chip_11cxx_lib/src/i2c_11xx.c **** 			cclr &= ~I2C_CON_AA;
 818              		.loc 1 298 0
 819 0032 002B     		cmp	r3, #0	@ _35,
 820 0034 2BDD     		ble	.L95	@,
 821 0036 0421     		movs	r1, #4	@ prephitmp_47,
 822              	.LVL34:
 301:../../lpc11cx4-library/lpc_chip_11cxx_lib/src/i2c_11xx.c **** 		break;
 823              		.loc 1 301 0
 824 0038 0620     		movs	r0, #6	@ <retval>,
 299:../../lpc11cx4-library/lpc_chip_11cxx_lib/src/i2c_11xx.c **** 		}
 825              		.loc 1 299 0
 826 003a 3823     		movs	r3, #56	@ cclr,
 827              	.LVL35:
 828              	.L83:
 319:../../lpc11cx4-library/lpc_chip_11cxx_lib/src/i2c_11xx.c **** 	pI2C->CONCLR = cclr;
 829              		.loc 1 319 0
 830 003c 1160     		str	r1, [r2]	@ prephitmp_47, pI2C_9(D)->CONSET
 323:../../lpc11cx4-library/lpc_chip_11cxx_lib/src/i2c_11xx.c **** 
 831              		.loc 1 323 0
 832              		@ sp needed	@
 320:../../lpc11cx4-library/lpc_chip_11cxx_lib/src/i2c_11xx.c **** 
 833              		.loc 1 320 0
 834 003e 9361     		str	r3, [r2, #24]	@ cclr, pI2C_9(D)->CONCLR
 323:../../lpc11cx4-library/lpc_chip_11cxx_lib/src/i2c_11xx.c **** 
 835              		.loc 1 323 0
 836 0040 7047     		bx	lr
 837              	.LVL36:
 838              	.L84:
 285:../../lpc11cx4-library/lpc_chip_11cxx_lib/src/i2c_11xx.c **** 		if (xfer->rxSz > 1) {
 839              		.loc 1 285 0
 840 0042 0120     		movs	r0, #1	@ tmp153,
 841 0044 9368     		ldr	r3, [r2, #8]	@ _19, pI2C_9(D)->DAT
 842 0046 8343     		bics	r3, r0	@ tmp152, tmp153
 843 0048 0B70     		strb	r3, [r1]	@ tmp152, xfer_7(D)->slaveAddr
 286:../../lpc11cx4-library/lpc_chip_11cxx_lib/src/i2c_11xx.c **** 			cclr &= ~I2C_CON_AA;
 844              		.loc 1 286 0
 845 004a 0B69     		ldr	r3, [r1, #16]	@ xfer_7(D)->rxSz, xfer_7(D)->rxSz
 846 004c 012B     		cmp	r3, #1	@ xfer_7(D)->rxSz,
 847 004e 1ADD     		ble	.L90	@,
 848 0050 0421     		movs	r1, #4	@ prephitmp_47,
 849              	.LVL37:
 267:../../lpc11cx4-library/lpc_chip_11cxx_lib/src/i2c_11xx.c **** 
 850              		.loc 1 267 0
 851 0052 0020     		movs	r0, #0	@ <retval>,
 287:../../lpc11cx4-library/lpc_chip_11cxx_lib/src/i2c_11xx.c **** 		}
 852              		.loc 1 287 0
 853 0054 3823     		movs	r3, #56	@ cclr,
 854 0056 F1E7     		b	.L83	@
 855              	.LVL38:
 856              	.L86:
 273:../../lpc11cx4-library/lpc_chip_11cxx_lib/src/i2c_11xx.c **** 		xfer->rxSz--;
ARM GAS  /tmp/ccXw4jW7.s 			page 24


 857              		.loc 1 273 0
 858 0058 CB68     		ldr	r3, [r1, #12]	@ _10, xfer_7(D)->rxBuff
 859 005a 581C     		adds	r0, r3, #1	@ tmp148, _10,
 860 005c C860     		str	r0, [r1, #12]	@ tmp148, xfer_7(D)->rxBuff
 861 005e 9068     		ldr	r0, [r2, #8]	@ _13, pI2C_9(D)->DAT
 862 0060 1870     		strb	r0, [r3]	@ _13, *_10
 274:../../lpc11cx4-library/lpc_chip_11cxx_lib/src/i2c_11xx.c **** 		ret = RET_SLAVE_RX;
 863              		.loc 1 274 0
 864 0062 0B69     		ldr	r3, [r1, #16]	@ tmp174, xfer_7(D)->rxSz
 865 0064 013B     		subs	r3, r3, #1	@ _17,
 866 0066 0B61     		str	r3, [r1, #16]	@ _17, xfer_7(D)->rxSz
 867              	.LVL39:
 276:../../lpc11cx4-library/lpc_chip_11cxx_lib/src/i2c_11xx.c **** 			cclr &= ~I2C_CON_AA;
 868              		.loc 1 276 0
 869 0068 012B     		cmp	r3, #1	@ _17,
 870 006a 18DD     		ble	.L96	@,
 871 006c 0421     		movs	r1, #4	@ prephitmp_47,
 872              	.LVL40:
 275:../../lpc11cx4-library/lpc_chip_11cxx_lib/src/i2c_11xx.c **** 		if (xfer->rxSz > 1) {
 873              		.loc 1 275 0
 874 006e 0520     		movs	r0, #5	@ <retval>,
 277:../../lpc11cx4-library/lpc_chip_11cxx_lib/src/i2c_11xx.c **** 		}
 875              		.loc 1 277 0
 876 0070 3823     		movs	r3, #56	@ cclr,
 877 0072 E3E7     		b	.L83	@
 878              	.LVL41:
 879              	.L87:
 311:../../lpc11cx4-library/lpc_chip_11cxx_lib/src/i2c_11xx.c **** 		if (xfer->slaveAddr & 1) {
 880              		.loc 1 311 0
 881 0074 0023     		movs	r3, #0	@ tmp162,
 882 0076 0B75     		strb	r3, [r1, #20]	@ tmp162, xfer_7(D)->status
 312:../../lpc11cx4-library/lpc_chip_11cxx_lib/src/i2c_11xx.c **** 			cclr &= ~I2C_CON_STA;
 883              		.loc 1 312 0
 884 0078 0B78     		ldrb	r3, [r1]	@ *xfer_7(D), *xfer_7(D)
 885 007a DB07     		lsls	r3, r3, #31	@ tmp173, *xfer_7(D),
 886 007c 0BD4     		bmi	.L94	@,
 887 007e 0421     		movs	r1, #4	@ prephitmp_47,
 888              	.LVL42:
 309:../../lpc11cx4-library/lpc_chip_11cxx_lib/src/i2c_11xx.c **** 		cclr &= ~I2C_CON_AA;
 889              		.loc 1 309 0
 890 0080 0220     		movs	r0, #2	@ <retval>,
 310:../../lpc11cx4-library/lpc_chip_11cxx_lib/src/i2c_11xx.c **** 		xfer->status = I2C_STATUS_DONE;
 891              		.loc 1 310 0
 892 0082 3823     		movs	r3, #56	@ cclr,
 893 0084 DAE7     		b	.L83	@
 894              	.LVL43:
 895              	.L90:
 270:../../lpc11cx4-library/lpc_chip_11cxx_lib/src/i2c_11xx.c **** 	case 0x80:		/* SLA: Data received + ACK sent */
 896              		.loc 1 270 0
 897 0086 0021     		movs	r1, #0	@ prephitmp_47,
 898              	.LVL44:
 267:../../lpc11cx4-library/lpc_chip_11cxx_lib/src/i2c_11xx.c **** 
 899              		.loc 1 267 0
 900 0088 0020     		movs	r0, #0	@ <retval>,
 266:../../lpc11cx4-library/lpc_chip_11cxx_lib/src/i2c_11xx.c **** 	int ret = RET_SLAVE_BUSY;
 901              		.loc 1 266 0
 902 008a 3C23     		movs	r3, #60	@ cclr,
ARM GAS  /tmp/ccXw4jW7.s 			page 25


 903 008c D6E7     		b	.L83	@
 904              	.LVL45:
 905              	.L95:
 298:../../lpc11cx4-library/lpc_chip_11cxx_lib/src/i2c_11xx.c **** 			cclr &= ~I2C_CON_AA;
 906              		.loc 1 298 0
 907 008e 0021     		movs	r1, #0	@ prephitmp_47,
 908              	.LVL46:
 301:../../lpc11cx4-library/lpc_chip_11cxx_lib/src/i2c_11xx.c **** 		break;
 909              		.loc 1 301 0
 910 0090 0620     		movs	r0, #6	@ <retval>,
 266:../../lpc11cx4-library/lpc_chip_11cxx_lib/src/i2c_11xx.c **** 	int ret = RET_SLAVE_BUSY;
 911              		.loc 1 266 0
 912 0092 3C23     		movs	r3, #60	@ cclr,
 913 0094 D2E7     		b	.L83	@
 914              	.LVL47:
 915              	.L94:
 916 0096 2421     		movs	r1, #36	@ prephitmp_47,
 917              	.LVL48:
 309:../../lpc11cx4-library/lpc_chip_11cxx_lib/src/i2c_11xx.c **** 		cclr &= ~I2C_CON_AA;
 918              		.loc 1 309 0
 919 0098 0220     		movs	r0, #2	@ <retval>,
 313:../../lpc11cx4-library/lpc_chip_11cxx_lib/src/i2c_11xx.c **** 		}
 920              		.loc 1 313 0
 921 009a 1823     		movs	r3, #24	@ cclr,
 922 009c CEE7     		b	.L83	@
 923              	.LVL49:
 924              	.L96:
 276:../../lpc11cx4-library/lpc_chip_11cxx_lib/src/i2c_11xx.c **** 			cclr &= ~I2C_CON_AA;
 925              		.loc 1 276 0
 926 009e 0021     		movs	r1, #0	@ prephitmp_47,
 927              	.LVL50:
 275:../../lpc11cx4-library/lpc_chip_11cxx_lib/src/i2c_11xx.c **** 		if (xfer->rxSz > 1) {
 928              		.loc 1 275 0
 929 00a0 0520     		movs	r0, #5	@ <retval>,
 266:../../lpc11cx4-library/lpc_chip_11cxx_lib/src/i2c_11xx.c **** 	int ret = RET_SLAVE_BUSY;
 930              		.loc 1 266 0
 931 00a2 3C23     		movs	r3, #60	@ cclr,
 932 00a4 CAE7     		b	.L83	@
 933              	.L98:
 934 00a6 C046     		.align	2
 935              	.L97:
 936 00a8 00000000 		.word	.L85
 937              		.cfi_endproc
 938              	.LFE211:
 939              		.size	handleSlaveXferState, .-handleSlaveXferState
 940              		.section	.text.Chip_I2C_Init,"ax",%progbits
 941              		.align	1
 942              		.p2align 2,,3
 943              		.global	Chip_I2C_Init
 944              		.syntax unified
 945              		.code	16
 946              		.thumb_func
 947              		.fpu softvfp
 948              		.type	Chip_I2C_Init, %function
 949              	Chip_I2C_Init:
 950              	.LFB214:
 346:../../lpc11cx4-library/lpc_chip_11cxx_lib/src/i2c_11xx.c **** 
ARM GAS  /tmp/ccXw4jW7.s 			page 26


 347:../../lpc11cx4-library/lpc_chip_11cxx_lib/src/i2c_11xx.c **** /* Chip polling event handler */
 348:../../lpc11cx4-library/lpc_chip_11cxx_lib/src/i2c_11xx.c **** void Chip_I2C_EventHandlerPolling(I2C_ID_T id, I2C_EVENT_T event)
 349:../../lpc11cx4-library/lpc_chip_11cxx_lib/src/i2c_11xx.c **** {
 350:../../lpc11cx4-library/lpc_chip_11cxx_lib/src/i2c_11xx.c **** 	struct i2c_interface *iic = &i2c;
 351:../../lpc11cx4-library/lpc_chip_11cxx_lib/src/i2c_11xx.c **** 	volatile I2C_STATUS_T *stat;
 352:../../lpc11cx4-library/lpc_chip_11cxx_lib/src/i2c_11xx.c **** 
 353:../../lpc11cx4-library/lpc_chip_11cxx_lib/src/i2c_11xx.c **** 	/* Only WAIT event needs to be handled */
 354:../../lpc11cx4-library/lpc_chip_11cxx_lib/src/i2c_11xx.c **** 	if (event != I2C_EVENT_WAIT) {
 355:../../lpc11cx4-library/lpc_chip_11cxx_lib/src/i2c_11xx.c **** 		return;
 356:../../lpc11cx4-library/lpc_chip_11cxx_lib/src/i2c_11xx.c **** 	}
 357:../../lpc11cx4-library/lpc_chip_11cxx_lib/src/i2c_11xx.c **** 
 358:../../lpc11cx4-library/lpc_chip_11cxx_lib/src/i2c_11xx.c **** 	stat = &iic->mXfer->status;
 359:../../lpc11cx4-library/lpc_chip_11cxx_lib/src/i2c_11xx.c **** 	/* Call the state change handler till xfer is done */
 360:../../lpc11cx4-library/lpc_chip_11cxx_lib/src/i2c_11xx.c **** 	while (*stat == I2C_STATUS_BUSY) {
 361:../../lpc11cx4-library/lpc_chip_11cxx_lib/src/i2c_11xx.c **** 		if (Chip_I2C_IsStateChanged(id)) {
 362:../../lpc11cx4-library/lpc_chip_11cxx_lib/src/i2c_11xx.c **** 			Chip_I2C_MasterStateHandler(id);
 363:../../lpc11cx4-library/lpc_chip_11cxx_lib/src/i2c_11xx.c **** 		}
 364:../../lpc11cx4-library/lpc_chip_11cxx_lib/src/i2c_11xx.c **** 	}
 365:../../lpc11cx4-library/lpc_chip_11cxx_lib/src/i2c_11xx.c **** }
 366:../../lpc11cx4-library/lpc_chip_11cxx_lib/src/i2c_11xx.c **** 
 367:../../lpc11cx4-library/lpc_chip_11cxx_lib/src/i2c_11xx.c **** /* Initializes the LPC_I2C peripheral with specified parameter */
 368:../../lpc11cx4-library/lpc_chip_11cxx_lib/src/i2c_11xx.c **** void Chip_I2C_Init(I2C_ID_T id)
 369:../../lpc11cx4-library/lpc_chip_11cxx_lib/src/i2c_11xx.c **** {
 951              		.loc 1 369 0
 952              		.cfi_startproc
 953              		@ args = 0, pretend = 0, frame = 0
 954              		@ frame_needed = 0, uses_anonymous_args = 0
 955              	.LVL51:
 370:../../lpc11cx4-library/lpc_chip_11cxx_lib/src/i2c_11xx.c **** 
 371:../../lpc11cx4-library/lpc_chip_11cxx_lib/src/i2c_11xx.c **** 	i2c.ip = LPC_I2C;
 372:../../lpc11cx4-library/lpc_chip_11cxx_lib/src/i2c_11xx.c **** 	i2c.clk = SYSCTL_CLOCK_I2C;
 956              		.loc 1 372 0
 957 0000 0522     		movs	r2, #5	@ tmp116,
 371:../../lpc11cx4-library/lpc_chip_11cxx_lib/src/i2c_11xx.c **** 	i2c.clk = SYSCTL_CLOCK_I2C;
 958              		.loc 1 371 0
 959 0002 0B4B     		ldr	r3, .L100	@ tmp113,
 369:../../lpc11cx4-library/lpc_chip_11cxx_lib/src/i2c_11xx.c **** 
 960              		.loc 1 369 0
 961 0004 10B5     		push	{r4, lr}	@
 962              		.cfi_def_cfa_offset 8
 963              		.cfi_offset 4, -8
 964              		.cfi_offset 14, -4
 965              		.loc 1 372 0
 966 0006 1A71     		strb	r2, [r3, #4]	@ tmp116, i2c.clk
 373:../../lpc11cx4-library/lpc_chip_11cxx_lib/src/i2c_11xx.c **** 	i2c.mEvent = Chip_I2C_EventHandler;
 967              		.loc 1 373 0
 968 0008 0A4A     		ldr	r2, .L100+4	@ tmp119,
 371:../../lpc11cx4-library/lpc_chip_11cxx_lib/src/i2c_11xx.c **** 	i2c.clk = SYSCTL_CLOCK_I2C;
 969              		.loc 1 371 0
 970 000a 8021     		movs	r1, #128	@ tmp114,
 971              		.loc 1 373 0
 972 000c 9A60     		str	r2, [r3, #8]	@ tmp119, i2c.mEvent
 374:../../lpc11cx4-library/lpc_chip_11cxx_lib/src/i2c_11xx.c **** 	i2c.sEvent = NULL;
 973              		.loc 1 374 0
 974 000e 0022     		movs	r2, #0	@ tmp121,
 975              	.LBB107:
 976              	.LBB108:
ARM GAS  /tmp/ccXw4jW7.s 			page 27


 977              	.LBB109:
 978              		.file 2 "../../lpc11cx4-library/lpc_chip_11cxx_lib/inc/clock_11xx.h"
   1:../../lpc11cx4-library/lpc_chip_11cxx_lib/inc/clock_11xx.h **** /*
   2:../../lpc11cx4-library/lpc_chip_11cxx_lib/inc/clock_11xx.h ****  * @brief LPC11XX Clock control functions
   3:../../lpc11cx4-library/lpc_chip_11cxx_lib/inc/clock_11xx.h ****  *
   4:../../lpc11cx4-library/lpc_chip_11cxx_lib/inc/clock_11xx.h ****  * @note
   5:../../lpc11cx4-library/lpc_chip_11cxx_lib/inc/clock_11xx.h ****  * Copyright(C) NXP Semiconductors, 2012
   6:../../lpc11cx4-library/lpc_chip_11cxx_lib/inc/clock_11xx.h ****  * All rights reserved.
   7:../../lpc11cx4-library/lpc_chip_11cxx_lib/inc/clock_11xx.h ****  *
   8:../../lpc11cx4-library/lpc_chip_11cxx_lib/inc/clock_11xx.h ****  * @par
   9:../../lpc11cx4-library/lpc_chip_11cxx_lib/inc/clock_11xx.h ****  * Software that is described herein is for illustrative purposes only
  10:../../lpc11cx4-library/lpc_chip_11cxx_lib/inc/clock_11xx.h ****  * which provides customers with programming information regarding the
  11:../../lpc11cx4-library/lpc_chip_11cxx_lib/inc/clock_11xx.h ****  * LPC products.  This software is supplied "AS IS" without any warranties of
  12:../../lpc11cx4-library/lpc_chip_11cxx_lib/inc/clock_11xx.h ****  * any kind, and NXP Semiconductors and its licensor disclaim any and
  13:../../lpc11cx4-library/lpc_chip_11cxx_lib/inc/clock_11xx.h ****  * all warranties, express or implied, including all implied warranties of
  14:../../lpc11cx4-library/lpc_chip_11cxx_lib/inc/clock_11xx.h ****  * merchantability, fitness for a particular purpose and non-infringement of
  15:../../lpc11cx4-library/lpc_chip_11cxx_lib/inc/clock_11xx.h ****  * intellectual property rights.  NXP Semiconductors assumes no responsibility
  16:../../lpc11cx4-library/lpc_chip_11cxx_lib/inc/clock_11xx.h ****  * or liability for the use of the software, conveys no license or rights under any
  17:../../lpc11cx4-library/lpc_chip_11cxx_lib/inc/clock_11xx.h ****  * patent, copyright, mask work right, or any other intellectual property rights in
  18:../../lpc11cx4-library/lpc_chip_11cxx_lib/inc/clock_11xx.h ****  * or to any products. NXP Semiconductors reserves the right to make changes
  19:../../lpc11cx4-library/lpc_chip_11cxx_lib/inc/clock_11xx.h ****  * in the software without notification. NXP Semiconductors also makes no
  20:../../lpc11cx4-library/lpc_chip_11cxx_lib/inc/clock_11xx.h ****  * representation or warranty that such application will be suitable for the
  21:../../lpc11cx4-library/lpc_chip_11cxx_lib/inc/clock_11xx.h ****  * specified use without further testing or modification.
  22:../../lpc11cx4-library/lpc_chip_11cxx_lib/inc/clock_11xx.h ****  *
  23:../../lpc11cx4-library/lpc_chip_11cxx_lib/inc/clock_11xx.h ****  * @par
  24:../../lpc11cx4-library/lpc_chip_11cxx_lib/inc/clock_11xx.h ****  * Permission to use, copy, modify, and distribute this software and its
  25:../../lpc11cx4-library/lpc_chip_11cxx_lib/inc/clock_11xx.h ****  * documentation is hereby granted, under NXP Semiconductors' and its
  26:../../lpc11cx4-library/lpc_chip_11cxx_lib/inc/clock_11xx.h ****  * licensor's relevant copyrights in the software, without fee, provided that it
  27:../../lpc11cx4-library/lpc_chip_11cxx_lib/inc/clock_11xx.h ****  * is used in conjunction with NXP Semiconductors microcontrollers.  This
  28:../../lpc11cx4-library/lpc_chip_11cxx_lib/inc/clock_11xx.h ****  * copyright, permission, and disclaimer notice must appear in all copies of
  29:../../lpc11cx4-library/lpc_chip_11cxx_lib/inc/clock_11xx.h ****  * this code.
  30:../../lpc11cx4-library/lpc_chip_11cxx_lib/inc/clock_11xx.h ****  */
  31:../../lpc11cx4-library/lpc_chip_11cxx_lib/inc/clock_11xx.h **** 
  32:../../lpc11cx4-library/lpc_chip_11cxx_lib/inc/clock_11xx.h **** #ifndef __CLOCK_11XX_H_
  33:../../lpc11cx4-library/lpc_chip_11cxx_lib/inc/clock_11xx.h **** #define __CLOCK_11XX_H_
  34:../../lpc11cx4-library/lpc_chip_11cxx_lib/inc/clock_11xx.h **** 
  35:../../lpc11cx4-library/lpc_chip_11cxx_lib/inc/clock_11xx.h **** #ifdef __cplusplus
  36:../../lpc11cx4-library/lpc_chip_11cxx_lib/inc/clock_11xx.h **** extern "C" {
  37:../../lpc11cx4-library/lpc_chip_11cxx_lib/inc/clock_11xx.h **** #endif
  38:../../lpc11cx4-library/lpc_chip_11cxx_lib/inc/clock_11xx.h **** 
  39:../../lpc11cx4-library/lpc_chip_11cxx_lib/inc/clock_11xx.h **** /** @defgroup CLOCK_11XX CHIP: LPC11xx Clock Control block driver
  40:../../lpc11cx4-library/lpc_chip_11cxx_lib/inc/clock_11xx.h ****  * @ingroup CHIP_11XX_Drivers
  41:../../lpc11cx4-library/lpc_chip_11cxx_lib/inc/clock_11xx.h ****  * @{
  42:../../lpc11cx4-library/lpc_chip_11cxx_lib/inc/clock_11xx.h ****  */
  43:../../lpc11cx4-library/lpc_chip_11cxx_lib/inc/clock_11xx.h **** 
  44:../../lpc11cx4-library/lpc_chip_11cxx_lib/inc/clock_11xx.h **** /** Internal oscillator frequency */
  45:../../lpc11cx4-library/lpc_chip_11cxx_lib/inc/clock_11xx.h **** #define SYSCTL_IRC_FREQ (12000000)
  46:../../lpc11cx4-library/lpc_chip_11cxx_lib/inc/clock_11xx.h **** 
  47:../../lpc11cx4-library/lpc_chip_11cxx_lib/inc/clock_11xx.h **** /**
  48:../../lpc11cx4-library/lpc_chip_11cxx_lib/inc/clock_11xx.h ****  * @brief	Set System PLL divider values
  49:../../lpc11cx4-library/lpc_chip_11cxx_lib/inc/clock_11xx.h ****  * @param	msel    : PLL feedback divider value. M = msel + 1.
  50:../../lpc11cx4-library/lpc_chip_11cxx_lib/inc/clock_11xx.h ****  * @param	psel    : PLL post divider value. P =  (1<<psel).
  51:../../lpc11cx4-library/lpc_chip_11cxx_lib/inc/clock_11xx.h ****  * @return	Nothing
  52:../../lpc11cx4-library/lpc_chip_11cxx_lib/inc/clock_11xx.h ****  * @note	See the user manual for how to setup the PLL.
  53:../../lpc11cx4-library/lpc_chip_11cxx_lib/inc/clock_11xx.h ****  */
  54:../../lpc11cx4-library/lpc_chip_11cxx_lib/inc/clock_11xx.h **** STATIC INLINE void Chip_Clock_SetupSystemPLL(uint8_t msel, uint8_t psel)
  55:../../lpc11cx4-library/lpc_chip_11cxx_lib/inc/clock_11xx.h **** {
ARM GAS  /tmp/ccXw4jW7.s 			page 28


  56:../../lpc11cx4-library/lpc_chip_11cxx_lib/inc/clock_11xx.h **** 	LPC_SYSCTL->SYSPLLCTRL = (msel & 0x1F) | ((psel & 0x3) << 5);
  57:../../lpc11cx4-library/lpc_chip_11cxx_lib/inc/clock_11xx.h **** }
  58:../../lpc11cx4-library/lpc_chip_11cxx_lib/inc/clock_11xx.h **** 
  59:../../lpc11cx4-library/lpc_chip_11cxx_lib/inc/clock_11xx.h **** /**
  60:../../lpc11cx4-library/lpc_chip_11cxx_lib/inc/clock_11xx.h ****  * @brief	Read System PLL lock status
  61:../../lpc11cx4-library/lpc_chip_11cxx_lib/inc/clock_11xx.h ****  * @return	true of the PLL is locked. false if not locked
  62:../../lpc11cx4-library/lpc_chip_11cxx_lib/inc/clock_11xx.h ****  */
  63:../../lpc11cx4-library/lpc_chip_11cxx_lib/inc/clock_11xx.h **** STATIC INLINE bool Chip_Clock_IsSystemPLLLocked(void)
  64:../../lpc11cx4-library/lpc_chip_11cxx_lib/inc/clock_11xx.h **** {
  65:../../lpc11cx4-library/lpc_chip_11cxx_lib/inc/clock_11xx.h **** 	return (bool) ((LPC_SYSCTL->SYSPLLSTAT & 1) != 0);
  66:../../lpc11cx4-library/lpc_chip_11cxx_lib/inc/clock_11xx.h **** }
  67:../../lpc11cx4-library/lpc_chip_11cxx_lib/inc/clock_11xx.h **** 
  68:../../lpc11cx4-library/lpc_chip_11cxx_lib/inc/clock_11xx.h **** /**
  69:../../lpc11cx4-library/lpc_chip_11cxx_lib/inc/clock_11xx.h ****  * Clock sources for system and USB PLLs
  70:../../lpc11cx4-library/lpc_chip_11cxx_lib/inc/clock_11xx.h ****  */
  71:../../lpc11cx4-library/lpc_chip_11cxx_lib/inc/clock_11xx.h **** typedef enum CHIP_SYSCTL_PLLCLKSRC {
  72:../../lpc11cx4-library/lpc_chip_11cxx_lib/inc/clock_11xx.h **** 	SYSCTL_PLLCLKSRC_IRC = 0,		/*!< Internal oscillator in */
  73:../../lpc11cx4-library/lpc_chip_11cxx_lib/inc/clock_11xx.h **** 	SYSCTL_PLLCLKSRC_MAINOSC,		/*!< Crystal (main) oscillator in */
  74:../../lpc11cx4-library/lpc_chip_11cxx_lib/inc/clock_11xx.h **** #if defined(CHIP_LPC11AXX)
  75:../../lpc11cx4-library/lpc_chip_11cxx_lib/inc/clock_11xx.h **** 	SYSCTL_PLLCLKSRC_EXT_CLKIN,	/*!< External clock in (11Axx only) */
  76:../../lpc11cx4-library/lpc_chip_11cxx_lib/inc/clock_11xx.h **** #else
  77:../../lpc11cx4-library/lpc_chip_11cxx_lib/inc/clock_11xx.h **** 	SYSCTL_PLLCLKSRC_RESERVED1,	/*!< Reserved */
  78:../../lpc11cx4-library/lpc_chip_11cxx_lib/inc/clock_11xx.h **** #endif
  79:../../lpc11cx4-library/lpc_chip_11cxx_lib/inc/clock_11xx.h **** 	SYSCTL_PLLCLKSRC_RESERVED2,	/*!< Reserved */
  80:../../lpc11cx4-library/lpc_chip_11cxx_lib/inc/clock_11xx.h **** } CHIP_SYSCTL_PLLCLKSRC_T;
  81:../../lpc11cx4-library/lpc_chip_11cxx_lib/inc/clock_11xx.h **** 
  82:../../lpc11cx4-library/lpc_chip_11cxx_lib/inc/clock_11xx.h **** /**
  83:../../lpc11cx4-library/lpc_chip_11cxx_lib/inc/clock_11xx.h ****  * @brief	Set System PLL clock source
  84:../../lpc11cx4-library/lpc_chip_11cxx_lib/inc/clock_11xx.h ****  * @param	src	: Clock source for system PLL
  85:../../lpc11cx4-library/lpc_chip_11cxx_lib/inc/clock_11xx.h ****  * @return	Nothing
  86:../../lpc11cx4-library/lpc_chip_11cxx_lib/inc/clock_11xx.h ****  * @note	This function will also toggle the clock source update register
  87:../../lpc11cx4-library/lpc_chip_11cxx_lib/inc/clock_11xx.h ****  * to update the clock source.
  88:../../lpc11cx4-library/lpc_chip_11cxx_lib/inc/clock_11xx.h ****  */
  89:../../lpc11cx4-library/lpc_chip_11cxx_lib/inc/clock_11xx.h **** void Chip_Clock_SetSystemPLLSource(CHIP_SYSCTL_PLLCLKSRC_T src);
  90:../../lpc11cx4-library/lpc_chip_11cxx_lib/inc/clock_11xx.h **** 
  91:../../lpc11cx4-library/lpc_chip_11cxx_lib/inc/clock_11xx.h **** #if defined(CHIP_LPC11UXX)
  92:../../lpc11cx4-library/lpc_chip_11cxx_lib/inc/clock_11xx.h **** /**
  93:../../lpc11cx4-library/lpc_chip_11cxx_lib/inc/clock_11xx.h ****  * @brief	Set USB PLL divider values
  94:../../lpc11cx4-library/lpc_chip_11cxx_lib/inc/clock_11xx.h ****  * @param	msel    : PLL feedback divider value. M = msel + 1.
  95:../../lpc11cx4-library/lpc_chip_11cxx_lib/inc/clock_11xx.h ****  * @param	psel    : PLL post divider value. P = (1<<psel).
  96:../../lpc11cx4-library/lpc_chip_11cxx_lib/inc/clock_11xx.h ****  * @return	Nothing
  97:../../lpc11cx4-library/lpc_chip_11cxx_lib/inc/clock_11xx.h ****  * @note	See the user manual for how to setup the PLL.
  98:../../lpc11cx4-library/lpc_chip_11cxx_lib/inc/clock_11xx.h ****  */
  99:../../lpc11cx4-library/lpc_chip_11cxx_lib/inc/clock_11xx.h **** STATIC INLINE void Chip_Clock_SetupUSBPLL(uint8_t msel, uint8_t psel)
 100:../../lpc11cx4-library/lpc_chip_11cxx_lib/inc/clock_11xx.h **** {
 101:../../lpc11cx4-library/lpc_chip_11cxx_lib/inc/clock_11xx.h **** 	LPC_SYSCTL->USBPLLCTRL = (msel & 0x1F) | ((psel & 0x3) << 5);
 102:../../lpc11cx4-library/lpc_chip_11cxx_lib/inc/clock_11xx.h **** }
 103:../../lpc11cx4-library/lpc_chip_11cxx_lib/inc/clock_11xx.h **** 
 104:../../lpc11cx4-library/lpc_chip_11cxx_lib/inc/clock_11xx.h **** /**
 105:../../lpc11cx4-library/lpc_chip_11cxx_lib/inc/clock_11xx.h ****  * @brief	Read USB PLL lock status
 106:../../lpc11cx4-library/lpc_chip_11cxx_lib/inc/clock_11xx.h ****  * @return	true of the PLL is locked. false if not locked
 107:../../lpc11cx4-library/lpc_chip_11cxx_lib/inc/clock_11xx.h ****  */
 108:../../lpc11cx4-library/lpc_chip_11cxx_lib/inc/clock_11xx.h **** STATIC INLINE bool Chip_Clock_IsUSBPLLLocked(void)
 109:../../lpc11cx4-library/lpc_chip_11cxx_lib/inc/clock_11xx.h **** {
 110:../../lpc11cx4-library/lpc_chip_11cxx_lib/inc/clock_11xx.h **** 	return (bool) ((LPC_SYSCTL->USBPLLSTAT & 1) != 0);
 111:../../lpc11cx4-library/lpc_chip_11cxx_lib/inc/clock_11xx.h **** }
 112:../../lpc11cx4-library/lpc_chip_11cxx_lib/inc/clock_11xx.h **** 
ARM GAS  /tmp/ccXw4jW7.s 			page 29


 113:../../lpc11cx4-library/lpc_chip_11cxx_lib/inc/clock_11xx.h **** /**
 114:../../lpc11cx4-library/lpc_chip_11cxx_lib/inc/clock_11xx.h ****  * @brief	Set USB PLL clock source
 115:../../lpc11cx4-library/lpc_chip_11cxx_lib/inc/clock_11xx.h ****  * @param	src	: Clock source for USB PLL
 116:../../lpc11cx4-library/lpc_chip_11cxx_lib/inc/clock_11xx.h ****  * @return	Nothing
 117:../../lpc11cx4-library/lpc_chip_11cxx_lib/inc/clock_11xx.h ****  * @note	This function will also toggle the clock source update register
 118:../../lpc11cx4-library/lpc_chip_11cxx_lib/inc/clock_11xx.h ****  * to update the clock source.
 119:../../lpc11cx4-library/lpc_chip_11cxx_lib/inc/clock_11xx.h ****  */
 120:../../lpc11cx4-library/lpc_chip_11cxx_lib/inc/clock_11xx.h **** void Chip_Clock_SetUSBPLLSource(CHIP_SYSCTL_PLLCLKSRC_T src);
 121:../../lpc11cx4-library/lpc_chip_11cxx_lib/inc/clock_11xx.h **** 
 122:../../lpc11cx4-library/lpc_chip_11cxx_lib/inc/clock_11xx.h **** #endif /*defined(CHIP_LPC11UXX)*/
 123:../../lpc11cx4-library/lpc_chip_11cxx_lib/inc/clock_11xx.h **** 
 124:../../lpc11cx4-library/lpc_chip_11cxx_lib/inc/clock_11xx.h **** /**
 125:../../lpc11cx4-library/lpc_chip_11cxx_lib/inc/clock_11xx.h ****  * @brief	Bypass System Oscillator and set oscillator frequency range
 126:../../lpc11cx4-library/lpc_chip_11cxx_lib/inc/clock_11xx.h ****  * @param	bypass	: Flag to bypass oscillator
 127:../../lpc11cx4-library/lpc_chip_11cxx_lib/inc/clock_11xx.h ****  * @param	highfr	: Flag to set oscillator range from 15-25 MHz
 128:../../lpc11cx4-library/lpc_chip_11cxx_lib/inc/clock_11xx.h ****  * @return	Nothing
 129:../../lpc11cx4-library/lpc_chip_11cxx_lib/inc/clock_11xx.h ****  * @note	Sets the PLL input to bypass the oscillator. This would be
 130:../../lpc11cx4-library/lpc_chip_11cxx_lib/inc/clock_11xx.h ****  * used if an external clock that is not an oscillator is attached
 131:../../lpc11cx4-library/lpc_chip_11cxx_lib/inc/clock_11xx.h ****  * to the XTALIN pin.
 132:../../lpc11cx4-library/lpc_chip_11cxx_lib/inc/clock_11xx.h ****  */
 133:../../lpc11cx4-library/lpc_chip_11cxx_lib/inc/clock_11xx.h **** void Chip_Clock_SetPLLBypass(bool bypass, bool highfr);
 134:../../lpc11cx4-library/lpc_chip_11cxx_lib/inc/clock_11xx.h **** 
 135:../../lpc11cx4-library/lpc_chip_11cxx_lib/inc/clock_11xx.h **** /**
 136:../../lpc11cx4-library/lpc_chip_11cxx_lib/inc/clock_11xx.h ****  * Watchdog and low frequency oscillator frequencies plus or minus 40%
 137:../../lpc11cx4-library/lpc_chip_11cxx_lib/inc/clock_11xx.h ****  */
 138:../../lpc11cx4-library/lpc_chip_11cxx_lib/inc/clock_11xx.h **** typedef enum CHIP_WDTLFO_OSC {
 139:../../lpc11cx4-library/lpc_chip_11cxx_lib/inc/clock_11xx.h **** 	WDTLFO_OSC_ILLEGAL,
 140:../../lpc11cx4-library/lpc_chip_11cxx_lib/inc/clock_11xx.h **** 	WDTLFO_OSC_0_60,	/*!< 0.6 MHz watchdog/LFO rate */
 141:../../lpc11cx4-library/lpc_chip_11cxx_lib/inc/clock_11xx.h **** 	WDTLFO_OSC_1_05,	/*!< 1.05 MHz watchdog/LFO rate */
 142:../../lpc11cx4-library/lpc_chip_11cxx_lib/inc/clock_11xx.h **** 	WDTLFO_OSC_1_40,	/*!< 1.4 MHz watchdog/LFO rate */
 143:../../lpc11cx4-library/lpc_chip_11cxx_lib/inc/clock_11xx.h **** 	WDTLFO_OSC_1_75,	/*!< 1.75 MHz watchdog/LFO rate */
 144:../../lpc11cx4-library/lpc_chip_11cxx_lib/inc/clock_11xx.h **** 	WDTLFO_OSC_2_10,	/*!< 2.1 MHz watchdog/LFO rate */
 145:../../lpc11cx4-library/lpc_chip_11cxx_lib/inc/clock_11xx.h **** 	WDTLFO_OSC_2_40,	/*!< 2.4 MHz watchdog/LFO rate */
 146:../../lpc11cx4-library/lpc_chip_11cxx_lib/inc/clock_11xx.h **** 	WDTLFO_OSC_2_70,	/*!< 2.7 MHz watchdog/LFO rate */
 147:../../lpc11cx4-library/lpc_chip_11cxx_lib/inc/clock_11xx.h **** 	WDTLFO_OSC_3_00,	/*!< 3.0 MHz watchdog/LFO rate */
 148:../../lpc11cx4-library/lpc_chip_11cxx_lib/inc/clock_11xx.h **** 	WDTLFO_OSC_3_25,	/*!< 3.25 MHz watchdog/LFO rate */
 149:../../lpc11cx4-library/lpc_chip_11cxx_lib/inc/clock_11xx.h **** 	WDTLFO_OSC_3_50,	/*!< 3.5 MHz watchdog/LFO rate */
 150:../../lpc11cx4-library/lpc_chip_11cxx_lib/inc/clock_11xx.h **** 	WDTLFO_OSC_3_75,	/*!< 3.75 MHz watchdog/LFO rate */
 151:../../lpc11cx4-library/lpc_chip_11cxx_lib/inc/clock_11xx.h **** 	WDTLFO_OSC_4_00,	/*!< 4.0 MHz watchdog/LFO rate */
 152:../../lpc11cx4-library/lpc_chip_11cxx_lib/inc/clock_11xx.h **** 	WDTLFO_OSC_4_20,	/*!< 4.2 MHz watchdog/LFO rate */
 153:../../lpc11cx4-library/lpc_chip_11cxx_lib/inc/clock_11xx.h **** 	WDTLFO_OSC_4_40,	/*!< 4.4 MHz watchdog/LFO rate */
 154:../../lpc11cx4-library/lpc_chip_11cxx_lib/inc/clock_11xx.h **** 	WDTLFO_OSC_4_60		/*!< 4.6 MHz watchdog/LFO rate */
 155:../../lpc11cx4-library/lpc_chip_11cxx_lib/inc/clock_11xx.h **** } CHIP_WDTLFO_OSC_T;
 156:../../lpc11cx4-library/lpc_chip_11cxx_lib/inc/clock_11xx.h **** 
 157:../../lpc11cx4-library/lpc_chip_11cxx_lib/inc/clock_11xx.h **** /**
 158:../../lpc11cx4-library/lpc_chip_11cxx_lib/inc/clock_11xx.h ****  * @brief	Setup Watchdog oscillator rate and divider
 159:../../lpc11cx4-library/lpc_chip_11cxx_lib/inc/clock_11xx.h ****  * @param	wdtclk	: Selected watchdog clock rate
 160:../../lpc11cx4-library/lpc_chip_11cxx_lib/inc/clock_11xx.h ****  * @param	div		: Watchdog divider value, even value between 2 and 64
 161:../../lpc11cx4-library/lpc_chip_11cxx_lib/inc/clock_11xx.h ****  * @return	Nothing
 162:../../lpc11cx4-library/lpc_chip_11cxx_lib/inc/clock_11xx.h ****  * @note	Watchdog rate = selected rate divided by divider rate
 163:../../lpc11cx4-library/lpc_chip_11cxx_lib/inc/clock_11xx.h ****  */
 164:../../lpc11cx4-library/lpc_chip_11cxx_lib/inc/clock_11xx.h **** STATIC INLINE void Chip_Clock_SetWDTOSC(CHIP_WDTLFO_OSC_T wdtclk, uint8_t div)
 165:../../lpc11cx4-library/lpc_chip_11cxx_lib/inc/clock_11xx.h **** {
 166:../../lpc11cx4-library/lpc_chip_11cxx_lib/inc/clock_11xx.h **** 	LPC_SYSCTL->WDTOSCCTRL  = (((uint32_t) wdtclk) << 5) | ((div >> 1) - 1);
 167:../../lpc11cx4-library/lpc_chip_11cxx_lib/inc/clock_11xx.h **** }
 168:../../lpc11cx4-library/lpc_chip_11cxx_lib/inc/clock_11xx.h **** 
 169:../../lpc11cx4-library/lpc_chip_11cxx_lib/inc/clock_11xx.h **** #if defined(CHIP_LPC11AXX)
ARM GAS  /tmp/ccXw4jW7.s 			page 30


 170:../../lpc11cx4-library/lpc_chip_11cxx_lib/inc/clock_11xx.h **** /**
 171:../../lpc11cx4-library/lpc_chip_11cxx_lib/inc/clock_11xx.h ****  * @brief	Setup low frequency oscillator rate and divider
 172:../../lpc11cx4-library/lpc_chip_11cxx_lib/inc/clock_11xx.h ****  * @param	lfoclk	: Selected low frequency clock rate
 173:../../lpc11cx4-library/lpc_chip_11cxx_lib/inc/clock_11xx.h ****  * @param	div		: Low frequency divider value, even value between 2 and 64
 174:../../lpc11cx4-library/lpc_chip_11cxx_lib/inc/clock_11xx.h ****  * @return	Nothing
 175:../../lpc11cx4-library/lpc_chip_11cxx_lib/inc/clock_11xx.h ****  * @note	Low frequency oscillator rate = selected rate divided by divider rate
 176:../../lpc11cx4-library/lpc_chip_11cxx_lib/inc/clock_11xx.h ****  */
 177:../../lpc11cx4-library/lpc_chip_11cxx_lib/inc/clock_11xx.h **** STATIC INLINE void Chip_Clock_SetLFOSC(CHIP_WDTLFO_OSC_T lfoclk, uint8_t div)
 178:../../lpc11cx4-library/lpc_chip_11cxx_lib/inc/clock_11xx.h **** {
 179:../../lpc11cx4-library/lpc_chip_11cxx_lib/inc/clock_11xx.h **** 	LPC_SYSCTL->LFOSCCTRL  = (((uint32_t) lfoclk) << 5) | ((div >> 1) - 1);
 180:../../lpc11cx4-library/lpc_chip_11cxx_lib/inc/clock_11xx.h **** }
 181:../../lpc11cx4-library/lpc_chip_11cxx_lib/inc/clock_11xx.h **** 
 182:../../lpc11cx4-library/lpc_chip_11cxx_lib/inc/clock_11xx.h **** #endif /*CHIP_LPC11AXX*/
 183:../../lpc11cx4-library/lpc_chip_11cxx_lib/inc/clock_11xx.h **** 
 184:../../lpc11cx4-library/lpc_chip_11cxx_lib/inc/clock_11xx.h **** /**
 185:../../lpc11cx4-library/lpc_chip_11cxx_lib/inc/clock_11xx.h ****  * Clock sources for main system clock
 186:../../lpc11cx4-library/lpc_chip_11cxx_lib/inc/clock_11xx.h ****  */
 187:../../lpc11cx4-library/lpc_chip_11cxx_lib/inc/clock_11xx.h **** typedef enum CHIP_SYSCTL_MAINCLKSRC {
 188:../../lpc11cx4-library/lpc_chip_11cxx_lib/inc/clock_11xx.h **** 	SYSCTL_MAINCLKSRC_IRC = 0,		/*!< Internal oscillator */
 189:../../lpc11cx4-library/lpc_chip_11cxx_lib/inc/clock_11xx.h **** 	SYSCTL_MAINCLKSRC_PLLIN,		/*!< System PLL input */
 190:../../lpc11cx4-library/lpc_chip_11cxx_lib/inc/clock_11xx.h **** 	SYSCTL_MAINCLKSRC_LFOSC,		/*!< LF oscillator rate (11Axx only) */
 191:../../lpc11cx4-library/lpc_chip_11cxx_lib/inc/clock_11xx.h **** 	SYSCTL_MAINCLKSRC_WDTOSC = SYSCTL_MAINCLKSRC_LFOSC,	/*!< Watchdog oscillator rate */
 192:../../lpc11cx4-library/lpc_chip_11cxx_lib/inc/clock_11xx.h **** 	SYSCTL_MAINCLKSRC_PLLOUT,		/*!< System PLL output */
 193:../../lpc11cx4-library/lpc_chip_11cxx_lib/inc/clock_11xx.h **** } CHIP_SYSCTL_MAINCLKSRC_T;
 194:../../lpc11cx4-library/lpc_chip_11cxx_lib/inc/clock_11xx.h **** 
 195:../../lpc11cx4-library/lpc_chip_11cxx_lib/inc/clock_11xx.h **** /**
 196:../../lpc11cx4-library/lpc_chip_11cxx_lib/inc/clock_11xx.h ****  * @brief	Set main system clock source
 197:../../lpc11cx4-library/lpc_chip_11cxx_lib/inc/clock_11xx.h ****  * @param	src	: Clock source for main system
 198:../../lpc11cx4-library/lpc_chip_11cxx_lib/inc/clock_11xx.h ****  * @return	Nothing
 199:../../lpc11cx4-library/lpc_chip_11cxx_lib/inc/clock_11xx.h ****  * @note	This function will also toggle the clock source update register
 200:../../lpc11cx4-library/lpc_chip_11cxx_lib/inc/clock_11xx.h ****  * to update the clock source.
 201:../../lpc11cx4-library/lpc_chip_11cxx_lib/inc/clock_11xx.h ****  */
 202:../../lpc11cx4-library/lpc_chip_11cxx_lib/inc/clock_11xx.h **** void Chip_Clock_SetMainClockSource(CHIP_SYSCTL_MAINCLKSRC_T src);
 203:../../lpc11cx4-library/lpc_chip_11cxx_lib/inc/clock_11xx.h **** 
 204:../../lpc11cx4-library/lpc_chip_11cxx_lib/inc/clock_11xx.h **** /**
 205:../../lpc11cx4-library/lpc_chip_11cxx_lib/inc/clock_11xx.h ****  * @brief   Returns the main clock source
 206:../../lpc11cx4-library/lpc_chip_11cxx_lib/inc/clock_11xx.h ****  * @return	Which clock is used for the core clock source?
 207:../../lpc11cx4-library/lpc_chip_11cxx_lib/inc/clock_11xx.h ****  */
 208:../../lpc11cx4-library/lpc_chip_11cxx_lib/inc/clock_11xx.h **** STATIC INLINE CHIP_SYSCTL_MAINCLKSRC_T Chip_Clock_GetMainClockSource(void)
 209:../../lpc11cx4-library/lpc_chip_11cxx_lib/inc/clock_11xx.h **** {
 210:../../lpc11cx4-library/lpc_chip_11cxx_lib/inc/clock_11xx.h **** 	return (CHIP_SYSCTL_MAINCLKSRC_T) (LPC_SYSCTL->MAINCLKSEL);
 211:../../lpc11cx4-library/lpc_chip_11cxx_lib/inc/clock_11xx.h **** }
 212:../../lpc11cx4-library/lpc_chip_11cxx_lib/inc/clock_11xx.h **** 
 213:../../lpc11cx4-library/lpc_chip_11cxx_lib/inc/clock_11xx.h **** /**
 214:../../lpc11cx4-library/lpc_chip_11cxx_lib/inc/clock_11xx.h ****  * @brief	Set system clock divider
 215:../../lpc11cx4-library/lpc_chip_11cxx_lib/inc/clock_11xx.h ****  * @param	div	: divider for system clock
 216:../../lpc11cx4-library/lpc_chip_11cxx_lib/inc/clock_11xx.h ****  * @return	Nothing
 217:../../lpc11cx4-library/lpc_chip_11cxx_lib/inc/clock_11xx.h ****  * @note	Use 0 to disable, or a divider value of 1 to 255. The system clock
 218:../../lpc11cx4-library/lpc_chip_11cxx_lib/inc/clock_11xx.h ****  * rate is the main system clock divided by this value.
 219:../../lpc11cx4-library/lpc_chip_11cxx_lib/inc/clock_11xx.h ****  */
 220:../../lpc11cx4-library/lpc_chip_11cxx_lib/inc/clock_11xx.h **** STATIC INLINE void Chip_Clock_SetSysClockDiv(uint32_t div)
 221:../../lpc11cx4-library/lpc_chip_11cxx_lib/inc/clock_11xx.h **** {
 222:../../lpc11cx4-library/lpc_chip_11cxx_lib/inc/clock_11xx.h **** 	LPC_SYSCTL->SYSAHBCLKDIV  = div;
 223:../../lpc11cx4-library/lpc_chip_11cxx_lib/inc/clock_11xx.h **** }
 224:../../lpc11cx4-library/lpc_chip_11cxx_lib/inc/clock_11xx.h **** 
 225:../../lpc11cx4-library/lpc_chip_11cxx_lib/inc/clock_11xx.h **** /**
 226:../../lpc11cx4-library/lpc_chip_11cxx_lib/inc/clock_11xx.h ****  * System and peripheral clocks
ARM GAS  /tmp/ccXw4jW7.s 			page 31


 227:../../lpc11cx4-library/lpc_chip_11cxx_lib/inc/clock_11xx.h ****  */
 228:../../lpc11cx4-library/lpc_chip_11cxx_lib/inc/clock_11xx.h **** typedef enum CHIP_SYSCTL_CLOCK {
 229:../../lpc11cx4-library/lpc_chip_11cxx_lib/inc/clock_11xx.h **** 	SYSCTL_CLOCK_SYS = 0,				/*!< 0: System clock */
 230:../../lpc11cx4-library/lpc_chip_11cxx_lib/inc/clock_11xx.h **** 	SYSCTL_CLOCK_ROM,					/*!<1:  ROM clock */
 231:../../lpc11cx4-library/lpc_chip_11cxx_lib/inc/clock_11xx.h **** 	SYSCTL_CLOCK_RAM,					/*!< 2: RAM clock */
 232:../../lpc11cx4-library/lpc_chip_11cxx_lib/inc/clock_11xx.h **** 	SYSCTL_CLOCK_FLASHREG,				/*!< 3: FLASH register interface clock */
 233:../../lpc11cx4-library/lpc_chip_11cxx_lib/inc/clock_11xx.h **** 	SYSCTL_CLOCK_FLASHARRAY,			/*!< 4: FLASH array access clock */
 234:../../lpc11cx4-library/lpc_chip_11cxx_lib/inc/clock_11xx.h **** #if defined(CHIP_LPC110X)
 235:../../lpc11cx4-library/lpc_chip_11cxx_lib/inc/clock_11xx.h **** 	SYSCTL_CLOCK_RESERVED5,				/*!< 5: Reserved */
 236:../../lpc11cx4-library/lpc_chip_11cxx_lib/inc/clock_11xx.h **** #else
 237:../../lpc11cx4-library/lpc_chip_11cxx_lib/inc/clock_11xx.h **** 	SYSCTL_CLOCK_I2C,					/*!< 5: I2C clock, not on LPC110x */
 238:../../lpc11cx4-library/lpc_chip_11cxx_lib/inc/clock_11xx.h **** #endif
 239:../../lpc11cx4-library/lpc_chip_11cxx_lib/inc/clock_11xx.h **** 	SYSCTL_CLOCK_GPIO,					/*!< 6: GPIO clock */
 240:../../lpc11cx4-library/lpc_chip_11cxx_lib/inc/clock_11xx.h **** 	SYSCTL_CLOCK_CT16B0,				/*!< 7: 16-bit Counter/timer 0 clock */
 241:../../lpc11cx4-library/lpc_chip_11cxx_lib/inc/clock_11xx.h **** 	SYSCTL_CLOCK_CT16B1,				/*!< 8: 16-bit Counter/timer 1 clock */
 242:../../lpc11cx4-library/lpc_chip_11cxx_lib/inc/clock_11xx.h **** 	SYSCTL_CLOCK_CT32B0,				/*!< 9: 32-bit Counter/timer 0 clock */
 243:../../lpc11cx4-library/lpc_chip_11cxx_lib/inc/clock_11xx.h **** 	SYSCTL_CLOCK_CT32B1,				/*!< 10: 32-bit Counter/timer 1 clock */
 244:../../lpc11cx4-library/lpc_chip_11cxx_lib/inc/clock_11xx.h **** 	SYSCTL_CLOCK_SSP0,					/*!< 11: SSP0 clock */
 245:../../lpc11cx4-library/lpc_chip_11cxx_lib/inc/clock_11xx.h **** 	SYSCTL_CLOCK_UART0,					/*!< 12: UART0 clock */
 246:../../lpc11cx4-library/lpc_chip_11cxx_lib/inc/clock_11xx.h **** 	SYSCTL_CLOCK_ADC,					/*!< 13: ADC clock */
 247:../../lpc11cx4-library/lpc_chip_11cxx_lib/inc/clock_11xx.h **** #if defined(CHIP_LPC11UXX)
 248:../../lpc11cx4-library/lpc_chip_11cxx_lib/inc/clock_11xx.h **** 	SYSCTL_CLOCK_USB,					/*!< 14: USB clock, LPC11Uxx only */
 249:../../lpc11cx4-library/lpc_chip_11cxx_lib/inc/clock_11xx.h **** #else
 250:../../lpc11cx4-library/lpc_chip_11cxx_lib/inc/clock_11xx.h **** 	SYSCTL_CLOCK_RESERVED14,			/*!< 14: Reserved */
 251:../../lpc11cx4-library/lpc_chip_11cxx_lib/inc/clock_11xx.h **** #endif
 252:../../lpc11cx4-library/lpc_chip_11cxx_lib/inc/clock_11xx.h **** 	SYSCTL_CLOCK_WDT,					/*!< 15: Watchdog timer clock */
 253:../../lpc11cx4-library/lpc_chip_11cxx_lib/inc/clock_11xx.h **** 	SYSCTL_CLOCK_IOCON,					/*!< 16: IOCON block clock */
 254:../../lpc11cx4-library/lpc_chip_11cxx_lib/inc/clock_11xx.h **** #if defined(CHIP_LPC11CXX)
 255:../../lpc11cx4-library/lpc_chip_11cxx_lib/inc/clock_11xx.h **** 	SYSCTL_CLOCK_CAN,					/*!< 17: CAN clock, LPC11Cxx only */
 256:../../lpc11cx4-library/lpc_chip_11cxx_lib/inc/clock_11xx.h **** #else
 257:../../lpc11cx4-library/lpc_chip_11cxx_lib/inc/clock_11xx.h **** 	SYSCTL_CLOCK_RESERVED17,			/*!< 17: Reserved */
 258:../../lpc11cx4-library/lpc_chip_11cxx_lib/inc/clock_11xx.h **** #endif
 259:../../lpc11cx4-library/lpc_chip_11cxx_lib/inc/clock_11xx.h **** #if !(defined(CHIP_LPC110X) || defined(CHIP_LPC11XXLV))  
 260:../../lpc11cx4-library/lpc_chip_11cxx_lib/inc/clock_11xx.h **** 	SYSCTL_CLOCK_SSP1,					/*!< 18: SSP1 clock, LPC11A/C/E/Uxx//1125 only */
 261:../../lpc11cx4-library/lpc_chip_11cxx_lib/inc/clock_11xx.h **** #if !defined(CHIP_LPC11CXX)
 262:../../lpc11cx4-library/lpc_chip_11cxx_lib/inc/clock_11xx.h **** 	SYSCTL_CLOCK_PINT,					/*!< 19: GPIO Pin int register interface clock, LPC11A/E/Uxx only */
 263:../../lpc11cx4-library/lpc_chip_11cxx_lib/inc/clock_11xx.h **** #if defined(CHIP_LPC11AXX)
 264:../../lpc11cx4-library/lpc_chip_11cxx_lib/inc/clock_11xx.h **** 	SYSCTL_CLOCK_ACOMP,					/*!< 20: Analog comparator clock, LPC11Axx only */
 265:../../lpc11cx4-library/lpc_chip_11cxx_lib/inc/clock_11xx.h **** 	SYSCTL_CLOCK_DAC,					/*!< 21: DAC clock, LPC11Axx only */
 266:../../lpc11cx4-library/lpc_chip_11cxx_lib/inc/clock_11xx.h **** #else
 267:../../lpc11cx4-library/lpc_chip_11cxx_lib/inc/clock_11xx.h **** 	SYSCTL_CLOCK_RESERVED20,			/*!< 20: Reserved */
 268:../../lpc11cx4-library/lpc_chip_11cxx_lib/inc/clock_11xx.h **** 	SYSCTL_CLOCK_RESERVED21,			/*!< 21: Reserved */
 269:../../lpc11cx4-library/lpc_chip_11cxx_lib/inc/clock_11xx.h **** #endif
 270:../../lpc11cx4-library/lpc_chip_11cxx_lib/inc/clock_11xx.h **** 	SYSCTL_CLOCK_RESERVED22,			/*!< 22: Reserved */
 271:../../lpc11cx4-library/lpc_chip_11cxx_lib/inc/clock_11xx.h **** 	SYSCTL_CLOCK_P0INT,					/*!< 23: GPIO GROUP1 interrupt register clock, LPC11Axx only */
 272:../../lpc11cx4-library/lpc_chip_11cxx_lib/inc/clock_11xx.h **** 	SYSCTL_CLOCK_GROUP0INT = SYSCTL_CLOCK_P0INT,/*!< 23: GPIO GROUP0 interrupt register interface cloc
 273:../../lpc11cx4-library/lpc_chip_11cxx_lib/inc/clock_11xx.h **** 	SYSCTL_CLOCK_P1INT,					/*!< 24: GPIO GROUP1 interrupt register clock, LPC11Axx only */
 274:../../lpc11cx4-library/lpc_chip_11cxx_lib/inc/clock_11xx.h **** 	SYSCTL_CLOCK_GROUP1INT = SYSCTL_CLOCK_P1INT,/*!< 24: GPIO GROUP1 interrupt register interface cloc
 275:../../lpc11cx4-library/lpc_chip_11cxx_lib/inc/clock_11xx.h **** 	SYSCTL_CLOCK_RESERVED25,			/*!< 25: Reserved */
 276:../../lpc11cx4-library/lpc_chip_11cxx_lib/inc/clock_11xx.h **** #if defined(CHIP_LPC11EXX)  || defined(CHIP_LPC11UXX)
 277:../../lpc11cx4-library/lpc_chip_11cxx_lib/inc/clock_11xx.h **** 	SYSCTL_CLOCK_RAM1,					/*!< 26: SRAM block (0x20000000) clock, LPC11E/Uxx only */
 278:../../lpc11cx4-library/lpc_chip_11cxx_lib/inc/clock_11xx.h **** #else
 279:../../lpc11cx4-library/lpc_chip_11cxx_lib/inc/clock_11xx.h **** 	SYSCTL_CLOCK_RESERVED26,			/*!< 26: Reserved */
 280:../../lpc11cx4-library/lpc_chip_11cxx_lib/inc/clock_11xx.h **** #endif
 281:../../lpc11cx4-library/lpc_chip_11cxx_lib/inc/clock_11xx.h **** #if defined(CHIP_LPC11UXX)
 282:../../lpc11cx4-library/lpc_chip_11cxx_lib/inc/clock_11xx.h **** 	SYSCTL_CLOCK_USBRAM,				/*!< 27: USB SRAM block clock, LPC11Uxx only */
 283:../../lpc11cx4-library/lpc_chip_11cxx_lib/inc/clock_11xx.h **** #else
ARM GAS  /tmp/ccXw4jW7.s 			page 32


 284:../../lpc11cx4-library/lpc_chip_11cxx_lib/inc/clock_11xx.h **** 	SYSCTL_CLOCK_RESERVED27,			/*!< 27: Reserved */
 285:../../lpc11cx4-library/lpc_chip_11cxx_lib/inc/clock_11xx.h **** #endif
 286:../../lpc11cx4-library/lpc_chip_11cxx_lib/inc/clock_11xx.h **** #endif /* !defined(CHIP_LPC11CXX) */
 287:../../lpc11cx4-library/lpc_chip_11cxx_lib/inc/clock_11xx.h **** #endif /* !(defined(CHIP_LPC110X) || defined(CHIP_LPC11XXLV)) */
 288:../../lpc11cx4-library/lpc_chip_11cxx_lib/inc/clock_11xx.h **** } CHIP_SYSCTL_CLOCK_T;
 289:../../lpc11cx4-library/lpc_chip_11cxx_lib/inc/clock_11xx.h **** 
 290:../../lpc11cx4-library/lpc_chip_11cxx_lib/inc/clock_11xx.h **** /**
 291:../../lpc11cx4-library/lpc_chip_11cxx_lib/inc/clock_11xx.h ****  * @brief	Enable a system or peripheral clock
 292:../../lpc11cx4-library/lpc_chip_11cxx_lib/inc/clock_11xx.h ****  * @param	clk	: Clock to enable
 293:../../lpc11cx4-library/lpc_chip_11cxx_lib/inc/clock_11xx.h ****  * @return	Nothing
 294:../../lpc11cx4-library/lpc_chip_11cxx_lib/inc/clock_11xx.h ****  */
 295:../../lpc11cx4-library/lpc_chip_11cxx_lib/inc/clock_11xx.h **** STATIC INLINE void Chip_Clock_EnablePeriphClock(CHIP_SYSCTL_CLOCK_T clk)
 296:../../lpc11cx4-library/lpc_chip_11cxx_lib/inc/clock_11xx.h **** {
 297:../../lpc11cx4-library/lpc_chip_11cxx_lib/inc/clock_11xx.h **** 	LPC_SYSCTL->SYSAHBCLKCTRL |= (1 << clk);
 979              		.loc 2 297 0
 980 0010 2024     		movs	r4, #32	@ tmp130,
 981 0012 0948     		ldr	r0, .L100+8	@ tmp128,
 982              	.LVL52:
 983              	.LBE109:
 984              	.LBE108:
 985              	.LBE107:
 986              		.loc 1 374 0
 987 0014 DA60     		str	r2, [r3, #12]	@ tmp121, i2c.sEvent
 375:../../lpc11cx4-library/lpc_chip_11cxx_lib/src/i2c_11xx.c **** 	i2c.mXfer = NULL;
 988              		.loc 1 375 0
 989 0016 1A61     		str	r2, [r3, #16]	@ tmp121, i2c.mXfer
 376:../../lpc11cx4-library/lpc_chip_11cxx_lib/src/i2c_11xx.c **** 	i2c.sXfer = NULL;
 990              		.loc 1 376 0
 991 0018 5A61     		str	r2, [r3, #20]	@ tmp121, i2c.sXfer
 377:../../lpc11cx4-library/lpc_chip_11cxx_lib/src/i2c_11xx.c **** 	i2c.flags = 0;
 992              		.loc 1 377 0
 993 001a 9A61     		str	r2, [r3, #24]	@ tmp121, i2c.flags
 994              	.LVL53:
 371:../../lpc11cx4-library/lpc_chip_11cxx_lib/src/i2c_11xx.c **** 	i2c.clk = SYSCTL_CLOCK_I2C;
 995              		.loc 1 371 0
 996 001c C905     		lsls	r1, r1, #23	@ tmp114, tmp114,
 997              	.LBB116:
 998              	.LBB113:
 999              	.LBB110:
 1000              		.loc 2 297 0
 1001 001e 8032     		adds	r2, r2, #128	@ tmp129,
 1002              	.LBE110:
 1003              	.LBE113:
 1004              	.LBE116:
 371:../../lpc11cx4-library/lpc_chip_11cxx_lib/src/i2c_11xx.c **** 	i2c.clk = SYSCTL_CLOCK_I2C;
 1005              		.loc 1 371 0
 1006 0020 1960     		str	r1, [r3]	@ tmp114, i2c.ip
 1007              	.LBB117:
 1008              	.LBB114:
 1009              	.LBB111:
 1010              		.loc 2 297 0
 1011 0022 8358     		ldr	r3, [r0, r2]	@ _11, MEM[(struct LPC_SYSCTL_T *)1074036736B].SYSAHBCLKCTRL
 1012              	.LBE111:
 1013              	.LBE114:
 1014              	.LBE117:
 378:../../lpc11cx4-library/lpc_chip_11cxx_lib/src/i2c_11xx.c **** 
 379:../../lpc11cx4-library/lpc_chip_11cxx_lib/src/i2c_11xx.c **** 
ARM GAS  /tmp/ccXw4jW7.s 			page 33


 380:../../lpc11cx4-library/lpc_chip_11cxx_lib/src/i2c_11xx.c **** 	enableClk(id);
 381:../../lpc11cx4-library/lpc_chip_11cxx_lib/src/i2c_11xx.c **** 
 382:../../lpc11cx4-library/lpc_chip_11cxx_lib/src/i2c_11xx.c **** 	/* Set I2C operation to default */
 383:../../lpc11cx4-library/lpc_chip_11cxx_lib/src/i2c_11xx.c **** 	LPC_I2Cx(id)->CONCLR = (I2C_CON_AA | I2C_CON_SI | I2C_CON_STA | I2C_CON_I2EN);
 384:../../lpc11cx4-library/lpc_chip_11cxx_lib/src/i2c_11xx.c **** }
 1015              		.loc 1 384 0
 1016              		@ sp needed	@
 1017              	.LBB118:
 1018              	.LBB115:
 1019              	.LBB112:
 1020              		.loc 2 297 0
 1021 0024 2343     		orrs	r3, r4	@ _12, tmp130
 1022 0026 8350     		str	r3, [r0, r2]	@ _12, MEM[(struct LPC_SYSCTL_T *)1074036736B].SYSAHBCLKCTRL
 1023              	.LVL54:
 1024              	.LBE112:
 1025              	.LBE115:
 1026              	.LBE118:
 383:../../lpc11cx4-library/lpc_chip_11cxx_lib/src/i2c_11xx.c **** }
 1027              		.loc 1 383 0
 1028 0028 6C23     		movs	r3, #108	@ tmp134,
 1029 002a 8B61     		str	r3, [r1, #24]	@ tmp134, MEM[(struct LPC_I2C_T *)1073741824B].CONCLR
 1030              		.loc 1 384 0
 1031 002c 10BD     		pop	{r4, pc}
 1032              	.L101:
 1033 002e C046     		.align	2
 1034              	.L100:
 1035 0030 00000000 		.word	.LANCHOR0
 1036 0034 00000000 		.word	Chip_I2C_EventHandler
 1037 0038 00800440 		.word	1074036736
 1038              		.cfi_endproc
 1039              	.LFE214:
 1040              		.size	Chip_I2C_Init, .-Chip_I2C_Init
 1041              		.section	.text.Chip_I2C_DeInit,"ax",%progbits
 1042              		.align	1
 1043              		.p2align 2,,3
 1044              		.global	Chip_I2C_DeInit
 1045              		.syntax unified
 1046              		.code	16
 1047              		.thumb_func
 1048              		.fpu softvfp
 1049              		.type	Chip_I2C_DeInit, %function
 1050              	Chip_I2C_DeInit:
 1051              	.LFB215:
 385:../../lpc11cx4-library/lpc_chip_11cxx_lib/src/i2c_11xx.c **** 
 386:../../lpc11cx4-library/lpc_chip_11cxx_lib/src/i2c_11xx.c **** /* De-initializes the I2C peripheral registers to their default reset values */
 387:../../lpc11cx4-library/lpc_chip_11cxx_lib/src/i2c_11xx.c **** void Chip_I2C_DeInit(I2C_ID_T id)
 388:../../lpc11cx4-library/lpc_chip_11cxx_lib/src/i2c_11xx.c **** {
 1052              		.loc 1 388 0
 1053              		.cfi_startproc
 1054              		@ args = 0, pretend = 0, frame = 0
 1055              		@ frame_needed = 0, uses_anonymous_args = 0
 1056              	.LVL55:
 389:../../lpc11cx4-library/lpc_chip_11cxx_lib/src/i2c_11xx.c **** 	/* Disable I2C control */
 390:../../lpc11cx4-library/lpc_chip_11cxx_lib/src/i2c_11xx.c **** 	LPC_I2Cx(id)->CONCLR = I2C_CON_I2EN | I2C_CON_SI | I2C_CON_STO | I2C_CON_STA | I2C_CON_AA;
 1057              		.loc 1 390 0
 1058 0000 7C21     		movs	r1, #124	@ tmp120,
 388:../../lpc11cx4-library/lpc_chip_11cxx_lib/src/i2c_11xx.c **** 	/* Disable I2C control */
ARM GAS  /tmp/ccXw4jW7.s 			page 34


 1059              		.loc 1 388 0
 1060 0002 10B5     		push	{r4, lr}	@
 1061              		.cfi_def_cfa_offset 8
 1062              		.cfi_offset 4, -8
 1063              		.cfi_offset 14, -4
 1064              		.loc 1 390 0
 1065 0004 054A     		ldr	r2, .L103	@ tmp119,
 1066              	.LBB119:
 1067              	.LBB120:
 1068              	.LBB121:
 1069              	.LBB122:
 298:../../lpc11cx4-library/lpc_chip_11cxx_lib/inc/clock_11xx.h **** }
 299:../../lpc11cx4-library/lpc_chip_11cxx_lib/inc/clock_11xx.h **** 
 300:../../lpc11cx4-library/lpc_chip_11cxx_lib/inc/clock_11xx.h **** /**
 301:../../lpc11cx4-library/lpc_chip_11cxx_lib/inc/clock_11xx.h ****  * @brief	Disable a system or peripheral clock
 302:../../lpc11cx4-library/lpc_chip_11cxx_lib/inc/clock_11xx.h ****  * @param	clk	: Clock to disable
 303:../../lpc11cx4-library/lpc_chip_11cxx_lib/inc/clock_11xx.h ****  * @return	Nothing
 304:../../lpc11cx4-library/lpc_chip_11cxx_lib/inc/clock_11xx.h ****  */
 305:../../lpc11cx4-library/lpc_chip_11cxx_lib/inc/clock_11xx.h **** STATIC INLINE void Chip_Clock_DisablePeriphClock(CHIP_SYSCTL_CLOCK_T clk)
 306:../../lpc11cx4-library/lpc_chip_11cxx_lib/inc/clock_11xx.h **** {
 307:../../lpc11cx4-library/lpc_chip_11cxx_lib/inc/clock_11xx.h **** 	LPC_SYSCTL->SYSAHBCLKCTRL &= ~(1 << clk);
 1070              		.loc 2 307 0
 1071 0006 0648     		ldr	r0, .L103+4	@ tmp121,
 1072              	.LVL56:
 1073              	.LBE122:
 1074              	.LBE121:
 1075              	.LBE120:
 1076              	.LBE119:
 1077              		.loc 1 390 0
 1078 0008 1368     		ldr	r3, [r2]	@ _2, i2c.ip
 391:../../lpc11cx4-library/lpc_chip_11cxx_lib/src/i2c_11xx.c **** 
 392:../../lpc11cx4-library/lpc_chip_11cxx_lib/src/i2c_11xx.c **** 	disableClk(id);
 393:../../lpc11cx4-library/lpc_chip_11cxx_lib/src/i2c_11xx.c **** }
 1079              		.loc 1 393 0
 1080              		@ sp needed	@
 390:../../lpc11cx4-library/lpc_chip_11cxx_lib/src/i2c_11xx.c **** 
 1081              		.loc 1 390 0
 1082 000a 9961     		str	r1, [r3, #24]	@ tmp120, _2->CONCLR
 1083              	.LVL57:
 1084              	.LBB126:
 1085              	.LBB125:
 1086              	.LBB124:
 1087              	.LBB123:
 1088              		.loc 2 307 0
 1089 000c 1479     		ldrb	r4, [r2, #4]	@ tmp124,
 1090 000e 0122     		movs	r2, #1	@ tmp126,
 1091 0010 A240     		lsls	r2, r2, r4	@ tmp125, tmp126, tmp124
 1092 0012 0431     		adds	r1, r1, #4	@ tmp122,
 1093 0014 4358     		ldr	r3, [r0, r1]	@ _6, MEM[(struct LPC_SYSCTL_T *)1074036736B].SYSAHBCLKCTRL
 1094 0016 9343     		bics	r3, r2	@ _11, tmp125
 1095 0018 4350     		str	r3, [r0, r1]	@ _11, MEM[(struct LPC_SYSCTL_T *)1074036736B].SYSAHBCLKCTRL
 1096              	.LVL58:
 1097              	.LBE123:
 1098              	.LBE124:
 1099              	.LBE125:
 1100              	.LBE126:
 1101              		.loc 1 393 0
ARM GAS  /tmp/ccXw4jW7.s 			page 35


 1102 001a 10BD     		pop	{r4, pc}
 1103              	.L104:
 1104              		.align	2
 1105              	.L103:
 1106 001c 00000000 		.word	.LANCHOR0
 1107 0020 00800440 		.word	1074036736
 1108              		.cfi_endproc
 1109              	.LFE215:
 1110              		.size	Chip_I2C_DeInit, .-Chip_I2C_DeInit
 1111              		.global	__aeabi_uidiv
 1112              		.section	.text.Chip_I2C_SetClockRate,"ax",%progbits
 1113              		.align	1
 1114              		.p2align 2,,3
 1115              		.global	Chip_I2C_SetClockRate
 1116              		.syntax unified
 1117              		.code	16
 1118              		.thumb_func
 1119              		.fpu softvfp
 1120              		.type	Chip_I2C_SetClockRate, %function
 1121              	Chip_I2C_SetClockRate:
 1122              	.LFB216:
 394:../../lpc11cx4-library/lpc_chip_11cxx_lib/src/i2c_11xx.c **** 
 395:../../lpc11cx4-library/lpc_chip_11cxx_lib/src/i2c_11xx.c **** /* Set up clock rate for LPC_I2C peripheral */
 396:../../lpc11cx4-library/lpc_chip_11cxx_lib/src/i2c_11xx.c **** void Chip_I2C_SetClockRate(I2C_ID_T id, uint32_t clockrate)
 397:../../lpc11cx4-library/lpc_chip_11cxx_lib/src/i2c_11xx.c **** {
 1123              		.loc 1 397 0
 1124              		.cfi_startproc
 1125              		@ args = 0, pretend = 0, frame = 0
 1126              		@ frame_needed = 0, uses_anonymous_args = 0
 1127              	.LVL59:
 398:../../lpc11cx4-library/lpc_chip_11cxx_lib/src/i2c_11xx.c **** 	UNUSED(id);
 399:../../lpc11cx4-library/lpc_chip_11cxx_lib/src/i2c_11xx.c **** 	uint32_t SCLValue;
 400:../../lpc11cx4-library/lpc_chip_11cxx_lib/src/i2c_11xx.c **** 
 401:../../lpc11cx4-library/lpc_chip_11cxx_lib/src/i2c_11xx.c **** 	SCLValue = (getClkRate() / clockrate);
 1128              		.loc 1 401 0
 1129 0000 064B     		ldr	r3, .L106	@ tmp118,
 397:../../lpc11cx4-library/lpc_chip_11cxx_lib/src/i2c_11xx.c **** 	UNUSED(id);
 1130              		.loc 1 397 0
 1131 0002 10B5     		push	{r4, lr}	@
 1132              		.cfi_def_cfa_offset 8
 1133              		.cfi_offset 4, -8
 1134              		.cfi_offset 14, -4
 1135              		.loc 1 401 0
 1136 0004 1868     		ldr	r0, [r3]	@, SystemCoreClock
 1137              	.LVL60:
 1138 0006 FFF7FEFF 		bl	__aeabi_uidiv	@
 1139              	.LVL61:
 402:../../lpc11cx4-library/lpc_chip_11cxx_lib/src/i2c_11xx.c **** 	LPC_I2Cx(id)->SCLH = (uint32_t) (SCLValue >> 1);
 1140              		.loc 1 402 0
 1141 000a 054B     		ldr	r3, .L106+4	@ tmp122,
 1142 000c 4208     		lsrs	r2, r0, #1	@ _6, tmp121,
 1143 000e 1B68     		ldr	r3, [r3]	@ _5, i2c.ip
 403:../../lpc11cx4-library/lpc_chip_11cxx_lib/src/i2c_11xx.c **** 	LPC_I2Cx(id)->SCLL = (uint32_t) (SCLValue - LPC_I2Cx(id)->SCLH);
 404:../../lpc11cx4-library/lpc_chip_11cxx_lib/src/i2c_11xx.c **** }
 1144              		.loc 1 404 0
 1145              		@ sp needed	@
 402:../../lpc11cx4-library/lpc_chip_11cxx_lib/src/i2c_11xx.c **** 	LPC_I2Cx(id)->SCLH = (uint32_t) (SCLValue >> 1);
ARM GAS  /tmp/ccXw4jW7.s 			page 36


 1146              		.loc 1 402 0
 1147 0010 1A61     		str	r2, [r3, #16]	@ _6, _5->SCLH
 403:../../lpc11cx4-library/lpc_chip_11cxx_lib/src/i2c_11xx.c **** 	LPC_I2Cx(id)->SCLL = (uint32_t) (SCLValue - LPC_I2Cx(id)->SCLH);
 1148              		.loc 1 403 0
 1149 0012 1A69     		ldr	r2, [r3, #16]	@ _8, _5->SCLH
 1150 0014 801A     		subs	r0, r0, r2	@ _9, tmp121, _8
 1151              	.LVL62:
 1152 0016 5861     		str	r0, [r3, #20]	@ _9, _5->SCLL
 1153              		.loc 1 404 0
 1154 0018 10BD     		pop	{r4, pc}
 1155              	.L107:
 1156 001a C046     		.align	2
 1157              	.L106:
 1158 001c 00000000 		.word	SystemCoreClock
 1159 0020 00000000 		.word	.LANCHOR0
 1160              		.cfi_endproc
 1161              	.LFE216:
 1162              		.size	Chip_I2C_SetClockRate, .-Chip_I2C_SetClockRate
 1163              		.section	.text.Chip_I2C_GetClockRate,"ax",%progbits
 1164              		.align	1
 1165              		.p2align 2,,3
 1166              		.global	Chip_I2C_GetClockRate
 1167              		.syntax unified
 1168              		.code	16
 1169              		.thumb_func
 1170              		.fpu softvfp
 1171              		.type	Chip_I2C_GetClockRate, %function
 1172              	Chip_I2C_GetClockRate:
 1173              	.LFB217:
 405:../../lpc11cx4-library/lpc_chip_11cxx_lib/src/i2c_11xx.c **** 
 406:../../lpc11cx4-library/lpc_chip_11cxx_lib/src/i2c_11xx.c **** /* Get current clock rate for LPC_I2C peripheral */
 407:../../lpc11cx4-library/lpc_chip_11cxx_lib/src/i2c_11xx.c **** uint32_t Chip_I2C_GetClockRate(I2C_ID_T id)
 408:../../lpc11cx4-library/lpc_chip_11cxx_lib/src/i2c_11xx.c **** {
 1174              		.loc 1 408 0
 1175              		.cfi_startproc
 1176              		@ args = 0, pretend = 0, frame = 0
 1177              		@ frame_needed = 0, uses_anonymous_args = 0
 1178              	.LVL63:
 409:../../lpc11cx4-library/lpc_chip_11cxx_lib/src/i2c_11xx.c **** 	UNUSED(id);
 410:../../lpc11cx4-library/lpc_chip_11cxx_lib/src/i2c_11xx.c **** 	return getClkRate() / (LPC_I2Cx(id)->SCLH + LPC_I2Cx(id)->SCLL);
 1179              		.loc 1 410 0
 1180 0000 054B     		ldr	r3, .L109	@ tmp117,
 408:../../lpc11cx4-library/lpc_chip_11cxx_lib/src/i2c_11xx.c **** 	UNUSED(id);
 1181              		.loc 1 408 0
 1182 0002 10B5     		push	{r4, lr}	@
 1183              		.cfi_def_cfa_offset 8
 1184              		.cfi_offset 4, -8
 1185              		.cfi_offset 14, -4
 1186              		.loc 1 410 0
 1187 0004 1B68     		ldr	r3, [r3]	@ _3, i2c.ip
 411:../../lpc11cx4-library/lpc_chip_11cxx_lib/src/i2c_11xx.c **** }
 1188              		.loc 1 411 0
 1189              		@ sp needed	@
 410:../../lpc11cx4-library/lpc_chip_11cxx_lib/src/i2c_11xx.c **** }
 1190              		.loc 1 410 0
 1191 0006 1969     		ldr	r1, [r3, #16]	@ _4, _3->SCLH
 1192 0008 5B69     		ldr	r3, [r3, #20]	@ _5, _3->SCLL
ARM GAS  /tmp/ccXw4jW7.s 			page 37


 1193 000a C918     		adds	r1, r1, r3	@ tmp120, _4, _5
 1194 000c 034B     		ldr	r3, .L109+4	@ tmp119,
 1195 000e 1868     		ldr	r0, [r3]	@, SystemCoreClock
 1196              	.LVL64:
 1197 0010 FFF7FEFF 		bl	__aeabi_uidiv	@
 1198              	.LVL65:
 1199              		.loc 1 411 0
 1200 0014 10BD     		pop	{r4, pc}
 1201              	.L110:
 1202 0016 C046     		.align	2
 1203              	.L109:
 1204 0018 00000000 		.word	.LANCHOR0
 1205 001c 00000000 		.word	SystemCoreClock
 1206              		.cfi_endproc
 1207              	.LFE217:
 1208              		.size	Chip_I2C_GetClockRate, .-Chip_I2C_GetClockRate
 1209              		.section	.text.Chip_I2C_SetMasterEventHandler,"ax",%progbits
 1210              		.align	1
 1211              		.p2align 2,,3
 1212              		.global	Chip_I2C_SetMasterEventHandler
 1213              		.syntax unified
 1214              		.code	16
 1215              		.thumb_func
 1216              		.fpu softvfp
 1217              		.type	Chip_I2C_SetMasterEventHandler, %function
 1218              	Chip_I2C_SetMasterEventHandler:
 1219              	.LFB218:
 412:../../lpc11cx4-library/lpc_chip_11cxx_lib/src/i2c_11xx.c **** 
 413:../../lpc11cx4-library/lpc_chip_11cxx_lib/src/i2c_11xx.c **** /* Set the master event handler */
 414:../../lpc11cx4-library/lpc_chip_11cxx_lib/src/i2c_11xx.c **** int Chip_I2C_SetMasterEventHandler(I2C_ID_T id, I2C_EVENTHANDLER_T event)
 415:../../lpc11cx4-library/lpc_chip_11cxx_lib/src/i2c_11xx.c **** {
 1220              		.loc 1 415 0
 1221              		.cfi_startproc
 1222              		@ args = 0, pretend = 0, frame = 0
 1223              		@ frame_needed = 0, uses_anonymous_args = 0
 1224              		@ link register save eliminated.
 1225              	.LVL66:
 416:../../lpc11cx4-library/lpc_chip_11cxx_lib/src/i2c_11xx.c **** 	UNUSED(id);
 417:../../lpc11cx4-library/lpc_chip_11cxx_lib/src/i2c_11xx.c **** 	struct i2c_interface *iic = &i2c; 
 418:../../lpc11cx4-library/lpc_chip_11cxx_lib/src/i2c_11xx.c **** 	if (!iic->mXfer) {
 1226              		.loc 1 418 0
 1227 0000 064B     		ldr	r3, .L114	@ tmp116,
 1228 0002 1A69     		ldr	r2, [r3, #16]	@ tmp126, i2c.mXfer
 1229 0004 002A     		cmp	r2, #0	@ tmp126,
 1230 0006 05D0     		beq	.L112	@,
 1231 0008 9868     		ldr	r0, [r3, #8]	@ i2c.mEvent, i2c.mEvent
 1232              	.LVL67:
 1233 000a 401A     		subs	r0, r0, r1	@ tmp122, i2c.mEvent, event
 1234 000c 4342     		rsbs	r3, r0, #0	@ <retval>, tmp122
 1235 000e 4341     		adcs	r3, r3, r0	@ <retval>, tmp122
 1236              	.LVL68:
 1237              	.L111:
 419:../../lpc11cx4-library/lpc_chip_11cxx_lib/src/i2c_11xx.c **** 		iic->mEvent = event;
 420:../../lpc11cx4-library/lpc_chip_11cxx_lib/src/i2c_11xx.c **** 	}
 421:../../lpc11cx4-library/lpc_chip_11cxx_lib/src/i2c_11xx.c **** 	return iic->mEvent == event;
 422:../../lpc11cx4-library/lpc_chip_11cxx_lib/src/i2c_11xx.c **** }
 1238              		.loc 1 422 0
ARM GAS  /tmp/ccXw4jW7.s 			page 38


 1239 0010 1800     		movs	r0, r3	@, <retval>
 1240              		@ sp needed	@
 1241 0012 7047     		bx	lr
 1242              	.LVL69:
 1243              	.L112:
 419:../../lpc11cx4-library/lpc_chip_11cxx_lib/src/i2c_11xx.c **** 		iic->mEvent = event;
 1244              		.loc 1 419 0
 1245 0014 9960     		str	r1, [r3, #8]	@ event, i2c.mEvent
 1246 0016 0123     		movs	r3, #1	@ <retval>,
 421:../../lpc11cx4-library/lpc_chip_11cxx_lib/src/i2c_11xx.c **** }
 1247              		.loc 1 421 0
 1248 0018 FAE7     		b	.L111	@
 1249              	.L115:
 1250 001a C046     		.align	2
 1251              	.L114:
 1252 001c 00000000 		.word	.LANCHOR0
 1253              		.cfi_endproc
 1254              	.LFE218:
 1255              		.size	Chip_I2C_SetMasterEventHandler, .-Chip_I2C_SetMasterEventHandler
 1256              		.section	.text.Chip_I2C_GetMasterEventHandler,"ax",%progbits
 1257              		.align	1
 1258              		.p2align 2,,3
 1259              		.global	Chip_I2C_GetMasterEventHandler
 1260              		.syntax unified
 1261              		.code	16
 1262              		.thumb_func
 1263              		.fpu softvfp
 1264              		.type	Chip_I2C_GetMasterEventHandler, %function
 1265              	Chip_I2C_GetMasterEventHandler:
 1266              	.LFB219:
 423:../../lpc11cx4-library/lpc_chip_11cxx_lib/src/i2c_11xx.c **** 
 424:../../lpc11cx4-library/lpc_chip_11cxx_lib/src/i2c_11xx.c **** /* Get the master event handler */
 425:../../lpc11cx4-library/lpc_chip_11cxx_lib/src/i2c_11xx.c **** I2C_EVENTHANDLER_T Chip_I2C_GetMasterEventHandler(I2C_ID_T id)
 426:../../lpc11cx4-library/lpc_chip_11cxx_lib/src/i2c_11xx.c **** {
 1267              		.loc 1 426 0
 1268              		.cfi_startproc
 1269              		@ args = 0, pretend = 0, frame = 0
 1270              		@ frame_needed = 0, uses_anonymous_args = 0
 1271              		@ link register save eliminated.
 1272              	.LVL70:
 427:../../lpc11cx4-library/lpc_chip_11cxx_lib/src/i2c_11xx.c **** 	UNUSED(id);
 428:../../lpc11cx4-library/lpc_chip_11cxx_lib/src/i2c_11xx.c **** 	return i2c.mEvent;
 1273              		.loc 1 428 0
 1274 0000 014B     		ldr	r3, .L117	@ tmp113,
 429:../../lpc11cx4-library/lpc_chip_11cxx_lib/src/i2c_11xx.c **** }
 1275              		.loc 1 429 0
 1276              		@ sp needed	@
 428:../../lpc11cx4-library/lpc_chip_11cxx_lib/src/i2c_11xx.c **** }
 1277              		.loc 1 428 0
 1278 0002 9868     		ldr	r0, [r3, #8]	@ i2c.mEvent, i2c.mEvent
 1279              	.LVL71:
 1280              		.loc 1 429 0
 1281 0004 7047     		bx	lr
 1282              	.L118:
 1283 0006 C046     		.align	2
 1284              	.L117:
 1285 0008 00000000 		.word	.LANCHOR0
ARM GAS  /tmp/ccXw4jW7.s 			page 39


 1286              		.cfi_endproc
 1287              	.LFE219:
 1288              		.size	Chip_I2C_GetMasterEventHandler, .-Chip_I2C_GetMasterEventHandler
 1289              		.section	.text.Chip_I2C_MasterTransfer,"ax",%progbits
 1290              		.align	1
 1291              		.p2align 2,,3
 1292              		.global	Chip_I2C_MasterTransfer
 1293              		.syntax unified
 1294              		.code	16
 1295              		.thumb_func
 1296              		.fpu softvfp
 1297              		.type	Chip_I2C_MasterTransfer, %function
 1298              	Chip_I2C_MasterTransfer:
 1299              	.LFB220:
 430:../../lpc11cx4-library/lpc_chip_11cxx_lib/src/i2c_11xx.c **** 
 431:../../lpc11cx4-library/lpc_chip_11cxx_lib/src/i2c_11xx.c **** /* Transmit and Receive data in master mode */
 432:../../lpc11cx4-library/lpc_chip_11cxx_lib/src/i2c_11xx.c **** int Chip_I2C_MasterTransfer(I2C_ID_T id, I2C_XFER_T *xfer)
 433:../../lpc11cx4-library/lpc_chip_11cxx_lib/src/i2c_11xx.c **** {
 1300              		.loc 1 433 0
 1301              		.cfi_startproc
 1302              		@ args = 0, pretend = 0, frame = 0
 1303              		@ frame_needed = 0, uses_anonymous_args = 0
 1304              	.LVL72:
 1305 0000 70B5     		push	{r4, r5, r6, lr}	@
 1306              		.cfi_def_cfa_offset 16
 1307              		.cfi_offset 4, -16
 1308              		.cfi_offset 5, -12
 1309              		.cfi_offset 6, -8
 1310              		.cfi_offset 14, -4
 434:../../lpc11cx4-library/lpc_chip_11cxx_lib/src/i2c_11xx.c **** 	struct i2c_interface *iic = &i2c;
 435:../../lpc11cx4-library/lpc_chip_11cxx_lib/src/i2c_11xx.c **** 
 436:../../lpc11cx4-library/lpc_chip_11cxx_lib/src/i2c_11xx.c **** 	i2c.mEvent(id, I2C_EVENT_LOCK);
 1311              		.loc 1 436 0
 1312 0002 164C     		ldr	r4, .L128	@ tmp150,
 433:../../lpc11cx4-library/lpc_chip_11cxx_lib/src/i2c_11xx.c **** 	struct i2c_interface *iic = &i2c;
 1313              		.loc 1 433 0
 1314 0004 0D00     		movs	r5, r1	@ xfer, xfer
 1315              		.loc 1 436 0
 1316 0006 A368     		ldr	r3, [r4, #8]	@ tmp152, i2c.mEvent
 1317 0008 0321     		movs	r1, #3	@,
 1318              	.LVL73:
 433:../../lpc11cx4-library/lpc_chip_11cxx_lib/src/i2c_11xx.c **** 	struct i2c_interface *iic = &i2c;
 1319              		.loc 1 433 0
 1320 000a 0600     		movs	r6, r0	@ id, id
 1321              		.loc 1 436 0
 1322 000c 9847     		blx	r3	@ tmp152
 1323              	.LVL74:
 437:../../lpc11cx4-library/lpc_chip_11cxx_lib/src/i2c_11xx.c **** 	xfer->status = I2C_STATUS_BUSY;
 1324              		.loc 1 437 0
 1325 000e 0423     		movs	r3, #4	@ tmp126,
 1326 0010 2B75     		strb	r3, [r5, #20]	@ tmp126, xfer_8(D)->status
 438:../../lpc11cx4-library/lpc_chip_11cxx_lib/src/i2c_11xx.c **** 	iic->mXfer = xfer;
 439:../../lpc11cx4-library/lpc_chip_11cxx_lib/src/i2c_11xx.c **** 	/* If slave xfer not in progress */
 440:../../lpc11cx4-library/lpc_chip_11cxx_lib/src/i2c_11xx.c **** 	if (!iic->sXfer) {
 1327              		.loc 1 440 0
 1328 0012 6369     		ldr	r3, [r4, #20]	@ tmp154, i2c.sXfer
 438:../../lpc11cx4-library/lpc_chip_11cxx_lib/src/i2c_11xx.c **** 	iic->mXfer = xfer;
ARM GAS  /tmp/ccXw4jW7.s 			page 40


 1329              		.loc 1 438 0
 1330 0014 2561     		str	r5, [r4, #16]	@ xfer, i2c.mXfer
 1331              		.loc 1 440 0
 1332 0016 002B     		cmp	r3, #0	@ tmp154,
 1333 0018 19D0     		beq	.L127	@,
 1334              	.L120:
 441:../../lpc11cx4-library/lpc_chip_11cxx_lib/src/i2c_11xx.c **** 		startMasterXfer(iic->ip);
 442:../../lpc11cx4-library/lpc_chip_11cxx_lib/src/i2c_11xx.c **** 	} 
 443:../../lpc11cx4-library/lpc_chip_11cxx_lib/src/i2c_11xx.c **** 	i2c.mEvent(id, I2C_EVENT_WAIT);
 1335              		.loc 1 443 0
 1336 001a 0121     		movs	r1, #1	@,
 1337 001c A368     		ldr	r3, [r4, #8]	@ tmp155, i2c.mEvent
 1338 001e 3000     		movs	r0, r6	@, id
 1339 0020 9847     		blx	r3	@ tmp155
 1340              	.LVL75:
 444:../../lpc11cx4-library/lpc_chip_11cxx_lib/src/i2c_11xx.c **** 	iic->mXfer = 0;
 1341              		.loc 1 444 0
 1342 0022 0023     		movs	r3, #0	@ tmp137,
 1343              	.LBB127:
 1344              	.LBB128:
 118:../../lpc11cx4-library/lpc_chip_11cxx_lib/src/i2c_11xx.c **** }
 1345              		.loc 1 118 0
 1346 0024 1021     		movs	r1, #16	@ tmp139,
 1347 0026 2268     		ldr	r2, [r4]	@ pretmp_2, i2c.ip
 1348              	.LBE128:
 1349              	.LBE127:
 1350              		.loc 1 444 0
 1351 0028 2361     		str	r3, [r4, #16]	@ tmp137, i2c.mXfer
 1352              	.L121:
 1353              	.LVL76:
 1354              	.LBB130:
 1355              	.LBB129:
 118:../../lpc11cx4-library/lpc_chip_11cxx_lib/src/i2c_11xx.c **** }
 1356              		.loc 1 118 0 discriminator 1
 1357 002a 1368     		ldr	r3, [r2]	@ _23, pretmp_2->CONSET
 1358              	.LVL77:
 1359              	.LBE129:
 1360              	.LBE130:
 445:../../lpc11cx4-library/lpc_chip_11cxx_lib/src/i2c_11xx.c **** 
 446:../../lpc11cx4-library/lpc_chip_11cxx_lib/src/i2c_11xx.c **** 	/* Wait for stop condition to appear on bus */
 447:../../lpc11cx4-library/lpc_chip_11cxx_lib/src/i2c_11xx.c **** 	while (!isI2CBusFree(iic->ip)) {}
 1361              		.loc 1 447 0 discriminator 1
 1362 002c 1942     		tst	r1, r3	@ tmp139, _23
 1363 002e FCD1     		bne	.L121	@,
 448:../../lpc11cx4-library/lpc_chip_11cxx_lib/src/i2c_11xx.c **** 
 449:../../lpc11cx4-library/lpc_chip_11cxx_lib/src/i2c_11xx.c **** 	/* Start slave if one is active */
 450:../../lpc11cx4-library/lpc_chip_11cxx_lib/src/i2c_11xx.c **** 	if (SLAVE_ACTIVE(iic)) {
 1364              		.loc 1 450 0
 1365 0030 FF23     		movs	r3, #255	@ tmp144,
 1366 0032 A169     		ldr	r1, [r4, #24]	@ tmp157, i2c.flags
 1367 0034 1B02     		lsls	r3, r3, #8	@ tmp144, tmp144,
 1368 0036 1942     		tst	r1, r3	@ tmp157, tmp144
 1369 0038 03D0     		beq	.L122	@,
 1370              	.LVL78:
 1371              	.LBB131:
 1372              	.LBB132:
 109:../../lpc11cx4-library/lpc_chip_11cxx_lib/src/i2c_11xx.c **** 
ARM GAS  /tmp/ccXw4jW7.s 			page 41


 1373              		.loc 1 109 0
 1374 003a 3823     		movs	r3, #56	@ tmp145,
 1375 003c 9361     		str	r3, [r2, #24]	@ tmp145, pretmp_2->CONCLR
 112:../../lpc11cx4-library/lpc_chip_11cxx_lib/src/i2c_11xx.c **** }
 1376              		.loc 1 112 0
 1377 003e 0C33     		adds	r3, r3, #12	@ tmp146,
 1378 0040 1360     		str	r3, [r2]	@ tmp146, pretmp_2->CONSET
 1379              	.LVL79:
 1380              	.L122:
 1381              	.LBE132:
 1382              	.LBE131:
 451:../../lpc11cx4-library/lpc_chip_11cxx_lib/src/i2c_11xx.c **** 		startSlaverXfer(iic->ip);
 452:../../lpc11cx4-library/lpc_chip_11cxx_lib/src/i2c_11xx.c **** 	}
 453:../../lpc11cx4-library/lpc_chip_11cxx_lib/src/i2c_11xx.c **** 
 454:../../lpc11cx4-library/lpc_chip_11cxx_lib/src/i2c_11xx.c **** 	i2c.mEvent(id, I2C_EVENT_UNLOCK);
 1383              		.loc 1 454 0
 1384 0042 3000     		movs	r0, r6	@, id
 1385 0044 A368     		ldr	r3, [r4, #8]	@ i2c.mEvent, i2c.mEvent
 1386 0046 0421     		movs	r1, #4	@,
 1387 0048 9847     		blx	r3	@ i2c.mEvent
 1388              	.LVL80:
 455:../../lpc11cx4-library/lpc_chip_11cxx_lib/src/i2c_11xx.c **** 	return (int) xfer->status;
 456:../../lpc11cx4-library/lpc_chip_11cxx_lib/src/i2c_11xx.c **** }
 1389              		.loc 1 456 0
 1390              		@ sp needed	@
 455:../../lpc11cx4-library/lpc_chip_11cxx_lib/src/i2c_11xx.c **** 	return (int) xfer->status;
 1391              		.loc 1 455 0
 1392 004a 287D     		ldrb	r0, [r5, #20]	@ tmp149,
 1393              	.LVL81:
 1394              		.loc 1 456 0
 1395 004c 70BD     		pop	{r4, r5, r6, pc}
 1396              	.LVL82:
 1397              	.L127:
 1398              	.LBB133:
 1399              	.LBB134:
  99:../../lpc11cx4-library/lpc_chip_11cxx_lib/src/i2c_11xx.c **** 
 1400              		.loc 1 99 0
 1401 004e 3C22     		movs	r2, #60	@ tmp132,
 1402              	.LBE134:
 1403              	.LBE133:
 441:../../lpc11cx4-library/lpc_chip_11cxx_lib/src/i2c_11xx.c **** 	} 
 1404              		.loc 1 441 0
 1405 0050 2368     		ldr	r3, [r4]	@ _12, i2c.ip
 1406              	.LVL83:
 1407              	.LBB136:
 1408              	.LBB135:
  99:../../lpc11cx4-library/lpc_chip_11cxx_lib/src/i2c_11xx.c **** 
 1409              		.loc 1 99 0
 1410 0052 9A61     		str	r2, [r3, #24]	@ tmp132, _12->CONCLR
 102:../../lpc11cx4-library/lpc_chip_11cxx_lib/src/i2c_11xx.c **** }
 1411              		.loc 1 102 0
 1412 0054 2432     		adds	r2, r2, #36	@ tmp133,
 1413 0056 1A60     		str	r2, [r3]	@ tmp133, _12->CONSET
 1414 0058 DFE7     		b	.L120	@
 1415              	.L129:
 1416 005a C046     		.align	2
 1417              	.L128:
ARM GAS  /tmp/ccXw4jW7.s 			page 42


 1418 005c 00000000 		.word	.LANCHOR0
 1419              	.LBE135:
 1420              	.LBE136:
 1421              		.cfi_endproc
 1422              	.LFE220:
 1423              		.size	Chip_I2C_MasterTransfer, .-Chip_I2C_MasterTransfer
 1424              		.section	.text.Chip_I2C_MasterSend,"ax",%progbits
 1425              		.align	1
 1426              		.p2align 2,,3
 1427              		.global	Chip_I2C_MasterSend
 1428              		.syntax unified
 1429              		.code	16
 1430              		.thumb_func
 1431              		.fpu softvfp
 1432              		.type	Chip_I2C_MasterSend, %function
 1433              	Chip_I2C_MasterSend:
 1434              	.LFB221:
 457:../../lpc11cx4-library/lpc_chip_11cxx_lib/src/i2c_11xx.c **** 
 458:../../lpc11cx4-library/lpc_chip_11cxx_lib/src/i2c_11xx.c **** /* Master tx only */
 459:../../lpc11cx4-library/lpc_chip_11cxx_lib/src/i2c_11xx.c **** int Chip_I2C_MasterSend(I2C_ID_T id, uint8_t slaveAddr, const uint8_t *buff, uint8_t len)
 460:../../lpc11cx4-library/lpc_chip_11cxx_lib/src/i2c_11xx.c **** {
 1435              		.loc 1 460 0
 1436              		.cfi_startproc
 1437              		@ args = 0, pretend = 0, frame = 24
 1438              		@ frame_needed = 0, uses_anonymous_args = 0
 1439              	.LVL84:
 1440 0000 30B5     		push	{r4, r5, lr}	@
 1441              		.cfi_def_cfa_offset 12
 1442              		.cfi_offset 4, -12
 1443              		.cfi_offset 5, -8
 1444              		.cfi_offset 14, -4
 1445 0002 87B0     		sub	sp, sp, #28	@,,
 1446              		.cfi_def_cfa_offset 40
 1447              		.loc 1 460 0
 1448 0004 1D00     		movs	r5, r3	@ len, len
 461:../../lpc11cx4-library/lpc_chip_11cxx_lib/src/i2c_11xx.c **** 	I2C_XFER_T xfer;
 462:../../lpc11cx4-library/lpc_chip_11cxx_lib/src/i2c_11xx.c **** 	xfer.slaveAddr = slaveAddr;
 1449              		.loc 1 462 0
 1450 0006 6B46     		mov	r3, sp	@ tmp129,
 1451              	.LVL85:
 1452 0008 1970     		strb	r1, [r3]	@ slaveAddr, xfer.slaveAddr
 463:../../lpc11cx4-library/lpc_chip_11cxx_lib/src/i2c_11xx.c **** 	xfer.txBuff = buff;
 464:../../lpc11cx4-library/lpc_chip_11cxx_lib/src/i2c_11xx.c **** 	xfer.txSz = len;
 465:../../lpc11cx4-library/lpc_chip_11cxx_lib/src/i2c_11xx.c **** 	xfer.rxSz = 0;
 1453              		.loc 1 465 0
 1454 000a 0023     		movs	r3, #0	@ tmp123,
 460:../../lpc11cx4-library/lpc_chip_11cxx_lib/src/i2c_11xx.c **** 	I2C_XFER_T xfer;
 1455              		.loc 1 460 0
 1456 000c 0400     		movs	r4, r0	@ id, id
 463:../../lpc11cx4-library/lpc_chip_11cxx_lib/src/i2c_11xx.c **** 	xfer.txBuff = buff;
 1457              		.loc 1 463 0
 1458 000e 0192     		str	r2, [sp, #4]	@ buff, xfer.txBuff
 464:../../lpc11cx4-library/lpc_chip_11cxx_lib/src/i2c_11xx.c **** 	xfer.rxSz = 0;
 1459              		.loc 1 464 0
 1460 0010 0295     		str	r5, [sp, #8]	@ len, xfer.txSz
 1461              		.loc 1 465 0
 1462 0012 0493     		str	r3, [sp, #16]	@ tmp123, xfer.rxSz
ARM GAS  /tmp/ccXw4jW7.s 			page 43


 1463              	.LVL86:
 1464              	.L131:
 466:../../lpc11cx4-library/lpc_chip_11cxx_lib/src/i2c_11xx.c **** 	while (Chip_I2C_MasterTransfer(id, &xfer) == I2C_STATUS_ARBLOST) {}
 1465              		.loc 1 466 0 discriminator 1
 1466 0014 6946     		mov	r1, sp	@,
 1467 0016 2000     		movs	r0, r4	@, id
 1468 0018 FFF7FEFF 		bl	Chip_I2C_MasterTransfer	@
 1469              	.LVL87:
 1470 001c 0228     		cmp	r0, #2	@ _13,
 1471 001e F9D0     		beq	.L131	@,
 467:../../lpc11cx4-library/lpc_chip_11cxx_lib/src/i2c_11xx.c **** 	return len - xfer.txSz;
 1472              		.loc 1 467 0
 1473 0020 0298     		ldr	r0, [sp, #8]	@ xfer.txSz, xfer.txSz
 1474 0022 281A     		subs	r0, r5, r0	@ <retval>, len, xfer.txSz
 468:../../lpc11cx4-library/lpc_chip_11cxx_lib/src/i2c_11xx.c **** }
 1475              		.loc 1 468 0
 1476 0024 07B0     		add	sp, sp, #28	@,,
 1477              		@ sp needed	@
 1478 0026 30BD     		pop	{r4, r5, pc}
 1479              		.cfi_endproc
 1480              	.LFE221:
 1481              		.size	Chip_I2C_MasterSend, .-Chip_I2C_MasterSend
 1482              		.section	.text.Chip_I2C_MasterCmdRead,"ax",%progbits
 1483              		.align	1
 1484              		.p2align 2,,3
 1485              		.global	Chip_I2C_MasterCmdRead
 1486              		.syntax unified
 1487              		.code	16
 1488              		.thumb_func
 1489              		.fpu softvfp
 1490              		.type	Chip_I2C_MasterCmdRead, %function
 1491              	Chip_I2C_MasterCmdRead:
 1492              	.LFB222:
 469:../../lpc11cx4-library/lpc_chip_11cxx_lib/src/i2c_11xx.c **** 
 470:../../lpc11cx4-library/lpc_chip_11cxx_lib/src/i2c_11xx.c **** /* Transmit one byte and receive an array of bytes after a repeated start condition is generated in
 471:../../lpc11cx4-library/lpc_chip_11cxx_lib/src/i2c_11xx.c ****  * This function is useful for communicating with the I2C slave registers
 472:../../lpc11cx4-library/lpc_chip_11cxx_lib/src/i2c_11xx.c ****  */
 473:../../lpc11cx4-library/lpc_chip_11cxx_lib/src/i2c_11xx.c **** int Chip_I2C_MasterCmdRead(I2C_ID_T id, uint8_t slaveAddr, uint8_t cmd, uint8_t *buff, int len)
 474:../../lpc11cx4-library/lpc_chip_11cxx_lib/src/i2c_11xx.c **** {
 1493              		.loc 1 474 0
 1494              		.cfi_startproc
 1495              		@ args = 4, pretend = 0, frame = 32
 1496              		@ frame_needed = 0, uses_anonymous_args = 0
 1497              	.LVL88:
 1498 0000 70B5     		push	{r4, r5, r6, lr}	@
 1499              		.cfi_def_cfa_offset 16
 1500              		.cfi_offset 4, -16
 1501              		.cfi_offset 5, -12
 1502              		.cfi_offset 6, -8
 1503              		.cfi_offset 14, -4
 1504 0002 88B0     		sub	sp, sp, #32	@,,
 1505              		.cfi_def_cfa_offset 48
 1506              		.loc 1 474 0
 1507 0004 0500     		movs	r5, r0	@ id, id
 1508 0006 6846     		mov	r0, sp	@ tmp133,
 1509              	.LVL89:
 1510 0008 C271     		strb	r2, [r0, #7]	@ cmd, cmd
ARM GAS  /tmp/ccXw4jW7.s 			page 44


 475:../../lpc11cx4-library/lpc_chip_11cxx_lib/src/i2c_11xx.c **** 	I2C_XFER_T xfer;
 476:../../lpc11cx4-library/lpc_chip_11cxx_lib/src/i2c_11xx.c **** 	xfer.slaveAddr = slaveAddr;
 477:../../lpc11cx4-library/lpc_chip_11cxx_lib/src/i2c_11xx.c **** 	xfer.txBuff = &cmd;
 478:../../lpc11cx4-library/lpc_chip_11cxx_lib/src/i2c_11xx.c **** 	xfer.txSz = 1;
 1511              		.loc 1 478 0
 1512 000a 0122     		movs	r2, #1	@ tmp125,
 1513              	.LVL90:
 474:../../lpc11cx4-library/lpc_chip_11cxx_lib/src/i2c_11xx.c **** 	I2C_XFER_T xfer;
 1514              		.loc 1 474 0
 1515 000c 0C9E     		ldr	r6, [sp, #48]	@ len, len
 476:../../lpc11cx4-library/lpc_chip_11cxx_lib/src/i2c_11xx.c **** 	xfer.txBuff = &cmd;
 1516              		.loc 1 476 0
 1517 000e 02AC     		add	r4, sp, #8	@ tmp132,,
 474:../../lpc11cx4-library/lpc_chip_11cxx_lib/src/i2c_11xx.c **** 	I2C_XFER_T xfer;
 1518              		.loc 1 474 0
 1519 0010 0730     		adds	r0, r0, #7	@ tmp116,
 1520              	.LVL91:
 476:../../lpc11cx4-library/lpc_chip_11cxx_lib/src/i2c_11xx.c **** 	xfer.txBuff = &cmd;
 1521              		.loc 1 476 0
 1522 0012 2170     		strb	r1, [r4]	@ slaveAddr, xfer.slaveAddr
 477:../../lpc11cx4-library/lpc_chip_11cxx_lib/src/i2c_11xx.c **** 	xfer.txSz = 1;
 1523              		.loc 1 477 0
 1524 0014 6060     		str	r0, [r4, #4]	@ tmp116, xfer.txBuff
 1525              		.loc 1 478 0
 1526 0016 A260     		str	r2, [r4, #8]	@ tmp125, xfer.txSz
 479:../../lpc11cx4-library/lpc_chip_11cxx_lib/src/i2c_11xx.c **** 	xfer.rxBuff = buff;
 1527              		.loc 1 479 0
 1528 0018 E360     		str	r3, [r4, #12]	@ buff, xfer.rxBuff
 480:../../lpc11cx4-library/lpc_chip_11cxx_lib/src/i2c_11xx.c **** 	xfer.rxSz = len;
 1529              		.loc 1 480 0
 1530 001a 2661     		str	r6, [r4, #16]	@ len, xfer.rxSz
 1531              	.LVL92:
 1532              	.L135:
 481:../../lpc11cx4-library/lpc_chip_11cxx_lib/src/i2c_11xx.c **** 	while (Chip_I2C_MasterTransfer(id, &xfer) == I2C_STATUS_ARBLOST) {}
 1533              		.loc 1 481 0 discriminator 1
 1534 001c 2100     		movs	r1, r4	@, tmp132
 1535 001e 2800     		movs	r0, r5	@, id
 1536 0020 FFF7FEFF 		bl	Chip_I2C_MasterTransfer	@
 1537              	.LVL93:
 1538 0024 0228     		cmp	r0, #2	@ _13,
 1539 0026 F9D0     		beq	.L135	@,
 482:../../lpc11cx4-library/lpc_chip_11cxx_lib/src/i2c_11xx.c **** 	return len - xfer.rxSz;
 1540              		.loc 1 482 0
 1541 0028 2069     		ldr	r0, [r4, #16]	@ xfer.rxSz, xfer.rxSz
 1542 002a 301A     		subs	r0, r6, r0	@ <retval>, len, xfer.rxSz
 483:../../lpc11cx4-library/lpc_chip_11cxx_lib/src/i2c_11xx.c **** }
 1543              		.loc 1 483 0
 1544 002c 08B0     		add	sp, sp, #32	@,,
 1545              		@ sp needed	@
 1546 002e 70BD     		pop	{r4, r5, r6, pc}
 1547              		.cfi_endproc
 1548              	.LFE222:
 1549              		.size	Chip_I2C_MasterCmdRead, .-Chip_I2C_MasterCmdRead
 1550              		.section	.text.Chip_I2C_MasterRead,"ax",%progbits
 1551              		.align	1
 1552              		.p2align 2,,3
 1553              		.global	Chip_I2C_MasterRead
ARM GAS  /tmp/ccXw4jW7.s 			page 45


 1554              		.syntax unified
 1555              		.code	16
 1556              		.thumb_func
 1557              		.fpu softvfp
 1558              		.type	Chip_I2C_MasterRead, %function
 1559              	Chip_I2C_MasterRead:
 1560              	.LFB223:
 484:../../lpc11cx4-library/lpc_chip_11cxx_lib/src/i2c_11xx.c **** 
 485:../../lpc11cx4-library/lpc_chip_11cxx_lib/src/i2c_11xx.c **** /* Sequential master read */
 486:../../lpc11cx4-library/lpc_chip_11cxx_lib/src/i2c_11xx.c **** int Chip_I2C_MasterRead(I2C_ID_T id, uint8_t slaveAddr, uint8_t *buff, int len)
 487:../../lpc11cx4-library/lpc_chip_11cxx_lib/src/i2c_11xx.c **** {
 1561              		.loc 1 487 0
 1562              		.cfi_startproc
 1563              		@ args = 0, pretend = 0, frame = 24
 1564              		@ frame_needed = 0, uses_anonymous_args = 0
 1565              	.LVL94:
 1566 0000 30B5     		push	{r4, r5, lr}	@
 1567              		.cfi_def_cfa_offset 12
 1568              		.cfi_offset 4, -12
 1569              		.cfi_offset 5, -8
 1570              		.cfi_offset 14, -4
 1571 0002 87B0     		sub	sp, sp, #28	@,,
 1572              		.cfi_def_cfa_offset 40
 1573              		.loc 1 487 0
 1574 0004 1D00     		movs	r5, r3	@ len, len
 488:../../lpc11cx4-library/lpc_chip_11cxx_lib/src/i2c_11xx.c **** 	UNUSED(id);
 489:../../lpc11cx4-library/lpc_chip_11cxx_lib/src/i2c_11xx.c **** 	I2C_XFER_T xfer;
 490:../../lpc11cx4-library/lpc_chip_11cxx_lib/src/i2c_11xx.c **** 	xfer.slaveAddr = slaveAddr;
 1575              		.loc 1 490 0
 1576 0006 6B46     		mov	r3, sp	@ tmp128,
 1577              	.LVL95:
 1578 0008 1970     		strb	r1, [r3]	@ slaveAddr, xfer.slaveAddr
 491:../../lpc11cx4-library/lpc_chip_11cxx_lib/src/i2c_11xx.c **** 	xfer.rxBuff = buff;
 492:../../lpc11cx4-library/lpc_chip_11cxx_lib/src/i2c_11xx.c **** 	xfer.rxSz = len;
 493:../../lpc11cx4-library/lpc_chip_11cxx_lib/src/i2c_11xx.c **** 	xfer.txSz = 0;
 1579              		.loc 1 493 0
 1580 000a 0023     		movs	r3, #0	@ tmp122,
 487:../../lpc11cx4-library/lpc_chip_11cxx_lib/src/i2c_11xx.c **** 	UNUSED(id);
 1581              		.loc 1 487 0
 1582 000c 0400     		movs	r4, r0	@ id, id
 491:../../lpc11cx4-library/lpc_chip_11cxx_lib/src/i2c_11xx.c **** 	xfer.rxBuff = buff;
 1583              		.loc 1 491 0
 1584 000e 0392     		str	r2, [sp, #12]	@ buff, xfer.rxBuff
 492:../../lpc11cx4-library/lpc_chip_11cxx_lib/src/i2c_11xx.c **** 	xfer.txSz = 0;
 1585              		.loc 1 492 0
 1586 0010 0495     		str	r5, [sp, #16]	@ len, xfer.rxSz
 1587              		.loc 1 493 0
 1588 0012 0293     		str	r3, [sp, #8]	@ tmp122, xfer.txSz
 1589              	.LVL96:
 1590              	.L139:
 494:../../lpc11cx4-library/lpc_chip_11cxx_lib/src/i2c_11xx.c **** 	while (Chip_I2C_MasterTransfer(id, &xfer) == I2C_STATUS_ARBLOST) {}
 1591              		.loc 1 494 0 discriminator 1
 1592 0014 6946     		mov	r1, sp	@,
 1593 0016 2000     		movs	r0, r4	@, id
 1594 0018 FFF7FEFF 		bl	Chip_I2C_MasterTransfer	@
 1595              	.LVL97:
 1596 001c 0228     		cmp	r0, #2	@ _12,
ARM GAS  /tmp/ccXw4jW7.s 			page 46


 1597 001e F9D0     		beq	.L139	@,
 495:../../lpc11cx4-library/lpc_chip_11cxx_lib/src/i2c_11xx.c **** 	return len - xfer.rxSz;
 1598              		.loc 1 495 0
 1599 0020 0498     		ldr	r0, [sp, #16]	@ xfer.rxSz, xfer.rxSz
 1600 0022 281A     		subs	r0, r5, r0	@ <retval>, len, xfer.rxSz
 496:../../lpc11cx4-library/lpc_chip_11cxx_lib/src/i2c_11xx.c **** }
 1601              		.loc 1 496 0
 1602 0024 07B0     		add	sp, sp, #28	@,,
 1603              		@ sp needed	@
 1604              	.LVL98:
 1605 0026 30BD     		pop	{r4, r5, pc}
 1606              		.cfi_endproc
 1607              	.LFE223:
 1608              		.size	Chip_I2C_MasterRead, .-Chip_I2C_MasterRead
 1609              		.section	.text.Chip_I2C_IsMasterActive,"ax",%progbits
 1610              		.align	1
 1611              		.p2align 2,,3
 1612              		.global	Chip_I2C_IsMasterActive
 1613              		.syntax unified
 1614              		.code	16
 1615              		.thumb_func
 1616              		.fpu softvfp
 1617              		.type	Chip_I2C_IsMasterActive, %function
 1618              	Chip_I2C_IsMasterActive:
 1619              	.LFB224:
 497:../../lpc11cx4-library/lpc_chip_11cxx_lib/src/i2c_11xx.c **** 
 498:../../lpc11cx4-library/lpc_chip_11cxx_lib/src/i2c_11xx.c **** /* Check if master state is active */
 499:../../lpc11cx4-library/lpc_chip_11cxx_lib/src/i2c_11xx.c **** int Chip_I2C_IsMasterActive(I2C_ID_T id)
 500:../../lpc11cx4-library/lpc_chip_11cxx_lib/src/i2c_11xx.c **** {
 1620              		.loc 1 500 0
 1621              		.cfi_startproc
 1622              		@ args = 0, pretend = 0, frame = 0
 1623              		@ frame_needed = 0, uses_anonymous_args = 0
 1624              		@ link register save eliminated.
 1625              	.LVL99:
 501:../../lpc11cx4-library/lpc_chip_11cxx_lib/src/i2c_11xx.c **** 	UNUSED(id);
 502:../../lpc11cx4-library/lpc_chip_11cxx_lib/src/i2c_11xx.c **** 	return isMasterState(i2c.ip);
 1626              		.loc 1 502 0
 1627 0000 054B     		ldr	r3, .L143	@ tmp117,
 1628              	.LBB137:
 1629              	.LBB138:
 130:../../lpc11cx4-library/lpc_chip_11cxx_lib/src/i2c_11xx.c **** }
 1630              		.loc 1 130 0
 1631 0002 0021     		movs	r1, #0	@ tmp125,
 1632              	.LBE138:
 1633              	.LBE137:
 1634              		.loc 1 502 0
 1635 0004 1B68     		ldr	r3, [r3]	@ _2, i2c.ip
 1636              	.LVL100:
 503:../../lpc11cx4-library/lpc_chip_11cxx_lib/src/i2c_11xx.c **** }
 1637              		.loc 1 503 0
 1638              		@ sp needed	@
 1639              	.LBB142:
 1640              	.LBB141:
 1641              	.LBB139:
 1642              	.LBB140:
 124:../../lpc11cx4-library/lpc_chip_11cxx_lib/src/i2c_11xx.c **** }
ARM GAS  /tmp/ccXw4jW7.s 			page 47


 1643              		.loc 1 124 0
 1644 0006 5A68     		ldr	r2, [r3, #4]	@ _3, _2->STAT
 1645              	.LVL101:
 1646 0008 F823     		movs	r3, #248	@ tmp119,
 1647 000a 1340     		ands	r3, r2	@ tmp120, _3
 1648              	.LBE140:
 1649              	.LBE139:
 130:../../lpc11cx4-library/lpc_chip_11cxx_lib/src/i2c_11xx.c **** }
 1650              		.loc 1 130 0
 1651 000c 5F22     		movs	r2, #95	@ tmp123,
 1652 000e D80F     		lsrs	r0, r3, #31	@ tmp124, tmp120,
 1653              	.LVL102:
 1654 0010 9A42     		cmp	r2, r3	@ tmp123, tmp120
 1655 0012 4841     		adcs	r0, r0, r1	@ tmp122, tmp124, tmp125
 1656              	.LBE141:
 1657              	.LBE142:
 1658              		.loc 1 503 0
 1659 0014 7047     		bx	lr
 1660              	.L144:
 1661 0016 C046     		.align	2
 1662              	.L143:
 1663 0018 00000000 		.word	.LANCHOR0
 1664              		.cfi_endproc
 1665              	.LFE224:
 1666              		.size	Chip_I2C_IsMasterActive, .-Chip_I2C_IsMasterActive
 1667              		.section	.text.Chip_I2C_MasterStateHandler,"ax",%progbits
 1668              		.align	1
 1669              		.p2align 2,,3
 1670              		.global	Chip_I2C_MasterStateHandler
 1671              		.syntax unified
 1672              		.code	16
 1673              		.thumb_func
 1674              		.fpu softvfp
 1675              		.type	Chip_I2C_MasterStateHandler, %function
 1676              	Chip_I2C_MasterStateHandler:
 1677              	.LFB225:
 504:../../lpc11cx4-library/lpc_chip_11cxx_lib/src/i2c_11xx.c **** 
 505:../../lpc11cx4-library/lpc_chip_11cxx_lib/src/i2c_11xx.c **** /* State change handler for master transfer */
 506:../../lpc11cx4-library/lpc_chip_11cxx_lib/src/i2c_11xx.c **** void Chip_I2C_MasterStateHandler(I2C_ID_T id)
 507:../../lpc11cx4-library/lpc_chip_11cxx_lib/src/i2c_11xx.c **** {
 1678              		.loc 1 507 0
 1679              		.cfi_startproc
 1680              		@ args = 0, pretend = 0, frame = 0
 1681              		@ frame_needed = 0, uses_anonymous_args = 0
 1682              	.LVL103:
 1683 0000 70B5     		push	{r4, r5, r6, lr}	@
 1684              		.cfi_def_cfa_offset 16
 1685              		.cfi_offset 4, -16
 1686              		.cfi_offset 5, -12
 1687              		.cfi_offset 6, -8
 1688              		.cfi_offset 14, -4
 508:../../lpc11cx4-library/lpc_chip_11cxx_lib/src/i2c_11xx.c **** 	if (!handleMasterXferState(i2c.ip, i2c.mXfer)) {
 1689              		.loc 1 508 0
 1690 0002 064C     		ldr	r4, .L147	@ tmp115,
 507:../../lpc11cx4-library/lpc_chip_11cxx_lib/src/i2c_11xx.c **** 	if (!handleMasterXferState(i2c.ip, i2c.mXfer)) {
 1691              		.loc 1 507 0
 1692 0004 0500     		movs	r5, r0	@ id, id
ARM GAS  /tmp/ccXw4jW7.s 			page 48


 1693              		.loc 1 508 0
 1694 0006 2169     		ldr	r1, [r4, #16]	@, i2c.mXfer
 1695 0008 2068     		ldr	r0, [r4]	@, i2c.ip
 1696              	.LVL104:
 1697 000a FFF7FEFF 		bl	handleMasterXferState	@
 1698              	.LVL105:
 1699 000e 0028     		cmp	r0, #0	@ _5,
 1700 0010 03D1     		bne	.L145	@,
 1701              	.LVL106:
 1702              	.LBB145:
 1703              	.LBB146:
 509:../../lpc11cx4-library/lpc_chip_11cxx_lib/src/i2c_11xx.c **** 		i2c.mEvent(id, I2C_EVENT_DONE);
 1704              		.loc 1 509 0
 1705 0012 A368     		ldr	r3, [r4, #8]	@ i2c.mEvent, i2c.mEvent
 1706 0014 0221     		movs	r1, #2	@,
 1707 0016 2800     		movs	r0, r5	@, id
 1708 0018 9847     		blx	r3	@ i2c.mEvent
 1709              	.LVL107:
 1710              	.L145:
 1711              	.LBE146:
 1712              	.LBE145:
 510:../../lpc11cx4-library/lpc_chip_11cxx_lib/src/i2c_11xx.c **** 	}
 511:../../lpc11cx4-library/lpc_chip_11cxx_lib/src/i2c_11xx.c **** }
 1713              		.loc 1 511 0
 1714              		@ sp needed	@
 1715 001a 70BD     		pop	{r4, r5, r6, pc}
 1716              	.L148:
 1717              		.align	2
 1718              	.L147:
 1719 001c 00000000 		.word	.LANCHOR0
 1720              		.cfi_endproc
 1721              	.LFE225:
 1722              		.size	Chip_I2C_MasterStateHandler, .-Chip_I2C_MasterStateHandler
 1723              		.section	.text.Chip_I2C_EventHandlerPolling,"ax",%progbits
 1724              		.align	1
 1725              		.p2align 2,,3
 1726              		.global	Chip_I2C_EventHandlerPolling
 1727              		.syntax unified
 1728              		.code	16
 1729              		.thumb_func
 1730              		.fpu softvfp
 1731              		.type	Chip_I2C_EventHandlerPolling, %function
 1732              	Chip_I2C_EventHandlerPolling:
 1733              	.LFB213:
 349:../../lpc11cx4-library/lpc_chip_11cxx_lib/src/i2c_11xx.c **** 	struct i2c_interface *iic = &i2c;
 1734              		.loc 1 349 0
 1735              		.cfi_startproc
 1736              		@ args = 0, pretend = 0, frame = 0
 1737              		@ frame_needed = 0, uses_anonymous_args = 0
 1738              	.LVL108:
 1739 0000 F8B5     		push	{r3, r4, r5, r6, r7, lr}	@
 1740              		.cfi_def_cfa_offset 24
 1741              		.cfi_offset 3, -24
 1742              		.cfi_offset 4, -20
 1743              		.cfi_offset 5, -16
 1744              		.cfi_offset 6, -12
 1745              		.cfi_offset 7, -8
ARM GAS  /tmp/ccXw4jW7.s 			page 49


 1746              		.cfi_offset 14, -4
 349:../../lpc11cx4-library/lpc_chip_11cxx_lib/src/i2c_11xx.c **** 	struct i2c_interface *iic = &i2c;
 1747              		.loc 1 349 0
 1748 0002 0700     		movs	r7, r0	@ id, id
 354:../../lpc11cx4-library/lpc_chip_11cxx_lib/src/i2c_11xx.c **** 		return;
 1749              		.loc 1 354 0
 1750 0004 0129     		cmp	r1, #1	@ event,
 1751 0006 00D0     		beq	.L157	@,
 1752              	.LVL109:
 1753              	.L149:
 365:../../lpc11cx4-library/lpc_chip_11cxx_lib/src/i2c_11xx.c **** 
 1754              		.loc 1 365 0
 1755              		@ sp needed	@
 1756 0008 F8BD     		pop	{r3, r4, r5, r6, r7, pc}
 1757              	.LVL110:
 1758              	.L157:
 1759              	.LBB147:
 1760              	.LBB148:
 512:../../lpc11cx4-library/lpc_chip_11cxx_lib/src/i2c_11xx.c **** 
 513:../../lpc11cx4-library/lpc_chip_11cxx_lib/src/i2c_11xx.c **** /* Setup slave function */
 514:../../lpc11cx4-library/lpc_chip_11cxx_lib/src/i2c_11xx.c **** void Chip_I2C_SlaveSetup(I2C_ID_T id,
 515:../../lpc11cx4-library/lpc_chip_11cxx_lib/src/i2c_11xx.c **** 						 I2C_SLAVE_ID sid,
 516:../../lpc11cx4-library/lpc_chip_11cxx_lib/src/i2c_11xx.c **** 						 I2C_XFER_T *xfer,
 517:../../lpc11cx4-library/lpc_chip_11cxx_lib/src/i2c_11xx.c **** 						 I2C_EVENTHANDLER_T event,
 518:../../lpc11cx4-library/lpc_chip_11cxx_lib/src/i2c_11xx.c **** 						 uint8_t addrMask)
 519:../../lpc11cx4-library/lpc_chip_11cxx_lib/src/i2c_11xx.c **** {
 520:../../lpc11cx4-library/lpc_chip_11cxx_lib/src/i2c_11xx.c **** 	struct i2c_interface *iic = &i2c;
 521:../../lpc11cx4-library/lpc_chip_11cxx_lib/src/i2c_11xx.c **** 	struct i2c_slave_interface *si2c = &i2c_slave[id][sid];
 522:../../lpc11cx4-library/lpc_chip_11cxx_lib/src/i2c_11xx.c **** 	si2c->xfer = xfer;
 523:../../lpc11cx4-library/lpc_chip_11cxx_lib/src/i2c_11xx.c **** 	si2c->event = event;
 524:../../lpc11cx4-library/lpc_chip_11cxx_lib/src/i2c_11xx.c **** 
 525:../../lpc11cx4-library/lpc_chip_11cxx_lib/src/i2c_11xx.c **** 	/* Set up the slave address */
 526:../../lpc11cx4-library/lpc_chip_11cxx_lib/src/i2c_11xx.c **** 	if (sid != I2C_SLAVE_GENERAL) {
 527:../../lpc11cx4-library/lpc_chip_11cxx_lib/src/i2c_11xx.c **** 		setSlaveAddr(iic->ip, sid, xfer->slaveAddr, addrMask);
 528:../../lpc11cx4-library/lpc_chip_11cxx_lib/src/i2c_11xx.c **** 	}
 529:../../lpc11cx4-library/lpc_chip_11cxx_lib/src/i2c_11xx.c **** 
 530:../../lpc11cx4-library/lpc_chip_11cxx_lib/src/i2c_11xx.c **** 	if (!SLAVE_ACTIVE(iic) && !iic->mXfer) {
 531:../../lpc11cx4-library/lpc_chip_11cxx_lib/src/i2c_11xx.c **** 		startSlaverXfer(iic->ip);
 532:../../lpc11cx4-library/lpc_chip_11cxx_lib/src/i2c_11xx.c **** 	}
 533:../../lpc11cx4-library/lpc_chip_11cxx_lib/src/i2c_11xx.c **** 	iic->flags |= 1 << (sid + 8);
 534:../../lpc11cx4-library/lpc_chip_11cxx_lib/src/i2c_11xx.c **** }
 535:../../lpc11cx4-library/lpc_chip_11cxx_lib/src/i2c_11xx.c **** 
 536:../../lpc11cx4-library/lpc_chip_11cxx_lib/src/i2c_11xx.c **** /* I2C Slave event handler */
 537:../../lpc11cx4-library/lpc_chip_11cxx_lib/src/i2c_11xx.c **** void Chip_I2C_SlaveStateHandler(I2C_ID_T id)
 538:../../lpc11cx4-library/lpc_chip_11cxx_lib/src/i2c_11xx.c **** {
 539:../../lpc11cx4-library/lpc_chip_11cxx_lib/src/i2c_11xx.c **** 	int ret;
 540:../../lpc11cx4-library/lpc_chip_11cxx_lib/src/i2c_11xx.c **** 	struct i2c_interface *iic = &i2c;
 541:../../lpc11cx4-library/lpc_chip_11cxx_lib/src/i2c_11xx.c **** 
 542:../../lpc11cx4-library/lpc_chip_11cxx_lib/src/i2c_11xx.c **** 	/* Get the currently addressed slave */
 543:../../lpc11cx4-library/lpc_chip_11cxx_lib/src/i2c_11xx.c **** 	if (!iic->sXfer) {
 544:../../lpc11cx4-library/lpc_chip_11cxx_lib/src/i2c_11xx.c **** 		struct i2c_slave_interface *si2c;
 545:../../lpc11cx4-library/lpc_chip_11cxx_lib/src/i2c_11xx.c **** 
 546:../../lpc11cx4-library/lpc_chip_11cxx_lib/src/i2c_11xx.c **** 		I2C_SLAVE_ID sid = getSlaveIndex(iic->ip);
 547:../../lpc11cx4-library/lpc_chip_11cxx_lib/src/i2c_11xx.c **** 		si2c = &i2c_slave[id][sid];
 548:../../lpc11cx4-library/lpc_chip_11cxx_lib/src/i2c_11xx.c **** 		iic->sXfer = si2c->xfer;
 549:../../lpc11cx4-library/lpc_chip_11cxx_lib/src/i2c_11xx.c **** 		iic->sEvent = si2c->event;
 550:../../lpc11cx4-library/lpc_chip_11cxx_lib/src/i2c_11xx.c **** 	}
ARM GAS  /tmp/ccXw4jW7.s 			page 50


 551:../../lpc11cx4-library/lpc_chip_11cxx_lib/src/i2c_11xx.c **** 
 552:../../lpc11cx4-library/lpc_chip_11cxx_lib/src/i2c_11xx.c **** 	iic->sXfer->slaveAddr |= iic->mXfer != 0;
 553:../../lpc11cx4-library/lpc_chip_11cxx_lib/src/i2c_11xx.c **** 	ret = handleSlaveXferState(iic->ip, iic->sXfer);
 554:../../lpc11cx4-library/lpc_chip_11cxx_lib/src/i2c_11xx.c **** 	if (ret) {
 555:../../lpc11cx4-library/lpc_chip_11cxx_lib/src/i2c_11xx.c **** 		if (iic->sXfer->status == I2C_STATUS_DONE) {
 556:../../lpc11cx4-library/lpc_chip_11cxx_lib/src/i2c_11xx.c **** 			iic->sXfer = 0;
 557:../../lpc11cx4-library/lpc_chip_11cxx_lib/src/i2c_11xx.c **** 		}
 558:../../lpc11cx4-library/lpc_chip_11cxx_lib/src/i2c_11xx.c **** 		iic->sEvent(id, (I2C_EVENT_T) ret);
 559:../../lpc11cx4-library/lpc_chip_11cxx_lib/src/i2c_11xx.c **** 	}
 560:../../lpc11cx4-library/lpc_chip_11cxx_lib/src/i2c_11xx.c **** }
 561:../../lpc11cx4-library/lpc_chip_11cxx_lib/src/i2c_11xx.c **** 
 562:../../lpc11cx4-library/lpc_chip_11cxx_lib/src/i2c_11xx.c **** /* Disable I2C device */
 563:../../lpc11cx4-library/lpc_chip_11cxx_lib/src/i2c_11xx.c **** void Chip_I2C_Disable(I2C_ID_T id)
 564:../../lpc11cx4-library/lpc_chip_11cxx_lib/src/i2c_11xx.c **** {
 565:../../lpc11cx4-library/lpc_chip_11cxx_lib/src/i2c_11xx.c **** 	UNUSED(id);
 566:../../lpc11cx4-library/lpc_chip_11cxx_lib/src/i2c_11xx.c **** 	LPC_I2Cx(id)->CONCLR = I2C_I2CONCLR_I2ENC;
 567:../../lpc11cx4-library/lpc_chip_11cxx_lib/src/i2c_11xx.c **** }
 568:../../lpc11cx4-library/lpc_chip_11cxx_lib/src/i2c_11xx.c **** 
 569:../../lpc11cx4-library/lpc_chip_11cxx_lib/src/i2c_11xx.c **** /* State change checking */
 570:../../lpc11cx4-library/lpc_chip_11cxx_lib/src/i2c_11xx.c **** int Chip_I2C_IsStateChanged(I2C_ID_T id)
 571:../../lpc11cx4-library/lpc_chip_11cxx_lib/src/i2c_11xx.c **** {
 572:../../lpc11cx4-library/lpc_chip_11cxx_lib/src/i2c_11xx.c **** 	UNUSED(id);
 573:../../lpc11cx4-library/lpc_chip_11cxx_lib/src/i2c_11xx.c **** 	return (LPC_I2Cx(id)->CONSET & I2C_CON_SI) != 0;
 1761              		.loc 1 573 0
 1762 000a 0825     		movs	r5, #8	@ tmp125,
 1763              	.LBE148:
 1764              	.LBE147:
 358:../../lpc11cx4-library/lpc_chip_11cxx_lib/src/i2c_11xx.c **** 	/* Call the state change handler till xfer is done */
 1765              		.loc 1 358 0
 1766 000c 064E     		ldr	r6, .L158	@ tmp124,
 1767 000e 3469     		ldr	r4, [r6, #16]	@ _5, i2c.mXfer
 1768              	.LVL111:
 1769              	.L151:
 1770              	.LBB151:
 1771              	.LBB149:
 1772              		.loc 1 573 0
 1773 0010 3268     		ldr	r2, [r6]	@ _9, i2c.ip
 1774              	.L152:
 1775              	.LBE149:
 1776              	.LBE151:
 360:../../lpc11cx4-library/lpc_chip_11cxx_lib/src/i2c_11xx.c **** 		if (Chip_I2C_IsStateChanged(id)) {
 1777              		.loc 1 360 0
 1778 0012 237D     		ldrb	r3, [r4, #20]	@ MEM[(volatile I2C_STATUS_T *)_5 + 20B], MEM[(volatile I2C_STATUS_T *)_5 + 20B
 1779 0014 042B     		cmp	r3, #4	@ MEM[(volatile I2C_STATUS_T *)_5 + 20B],
 1780 0016 F7D1     		bne	.L149	@,
 1781              	.LVL112:
 1782              	.LBB152:
 1783              	.LBB150:
 1784              		.loc 1 573 0
 1785 0018 1368     		ldr	r3, [r2]	@ _10, _9->CONSET
 1786              	.LVL113:
 1787              	.LBE150:
 1788              	.LBE152:
 361:../../lpc11cx4-library/lpc_chip_11cxx_lib/src/i2c_11xx.c **** 			Chip_I2C_MasterStateHandler(id);
 1789              		.loc 1 361 0
 1790 001a 1D42     		tst	r5, r3	@ tmp125, _10
 1791 001c F9D0     		beq	.L152	@,
ARM GAS  /tmp/ccXw4jW7.s 			page 51


 362:../../lpc11cx4-library/lpc_chip_11cxx_lib/src/i2c_11xx.c **** 		}
 1792              		.loc 1 362 0
 1793 001e 3800     		movs	r0, r7	@, id
 1794 0020 FFF7FEFF 		bl	Chip_I2C_MasterStateHandler	@
 1795              	.LVL114:
 1796 0024 F4E7     		b	.L151	@
 1797              	.L159:
 1798 0026 C046     		.align	2
 1799              	.L158:
 1800 0028 00000000 		.word	.LANCHOR0
 1801              		.cfi_endproc
 1802              	.LFE213:
 1803              		.size	Chip_I2C_EventHandlerPolling, .-Chip_I2C_EventHandlerPolling
 1804              		.section	.text.Chip_I2C_SlaveSetup,"ax",%progbits
 1805              		.align	1
 1806              		.p2align 2,,3
 1807              		.global	Chip_I2C_SlaveSetup
 1808              		.syntax unified
 1809              		.code	16
 1810              		.thumb_func
 1811              		.fpu softvfp
 1812              		.type	Chip_I2C_SlaveSetup, %function
 1813              	Chip_I2C_SlaveSetup:
 1814              	.LFB226:
 519:../../lpc11cx4-library/lpc_chip_11cxx_lib/src/i2c_11xx.c **** 	struct i2c_interface *iic = &i2c;
 1815              		.loc 1 519 0
 1816              		.cfi_startproc
 1817              		@ args = 4, pretend = 0, frame = 0
 1818              		@ frame_needed = 0, uses_anonymous_args = 0
 1819              	.LVL115:
 1820 0000 70B5     		push	{r4, r5, r6, lr}	@
 1821              		.cfi_def_cfa_offset 16
 1822              		.cfi_offset 4, -16
 1823              		.cfi_offset 5, -12
 1824              		.cfi_offset 6, -8
 1825              		.cfi_offset 14, -4
 519:../../lpc11cx4-library/lpc_chip_11cxx_lib/src/i2c_11xx.c **** 	struct i2c_interface *iic = &i2c;
 1826              		.loc 1 519 0
 1827 0002 0500     		movs	r5, r0	@ id, id
 1828              	.LVL116:
 1829 0004 04A8     		add	r0, sp, #16	@ tmp136,,
 1830              	.LVL117:
 1831 0006 0678     		ldrb	r6, [r0]	@ addrMask, addrMask
 522:../../lpc11cx4-library/lpc_chip_11cxx_lib/src/i2c_11xx.c **** 	si2c->event = event;
 1832              		.loc 1 522 0
 1833 0008 A800     		lsls	r0, r5, #2	@ tmp139, id,
 1834              	.LVL118:
 1835 000a 4019     		adds	r0, r0, r5	@ tmp140, tmp139, id
 1836 000c 164C     		ldr	r4, .L169	@ tmp137,
 1837 000e 4018     		adds	r0, r0, r1	@ tmp141, tmp140, sid
 1838 0010 C000     		lsls	r0, r0, #3	@ tmp142, tmp141,
 1839 0012 0251     		str	r2, [r0, r4]	@ xfer, MEM[(struct i2c_slave_interface *)&i2c_slave][_4][_6].xfer
 523:../../lpc11cx4-library/lpc_chip_11cxx_lib/src/i2c_11xx.c **** 
 1840              		.loc 1 523 0
 1841 0014 2018     		adds	r0, r4, r0	@ tmp149, tmp137, tmp142
 1842 0016 4360     		str	r3, [r0, #4]	@ event, MEM[(struct i2c_slave_interface *)&i2c_slave][_4][_6].event
 527:../../lpc11cx4-library/lpc_chip_11cxx_lib/src/i2c_11xx.c **** 	}
ARM GAS  /tmp/ccXw4jW7.s 			page 52


 1843              		.loc 1 527 0
 1844 0018 1448     		ldr	r0, .L169+4	@ tmp170,
 526:../../lpc11cx4-library/lpc_chip_11cxx_lib/src/i2c_11xx.c **** 		setSlaveAddr(iic->ip, sid, xfer->slaveAddr, addrMask);
 1845              		.loc 1 526 0
 1846 001a 0029     		cmp	r1, #0	@ sid,
 1847 001c 0DD0     		beq	.L161	@,
 527:../../lpc11cx4-library/lpc_chip_11cxx_lib/src/i2c_11xx.c **** 	}
 1848              		.loc 1 527 0
 1849 001e 1478     		ldrb	r4, [r2]	@ _13, *xfer_8(D)
 1850              	.LBB153:
 1851              	.LBB154:
 137:../../lpc11cx4-library/lpc_chip_11cxx_lib/src/i2c_11xx.c **** 	if (sid == I2C_SLAVE_0) {
 1852              		.loc 1 137 0
 1853 0020 0A00     		movs	r2, r1	@ tmp152, sid
 1854              	.LVL119:
 1855              	.LBE154:
 1856              	.LBE153:
 527:../../lpc11cx4-library/lpc_chip_11cxx_lib/src/i2c_11xx.c **** 	}
 1857              		.loc 1 527 0
 1858 0022 0368     		ldr	r3, [r0]	@ _12, i2c.ip
 1859              	.LVL120:
 1860              	.LBB158:
 1861              	.LBB156:
 137:../../lpc11cx4-library/lpc_chip_11cxx_lib/src/i2c_11xx.c **** 	if (sid == I2C_SLAVE_0) {
 1862              		.loc 1 137 0
 1863 0024 0B32     		adds	r2, r2, #11	@ tmp152,
 1864 0026 9200     		lsls	r2, r2, #2	@ tmp153, tmp152,
 1865 0028 D650     		str	r6, [r2, r3]	@ addrMask, _12->MASK
 138:../../lpc11cx4-library/lpc_chip_11cxx_lib/src/i2c_11xx.c **** 		pI2C->ADR0 = addr;
 1866              		.loc 1 138 0
 1867 002a 0129     		cmp	r1, #1	@ sid,
 1868 002c 13D0     		beq	.L167	@,
 1869              	.LVL121:
 1870              	.LBB155:
 143:../../lpc11cx4-library/lpc_chip_11cxx_lib/src/i2c_11xx.c **** 	}
 1871              		.loc 1 143 0
 1872 002e 104A     		ldr	r2, .L169+8	@ tmp173,
 142:../../lpc11cx4-library/lpc_chip_11cxx_lib/src/i2c_11xx.c **** 		abase[index - 1] = addr;
 1873              		.loc 1 142 0
 1874 0030 2033     		adds	r3, r3, #32	@ abase,
 1875              	.LVL122:
 143:../../lpc11cx4-library/lpc_chip_11cxx_lib/src/i2c_11xx.c **** 	}
 1876              		.loc 1 143 0
 1877 0032 8A18     		adds	r2, r1, r2	@ tmp155, sid, tmp173
 1878 0034 9200     		lsls	r2, r2, #2	@ tmp156, tmp155,
 1879 0036 9B18     		adds	r3, r3, r2	@ _31, abase, tmp156
 1880              	.LVL123:
 1881 0038 1C60     		str	r4, [r3]	@ _13, *_31
 1882              	.LVL124:
 1883              	.L161:
 1884              	.LBE155:
 1885              	.LBE156:
 1886              	.LBE158:
 530:../../lpc11cx4-library/lpc_chip_11cxx_lib/src/i2c_11xx.c **** 		startSlaverXfer(iic->ip);
 1887              		.loc 1 530 0
 1888 003a FF23     		movs	r3, #255	@ tmp159,
 1889 003c 8269     		ldr	r2, [r0, #24]	@ _15, i2c.flags
ARM GAS  /tmp/ccXw4jW7.s 			page 53


 1890 003e 1B02     		lsls	r3, r3, #8	@ tmp159, tmp159,
 1891 0040 1A42     		tst	r2, r3	@ _15, tmp159
 1892 0042 02D1     		bne	.L163	@,
 530:../../lpc11cx4-library/lpc_chip_11cxx_lib/src/i2c_11xx.c **** 		startSlaverXfer(iic->ip);
 1893              		.loc 1 530 0 is_stmt 0 discriminator 1
 1894 0044 0369     		ldr	r3, [r0, #16]	@ tmp174, i2c.mXfer
 1895 0046 002B     		cmp	r3, #0	@ tmp174,
 1896 0048 07D0     		beq	.L168	@,
 1897              	.L163:
 533:../../lpc11cx4-library/lpc_chip_11cxx_lib/src/i2c_11xx.c **** }
 1898              		.loc 1 533 0 is_stmt 1
 1899 004a 0123     		movs	r3, #1	@ tmp168,
 1900 004c 0831     		adds	r1, r1, #8	@ tmp166,
 1901              	.LVL125:
 1902 004e 8B40     		lsls	r3, r3, r1	@ tmp167, tmp168, tmp166
 1903 0050 1343     		orrs	r3, r2	@ tmp169, _15
 1904 0052 8361     		str	r3, [r0, #24]	@ tmp169, i2c.flags
 534:../../lpc11cx4-library/lpc_chip_11cxx_lib/src/i2c_11xx.c **** 
 1905              		.loc 1 534 0
 1906              		@ sp needed	@
 1907              	.LVL126:
 1908 0054 70BD     		pop	{r4, r5, r6, pc}
 1909              	.LVL127:
 1910              	.L167:
 1911              	.LBB159:
 1912              	.LBB157:
 139:../../lpc11cx4-library/lpc_chip_11cxx_lib/src/i2c_11xx.c **** 	}
 1913              		.loc 1 139 0
 1914 0056 DC60     		str	r4, [r3, #12]	@ _13, _12->ADR0
 1915 0058 EFE7     		b	.L161	@
 1916              	.LVL128:
 1917              	.L168:
 1918              	.LBE157:
 1919              	.LBE159:
 1920              	.LBB160:
 1921              	.LBB161:
 109:../../lpc11cx4-library/lpc_chip_11cxx_lib/src/i2c_11xx.c **** 
 1922              		.loc 1 109 0
 1923 005a 3824     		movs	r4, #56	@ tmp163,
 1924              	.LBE161:
 1925              	.LBE160:
 531:../../lpc11cx4-library/lpc_chip_11cxx_lib/src/i2c_11xx.c **** 	}
 1926              		.loc 1 531 0
 1927 005c 0368     		ldr	r3, [r0]	@ _18, i2c.ip
 1928              	.LVL129:
 1929              	.LBB163:
 1930              	.LBB162:
 109:../../lpc11cx4-library/lpc_chip_11cxx_lib/src/i2c_11xx.c **** 
 1931              		.loc 1 109 0
 1932 005e 9C61     		str	r4, [r3, #24]	@ tmp163, _18->CONCLR
 112:../../lpc11cx4-library/lpc_chip_11cxx_lib/src/i2c_11xx.c **** }
 1933              		.loc 1 112 0
 1934 0060 0C34     		adds	r4, r4, #12	@ tmp164,
 1935 0062 1C60     		str	r4, [r3]	@ tmp164, _18->CONSET
 1936 0064 F1E7     		b	.L163	@
 1937              	.L170:
 1938 0066 C046     		.align	2
ARM GAS  /tmp/ccXw4jW7.s 			page 54


 1939              	.L169:
 1940 0068 00000000 		.word	.LANCHOR1
 1941 006c 00000000 		.word	.LANCHOR0
 1942 0070 FEFFFF3F 		.word	1073741822
 1943              	.LBE162:
 1944              	.LBE163:
 1945              		.cfi_endproc
 1946              	.LFE226:
 1947              		.size	Chip_I2C_SlaveSetup, .-Chip_I2C_SlaveSetup
 1948              		.section	.text.Chip_I2C_SlaveStateHandler,"ax",%progbits
 1949              		.align	1
 1950              		.p2align 2,,3
 1951              		.global	Chip_I2C_SlaveStateHandler
 1952              		.syntax unified
 1953              		.code	16
 1954              		.thumb_func
 1955              		.fpu softvfp
 1956              		.type	Chip_I2C_SlaveStateHandler, %function
 1957              	Chip_I2C_SlaveStateHandler:
 1958              	.LFB227:
 538:../../lpc11cx4-library/lpc_chip_11cxx_lib/src/i2c_11xx.c **** 	int ret;
 1959              		.loc 1 538 0
 1960              		.cfi_startproc
 1961              		@ args = 0, pretend = 0, frame = 0
 1962              		@ frame_needed = 0, uses_anonymous_args = 0
 1963              	.LVL130:
 1964 0000 F8B5     		push	{r3, r4, r5, r6, r7, lr}	@
 1965              		.cfi_def_cfa_offset 24
 1966              		.cfi_offset 3, -24
 1967              		.cfi_offset 4, -20
 1968              		.cfi_offset 5, -16
 1969              		.cfi_offset 6, -12
 1970              		.cfi_offset 7, -8
 1971              		.cfi_offset 14, -4
 543:../../lpc11cx4-library/lpc_chip_11cxx_lib/src/i2c_11xx.c **** 		struct i2c_slave_interface *si2c;
 1972              		.loc 1 543 0
 1973 0002 154D     		ldr	r5, .L181	@ tmp165,
 538:../../lpc11cx4-library/lpc_chip_11cxx_lib/src/i2c_11xx.c **** 	int ret;
 1974              		.loc 1 538 0
 1975 0004 0700     		movs	r7, r0	@ id, id
 543:../../lpc11cx4-library/lpc_chip_11cxx_lib/src/i2c_11xx.c **** 		struct i2c_slave_interface *si2c;
 1976              		.loc 1 543 0
 1977 0006 6C69     		ldr	r4, [r5, #20]	@ _5, i2c.sXfer
 1978              	.LBB164:
 546:../../lpc11cx4-library/lpc_chip_11cxx_lib/src/i2c_11xx.c **** 		si2c = &i2c_slave[id][sid];
 1979              		.loc 1 546 0
 1980 0008 2E68     		ldr	r6, [r5]	@ pretmp_39, i2c.ip
 1981              	.LBE164:
 543:../../lpc11cx4-library/lpc_chip_11cxx_lib/src/i2c_11xx.c **** 		struct i2c_slave_interface *si2c;
 1982              		.loc 1 543 0
 1983 000a 002C     		cmp	r4, #0	@ _5,
 1984 000c 15D0     		beq	.L179	@,
 1985              	.LVL131:
 1986              	.L173:
 552:../../lpc11cx4-library/lpc_chip_11cxx_lib/src/i2c_11xx.c **** 	ret = handleSlaveXferState(iic->ip, iic->sXfer);
 1987              		.loc 1 552 0
 1988 000e 2B69     		ldr	r3, [r5, #16]	@ tmp153, i2c.mXfer
ARM GAS  /tmp/ccXw4jW7.s 			page 55


 553:../../lpc11cx4-library/lpc_chip_11cxx_lib/src/i2c_11xx.c **** 	if (ret) {
 1989              		.loc 1 553 0
 1990 0010 2100     		movs	r1, r4	@, _5
 552:../../lpc11cx4-library/lpc_chip_11cxx_lib/src/i2c_11xx.c **** 	ret = handleSlaveXferState(iic->ip, iic->sXfer);
 1991              		.loc 1 552 0
 1992 0012 5A1E     		subs	r2, r3, #1	@ tmp154, tmp153
 1993 0014 9341     		sbcs	r3, r3, r2	@ tmp153, tmp153, tmp154
 1994 0016 2278     		ldrb	r2, [r4]	@ *prephitmp_41, *prephitmp_41
 553:../../lpc11cx4-library/lpc_chip_11cxx_lib/src/i2c_11xx.c **** 	if (ret) {
 1995              		.loc 1 553 0
 1996 0018 3000     		movs	r0, r6	@, pretmp_39
 552:../../lpc11cx4-library/lpc_chip_11cxx_lib/src/i2c_11xx.c **** 	ret = handleSlaveXferState(iic->ip, iic->sXfer);
 1997              		.loc 1 552 0
 1998 001a 1343     		orrs	r3, r2	@ tmp157, *prephitmp_41
 1999 001c 2370     		strb	r3, [r4]	@ tmp157, prephitmp_41->slaveAddr
 553:../../lpc11cx4-library/lpc_chip_11cxx_lib/src/i2c_11xx.c **** 	if (ret) {
 2000              		.loc 1 553 0
 2001 001e FFF7FEFF 		bl	handleSlaveXferState	@
 2002              	.LVL132:
 554:../../lpc11cx4-library/lpc_chip_11cxx_lib/src/i2c_11xx.c **** 		if (iic->sXfer->status == I2C_STATUS_DONE) {
 2003              		.loc 1 554 0
 2004 0022 0028     		cmp	r0, #0	@ ret,
 2005 0024 06D0     		beq	.L171	@,
 555:../../lpc11cx4-library/lpc_chip_11cxx_lib/src/i2c_11xx.c **** 			iic->sXfer = 0;
 2006              		.loc 1 555 0
 2007 0026 237D     		ldrb	r3, [r4, #20]	@ tmp159,
 2008 0028 002B     		cmp	r3, #0	@ tmp159,
 2009 002a 04D0     		beq	.L180	@,
 2010              	.L175:
 558:../../lpc11cx4-library/lpc_chip_11cxx_lib/src/i2c_11xx.c **** 	}
 2011              		.loc 1 558 0
 2012 002c C1B2     		uxtb	r1, r0	@ ret, ret
 2013 002e EB68     		ldr	r3, [r5, #12]	@ i2c.sEvent, i2c.sEvent
 2014 0030 3800     		movs	r0, r7	@, id
 2015              	.LVL133:
 2016 0032 9847     		blx	r3	@ i2c.sEvent
 2017              	.LVL134:
 2018              	.L171:
 560:../../lpc11cx4-library/lpc_chip_11cxx_lib/src/i2c_11xx.c **** 
 2019              		.loc 1 560 0
 2020              		@ sp needed	@
 2021 0034 F8BD     		pop	{r3, r4, r5, r6, r7, pc}
 2022              	.LVL135:
 2023              	.L180:
 556:../../lpc11cx4-library/lpc_chip_11cxx_lib/src/i2c_11xx.c **** 		}
 2024              		.loc 1 556 0
 2025 0036 6B61     		str	r3, [r5, #20]	@ tmp159, i2c.sXfer
 2026 0038 F8E7     		b	.L175	@
 2027              	.LVL136:
 2028              	.L179:
 2029              	.LBB165:
 546:../../lpc11cx4-library/lpc_chip_11cxx_lib/src/i2c_11xx.c **** 		si2c = &i2c_slave[id][sid];
 2030              		.loc 1 546 0
 2031 003a 3000     		movs	r0, r6	@, pretmp_39
 2032              	.LVL137:
 2033 003c FFF7FEFF 		bl	getSlaveIndex	@
 2034              	.LVL138:
ARM GAS  /tmp/ccXw4jW7.s 			page 56


 548:../../lpc11cx4-library/lpc_chip_11cxx_lib/src/i2c_11xx.c **** 		iic->sEvent = si2c->event;
 2035              		.loc 1 548 0
 2036 0040 BB00     		lsls	r3, r7, #2	@ tmp135, id,
 2037 0042 DB19     		adds	r3, r3, r7	@ tmp136, tmp135, id
 2038 0044 054A     		ldr	r2, .L181+4	@ tmp133,
 2039 0046 1818     		adds	r0, r3, r0	@ tmp137, tmp136, tmp131
 2040              	.LVL139:
 2041 0048 C000     		lsls	r0, r0, #3	@ tmp138, tmp137,
 2042 004a 8458     		ldr	r4, [r0, r2]	@ _5, MEM[(struct i2c_slave_interface *)&i2c_slave][_10][_11].xfer
 549:../../lpc11cx4-library/lpc_chip_11cxx_lib/src/i2c_11xx.c **** 	}
 2043              		.loc 1 549 0
 2044 004c 1018     		adds	r0, r2, r0	@ tmp147, tmp133, tmp138
 2045 004e 4368     		ldr	r3, [r0, #4]	@ tmp168, MEM[(struct i2c_slave_interface *)&i2c_slave][_10][_11].event
 548:../../lpc11cx4-library/lpc_chip_11cxx_lib/src/i2c_11xx.c **** 		iic->sEvent = si2c->event;
 2046              		.loc 1 548 0
 2047 0050 6C61     		str	r4, [r5, #20]	@ _5, i2c.sXfer
 549:../../lpc11cx4-library/lpc_chip_11cxx_lib/src/i2c_11xx.c **** 	}
 2048              		.loc 1 549 0
 2049 0052 EB60     		str	r3, [r5, #12]	@ tmp168, i2c.sEvent
 2050 0054 DBE7     		b	.L173	@
 2051              	.L182:
 2052 0056 C046     		.align	2
 2053              	.L181:
 2054 0058 00000000 		.word	.LANCHOR0
 2055 005c 00000000 		.word	.LANCHOR1
 2056              	.LBE165:
 2057              		.cfi_endproc
 2058              	.LFE227:
 2059              		.size	Chip_I2C_SlaveStateHandler, .-Chip_I2C_SlaveStateHandler
 2060              		.section	.text.Chip_I2C_Disable,"ax",%progbits
 2061              		.align	1
 2062              		.p2align 2,,3
 2063              		.global	Chip_I2C_Disable
 2064              		.syntax unified
 2065              		.code	16
 2066              		.thumb_func
 2067              		.fpu softvfp
 2068              		.type	Chip_I2C_Disable, %function
 2069              	Chip_I2C_Disable:
 2070              	.LFB228:
 564:../../lpc11cx4-library/lpc_chip_11cxx_lib/src/i2c_11xx.c **** 	UNUSED(id);
 2071              		.loc 1 564 0
 2072              		.cfi_startproc
 2073              		@ args = 0, pretend = 0, frame = 0
 2074              		@ frame_needed = 0, uses_anonymous_args = 0
 2075              		@ link register save eliminated.
 2076              	.LVL140:
 566:../../lpc11cx4-library/lpc_chip_11cxx_lib/src/i2c_11xx.c **** }
 2077              		.loc 1 566 0
 2078 0000 4022     		movs	r2, #64	@ tmp113,
 2079 0002 024B     		ldr	r3, .L184	@ tmp112,
 567:../../lpc11cx4-library/lpc_chip_11cxx_lib/src/i2c_11xx.c **** 
 2080              		.loc 1 567 0
 2081              		@ sp needed	@
 566:../../lpc11cx4-library/lpc_chip_11cxx_lib/src/i2c_11xx.c **** }
 2082              		.loc 1 566 0
 2083 0004 1B68     		ldr	r3, [r3]	@ _2, i2c.ip
ARM GAS  /tmp/ccXw4jW7.s 			page 57


 2084 0006 9A61     		str	r2, [r3, #24]	@ tmp113, _2->CONCLR
 567:../../lpc11cx4-library/lpc_chip_11cxx_lib/src/i2c_11xx.c **** 
 2085              		.loc 1 567 0
 2086 0008 7047     		bx	lr
 2087              	.L185:
 2088 000a C046     		.align	2
 2089              	.L184:
 2090 000c 00000000 		.word	.LANCHOR0
 2091              		.cfi_endproc
 2092              	.LFE228:
 2093              		.size	Chip_I2C_Disable, .-Chip_I2C_Disable
 2094              		.section	.text.Chip_I2C_IsStateChanged,"ax",%progbits
 2095              		.align	1
 2096              		.p2align 2,,3
 2097              		.global	Chip_I2C_IsStateChanged
 2098              		.syntax unified
 2099              		.code	16
 2100              		.thumb_func
 2101              		.fpu softvfp
 2102              		.type	Chip_I2C_IsStateChanged, %function
 2103              	Chip_I2C_IsStateChanged:
 2104              	.LFB229:
 571:../../lpc11cx4-library/lpc_chip_11cxx_lib/src/i2c_11xx.c **** 	UNUSED(id);
 2105              		.loc 1 571 0
 2106              		.cfi_startproc
 2107              		@ args = 0, pretend = 0, frame = 0
 2108              		@ frame_needed = 0, uses_anonymous_args = 0
 2109              		@ link register save eliminated.
 2110              	.LVL141:
 2111              		.loc 1 573 0
 2112 0000 024B     		ldr	r3, .L187	@ tmp116,
 574:../../lpc11cx4-library/lpc_chip_11cxx_lib/src/i2c_11xx.c **** }
 2113              		.loc 1 574 0
 2114              		@ sp needed	@
 573:../../lpc11cx4-library/lpc_chip_11cxx_lib/src/i2c_11xx.c **** }
 2115              		.loc 1 573 0
 2116 0002 1B68     		ldr	r3, [r3]	@ _2, i2c.ip
 2117 0004 1868     		ldr	r0, [r3]	@ _3, _2->CONSET
 2118              	.LVL142:
 2119 0006 0007     		lsls	r0, r0, #28	@ tmp119, _3,
 2120 0008 C00F     		lsrs	r0, r0, #31	@ tmp120, tmp119,
 2121              		.loc 1 574 0
 2122 000a 7047     		bx	lr
 2123              	.L188:
 2124              		.align	2
 2125              	.L187:
 2126 000c 00000000 		.word	.LANCHOR0
 2127              		.cfi_endproc
 2128              	.LFE229:
 2129              		.size	Chip_I2C_IsStateChanged, .-Chip_I2C_IsStateChanged
 2130              		.section	.bss.i2c_slave,"aw",%nobits
 2131              		.align	2
 2132              		.set	.LANCHOR1,. + 0
 2133              		.type	i2c_slave, %object
 2134              		.size	i2c_slave, 40
 2135              	i2c_slave:
 2136 0000 00000000 		.space	40
ARM GAS  /tmp/ccXw4jW7.s 			page 58


 2136      00000000 
 2136      00000000 
 2136      00000000 
 2136      00000000 
 2137              		.section	.data.i2c,"aw",%progbits
 2138              		.align	2
 2139              		.set	.LANCHOR0,. + 0
 2140              		.type	i2c, %object
 2141              		.size	i2c, 28
 2142              	i2c:
 2143              	@ ip:
 2144 0000 00000040 		.word	1073741824
 2145              	@ clk:
 2146 0004 05       		.byte	5
 2147              	@ mEvent:
 2148 0005 000000   		.space	3
 2149 0008 00000000 		.word	Chip_I2C_EventHandler
 2150              	@ sEvent:
 2151 000c 00000000 		.word	0
 2152              	@ mXfer:
 2153 0010 00000000 		.word	0
 2154              	@ sXfer:
 2155 0014 00000000 		.word	0
 2156              	@ flags:
 2157 0018 00000000 		.word	0
 2158              		.text
 2159              	.Letext0:
 2160              		.file 3 "/usr/arm-none-eabi/include/machine/_default_types.h"
 2161              		.file 4 "/usr/arm-none-eabi/include/sys/_stdint.h"
 2162              		.file 5 "../../lpc11cx4-library/lpc_chip_11cxx_lib/inc/chip.h"
 2163              		.file 6 "../../lpc11cx4-library/lpc_chip_11cxx_lib/inc/sysctl_11xx.h"
 2164              		.file 7 "../../lpc11cx4-library/lpc_chip_11cxx_lib/inc/i2c_11xx.h"