ARM GAS  /tmp/cchQViiZ.s 			page 1


   1              		.cpu cortex-m0
   2              		.eabi_attribute 20, 1	@ Tag_ABI_FP_denormal
   3              		.eabi_attribute 21, 1	@ Tag_ABI_FP_exceptions
   4              		.eabi_attribute 23, 3	@ Tag_ABI_FP_number_model
   5              		.eabi_attribute 24, 1	@ Tag_ABI_align8_needed
   6              		.eabi_attribute 25, 1	@ Tag_ABI_align8_preserved
   7              		.eabi_attribute 26, 1	@ Tag_ABI_enum_size
   8              		.eabi_attribute 30, 2	@ Tag_ABI_optimization_goals
   9              		.eabi_attribute 34, 0	@ Tag_CPU_unaligned_access
  10              		.eabi_attribute 18, 4	@ Tag_ABI_PCS_wchar_t
  11              		.file	"main.c"
  12              	@ GNU C89 (GNU Tools for ARM Embedded Processors) version 6.2.1 20161205 (release) [ARM/embedded-6-
  13              	@	compiled by GNU C version 5.4.0 20160609, GMP version 6.1.0, MPFR version 3.1.4, MPC version 1.0.
  14              	@ GGC heuristics: --param ggc-min-expand=100 --param ggc-min-heapsize=131072
  15              	@ options passed:  -I . -I ../../lpc11cx4-library/lpc_chip_11cxx_lib/inc
  16              	@ -imultilib thumb/v6-m -iprefix /usr/bin/../lib/gcc/arm-none-eabi/6.2.1/
  17              	@ -isysroot /usr/bin/../arm-none-eabi -MD bin/main.d -MF bin/main.d -MP
  18              	@ -MQ bin/main.o -D__USES_INITFINI__ -D CORE_M0 src/main.c -mcpu=cortex-m0
  19              	@ -mthumb -auxbase-strip bin/main.o -g -ggdb3 -O2 -Wall -Wstrict-prototypes
  20              	@ -Wextra -std=gnu90 -ffunction-sections -fdata-sections -fverbose-asm
  21              	@ options enabled:  -faggressive-loop-optimizations -falign-jumps
  22              	@ -falign-labels -falign-loops -fauto-inc-dec -fbranch-count-reg
  23              	@ -fcaller-saves -fchkp-check-incomplete-type -fchkp-check-read
  24              	@ -fchkp-check-write -fchkp-instrument-calls -fchkp-narrow-bounds
  25              	@ -fchkp-optimize -fchkp-store-bounds -fchkp-use-static-bounds
  26              	@ -fchkp-use-static-const-bounds -fchkp-use-wrappers
  27              	@ -fcombine-stack-adjustments -fcommon -fcompare-elim -fcprop-registers
  28              	@ -fcrossjumping -fcse-follow-jumps -fdata-sections -fdefer-pop
  29              	@ -fdelete-null-pointer-checks -fdevirtualize -fdevirtualize-speculatively
  30              	@ -fdwarf2-cfi-asm -fearly-inlining -feliminate-unused-debug-types
  31              	@ -fexpensive-optimizations -fforward-propagate -ffunction-cse
  32              	@ -ffunction-sections -fgcse -fgcse-lm -fgnu-runtime -fgnu-unique
  33              	@ -fguess-branch-probability -fhoist-adjacent-loads -fident -fif-conversion
  34              	@ -fif-conversion2 -findirect-inlining -finline -finline-atomics
  35              	@ -finline-functions-called-once -finline-small-functions -fipa-cp
  36              	@ -fipa-cp-alignment -fipa-icf -fipa-icf-functions -fipa-icf-variables
  37              	@ -fipa-profile -fipa-pure-const -fipa-reference -fipa-sra
  38              	@ -fira-hoist-pressure -fira-share-save-slots -fira-share-spill-slots
  39              	@ -fisolate-erroneous-paths-dereference -fivopts -fkeep-static-consts
  40              	@ -fleading-underscore -flifetime-dse -flra-remat -flto-odr-type-merging
  41              	@ -fmath-errno -fmerge-constants -fmerge-debug-strings
  42              	@ -fmove-loop-invariants -fomit-frame-pointer -foptimize-sibling-calls
  43              	@ -foptimize-strlen -fpartial-inlining -fpeephole -fpeephole2 -fplt
  44              	@ -fprefetch-loop-arrays -freg-struct-return -freorder-blocks
  45              	@ -freorder-functions -frerun-cse-after-loop
  46              	@ -fsched-critical-path-heuristic -fsched-dep-count-heuristic
  47              	@ -fsched-group-heuristic -fsched-interblock -fsched-last-insn-heuristic
  48              	@ -fsched-pressure -fsched-rank-heuristic -fsched-spec
  49              	@ -fsched-spec-insn-heuristic -fsched-stalled-insns-dep -fschedule-insns2
  50              	@ -fsection-anchors -fsemantic-interposition -fshow-column -fshrink-wrap
  51              	@ -fsigned-zeros -fsplit-ivs-in-unroller -fsplit-wide-types -fssa-backprop
  52              	@ -fssa-phiopt -fstdarg-opt -fstrict-aliasing -fstrict-overflow
  53              	@ -fstrict-volatile-bitfields -fsync-libcalls -fthread-jumps
  54              	@ -ftoplevel-reorder -ftrapping-math -ftree-bit-ccp -ftree-builtin-call-dce
  55              	@ -ftree-ccp -ftree-ch -ftree-coalesce-vars -ftree-copy-prop -ftree-cselim
  56              	@ -ftree-dce -ftree-dominator-opts -ftree-dse -ftree-forwprop -ftree-fre
  57              	@ -ftree-loop-if-convert -ftree-loop-im -ftree-loop-ivcanon
ARM GAS  /tmp/cchQViiZ.s 			page 2


  58              	@ -ftree-loop-optimize -ftree-parallelize-loops= -ftree-phiprop -ftree-pre
  59              	@ -ftree-pta -ftree-reassoc -ftree-scev-cprop -ftree-sink -ftree-slsr
  60              	@ -ftree-sra -ftree-switch-conversion -ftree-tail-merge -ftree-ter
  61              	@ -ftree-vrp -funit-at-a-time -fvar-tracking -fvar-tracking-assignments
  62              	@ -fverbose-asm -fzero-initialized-in-bss -mlittle-endian
  63              	@ -mpic-data-is-text-relative -msched-prolog -mthumb
  64              	@ -mvectorize-with-neon-quad
  65              	
  66              		.text
  67              	.Ltext0:
  68              		.cfi_sections	.debug_frame
  69              		.section	.text.SysTick_Handler,"ax",%progbits
  70              		.align	1
  71              		.p2align 2,,3
  72              		.global	SysTick_Handler
  73              		.syntax unified
  74              		.code	16
  75              		.thumb_func
  76              		.fpu softvfp
  77              		.type	SysTick_Handler, %function
  78              	SysTick_Handler:
  79              	.LFB198:
  80              		.file 1 "src/main.c"
   1:src/main.c    **** /**************************
   2:src/main.c    **** * 	UART Echo Example     *
   3:src/main.c    **** * 	Echoes out input      *
   4:src/main.c    **** ***************************/
   5:src/main.c    **** 
   6:src/main.c    **** 
   7:src/main.c    **** #include "chip.h"
   8:src/main.c    **** #include <string.h>
   9:src/main.c    **** const uint32_t OscRateIn = 0;
  10:src/main.c    **** 
  11:src/main.c    **** #define RS 2, 8
  12:src/main.c    **** #define RW 2, 7
  13:src/main.c    **** #define EN  1, 8
  14:src/main.c    **** #define DB4 2, 6 //led3
  15:src/main.c    **** #define DB5 3, 3 //led4
  16:src/main.c    **** #define DB6 3, 1 //led6
  17:src/main.c    **** #define DB7 3, 0 //led7
  18:src/main.c    **** 
  19:src/main.c    **** #define DEBUG_Print(str) Chip_UART_SendBlocking(LPC_USART, str, strlen(str))
  20:src/main.c    **** 
  21:src/main.c    **** volatile uint32_t msTicks;
  22:src/main.c    **** 
  23:src/main.c    **** uint8_t Rx_Buf[8];
  24:src/main.c    **** 
  25:src/main.c    **** void SysTick_Handler(void) {
  81              		.loc 1 25 0
  82              		.cfi_startproc
  83              		@ args = 0, pretend = 0, frame = 0
  84              		@ frame_needed = 0, uses_anonymous_args = 0
  85              		@ link register save eliminated.
  26:src/main.c    **** 	msTicks++;
  86              		.loc 1 26 0
  87 0000 024A     		ldr	r2, .L2	@ tmp112,
  27:src/main.c    **** }
ARM GAS  /tmp/cchQViiZ.s 			page 3


  88              		.loc 1 27 0
  89              		@ sp needed	@
  26:src/main.c    **** 	msTicks++;
  90              		.loc 1 26 0
  91 0002 1368     		ldr	r3, [r2]	@ msTicks.0_2, msTicks
  92 0004 0133     		adds	r3, r3, #1	@ _3,
  93 0006 1360     		str	r3, [r2]	@ _3, msTicks
  94              		.loc 1 27 0
  95 0008 7047     		bx	lr
  96              	.L3:
  97 000a C046     		.align	2
  98              	.L2:
  99 000c 00000000 		.word	msTicks
 100              		.cfi_endproc
 101              	.LFE198:
 102              		.size	SysTick_Handler, .-SysTick_Handler
 103              		.section	.text.Uart_Setup,"ax",%progbits
 104              		.align	1
 105              		.p2align 2,,3
 106              		.global	Uart_Setup
 107              		.syntax unified
 108              		.code	16
 109              		.thumb_func
 110              		.fpu softvfp
 111              		.type	Uart_Setup, %function
 112              	Uart_Setup:
 113              	.LFB199:
  28:src/main.c    **** 
  29:src/main.c    **** void Uart_Setup(void){
 114              		.loc 1 29 0
 115              		.cfi_startproc
 116              		@ args = 0, pretend = 0, frame = 0
 117              		@ frame_needed = 0, uses_anonymous_args = 0
 118              	.LVL0:
 119              	.LBB250:
 120              	.LBB251:
 121              		.file 2 "../../lpc11cx4-library/lpc_chip_11cxx_lib/inc/iocon_11xx.h"
   1:../../lpc11cx4-library/lpc_chip_11cxx_lib/inc/iocon_11xx.h **** /*
   2:../../lpc11cx4-library/lpc_chip_11cxx_lib/inc/iocon_11xx.h ****  * @brief IOCON registers and control functions
   3:../../lpc11cx4-library/lpc_chip_11cxx_lib/inc/iocon_11xx.h ****  *
   4:../../lpc11cx4-library/lpc_chip_11cxx_lib/inc/iocon_11xx.h ****  * @note
   5:../../lpc11cx4-library/lpc_chip_11cxx_lib/inc/iocon_11xx.h ****  * Copyright(C) NXP Semiconductors, 2012
   6:../../lpc11cx4-library/lpc_chip_11cxx_lib/inc/iocon_11xx.h ****  * All rights reserved.
   7:../../lpc11cx4-library/lpc_chip_11cxx_lib/inc/iocon_11xx.h ****  *
   8:../../lpc11cx4-library/lpc_chip_11cxx_lib/inc/iocon_11xx.h ****  * @par
   9:../../lpc11cx4-library/lpc_chip_11cxx_lib/inc/iocon_11xx.h ****  * Software that is described herein is for illustrative purposes only
  10:../../lpc11cx4-library/lpc_chip_11cxx_lib/inc/iocon_11xx.h ****  * which provides customers with programming information regarding the
  11:../../lpc11cx4-library/lpc_chip_11cxx_lib/inc/iocon_11xx.h ****  * LPC products.  This software is supplied "AS IS" without any warranties of
  12:../../lpc11cx4-library/lpc_chip_11cxx_lib/inc/iocon_11xx.h ****  * any kind, and NXP Semiconductors and its licensor disclaim any and
  13:../../lpc11cx4-library/lpc_chip_11cxx_lib/inc/iocon_11xx.h ****  * all warranties, express or implied, including all implied warranties of
  14:../../lpc11cx4-library/lpc_chip_11cxx_lib/inc/iocon_11xx.h ****  * merchantability, fitness for a particular purpose and non-infringement of
  15:../../lpc11cx4-library/lpc_chip_11cxx_lib/inc/iocon_11xx.h ****  * intellectual property rights.  NXP Semiconductors assumes no responsibility
  16:../../lpc11cx4-library/lpc_chip_11cxx_lib/inc/iocon_11xx.h ****  * or liability for the use of the software, conveys no license or rights under any
  17:../../lpc11cx4-library/lpc_chip_11cxx_lib/inc/iocon_11xx.h ****  * patent, copyright, mask work right, or any other intellectual property rights in
  18:../../lpc11cx4-library/lpc_chip_11cxx_lib/inc/iocon_11xx.h ****  * or to any products. NXP Semiconductors reserves the right to make changes
  19:../../lpc11cx4-library/lpc_chip_11cxx_lib/inc/iocon_11xx.h ****  * in the software without notification. NXP Semiconductors also makes no
  20:../../lpc11cx4-library/lpc_chip_11cxx_lib/inc/iocon_11xx.h ****  * representation or warranty that such application will be suitable for the
ARM GAS  /tmp/cchQViiZ.s 			page 4


  21:../../lpc11cx4-library/lpc_chip_11cxx_lib/inc/iocon_11xx.h ****  * specified use without further testing or modification.
  22:../../lpc11cx4-library/lpc_chip_11cxx_lib/inc/iocon_11xx.h ****  *
  23:../../lpc11cx4-library/lpc_chip_11cxx_lib/inc/iocon_11xx.h ****  * @par
  24:../../lpc11cx4-library/lpc_chip_11cxx_lib/inc/iocon_11xx.h ****  * Permission to use, copy, modify, and distribute this software and its
  25:../../lpc11cx4-library/lpc_chip_11cxx_lib/inc/iocon_11xx.h ****  * documentation is hereby granted, under NXP Semiconductors' and its
  26:../../lpc11cx4-library/lpc_chip_11cxx_lib/inc/iocon_11xx.h ****  * licensor's relevant copyrights in the software, without fee, provided that it
  27:../../lpc11cx4-library/lpc_chip_11cxx_lib/inc/iocon_11xx.h ****  * is used in conjunction with NXP Semiconductors microcontrollers.  This
  28:../../lpc11cx4-library/lpc_chip_11cxx_lib/inc/iocon_11xx.h ****  * copyright, permission, and disclaimer notice must appear in all copies of
  29:../../lpc11cx4-library/lpc_chip_11cxx_lib/inc/iocon_11xx.h ****  * this code.
  30:../../lpc11cx4-library/lpc_chip_11cxx_lib/inc/iocon_11xx.h ****  */
  31:../../lpc11cx4-library/lpc_chip_11cxx_lib/inc/iocon_11xx.h **** 
  32:../../lpc11cx4-library/lpc_chip_11cxx_lib/inc/iocon_11xx.h **** #ifndef __IOCON_11XX_H_
  33:../../lpc11cx4-library/lpc_chip_11cxx_lib/inc/iocon_11xx.h **** #define __IOCON_11XX_H_
  34:../../lpc11cx4-library/lpc_chip_11cxx_lib/inc/iocon_11xx.h **** 
  35:../../lpc11cx4-library/lpc_chip_11cxx_lib/inc/iocon_11xx.h **** #ifdef __cplusplus
  36:../../lpc11cx4-library/lpc_chip_11cxx_lib/inc/iocon_11xx.h **** extern "C" {
  37:../../lpc11cx4-library/lpc_chip_11cxx_lib/inc/iocon_11xx.h **** #endif
  38:../../lpc11cx4-library/lpc_chip_11cxx_lib/inc/iocon_11xx.h **** 
  39:../../lpc11cx4-library/lpc_chip_11cxx_lib/inc/iocon_11xx.h **** /** @defgroup IOCON_11XX CHIP: LPC11xx IO Control driver
  40:../../lpc11cx4-library/lpc_chip_11cxx_lib/inc/iocon_11xx.h ****  * @ingroup CHIP_11XX_Drivers
  41:../../lpc11cx4-library/lpc_chip_11cxx_lib/inc/iocon_11xx.h ****  * @{
  42:../../lpc11cx4-library/lpc_chip_11cxx_lib/inc/iocon_11xx.h ****  */
  43:../../lpc11cx4-library/lpc_chip_11cxx_lib/inc/iocon_11xx.h **** 
  44:../../lpc11cx4-library/lpc_chip_11cxx_lib/inc/iocon_11xx.h **** /**
  45:../../lpc11cx4-library/lpc_chip_11cxx_lib/inc/iocon_11xx.h ****  * @brief IO Configuration Unit register block structure
  46:../../lpc11cx4-library/lpc_chip_11cxx_lib/inc/iocon_11xx.h ****  */
  47:../../lpc11cx4-library/lpc_chip_11cxx_lib/inc/iocon_11xx.h **** #if defined(CHIP_LPC11UXX) || defined(CHIP_LPC11EXX) || defined(CHIP_LPC11AXX)
  48:../../lpc11cx4-library/lpc_chip_11cxx_lib/inc/iocon_11xx.h **** typedef struct {						/*!< LPC11AXX/LPC11UXX/LPC11EXX IOCON Structure */
  49:../../lpc11cx4-library/lpc_chip_11cxx_lib/inc/iocon_11xx.h **** 	__IO uint32_t  PIO0[24];
  50:../../lpc11cx4-library/lpc_chip_11cxx_lib/inc/iocon_11xx.h **** 	__IO uint32_t  PIO1[32];
  51:../../lpc11cx4-library/lpc_chip_11cxx_lib/inc/iocon_11xx.h **** } LPC_IOCON_T;
  52:../../lpc11cx4-library/lpc_chip_11cxx_lib/inc/iocon_11xx.h **** 
  53:../../lpc11cx4-library/lpc_chip_11cxx_lib/inc/iocon_11xx.h **** #else
  54:../../lpc11cx4-library/lpc_chip_11cxx_lib/inc/iocon_11xx.h **** /**
  55:../../lpc11cx4-library/lpc_chip_11cxx_lib/inc/iocon_11xx.h ****  * @brief LPC11XX I/O Configuration register offset
  56:../../lpc11cx4-library/lpc_chip_11cxx_lib/inc/iocon_11xx.h ****  */
  57:../../lpc11cx4-library/lpc_chip_11cxx_lib/inc/iocon_11xx.h **** typedef enum CHIP_IOCON_PIO {
  58:../../lpc11cx4-library/lpc_chip_11cxx_lib/inc/iocon_11xx.h **** 	IOCON_PIO0_0 = (0x00C >> 2),
  59:../../lpc11cx4-library/lpc_chip_11cxx_lib/inc/iocon_11xx.h **** 	IOCON_PIO0_1 = (0x010 >> 2),
  60:../../lpc11cx4-library/lpc_chip_11cxx_lib/inc/iocon_11xx.h **** 	IOCON_PIO0_2 = (0x01C >> 2),
  61:../../lpc11cx4-library/lpc_chip_11cxx_lib/inc/iocon_11xx.h **** 	IOCON_PIO0_3 = (0x02C >> 2),
  62:../../lpc11cx4-library/lpc_chip_11cxx_lib/inc/iocon_11xx.h **** 	IOCON_PIO0_4 = (0x030 >> 2),
  63:../../lpc11cx4-library/lpc_chip_11cxx_lib/inc/iocon_11xx.h **** 	IOCON_PIO0_5 = (0x034 >> 2),
  64:../../lpc11cx4-library/lpc_chip_11cxx_lib/inc/iocon_11xx.h **** 	IOCON_PIO0_6 = (0x04C >> 2),
  65:../../lpc11cx4-library/lpc_chip_11cxx_lib/inc/iocon_11xx.h **** 	IOCON_PIO0_7 = (0x050 >> 2),
  66:../../lpc11cx4-library/lpc_chip_11cxx_lib/inc/iocon_11xx.h **** 	IOCON_PIO0_8 = (0x060 >> 2),
  67:../../lpc11cx4-library/lpc_chip_11cxx_lib/inc/iocon_11xx.h **** 	IOCON_PIO0_9 = (0x064 >> 2),
  68:../../lpc11cx4-library/lpc_chip_11cxx_lib/inc/iocon_11xx.h **** 	IOCON_PIO0_10 = (0x068 >> 2),
  69:../../lpc11cx4-library/lpc_chip_11cxx_lib/inc/iocon_11xx.h **** 	IOCON_PIO0_11 = (0x074 >> 2),
  70:../../lpc11cx4-library/lpc_chip_11cxx_lib/inc/iocon_11xx.h **** 
  71:../../lpc11cx4-library/lpc_chip_11cxx_lib/inc/iocon_11xx.h **** 	IOCON_PIO1_0 = (0x078 >> 2),
  72:../../lpc11cx4-library/lpc_chip_11cxx_lib/inc/iocon_11xx.h **** 	IOCON_PIO1_1 = (0x07C >> 2),
  73:../../lpc11cx4-library/lpc_chip_11cxx_lib/inc/iocon_11xx.h **** 	IOCON_PIO1_2 = (0x080 >> 2),
  74:../../lpc11cx4-library/lpc_chip_11cxx_lib/inc/iocon_11xx.h **** 	IOCON_PIO1_3 = (0x090 >> 2),
  75:../../lpc11cx4-library/lpc_chip_11cxx_lib/inc/iocon_11xx.h **** 	IOCON_PIO1_4 = (0x094 >> 2),
  76:../../lpc11cx4-library/lpc_chip_11cxx_lib/inc/iocon_11xx.h **** 	IOCON_PIO1_5 = (0x0A0 >> 2),
  77:../../lpc11cx4-library/lpc_chip_11cxx_lib/inc/iocon_11xx.h **** 	IOCON_PIO1_6 = (0x0A4 >> 2),
ARM GAS  /tmp/cchQViiZ.s 			page 5


  78:../../lpc11cx4-library/lpc_chip_11cxx_lib/inc/iocon_11xx.h **** 	IOCON_PIO1_7 = (0x0A8 >> 2),
  79:../../lpc11cx4-library/lpc_chip_11cxx_lib/inc/iocon_11xx.h **** 	IOCON_PIO1_8 = (0x014 >> 2),
  80:../../lpc11cx4-library/lpc_chip_11cxx_lib/inc/iocon_11xx.h **** 	IOCON_PIO1_9 = (0x038 >> 2),
  81:../../lpc11cx4-library/lpc_chip_11cxx_lib/inc/iocon_11xx.h **** 	IOCON_PIO1_10 = (0x06C >> 2),
  82:../../lpc11cx4-library/lpc_chip_11cxx_lib/inc/iocon_11xx.h **** 	IOCON_PIO1_11 = (0x098 >> 2),
  83:../../lpc11cx4-library/lpc_chip_11cxx_lib/inc/iocon_11xx.h **** 
  84:../../lpc11cx4-library/lpc_chip_11cxx_lib/inc/iocon_11xx.h **** 	IOCON_PIO2_0 = (0x008 >> 2),
  85:../../lpc11cx4-library/lpc_chip_11cxx_lib/inc/iocon_11xx.h **** 	IOCON_PIO2_1 = (0x028 >> 2),
  86:../../lpc11cx4-library/lpc_chip_11cxx_lib/inc/iocon_11xx.h **** 	IOCON_PIO2_2 = (0x05C >> 2),
  87:../../lpc11cx4-library/lpc_chip_11cxx_lib/inc/iocon_11xx.h **** 	IOCON_PIO2_3 = (0x08C >> 2),
  88:../../lpc11cx4-library/lpc_chip_11cxx_lib/inc/iocon_11xx.h **** 	IOCON_PIO2_4 = (0x040 >> 2),
  89:../../lpc11cx4-library/lpc_chip_11cxx_lib/inc/iocon_11xx.h **** 	IOCON_PIO2_5 = (0x044 >> 2),
  90:../../lpc11cx4-library/lpc_chip_11cxx_lib/inc/iocon_11xx.h **** 	IOCON_PIO2_6 = (0x000 >> 2),
  91:../../lpc11cx4-library/lpc_chip_11cxx_lib/inc/iocon_11xx.h **** 	IOCON_PIO2_7 = (0x020 >> 2),
  92:../../lpc11cx4-library/lpc_chip_11cxx_lib/inc/iocon_11xx.h **** 	IOCON_PIO2_8 = (0x024 >> 2),
  93:../../lpc11cx4-library/lpc_chip_11cxx_lib/inc/iocon_11xx.h **** 	IOCON_PIO2_9 = (0x054 >> 2),
  94:../../lpc11cx4-library/lpc_chip_11cxx_lib/inc/iocon_11xx.h **** 	IOCON_PIO2_10 = (0x058 >> 2),
  95:../../lpc11cx4-library/lpc_chip_11cxx_lib/inc/iocon_11xx.h **** #if !defined(CHIP_LPC1125)
  96:../../lpc11cx4-library/lpc_chip_11cxx_lib/inc/iocon_11xx.h **** 	IOCON_PIO2_11 = (0x070 >> 2),
  97:../../lpc11cx4-library/lpc_chip_11cxx_lib/inc/iocon_11xx.h **** #endif
  98:../../lpc11cx4-library/lpc_chip_11cxx_lib/inc/iocon_11xx.h **** 
  99:../../lpc11cx4-library/lpc_chip_11cxx_lib/inc/iocon_11xx.h **** 	IOCON_PIO3_0 = (0x084 >> 2),
 100:../../lpc11cx4-library/lpc_chip_11cxx_lib/inc/iocon_11xx.h **** #if !defined(CHIP_LPC1125)
 101:../../lpc11cx4-library/lpc_chip_11cxx_lib/inc/iocon_11xx.h **** 	IOCON_PIO3_1 = (0x088 >> 2),
 102:../../lpc11cx4-library/lpc_chip_11cxx_lib/inc/iocon_11xx.h **** #endif    
 103:../../lpc11cx4-library/lpc_chip_11cxx_lib/inc/iocon_11xx.h **** 	IOCON_PIO3_2 = (0x09C >> 2),
 104:../../lpc11cx4-library/lpc_chip_11cxx_lib/inc/iocon_11xx.h **** 	IOCON_PIO3_3 = (0x0AC >> 2),
 105:../../lpc11cx4-library/lpc_chip_11cxx_lib/inc/iocon_11xx.h **** 	IOCON_PIO3_4 = (0x03C >> 2),
 106:../../lpc11cx4-library/lpc_chip_11cxx_lib/inc/iocon_11xx.h **** 	IOCON_PIO3_5 = (0x048 >> 2),
 107:../../lpc11cx4-library/lpc_chip_11cxx_lib/inc/iocon_11xx.h **** } CHIP_IOCON_PIO_T;
 108:../../lpc11cx4-library/lpc_chip_11cxx_lib/inc/iocon_11xx.h **** 
 109:../../lpc11cx4-library/lpc_chip_11cxx_lib/inc/iocon_11xx.h **** /**
 110:../../lpc11cx4-library/lpc_chip_11cxx_lib/inc/iocon_11xx.h ****  * @brief LPC11XX Pin location select
 111:../../lpc11cx4-library/lpc_chip_11cxx_lib/inc/iocon_11xx.h ****  */
 112:../../lpc11cx4-library/lpc_chip_11cxx_lib/inc/iocon_11xx.h **** typedef enum CHIP_IOCON_PIN_LOC {
 113:../../lpc11cx4-library/lpc_chip_11cxx_lib/inc/iocon_11xx.h **** 	IOCON_SCKLOC_PIO0_10        = (0xB0),		/*!< Selects SCK0 function in pin location PIO0_10 */
 114:../../lpc11cx4-library/lpc_chip_11cxx_lib/inc/iocon_11xx.h **** #if !defined(CHIP_LPC1125)
 115:../../lpc11cx4-library/lpc_chip_11cxx_lib/inc/iocon_11xx.h **** 	IOCON_SCKLOC_PIO2_11        = (0xB0 | 1),	/*!< Selects SCK0 function in pin location PIO2_11 */
 116:../../lpc11cx4-library/lpc_chip_11cxx_lib/inc/iocon_11xx.h **** #endif    
 117:../../lpc11cx4-library/lpc_chip_11cxx_lib/inc/iocon_11xx.h **** 	IOCON_SCKLOC_PIO0_6         = (0xB0 | 2),	/*!< Selects SCK0 function in pin location PIO0_6 */
 118:../../lpc11cx4-library/lpc_chip_11cxx_lib/inc/iocon_11xx.h ****     
 119:../../lpc11cx4-library/lpc_chip_11cxx_lib/inc/iocon_11xx.h **** 	IOCON_DSRLOC_PIO2_1         = (0xB4),		/*!< Selects DSR function in pin location PIO2_1 */
 120:../../lpc11cx4-library/lpc_chip_11cxx_lib/inc/iocon_11xx.h **** #if !defined(CHIP_LPC1125)
 121:../../lpc11cx4-library/lpc_chip_11cxx_lib/inc/iocon_11xx.h **** 	IOCON_DSRLOC_PIO3_1         = (0xB4 | 1),	/*!< Selects DSR function in pin location PIO3_1 */
 122:../../lpc11cx4-library/lpc_chip_11cxx_lib/inc/iocon_11xx.h **** #endif    
 123:../../lpc11cx4-library/lpc_chip_11cxx_lib/inc/iocon_11xx.h ****     
 124:../../lpc11cx4-library/lpc_chip_11cxx_lib/inc/iocon_11xx.h **** 	IOCON_DCDLOC_PIO2_2         = (0xB8),		/*!< Selects DCD function in pin location PIO2_2 */
 125:../../lpc11cx4-library/lpc_chip_11cxx_lib/inc/iocon_11xx.h **** 	IOCON_DCDLOC_PIO3_2         = (0xB8 | 1),	/*!< Selects DCD function in pin location PIO3_2 */
 126:../../lpc11cx4-library/lpc_chip_11cxx_lib/inc/iocon_11xx.h ****     
 127:../../lpc11cx4-library/lpc_chip_11cxx_lib/inc/iocon_11xx.h **** 	IOCON_RILOC_PIO2_3          = (0xBC),		/*!< Selects RI function in pin location PIO2_3 */
 128:../../lpc11cx4-library/lpc_chip_11cxx_lib/inc/iocon_11xx.h **** 	IOCON_RILOC_PIO3_3          = (0xBC | 1),	/*!< Selects Ri function in pin location PIO3_3 */
 129:../../lpc11cx4-library/lpc_chip_11cxx_lib/inc/iocon_11xx.h **** 
 130:../../lpc11cx4-library/lpc_chip_11cxx_lib/inc/iocon_11xx.h **** #if defined(CHIP_LPC1125)
 131:../../lpc11cx4-library/lpc_chip_11cxx_lib/inc/iocon_11xx.h **** 	IOCON_SSEL1_LOC_PIO2_2      = (0x18),		/*!< Selects SSEL1 function in pin location PIO2_2 */
 132:../../lpc11cx4-library/lpc_chip_11cxx_lib/inc/iocon_11xx.h **** 	IOCON_SSEL1_LOC_PIO2_4      = (0x18 | 1),	/*!< Selects SSEL1 function in pin location PIO2_4 */
 133:../../lpc11cx4-library/lpc_chip_11cxx_lib/inc/iocon_11xx.h **** 	
 134:../../lpc11cx4-library/lpc_chip_11cxx_lib/inc/iocon_11xx.h ****     IOCON_CT16B0_CAP0_LOC_PIO0_2 = (0xC0),		/*!< Selects SSEL1 CTB16B0_CAP0 function in pin locatio
ARM GAS  /tmp/cchQViiZ.s 			page 6


 135:../../lpc11cx4-library/lpc_chip_11cxx_lib/inc/iocon_11xx.h ****     IOCON_CT16B0_CAP0_LOC_PIO3_3 = (0xC0 | 1),	/*!< Selects SSEL1 CTB16B0_CAP0 function in pin loca
 136:../../lpc11cx4-library/lpc_chip_11cxx_lib/inc/iocon_11xx.h ****     
 137:../../lpc11cx4-library/lpc_chip_11cxx_lib/inc/iocon_11xx.h ****     IOCON_SCK1_LOC_PIO2_1       = (0xC4),		/*!< Selects SCK1 function in pin location PIO2_1 */
 138:../../lpc11cx4-library/lpc_chip_11cxx_lib/inc/iocon_11xx.h ****     IOCON_SCK1_LOC_PIO3_2       = (0xC4 | 1),	/*!< Selects SCK1 function in pin location PIO3_2 */
 139:../../lpc11cx4-library/lpc_chip_11cxx_lib/inc/iocon_11xx.h ****     
 140:../../lpc11cx4-library/lpc_chip_11cxx_lib/inc/iocon_11xx.h ****     IOCON_MISO1_LOC_PIO2_2      = (0xC8),		/*!< Selects MISO1 function in pin location PIO2_2 */
 141:../../lpc11cx4-library/lpc_chip_11cxx_lib/inc/iocon_11xx.h ****     IOCON_MISO1_LOC_PIO1_10     = (0xC8 | 1),	/*!< Selects MISO1 function in pin location PIO1_10 *
 142:../../lpc11cx4-library/lpc_chip_11cxx_lib/inc/iocon_11xx.h ****     
 143:../../lpc11cx4-library/lpc_chip_11cxx_lib/inc/iocon_11xx.h ****     IOCON_MOSI1_LOC_PIO2_3      = (0xCC),		/*!< Selects MOSI1 function in pin location PIO2_3 */
 144:../../lpc11cx4-library/lpc_chip_11cxx_lib/inc/iocon_11xx.h ****     IOCON_MOSI1_LOC_PIO1_9      = (0xCC),		/*!< Selects MOSI1 function in pin location PIO1_9 */
 145:../../lpc11cx4-library/lpc_chip_11cxx_lib/inc/iocon_11xx.h ****     
 146:../../lpc11cx4-library/lpc_chip_11cxx_lib/inc/iocon_11xx.h ****     IOCON_CT326B0_CAP0_LOC_PIO1_5 = (0xD0),		/*!< Selects CT32B0_CAP0 function in pin location PIO1
 147:../../lpc11cx4-library/lpc_chip_11cxx_lib/inc/iocon_11xx.h ****     IOCON_CT326B0_CAP0_LOC_PIO2_9 = (0xD0 | 1),	/*!< Selects CT32B0_CAP0 function in pin location P
 148:../../lpc11cx4-library/lpc_chip_11cxx_lib/inc/iocon_11xx.h ****     
 149:../../lpc11cx4-library/lpc_chip_11cxx_lib/inc/iocon_11xx.h ****     IOCON_U0_RXD_LOC_PIO1_6     = (0xD4),		/*!< Selects U0 RXD function in pin location PIO1_6 */
 150:../../lpc11cx4-library/lpc_chip_11cxx_lib/inc/iocon_11xx.h ****     IOCON_U0_RXD_LOC_PIO2_7     = (0xD4 | 1),   /*!< Selects U0 RXD function in pin location PIO2_7
 151:../../lpc11cx4-library/lpc_chip_11cxx_lib/inc/iocon_11xx.h ****     IOCON_U0_RXD_LOC_PIO3_4     = (0xD4 | 3),   /*!< Selects U0 RXD function in pin location PIO3_4
 152:../../lpc11cx4-library/lpc_chip_11cxx_lib/inc/iocon_11xx.h **** #endif
 153:../../lpc11cx4-library/lpc_chip_11cxx_lib/inc/iocon_11xx.h **** 
 154:../../lpc11cx4-library/lpc_chip_11cxx_lib/inc/iocon_11xx.h **** } CHIP_IOCON_PIN_LOC_T;
 155:../../lpc11cx4-library/lpc_chip_11cxx_lib/inc/iocon_11xx.h **** 
 156:../../lpc11cx4-library/lpc_chip_11cxx_lib/inc/iocon_11xx.h **** typedef struct {						/*!< LPC11XX/LPC11XXLV/LPC11UXX IOCON Structure */
 157:../../lpc11cx4-library/lpc_chip_11cxx_lib/inc/iocon_11xx.h **** 	__IO uint32_t  REG[48];
 158:../../lpc11cx4-library/lpc_chip_11cxx_lib/inc/iocon_11xx.h **** } LPC_IOCON_T;
 159:../../lpc11cx4-library/lpc_chip_11cxx_lib/inc/iocon_11xx.h **** #endif
 160:../../lpc11cx4-library/lpc_chip_11cxx_lib/inc/iocon_11xx.h **** 
 161:../../lpc11cx4-library/lpc_chip_11cxx_lib/inc/iocon_11xx.h **** /**
 162:../../lpc11cx4-library/lpc_chip_11cxx_lib/inc/iocon_11xx.h ****  * IOCON function and mode selection definitions
 163:../../lpc11cx4-library/lpc_chip_11cxx_lib/inc/iocon_11xx.h ****  * See the User Manual for specific modes and functions supported by the
 164:../../lpc11cx4-library/lpc_chip_11cxx_lib/inc/iocon_11xx.h ****  * various LPC11xx devices. Functionality can vary per device.
 165:../../lpc11cx4-library/lpc_chip_11cxx_lib/inc/iocon_11xx.h ****  */
 166:../../lpc11cx4-library/lpc_chip_11cxx_lib/inc/iocon_11xx.h **** #define IOCON_FUNC0             0x0				/*!< Selects pin function 0 */
 167:../../lpc11cx4-library/lpc_chip_11cxx_lib/inc/iocon_11xx.h **** #define IOCON_FUNC1             0x1				/*!< Selects pin function 1 */
 168:../../lpc11cx4-library/lpc_chip_11cxx_lib/inc/iocon_11xx.h **** #define IOCON_FUNC2             0x2				/*!< Selects pin function 2 */
 169:../../lpc11cx4-library/lpc_chip_11cxx_lib/inc/iocon_11xx.h **** #define IOCON_FUNC3             0x3				/*!< Selects pin function 3 */
 170:../../lpc11cx4-library/lpc_chip_11cxx_lib/inc/iocon_11xx.h **** #define IOCON_FUNC4             0x4				/*!< Selects pin function 4 */
 171:../../lpc11cx4-library/lpc_chip_11cxx_lib/inc/iocon_11xx.h **** #define IOCON_FUNC5             0x5				/*!< Selects pin function 5 */
 172:../../lpc11cx4-library/lpc_chip_11cxx_lib/inc/iocon_11xx.h **** #define IOCON_FUNC6             0x6				/*!< Selects pin function 6 */
 173:../../lpc11cx4-library/lpc_chip_11cxx_lib/inc/iocon_11xx.h **** #define IOCON_FUNC7             0x7				/*!< Selects pin function 7 */
 174:../../lpc11cx4-library/lpc_chip_11cxx_lib/inc/iocon_11xx.h **** #define IOCON_MODE_INACT        (0x0 << 3)		/*!< No addition pin function */
 175:../../lpc11cx4-library/lpc_chip_11cxx_lib/inc/iocon_11xx.h **** #define IOCON_MODE_PULLDOWN     (0x1 << 3)		/*!< Selects pull-down function */
 176:../../lpc11cx4-library/lpc_chip_11cxx_lib/inc/iocon_11xx.h **** #define IOCON_MODE_PULLUP       (0x2 << 3)		/*!< Selects pull-up function */
 177:../../lpc11cx4-library/lpc_chip_11cxx_lib/inc/iocon_11xx.h **** #define IOCON_MODE_REPEATER     (0x3 << 3)		/*!< Selects pin repeater function */
 178:../../lpc11cx4-library/lpc_chip_11cxx_lib/inc/iocon_11xx.h **** #define IOCON_HYS_EN            (0x1 << 5)		/*!< Enables hysteresis */
 179:../../lpc11cx4-library/lpc_chip_11cxx_lib/inc/iocon_11xx.h **** #define IOCON_INV_EN            (0x1 << 6)		/*!< Enables invert function on input */
 180:../../lpc11cx4-library/lpc_chip_11cxx_lib/inc/iocon_11xx.h **** #define IOCON_ADMODE_EN         (0x0 << 7)		/*!< Enables analog input function (analog pins only) *
 181:../../lpc11cx4-library/lpc_chip_11cxx_lib/inc/iocon_11xx.h **** #define IOCON_DIGMODE_EN        (0x1 << 7)		/*!< Enables digital function (analog pins only) */
 182:../../lpc11cx4-library/lpc_chip_11cxx_lib/inc/iocon_11xx.h **** #define IOCON_SFI2C_EN          (0x0 << 8)		/*!< I2C standard mode/fast-mode */
 183:../../lpc11cx4-library/lpc_chip_11cxx_lib/inc/iocon_11xx.h **** #define IOCON_STDI2C_EN         (0x1 << 8)		/*!< I2C standard I/O functionality */
 184:../../lpc11cx4-library/lpc_chip_11cxx_lib/inc/iocon_11xx.h **** #define IOCON_FASTI2C_EN        (0x2 << 8)		/*!< I2C Fast-mode Plus */
 185:../../lpc11cx4-library/lpc_chip_11cxx_lib/inc/iocon_11xx.h **** #define IOCON_FILT_DIS          (0x1 << 8)		/*!< Disables noise pulses filtering (10nS glitch filte
 186:../../lpc11cx4-library/lpc_chip_11cxx_lib/inc/iocon_11xx.h **** #define IOCON_OPENDRAIN_EN      (0x1 << 10)		/*!< Enables open-drain function */
 187:../../lpc11cx4-library/lpc_chip_11cxx_lib/inc/iocon_11xx.h **** 
 188:../../lpc11cx4-library/lpc_chip_11cxx_lib/inc/iocon_11xx.h **** /**
 189:../../lpc11cx4-library/lpc_chip_11cxx_lib/inc/iocon_11xx.h ****  * IOCON function and mode selection definitions (old)
 190:../../lpc11cx4-library/lpc_chip_11cxx_lib/inc/iocon_11xx.h ****  * For backwards compatibility.
 191:../../lpc11cx4-library/lpc_chip_11cxx_lib/inc/iocon_11xx.h ****  */
ARM GAS  /tmp/cchQViiZ.s 			page 7


 192:../../lpc11cx4-library/lpc_chip_11cxx_lib/inc/iocon_11xx.h **** #define MD_PLN					(0x0 << 3)		/*!< Disable pull-down and pull-up resistor at resistor at pad */
 193:../../lpc11cx4-library/lpc_chip_11cxx_lib/inc/iocon_11xx.h **** #define MD_PDN					(0x1 << 3)		/*!< Enable pull-down resistor at pad */
 194:../../lpc11cx4-library/lpc_chip_11cxx_lib/inc/iocon_11xx.h **** #define MD_PUP					(0x2 << 3)		/*!< Enable pull-up resistor at pad */
 195:../../lpc11cx4-library/lpc_chip_11cxx_lib/inc/iocon_11xx.h **** #define MD_BUK					(0x3 << 3)		/*!< Enable pull-down and pull-up resistor at resistor at pad (repea
 196:../../lpc11cx4-library/lpc_chip_11cxx_lib/inc/iocon_11xx.h **** #define MD_HYS					(0x1 << 5)		/*!< Enable hysteresis */
 197:../../lpc11cx4-library/lpc_chip_11cxx_lib/inc/iocon_11xx.h **** #define MD_INV					(0x1 << 6)		/*!< Invert enable */
 198:../../lpc11cx4-library/lpc_chip_11cxx_lib/inc/iocon_11xx.h **** #define MD_ADMODE				(0x0 << 7)		/*!< Select analog mode */
 199:../../lpc11cx4-library/lpc_chip_11cxx_lib/inc/iocon_11xx.h **** #define MD_DIGMODE				(0x1 << 7)		/*!< Select digitial mode */
 200:../../lpc11cx4-library/lpc_chip_11cxx_lib/inc/iocon_11xx.h **** #define MD_DISFIL				(0x0 << 8)		/*!< Disable 10nS input glitch filter */
 201:../../lpc11cx4-library/lpc_chip_11cxx_lib/inc/iocon_11xx.h **** #define MD_ENFIL				(0x1 << 8)		/*!< Enable 10nS input glitch filter */
 202:../../lpc11cx4-library/lpc_chip_11cxx_lib/inc/iocon_11xx.h **** #define MD_SFI2C				(0x0 << 8)		/*!< I2C standard mode/fast-mode */
 203:../../lpc11cx4-library/lpc_chip_11cxx_lib/inc/iocon_11xx.h **** #define MD_STDI2C				(0x1 << 8)		/*!< I2C standard I/O functionality */
 204:../../lpc11cx4-library/lpc_chip_11cxx_lib/inc/iocon_11xx.h **** #define MD_FASTI2C				(0x2 << 8)		/*!< I2C Fast-mode Plus */
 205:../../lpc11cx4-library/lpc_chip_11cxx_lib/inc/iocon_11xx.h **** #define MD_OPENDRAIN			(0x1 << 10)		/*!< Open drain mode bit */
 206:../../lpc11cx4-library/lpc_chip_11cxx_lib/inc/iocon_11xx.h **** #define FUNC0 0x0
 207:../../lpc11cx4-library/lpc_chip_11cxx_lib/inc/iocon_11xx.h **** #define FUNC1 0x1
 208:../../lpc11cx4-library/lpc_chip_11cxx_lib/inc/iocon_11xx.h **** #define FUNC2 0x2
 209:../../lpc11cx4-library/lpc_chip_11cxx_lib/inc/iocon_11xx.h **** #define FUNC3 0x3
 210:../../lpc11cx4-library/lpc_chip_11cxx_lib/inc/iocon_11xx.h **** #define FUNC4 0x4
 211:../../lpc11cx4-library/lpc_chip_11cxx_lib/inc/iocon_11xx.h **** #define FUNC5 0x5
 212:../../lpc11cx4-library/lpc_chip_11cxx_lib/inc/iocon_11xx.h **** #define FUNC6 0x6
 213:../../lpc11cx4-library/lpc_chip_11cxx_lib/inc/iocon_11xx.h **** #define FUNC7 0x7
 214:../../lpc11cx4-library/lpc_chip_11cxx_lib/inc/iocon_11xx.h **** 
 215:../../lpc11cx4-library/lpc_chip_11cxx_lib/inc/iocon_11xx.h **** #if defined(CHIP_LPC11UXX) || defined(CHIP_LPC11EXX) || defined(CHIP_LPC11AXX)
 216:../../lpc11cx4-library/lpc_chip_11cxx_lib/inc/iocon_11xx.h **** /**
 217:../../lpc11cx4-library/lpc_chip_11cxx_lib/inc/iocon_11xx.h ****  * @brief	Sets I/O Control pin mux
 218:../../lpc11cx4-library/lpc_chip_11cxx_lib/inc/iocon_11xx.h ****  * @param	pIOCON		: The base of IOCON peripheral on the chip
 219:../../lpc11cx4-library/lpc_chip_11cxx_lib/inc/iocon_11xx.h ****  * @param	port		: GPIO port to mux
 220:../../lpc11cx4-library/lpc_chip_11cxx_lib/inc/iocon_11xx.h ****  * @param	pin			: GPIO pin to mux
 221:../../lpc11cx4-library/lpc_chip_11cxx_lib/inc/iocon_11xx.h ****  * @param	modefunc	: OR'ed values or type IOCON_*
 222:../../lpc11cx4-library/lpc_chip_11cxx_lib/inc/iocon_11xx.h ****  * @return	Nothing
 223:../../lpc11cx4-library/lpc_chip_11cxx_lib/inc/iocon_11xx.h ****  */
 224:../../lpc11cx4-library/lpc_chip_11cxx_lib/inc/iocon_11xx.h **** void Chip_IOCON_PinMuxSet(LPC_IOCON_T *pIOCON, uint8_t port, uint8_t pin, uint32_t modefunc);
 225:../../lpc11cx4-library/lpc_chip_11cxx_lib/inc/iocon_11xx.h **** 
 226:../../lpc11cx4-library/lpc_chip_11cxx_lib/inc/iocon_11xx.h **** /**
 227:../../lpc11cx4-library/lpc_chip_11cxx_lib/inc/iocon_11xx.h ****  * @brief	I/O Control pin mux
 228:../../lpc11cx4-library/lpc_chip_11cxx_lib/inc/iocon_11xx.h ****  * @param	pIOCON	: The base of IOCON peripheral on the chip
 229:../../lpc11cx4-library/lpc_chip_11cxx_lib/inc/iocon_11xx.h ****  * @param	port	: GPIO port to mux
 230:../../lpc11cx4-library/lpc_chip_11cxx_lib/inc/iocon_11xx.h ****  * @param	pin		: GPIO pin to mux
 231:../../lpc11cx4-library/lpc_chip_11cxx_lib/inc/iocon_11xx.h ****  * @param	mode	: OR'ed values or type IOCON_*
 232:../../lpc11cx4-library/lpc_chip_11cxx_lib/inc/iocon_11xx.h ****  * @param	func	: Pin function, value of type IOCON_FUNC?
 233:../../lpc11cx4-library/lpc_chip_11cxx_lib/inc/iocon_11xx.h ****  * @return	Nothing
 234:../../lpc11cx4-library/lpc_chip_11cxx_lib/inc/iocon_11xx.h ****  */
 235:../../lpc11cx4-library/lpc_chip_11cxx_lib/inc/iocon_11xx.h **** STATIC INLINE void Chip_IOCON_PinMux(LPC_IOCON_T *pIOCON, uint8_t port, uint8_t pin, uint16_t mode,
 236:../../lpc11cx4-library/lpc_chip_11cxx_lib/inc/iocon_11xx.h **** {
 237:../../lpc11cx4-library/lpc_chip_11cxx_lib/inc/iocon_11xx.h **** 	Chip_IOCON_PinMuxSet(pIOCON, port, pin, (uint32_t) (mode | func));
 238:../../lpc11cx4-library/lpc_chip_11cxx_lib/inc/iocon_11xx.h **** }
 239:../../lpc11cx4-library/lpc_chip_11cxx_lib/inc/iocon_11xx.h **** 
 240:../../lpc11cx4-library/lpc_chip_11cxx_lib/inc/iocon_11xx.h **** #else
 241:../../lpc11cx4-library/lpc_chip_11cxx_lib/inc/iocon_11xx.h **** 
 242:../../lpc11cx4-library/lpc_chip_11cxx_lib/inc/iocon_11xx.h **** /**
 243:../../lpc11cx4-library/lpc_chip_11cxx_lib/inc/iocon_11xx.h ****  * @brief	Sets I/O Control pin mux
 244:../../lpc11cx4-library/lpc_chip_11cxx_lib/inc/iocon_11xx.h ****  * @param	pIOCON		: The base of IOCON peripheral on the chip
 245:../../lpc11cx4-library/lpc_chip_11cxx_lib/inc/iocon_11xx.h ****  * @param	pin			: GPIO pin to mux
 246:../../lpc11cx4-library/lpc_chip_11cxx_lib/inc/iocon_11xx.h ****  * @param	modefunc	: OR'ed values or type IOCON_*
 247:../../lpc11cx4-library/lpc_chip_11cxx_lib/inc/iocon_11xx.h ****  * @return	Nothing
 248:../../lpc11cx4-library/lpc_chip_11cxx_lib/inc/iocon_11xx.h ****  */
ARM GAS  /tmp/cchQViiZ.s 			page 8


 249:../../lpc11cx4-library/lpc_chip_11cxx_lib/inc/iocon_11xx.h **** STATIC INLINE void Chip_IOCON_PinMuxSet(LPC_IOCON_T *pIOCON, CHIP_IOCON_PIO_T pin, uint32_t modefun
 250:../../lpc11cx4-library/lpc_chip_11cxx_lib/inc/iocon_11xx.h **** {
 251:../../lpc11cx4-library/lpc_chip_11cxx_lib/inc/iocon_11xx.h **** 	pIOCON->REG[pin] = modefunc;
 122              		.loc 2 251 0
 123 0000 0122     		movs	r2, #1	@ tmp112,
 124 0002 A421     		movs	r1, #164	@ tmp111,
 125 0004 0A4B     		ldr	r3, .L5	@ tmp110,
 126              	.LBE251:
 127              	.LBE250:
 128              		.loc 1 29 0
 129 0006 10B5     		push	{r4, lr}	@
 130              		.cfi_def_cfa_offset 8
 131              		.cfi_offset 4, -8
 132              		.cfi_offset 14, -4
  30:src/main.c    ****     Chip_IOCON_PinMuxSet(LPC_IOCON, IOCON_PIO1_6, (IOCON_FUNC1 | IOCON_MODE_INACT));/* RXD */
  31:src/main.c    ****     Chip_IOCON_PinMuxSet(LPC_IOCON, IOCON_PIO1_7, (IOCON_FUNC1 | IOCON_MODE_INACT));/* TXD */
  32:src/main.c    **** 
  33:src/main.c    ****     Chip_UART_Init(LPC_USART);
 133              		.loc 1 33 0
 134 0008 0A4C     		ldr	r4, .L5+4	@ tmp116,
 135              	.LBB253:
 136              	.LBB252:
 137              		.loc 2 251 0
 138 000a 5A50     		str	r2, [r3, r1]	@ tmp112, MEM[(struct LPC_IOCON_T *)1074020352B].REG
 139              	.LVL1:
 140              	.LBE252:
 141              	.LBE253:
 142              	.LBB254:
 143              	.LBB255:
 144 000c 0431     		adds	r1, r1, #4	@ tmp114,
 145 000e 5A50     		str	r2, [r3, r1]	@ tmp112, MEM[(struct LPC_IOCON_T *)1074020352B].REG
 146              	.LVL2:
 147              	.LBE255:
 148              	.LBE254:
 149              		.loc 1 33 0
 150 0010 2000     		movs	r0, r4	@, tmp116
 151 0012 FFF7FEFF 		bl	Chip_UART_Init	@
 152              	.LVL3:
  34:src/main.c    ****     Chip_UART_SetBaud(LPC_USART, 57600);
 153              		.loc 1 34 0
 154 0016 E121     		movs	r1, #225	@,
 155 0018 2000     		movs	r0, r4	@, tmp116
 156 001a 0902     		lsls	r1, r1, #8	@,,
 157 001c FFF7FEFF 		bl	Chip_UART_SetBaud	@
 158              	.LVL4:
 159              	.LBB256:
 160              	.LBB257:
 161              		.file 3 "../../lpc11cx4-library/lpc_chip_11cxx_lib/inc/uart_11xx.h"
   1:../../lpc11cx4-library/lpc_chip_11cxx_lib/inc/uart_11xx.h **** /*
   2:../../lpc11cx4-library/lpc_chip_11cxx_lib/inc/uart_11xx.h ****  * @brief LPC11xx UART chip driver
   3:../../lpc11cx4-library/lpc_chip_11cxx_lib/inc/uart_11xx.h ****  *
   4:../../lpc11cx4-library/lpc_chip_11cxx_lib/inc/uart_11xx.h ****  * @note
   5:../../lpc11cx4-library/lpc_chip_11cxx_lib/inc/uart_11xx.h ****  * Copyright(C) NXP Semiconductors, 2012
   6:../../lpc11cx4-library/lpc_chip_11cxx_lib/inc/uart_11xx.h ****  * All rights reserved.
   7:../../lpc11cx4-library/lpc_chip_11cxx_lib/inc/uart_11xx.h ****  *
   8:../../lpc11cx4-library/lpc_chip_11cxx_lib/inc/uart_11xx.h ****  * @par
   9:../../lpc11cx4-library/lpc_chip_11cxx_lib/inc/uart_11xx.h ****  * Software that is described herein is for illustrative purposes only
ARM GAS  /tmp/cchQViiZ.s 			page 9


  10:../../lpc11cx4-library/lpc_chip_11cxx_lib/inc/uart_11xx.h ****  * which provides customers with programming information regarding the
  11:../../lpc11cx4-library/lpc_chip_11cxx_lib/inc/uart_11xx.h ****  * LPC products.  This software is supplied "AS IS" without any warranties of
  12:../../lpc11cx4-library/lpc_chip_11cxx_lib/inc/uart_11xx.h ****  * any kind, and NXP Semiconductors and its licensor disclaim any and
  13:../../lpc11cx4-library/lpc_chip_11cxx_lib/inc/uart_11xx.h ****  * all warranties, express or implied, including all implied warranties of
  14:../../lpc11cx4-library/lpc_chip_11cxx_lib/inc/uart_11xx.h ****  * merchantability, fitness for a particular purpose and non-infringement of
  15:../../lpc11cx4-library/lpc_chip_11cxx_lib/inc/uart_11xx.h ****  * intellectual property rights.  NXP Semiconductors assumes no responsibility
  16:../../lpc11cx4-library/lpc_chip_11cxx_lib/inc/uart_11xx.h ****  * or liability for the use of the software, conveys no license or rights under any
  17:../../lpc11cx4-library/lpc_chip_11cxx_lib/inc/uart_11xx.h ****  * patent, copyright, mask work right, or any other intellectual property rights in
  18:../../lpc11cx4-library/lpc_chip_11cxx_lib/inc/uart_11xx.h ****  * or to any products. NXP Semiconductors reserves the right to make changes
  19:../../lpc11cx4-library/lpc_chip_11cxx_lib/inc/uart_11xx.h ****  * in the software without notification. NXP Semiconductors also makes no
  20:../../lpc11cx4-library/lpc_chip_11cxx_lib/inc/uart_11xx.h ****  * representation or warranty that such application will be suitable for the
  21:../../lpc11cx4-library/lpc_chip_11cxx_lib/inc/uart_11xx.h ****  * specified use without further testing or modification.
  22:../../lpc11cx4-library/lpc_chip_11cxx_lib/inc/uart_11xx.h ****  *
  23:../../lpc11cx4-library/lpc_chip_11cxx_lib/inc/uart_11xx.h ****  * @par
  24:../../lpc11cx4-library/lpc_chip_11cxx_lib/inc/uart_11xx.h ****  * Permission to use, copy, modify, and distribute this software and its
  25:../../lpc11cx4-library/lpc_chip_11cxx_lib/inc/uart_11xx.h ****  * documentation is hereby granted, under NXP Semiconductors' and its
  26:../../lpc11cx4-library/lpc_chip_11cxx_lib/inc/uart_11xx.h ****  * licensor's relevant copyrights in the software, without fee, provided that it
  27:../../lpc11cx4-library/lpc_chip_11cxx_lib/inc/uart_11xx.h ****  * is used in conjunction with NXP Semiconductors microcontrollers.  This
  28:../../lpc11cx4-library/lpc_chip_11cxx_lib/inc/uart_11xx.h ****  * copyright, permission, and disclaimer notice must appear in all copies of
  29:../../lpc11cx4-library/lpc_chip_11cxx_lib/inc/uart_11xx.h ****  * this code.
  30:../../lpc11cx4-library/lpc_chip_11cxx_lib/inc/uart_11xx.h ****  */
  31:../../lpc11cx4-library/lpc_chip_11cxx_lib/inc/uart_11xx.h **** 
  32:../../lpc11cx4-library/lpc_chip_11cxx_lib/inc/uart_11xx.h **** #ifndef __UART_11XX_H_
  33:../../lpc11cx4-library/lpc_chip_11cxx_lib/inc/uart_11xx.h **** #define __UART_11XX_H_
  34:../../lpc11cx4-library/lpc_chip_11cxx_lib/inc/uart_11xx.h **** 
  35:../../lpc11cx4-library/lpc_chip_11cxx_lib/inc/uart_11xx.h **** #include "ring_buffer.h"
  36:../../lpc11cx4-library/lpc_chip_11cxx_lib/inc/uart_11xx.h **** 
  37:../../lpc11cx4-library/lpc_chip_11cxx_lib/inc/uart_11xx.h **** #ifdef __cplusplus
  38:../../lpc11cx4-library/lpc_chip_11cxx_lib/inc/uart_11xx.h **** extern "C" {
  39:../../lpc11cx4-library/lpc_chip_11cxx_lib/inc/uart_11xx.h **** #endif
  40:../../lpc11cx4-library/lpc_chip_11cxx_lib/inc/uart_11xx.h **** 
  41:../../lpc11cx4-library/lpc_chip_11cxx_lib/inc/uart_11xx.h **** /** @defgroup UART_11XX CHIP: LPC11xx UART driver
  42:../../lpc11cx4-library/lpc_chip_11cxx_lib/inc/uart_11xx.h ****  * @ingroup CHIP_11XX_Drivers
  43:../../lpc11cx4-library/lpc_chip_11cxx_lib/inc/uart_11xx.h ****  * @{
  44:../../lpc11cx4-library/lpc_chip_11cxx_lib/inc/uart_11xx.h ****  */
  45:../../lpc11cx4-library/lpc_chip_11cxx_lib/inc/uart_11xx.h **** 
  46:../../lpc11cx4-library/lpc_chip_11cxx_lib/inc/uart_11xx.h **** /**
  47:../../lpc11cx4-library/lpc_chip_11cxx_lib/inc/uart_11xx.h ****  * @brief USART register block structure
  48:../../lpc11cx4-library/lpc_chip_11cxx_lib/inc/uart_11xx.h ****  */
  49:../../lpc11cx4-library/lpc_chip_11cxx_lib/inc/uart_11xx.h **** typedef struct {					/*!< USARTn Structure       */
  50:../../lpc11cx4-library/lpc_chip_11cxx_lib/inc/uart_11xx.h **** 
  51:../../lpc11cx4-library/lpc_chip_11cxx_lib/inc/uart_11xx.h **** 	union {
  52:../../lpc11cx4-library/lpc_chip_11cxx_lib/inc/uart_11xx.h **** 		__IO uint32_t  DLL;			/*!< Divisor Latch LSB. Least significant byte of the baud rate divisor val
  53:../../lpc11cx4-library/lpc_chip_11cxx_lib/inc/uart_11xx.h **** 		__O  uint32_t  THR;			/*!< Transmit Holding Register. The next character to be transmitted is wri
  54:../../lpc11cx4-library/lpc_chip_11cxx_lib/inc/uart_11xx.h **** 		__I  uint32_t  RBR;			/*!< Receiver Buffer Register. Contains the next received character to be r
  55:../../lpc11cx4-library/lpc_chip_11cxx_lib/inc/uart_11xx.h **** 	};
  56:../../lpc11cx4-library/lpc_chip_11cxx_lib/inc/uart_11xx.h **** 
  57:../../lpc11cx4-library/lpc_chip_11cxx_lib/inc/uart_11xx.h **** 	union {
  58:../../lpc11cx4-library/lpc_chip_11cxx_lib/inc/uart_11xx.h **** 		__IO uint32_t IER;			/*!< Interrupt Enable Register. Contains individual interrupt enable bits fo
  59:../../lpc11cx4-library/lpc_chip_11cxx_lib/inc/uart_11xx.h **** 		__IO uint32_t DLM;			/*!< Divisor Latch MSB. Most significant byte of the baud rate divisor value
  60:../../lpc11cx4-library/lpc_chip_11cxx_lib/inc/uart_11xx.h **** 	};
  61:../../lpc11cx4-library/lpc_chip_11cxx_lib/inc/uart_11xx.h **** 
  62:../../lpc11cx4-library/lpc_chip_11cxx_lib/inc/uart_11xx.h **** 	union {
  63:../../lpc11cx4-library/lpc_chip_11cxx_lib/inc/uart_11xx.h **** 		__O  uint32_t FCR;			/*!< FIFO Control Register. Controls UART FIFO usage and modes. */
  64:../../lpc11cx4-library/lpc_chip_11cxx_lib/inc/uart_11xx.h **** 		__I  uint32_t IIR;			/*!< Interrupt ID Register. Identifies which interrupt(s) are pending. */
  65:../../lpc11cx4-library/lpc_chip_11cxx_lib/inc/uart_11xx.h **** 	};
  66:../../lpc11cx4-library/lpc_chip_11cxx_lib/inc/uart_11xx.h **** 
ARM GAS  /tmp/cchQViiZ.s 			page 10


  67:../../lpc11cx4-library/lpc_chip_11cxx_lib/inc/uart_11xx.h **** 	__IO uint32_t LCR;				/*!< Line Control Register. Contains controls for frame formatting and break
  68:../../lpc11cx4-library/lpc_chip_11cxx_lib/inc/uart_11xx.h **** 	__IO uint32_t MCR;				/*!< Modem Control Register. Only present on USART ports with full modem sup
  69:../../lpc11cx4-library/lpc_chip_11cxx_lib/inc/uart_11xx.h **** 	__I  uint32_t LSR;				/*!< Line Status Register. Contains flags for transmit and receive status, i
  70:../../lpc11cx4-library/lpc_chip_11cxx_lib/inc/uart_11xx.h **** 	__I  uint32_t MSR;				/*!< Modem Status Register. Only present on USART ports with full modem supp
  71:../../lpc11cx4-library/lpc_chip_11cxx_lib/inc/uart_11xx.h **** 	__IO uint32_t SCR;				/*!< Scratch Pad Register. Eight-bit temporary storage for software. */
  72:../../lpc11cx4-library/lpc_chip_11cxx_lib/inc/uart_11xx.h **** 	__IO uint32_t ACR;				/*!< Auto-baud Control Register. Contains controls for the auto-baud feature
  73:../../lpc11cx4-library/lpc_chip_11cxx_lib/inc/uart_11xx.h **** 	__IO uint32_t ICR;				/*!< IrDA control register (not all UARTS) */
  74:../../lpc11cx4-library/lpc_chip_11cxx_lib/inc/uart_11xx.h **** 	__IO uint32_t FDR;				/*!< Fractional Divider Register. Generates a clock input for the baud rate 
  75:../../lpc11cx4-library/lpc_chip_11cxx_lib/inc/uart_11xx.h **** 	__IO uint32_t OSR;				/*!< Oversampling Register. Controls the degree of oversampling during each 
  76:../../lpc11cx4-library/lpc_chip_11cxx_lib/inc/uart_11xx.h **** 	__IO uint32_t TER1;				/*!< Transmit Enable Register. Turns off USART transmitter for use with sof
  77:../../lpc11cx4-library/lpc_chip_11cxx_lib/inc/uart_11xx.h **** 	uint32_t  RESERVED0[3];
  78:../../lpc11cx4-library/lpc_chip_11cxx_lib/inc/uart_11xx.h ****     __IO uint32_t HDEN;				/*!< Half-duplex enable Register- only on some UARTs */
  79:../../lpc11cx4-library/lpc_chip_11cxx_lib/inc/uart_11xx.h **** 	__I  uint32_t RESERVED1[1];
  80:../../lpc11cx4-library/lpc_chip_11cxx_lib/inc/uart_11xx.h **** 	__IO uint32_t SCICTRL;			/*!< Smart card interface control register- only on some UARTs */
  81:../../lpc11cx4-library/lpc_chip_11cxx_lib/inc/uart_11xx.h **** 
  82:../../lpc11cx4-library/lpc_chip_11cxx_lib/inc/uart_11xx.h **** 	__IO uint32_t RS485CTRL;		/*!< RS-485/EIA-485 Control. Contains controls to configure various aspe
  83:../../lpc11cx4-library/lpc_chip_11cxx_lib/inc/uart_11xx.h **** 	__IO uint32_t RS485ADRMATCH;	/*!< RS-485/EIA-485 address match. Contains the address match value f
  84:../../lpc11cx4-library/lpc_chip_11cxx_lib/inc/uart_11xx.h **** 	__IO uint32_t RS485DLY;			/*!< RS-485/EIA-485 direction control delay. */
  85:../../lpc11cx4-library/lpc_chip_11cxx_lib/inc/uart_11xx.h **** 
  86:../../lpc11cx4-library/lpc_chip_11cxx_lib/inc/uart_11xx.h **** 	union {
  87:../../lpc11cx4-library/lpc_chip_11cxx_lib/inc/uart_11xx.h **** 		__IO uint32_t SYNCCTRL;		/*!< Synchronous mode control register. Only on USARTs. */
  88:../../lpc11cx4-library/lpc_chip_11cxx_lib/inc/uart_11xx.h **** 		__I  uint32_t FIFOLVL;		/*!< FIFO Level register. Provides the current fill levels of the transmi
  89:../../lpc11cx4-library/lpc_chip_11cxx_lib/inc/uart_11xx.h **** 	};
  90:../../lpc11cx4-library/lpc_chip_11cxx_lib/inc/uart_11xx.h **** 
  91:../../lpc11cx4-library/lpc_chip_11cxx_lib/inc/uart_11xx.h **** 	__IO uint32_t TER2;				/*!< Transmit Enable Register. Only on LPC177X_8X UART4 and LPC18XX/43XX US
  92:../../lpc11cx4-library/lpc_chip_11cxx_lib/inc/uart_11xx.h **** } LPC_USART_T;
  93:../../lpc11cx4-library/lpc_chip_11cxx_lib/inc/uart_11xx.h **** 
  94:../../lpc11cx4-library/lpc_chip_11cxx_lib/inc/uart_11xx.h **** 
  95:../../lpc11cx4-library/lpc_chip_11cxx_lib/inc/uart_11xx.h **** /**
  96:../../lpc11cx4-library/lpc_chip_11cxx_lib/inc/uart_11xx.h ****  * @brief Macro defines for UART Receive Buffer register
  97:../../lpc11cx4-library/lpc_chip_11cxx_lib/inc/uart_11xx.h ****  */
  98:../../lpc11cx4-library/lpc_chip_11cxx_lib/inc/uart_11xx.h **** #define UART_RBR_MASKBIT    (0xFF)		        /*!< UART Received Buffer mask bit (8 bits) */
  99:../../lpc11cx4-library/lpc_chip_11cxx_lib/inc/uart_11xx.h **** 
 100:../../lpc11cx4-library/lpc_chip_11cxx_lib/inc/uart_11xx.h **** /**
 101:../../lpc11cx4-library/lpc_chip_11cxx_lib/inc/uart_11xx.h ****  * @brief Macro defines for UART Divisor Latch LSB register
 102:../../lpc11cx4-library/lpc_chip_11cxx_lib/inc/uart_11xx.h ****  */
 103:../../lpc11cx4-library/lpc_chip_11cxx_lib/inc/uart_11xx.h **** #define UART_LOAD_DLL(div)  ((div) & 0xFF)		/*!< Macro for loading LSB of divisor */
 104:../../lpc11cx4-library/lpc_chip_11cxx_lib/inc/uart_11xx.h **** #define UART_DLL_MASKBIT    (0xFF)	            /*!< Divisor latch LSB bit mask */
 105:../../lpc11cx4-library/lpc_chip_11cxx_lib/inc/uart_11xx.h **** 
 106:../../lpc11cx4-library/lpc_chip_11cxx_lib/inc/uart_11xx.h **** /**
 107:../../lpc11cx4-library/lpc_chip_11cxx_lib/inc/uart_11xx.h ****  * @brief Macro defines for UART Divisor Latch MSB register
 108:../../lpc11cx4-library/lpc_chip_11cxx_lib/inc/uart_11xx.h ****  */
 109:../../lpc11cx4-library/lpc_chip_11cxx_lib/inc/uart_11xx.h **** #define UART_LOAD_DLM(div)  (((div) >> 8) & 0xFF)	/*!< Macro for loading MSB of divisors */
 110:../../lpc11cx4-library/lpc_chip_11cxx_lib/inc/uart_11xx.h **** #define UART_DLM_MASKBIT    (0xFF)		            /*!< Divisor latch MSB bit mask */
 111:../../lpc11cx4-library/lpc_chip_11cxx_lib/inc/uart_11xx.h **** 
 112:../../lpc11cx4-library/lpc_chip_11cxx_lib/inc/uart_11xx.h **** /**
 113:../../lpc11cx4-library/lpc_chip_11cxx_lib/inc/uart_11xx.h ****  * @brief Macro defines for UART Interrupt Enable Register
 114:../../lpc11cx4-library/lpc_chip_11cxx_lib/inc/uart_11xx.h ****  */
 115:../../lpc11cx4-library/lpc_chip_11cxx_lib/inc/uart_11xx.h **** #define UART_IER_RBRINT      (1 << 0)	/*!< RBR Interrupt enable */
 116:../../lpc11cx4-library/lpc_chip_11cxx_lib/inc/uart_11xx.h **** #define UART_IER_THREINT     (1 << 1)	/*!< THR Interrupt enable */
 117:../../lpc11cx4-library/lpc_chip_11cxx_lib/inc/uart_11xx.h **** #define UART_IER_RLSINT      (1 << 2)	/*!< RX line status interrupt enable */
 118:../../lpc11cx4-library/lpc_chip_11cxx_lib/inc/uart_11xx.h **** #define UART_IER_MSINT       (1 << 3)	/*!< Modem status interrupt enable - valid for 11xx, 17xx/40x
 119:../../lpc11cx4-library/lpc_chip_11cxx_lib/inc/uart_11xx.h **** #define UART_IER_CTSINT      (1 << 7)	/*!< CTS signal transition interrupt enable - valid for 17xx/
 120:../../lpc11cx4-library/lpc_chip_11cxx_lib/inc/uart_11xx.h **** #define UART_IER_ABEOINT     (1 << 8)	/*!< Enables the end of auto-baud interrupt */
 121:../../lpc11cx4-library/lpc_chip_11cxx_lib/inc/uart_11xx.h **** #define UART_IER_ABTOINT     (1 << 9)	/*!< Enables the auto-baud time-out interrupt */
 122:../../lpc11cx4-library/lpc_chip_11cxx_lib/inc/uart_11xx.h **** #define UART_IER_BITMASK     (0x307)	/*!< UART interrupt enable register bit mask  - valid for 13xx
 123:../../lpc11cx4-library/lpc_chip_11cxx_lib/inc/uart_11xx.h **** #define UART1_IER_BITMASK    (0x30F)	/*!< UART1 interrupt enable register bit mask - valid for 11xx
ARM GAS  /tmp/cchQViiZ.s 			page 11


 124:../../lpc11cx4-library/lpc_chip_11cxx_lib/inc/uart_11xx.h **** #define UART2_IER_BITMASK    (0x38F)	/*!< UART2 interrupt enable register bit mask - valid for 17xx
 125:../../lpc11cx4-library/lpc_chip_11cxx_lib/inc/uart_11xx.h **** 
 126:../../lpc11cx4-library/lpc_chip_11cxx_lib/inc/uart_11xx.h **** /**
 127:../../lpc11cx4-library/lpc_chip_11cxx_lib/inc/uart_11xx.h ****  * @brief Macro defines for UART Interrupt Identification Register
 128:../../lpc11cx4-library/lpc_chip_11cxx_lib/inc/uart_11xx.h ****  */
 129:../../lpc11cx4-library/lpc_chip_11cxx_lib/inc/uart_11xx.h **** #define UART_IIR_INTSTAT_PEND   (1 << 0)	/*!< Interrupt pending status - Active low */
 130:../../lpc11cx4-library/lpc_chip_11cxx_lib/inc/uart_11xx.h **** #define UART_IIR_FIFO_EN        (3 << 6)	/*!< These bits are equivalent to FCR[0] */
 131:../../lpc11cx4-library/lpc_chip_11cxx_lib/inc/uart_11xx.h **** #define UART_IIR_ABEO_INT       (1 << 8)	/*!< End of auto-baud interrupt */
 132:../../lpc11cx4-library/lpc_chip_11cxx_lib/inc/uart_11xx.h **** #define UART_IIR_ABTO_INT       (1 << 9)	/*!< Auto-baud time-out interrupt */
 133:../../lpc11cx4-library/lpc_chip_11cxx_lib/inc/uart_11xx.h **** #define UART_IIR_BITMASK        (0x3CF)		/*!< UART interrupt identification register bit mask */
 134:../../lpc11cx4-library/lpc_chip_11cxx_lib/inc/uart_11xx.h **** 
 135:../../lpc11cx4-library/lpc_chip_11cxx_lib/inc/uart_11xx.h **** /* Interrupt ID bit definitions */
 136:../../lpc11cx4-library/lpc_chip_11cxx_lib/inc/uart_11xx.h **** #define UART_IIR_INTID_MASK     (7 << 1)	/*!< Interrupt identification: Interrupt ID mask */
 137:../../lpc11cx4-library/lpc_chip_11cxx_lib/inc/uart_11xx.h **** #define UART_IIR_INTID_RLS      (3 << 1)	/*!< Interrupt identification: Receive line interrupt */
 138:../../lpc11cx4-library/lpc_chip_11cxx_lib/inc/uart_11xx.h **** #define UART_IIR_INTID_RDA      (2 << 1)	/*!< Interrupt identification: Receive data available inte
 139:../../lpc11cx4-library/lpc_chip_11cxx_lib/inc/uart_11xx.h **** #define UART_IIR_INTID_CTI      (6 << 1)	/*!< Interrupt identification: Character time-out indicato
 140:../../lpc11cx4-library/lpc_chip_11cxx_lib/inc/uart_11xx.h **** #define UART_IIR_INTID_THRE     (1 << 1)	/*!< Interrupt identification: THRE interrupt */
 141:../../lpc11cx4-library/lpc_chip_11cxx_lib/inc/uart_11xx.h **** #define UART_IIR_INTID_MODEM    (0 << 1)	/*!< Interrupt identification: Modem interrupt */
 142:../../lpc11cx4-library/lpc_chip_11cxx_lib/inc/uart_11xx.h **** 
 143:../../lpc11cx4-library/lpc_chip_11cxx_lib/inc/uart_11xx.h **** /**
 144:../../lpc11cx4-library/lpc_chip_11cxx_lib/inc/uart_11xx.h ****  * @brief Macro defines for UART FIFO Control Register
 145:../../lpc11cx4-library/lpc_chip_11cxx_lib/inc/uart_11xx.h ****  */
 146:../../lpc11cx4-library/lpc_chip_11cxx_lib/inc/uart_11xx.h **** #define UART_FCR_FIFO_EN        (1 << 0)	/*!< UART FIFO enable */
 147:../../lpc11cx4-library/lpc_chip_11cxx_lib/inc/uart_11xx.h **** #define UART_FCR_RX_RS          (1 << 1)	/*!< UART RX FIFO reset */
 148:../../lpc11cx4-library/lpc_chip_11cxx_lib/inc/uart_11xx.h **** #define UART_FCR_TX_RS          (1 << 2)	/*!< UART TX FIFO reset */
 149:../../lpc11cx4-library/lpc_chip_11cxx_lib/inc/uart_11xx.h **** #define UART_FCR_DMAMODE_SEL    (1 << 3)	/*!< UART DMA mode selection - valid for 17xx/40xx, 18xx/4
 150:../../lpc11cx4-library/lpc_chip_11cxx_lib/inc/uart_11xx.h **** #define UART_FCR_BITMASK        (0xCF)		/*!< UART FIFO control bit mask */
 151:../../lpc11cx4-library/lpc_chip_11cxx_lib/inc/uart_11xx.h **** 
 152:../../lpc11cx4-library/lpc_chip_11cxx_lib/inc/uart_11xx.h **** #define UART_TX_FIFO_SIZE       (16)
 153:../../lpc11cx4-library/lpc_chip_11cxx_lib/inc/uart_11xx.h **** 
 154:../../lpc11cx4-library/lpc_chip_11cxx_lib/inc/uart_11xx.h **** /* FIFO trigger level bit definitions */
 155:../../lpc11cx4-library/lpc_chip_11cxx_lib/inc/uart_11xx.h **** #define UART_FCR_TRG_LEV0       (0)			/*!< UART FIFO trigger level 0: 1 character */
 156:../../lpc11cx4-library/lpc_chip_11cxx_lib/inc/uart_11xx.h **** #define UART_FCR_TRG_LEV1       (1 << 6)	/*!< UART FIFO trigger level 1: 4 character */
 157:../../lpc11cx4-library/lpc_chip_11cxx_lib/inc/uart_11xx.h **** #define UART_FCR_TRG_LEV2       (2 << 6)	/*!< UART FIFO trigger level 2: 8 character */
 158:../../lpc11cx4-library/lpc_chip_11cxx_lib/inc/uart_11xx.h **** #define UART_FCR_TRG_LEV3       (3 << 6)	/*!< UART FIFO trigger level 3: 14 character */
 159:../../lpc11cx4-library/lpc_chip_11cxx_lib/inc/uart_11xx.h **** 
 160:../../lpc11cx4-library/lpc_chip_11cxx_lib/inc/uart_11xx.h **** /**
 161:../../lpc11cx4-library/lpc_chip_11cxx_lib/inc/uart_11xx.h ****  * @brief Macro defines for UART Line Control Register
 162:../../lpc11cx4-library/lpc_chip_11cxx_lib/inc/uart_11xx.h ****  */
 163:../../lpc11cx4-library/lpc_chip_11cxx_lib/inc/uart_11xx.h **** /* UART word length select bit definitions */
 164:../../lpc11cx4-library/lpc_chip_11cxx_lib/inc/uart_11xx.h **** #define UART_LCR_WLEN_MASK      (3 << 0)		/*!< UART word length select bit mask */
 165:../../lpc11cx4-library/lpc_chip_11cxx_lib/inc/uart_11xx.h **** #define UART_LCR_WLEN5          (0 << 0)		/*!< UART word length select: 5 bit data mode */
 166:../../lpc11cx4-library/lpc_chip_11cxx_lib/inc/uart_11xx.h **** #define UART_LCR_WLEN6          (1 << 0)		/*!< UART word length select: 6 bit data mode */
 167:../../lpc11cx4-library/lpc_chip_11cxx_lib/inc/uart_11xx.h **** #define UART_LCR_WLEN7          (2 << 0)		/*!< UART word length select: 7 bit data mode */
 168:../../lpc11cx4-library/lpc_chip_11cxx_lib/inc/uart_11xx.h **** #define UART_LCR_WLEN8          (3 << 0)		/*!< UART word length select: 8 bit data mode */
 169:../../lpc11cx4-library/lpc_chip_11cxx_lib/inc/uart_11xx.h **** 
 170:../../lpc11cx4-library/lpc_chip_11cxx_lib/inc/uart_11xx.h **** /* UART Stop bit select bit definitions */
 171:../../lpc11cx4-library/lpc_chip_11cxx_lib/inc/uart_11xx.h **** #define UART_LCR_SBS_MASK       (1 << 2)		/*!< UART stop bit select: bit mask */
 172:../../lpc11cx4-library/lpc_chip_11cxx_lib/inc/uart_11xx.h **** #define UART_LCR_SBS_1BIT       (0 << 2)		/*!< UART stop bit select: 1 stop bit */
 173:../../lpc11cx4-library/lpc_chip_11cxx_lib/inc/uart_11xx.h **** #define UART_LCR_SBS_2BIT       (1 << 2)		/*!< UART stop bit select: 2 stop bits (in 5 bit data mod
 174:../../lpc11cx4-library/lpc_chip_11cxx_lib/inc/uart_11xx.h **** 
 175:../../lpc11cx4-library/lpc_chip_11cxx_lib/inc/uart_11xx.h **** /* UART Parity enable bit definitions */
 176:../../lpc11cx4-library/lpc_chip_11cxx_lib/inc/uart_11xx.h **** #define UART_LCR_PARITY_EN      (1 << 3)		/*!< UART Parity Enable */
 177:../../lpc11cx4-library/lpc_chip_11cxx_lib/inc/uart_11xx.h **** #define UART_LCR_PARITY_DIS     (0 << 3)		/*!< UART Parity Disable */
 178:../../lpc11cx4-library/lpc_chip_11cxx_lib/inc/uart_11xx.h **** #define UART_LCR_PARITY_ODD     (0 << 4)		/*!< UART Parity select: Odd parity */
 179:../../lpc11cx4-library/lpc_chip_11cxx_lib/inc/uart_11xx.h **** #define UART_LCR_PARITY_EVEN    (1 << 4)		/*!< UART Parity select: Even parity */
 180:../../lpc11cx4-library/lpc_chip_11cxx_lib/inc/uart_11xx.h **** #define UART_LCR_PARITY_F_1     (2 << 4)		/*!< UART Parity select: Forced 1 stick parity */
ARM GAS  /tmp/cchQViiZ.s 			page 12


 181:../../lpc11cx4-library/lpc_chip_11cxx_lib/inc/uart_11xx.h **** #define UART_LCR_PARITY_F_0     (3 << 4)		/*!< UART Parity select: Forced 0 stick parity */
 182:../../lpc11cx4-library/lpc_chip_11cxx_lib/inc/uart_11xx.h **** #define UART_LCR_BREAK_EN       (1 << 6)		/*!< UART Break transmission enable */
 183:../../lpc11cx4-library/lpc_chip_11cxx_lib/inc/uart_11xx.h **** #define UART_LCR_DLAB_EN        (1 << 7)		/*!< UART Divisor Latches Access bit enable */
 184:../../lpc11cx4-library/lpc_chip_11cxx_lib/inc/uart_11xx.h **** #define UART_LCR_BITMASK        (0xFF)			/*!< UART line control bit mask */
 185:../../lpc11cx4-library/lpc_chip_11cxx_lib/inc/uart_11xx.h **** 
 186:../../lpc11cx4-library/lpc_chip_11cxx_lib/inc/uart_11xx.h **** /**
 187:../../lpc11cx4-library/lpc_chip_11cxx_lib/inc/uart_11xx.h ****  * @brief Macro defines for UART Modem Control Register
 188:../../lpc11cx4-library/lpc_chip_11cxx_lib/inc/uart_11xx.h ****  */
 189:../../lpc11cx4-library/lpc_chip_11cxx_lib/inc/uart_11xx.h **** #define UART_MCR_DTR_CTRL       (1 << 0)		/*!< Source for modem output pin DTR */
 190:../../lpc11cx4-library/lpc_chip_11cxx_lib/inc/uart_11xx.h **** #define UART_MCR_RTS_CTRL       (1 << 1)		/*!< Source for modem output pin RTS */
 191:../../lpc11cx4-library/lpc_chip_11cxx_lib/inc/uart_11xx.h **** #define UART_MCR_LOOPB_EN       (1 << 4)		/*!< Loop back mode select */
 192:../../lpc11cx4-library/lpc_chip_11cxx_lib/inc/uart_11xx.h **** #define UART_MCR_AUTO_RTS_EN    (1 << 6)		/*!< Enable Auto RTS flow-control */
 193:../../lpc11cx4-library/lpc_chip_11cxx_lib/inc/uart_11xx.h **** #define UART_MCR_AUTO_CTS_EN    (1 << 7)		/*!< Enable Auto CTS flow-control */
 194:../../lpc11cx4-library/lpc_chip_11cxx_lib/inc/uart_11xx.h **** #define UART_MCR_BITMASK        (0xD3)			/*!< UART bit mask value */
 195:../../lpc11cx4-library/lpc_chip_11cxx_lib/inc/uart_11xx.h **** 
 196:../../lpc11cx4-library/lpc_chip_11cxx_lib/inc/uart_11xx.h **** /**
 197:../../lpc11cx4-library/lpc_chip_11cxx_lib/inc/uart_11xx.h ****  * @brief Macro defines for UART Line Status Register
 198:../../lpc11cx4-library/lpc_chip_11cxx_lib/inc/uart_11xx.h ****  */
 199:../../lpc11cx4-library/lpc_chip_11cxx_lib/inc/uart_11xx.h **** #define UART_LSR_RDR        (1 << 0)	/*!< Line status: Receive data ready */
 200:../../lpc11cx4-library/lpc_chip_11cxx_lib/inc/uart_11xx.h **** #define UART_LSR_OE         (1 << 1)	/*!< Line status: Overrun error */
 201:../../lpc11cx4-library/lpc_chip_11cxx_lib/inc/uart_11xx.h **** #define UART_LSR_PE         (1 << 2)	/*!< Line status: Parity error */
 202:../../lpc11cx4-library/lpc_chip_11cxx_lib/inc/uart_11xx.h **** #define UART_LSR_FE         (1 << 3)	/*!< Line status: Framing error */
 203:../../lpc11cx4-library/lpc_chip_11cxx_lib/inc/uart_11xx.h **** #define UART_LSR_BI         (1 << 4)	/*!< Line status: Break interrupt */
 204:../../lpc11cx4-library/lpc_chip_11cxx_lib/inc/uart_11xx.h **** #define UART_LSR_THRE       (1 << 5)	/*!< Line status: Transmit holding register empty */
 205:../../lpc11cx4-library/lpc_chip_11cxx_lib/inc/uart_11xx.h **** #define UART_LSR_TEMT       (1 << 6)	/*!< Line status: Transmitter empty */
 206:../../lpc11cx4-library/lpc_chip_11cxx_lib/inc/uart_11xx.h **** #define UART_LSR_RXFE       (1 << 7)	/*!< Line status: Error in RX FIFO */
 207:../../lpc11cx4-library/lpc_chip_11cxx_lib/inc/uart_11xx.h **** #define UART_LSR_TXFE       (1 << 8)	/*!< Line status: Error in RX FIFO */
 208:../../lpc11cx4-library/lpc_chip_11cxx_lib/inc/uart_11xx.h **** #define UART_LSR_BITMASK    (0xFF)		/*!< UART Line status bit mask */
 209:../../lpc11cx4-library/lpc_chip_11cxx_lib/inc/uart_11xx.h **** #define UART1_LSR_BITMASK   (0x1FF)		/*!< UART1 Line status bit mask - valid for 11xx, 18xx/43xx UA
 210:../../lpc11cx4-library/lpc_chip_11cxx_lib/inc/uart_11xx.h **** 
 211:../../lpc11cx4-library/lpc_chip_11cxx_lib/inc/uart_11xx.h **** /**
 212:../../lpc11cx4-library/lpc_chip_11cxx_lib/inc/uart_11xx.h ****  * @brief Macro defines for UART Modem Status Register
 213:../../lpc11cx4-library/lpc_chip_11cxx_lib/inc/uart_11xx.h ****  */
 214:../../lpc11cx4-library/lpc_chip_11cxx_lib/inc/uart_11xx.h **** #define UART_MSR_DELTA_CTS      (1 << 0)	/*!< Modem status: State change of input CTS */
 215:../../lpc11cx4-library/lpc_chip_11cxx_lib/inc/uart_11xx.h **** #define UART_MSR_DELTA_DSR      (1 << 1)	/*!< Modem status: State change of input DSR */
 216:../../lpc11cx4-library/lpc_chip_11cxx_lib/inc/uart_11xx.h **** #define UART_MSR_LO2HI_RI       (1 << 2)	/*!< Modem status: Low to high transition of input RI */
 217:../../lpc11cx4-library/lpc_chip_11cxx_lib/inc/uart_11xx.h **** #define UART_MSR_DELTA_DCD      (1 << 3)	/*!< Modem status: State change of input DCD */
 218:../../lpc11cx4-library/lpc_chip_11cxx_lib/inc/uart_11xx.h **** #define UART_MSR_CTS            (1 << 4)	/*!< Modem status: Clear To Send State */
 219:../../lpc11cx4-library/lpc_chip_11cxx_lib/inc/uart_11xx.h **** #define UART_MSR_DSR            (1 << 5)	/*!< Modem status: Data Set Ready State */
 220:../../lpc11cx4-library/lpc_chip_11cxx_lib/inc/uart_11xx.h **** #define UART_MSR_RI             (1 << 6)	/*!< Modem status: Ring Indicator State */
 221:../../lpc11cx4-library/lpc_chip_11cxx_lib/inc/uart_11xx.h **** #define UART_MSR_DCD            (1 << 7)	/*!< Modem status: Data Carrier Detect State */
 222:../../lpc11cx4-library/lpc_chip_11cxx_lib/inc/uart_11xx.h **** #define UART_MSR_BITMASK        (0xFF)		/*!< Modem status: MSR register bit-mask value */
 223:../../lpc11cx4-library/lpc_chip_11cxx_lib/inc/uart_11xx.h **** 
 224:../../lpc11cx4-library/lpc_chip_11cxx_lib/inc/uart_11xx.h **** /**
 225:../../lpc11cx4-library/lpc_chip_11cxx_lib/inc/uart_11xx.h ****  * @brief Macro defines for UART Auto baudrate control register
 226:../../lpc11cx4-library/lpc_chip_11cxx_lib/inc/uart_11xx.h ****  */
 227:../../lpc11cx4-library/lpc_chip_11cxx_lib/inc/uart_11xx.h **** #define UART_ACR_START              (1 << 0)	/*!< UART Auto-baud start */
 228:../../lpc11cx4-library/lpc_chip_11cxx_lib/inc/uart_11xx.h **** #define UART_ACR_MODE               (1 << 1)	/*!< UART Auto baudrate Mode 1 */
 229:../../lpc11cx4-library/lpc_chip_11cxx_lib/inc/uart_11xx.h **** #define UART_ACR_AUTO_RESTART       (1 << 2)	/*!< UART Auto baudrate restart */
 230:../../lpc11cx4-library/lpc_chip_11cxx_lib/inc/uart_11xx.h **** #define UART_ACR_ABEOINT_CLR        (1 << 8)	/*!< UART End of auto-baud interrupt clear */
 231:../../lpc11cx4-library/lpc_chip_11cxx_lib/inc/uart_11xx.h **** #define UART_ACR_ABTOINT_CLR        (1 << 9)	/*!< UART Auto-baud time-out interrupt clear */
 232:../../lpc11cx4-library/lpc_chip_11cxx_lib/inc/uart_11xx.h **** #define UART_ACR_BITMASK            (0x307)		/*!< UART Auto Baudrate register bit mask */
 233:../../lpc11cx4-library/lpc_chip_11cxx_lib/inc/uart_11xx.h **** 
 234:../../lpc11cx4-library/lpc_chip_11cxx_lib/inc/uart_11xx.h **** /**
 235:../../lpc11cx4-library/lpc_chip_11cxx_lib/inc/uart_11xx.h ****  * @brief Macro defines for UART RS485 Control register
 236:../../lpc11cx4-library/lpc_chip_11cxx_lib/inc/uart_11xx.h ****  */
 237:../../lpc11cx4-library/lpc_chip_11cxx_lib/inc/uart_11xx.h **** #define UART_RS485CTRL_NMM_EN       (1 << 0)	/*!< RS-485/EIA-485 Normal Multi-drop Mode (NMM) is di
ARM GAS  /tmp/cchQViiZ.s 			page 13


 238:../../lpc11cx4-library/lpc_chip_11cxx_lib/inc/uart_11xx.h **** #define UART_RS485CTRL_RX_DIS       (1 << 1)	/*!< The receiver is disabled */
 239:../../lpc11cx4-library/lpc_chip_11cxx_lib/inc/uart_11xx.h **** #define UART_RS485CTRL_AADEN        (1 << 2)	/*!< Auto Address Detect (AAD) is enabled */
 240:../../lpc11cx4-library/lpc_chip_11cxx_lib/inc/uart_11xx.h **** #define UART_RS485CTRL_SEL_DTR      (1 << 3)	/*!< If direction control is enabled (bit DCTRL = 1), 
 241:../../lpc11cx4-library/lpc_chip_11cxx_lib/inc/uart_11xx.h **** 												        used for direction control */
 242:../../lpc11cx4-library/lpc_chip_11cxx_lib/inc/uart_11xx.h **** #define UART_RS485CTRL_DCTRL_EN     (1 << 4)	/*!< Enable Auto Direction Control */
 243:../../lpc11cx4-library/lpc_chip_11cxx_lib/inc/uart_11xx.h **** #define UART_RS485CTRL_OINV_1       (1 << 5)	/*!< This bit reverses the polarity of the direction
 244:../../lpc11cx4-library/lpc_chip_11cxx_lib/inc/uart_11xx.h **** 												       control signal on the RTS (or DTR) pin. The direction control pin
 245:../../lpc11cx4-library/lpc_chip_11cxx_lib/inc/uart_11xx.h **** 												       will be driven to logic "1" when the transmitter has data to be sent */
 246:../../lpc11cx4-library/lpc_chip_11cxx_lib/inc/uart_11xx.h **** #define UART_RS485CTRL_BITMASK      (0x3F)		/*!< RS485 control bit-mask value */
 247:../../lpc11cx4-library/lpc_chip_11cxx_lib/inc/uart_11xx.h **** 
 248:../../lpc11cx4-library/lpc_chip_11cxx_lib/inc/uart_11xx.h **** /**
 249:../../lpc11cx4-library/lpc_chip_11cxx_lib/inc/uart_11xx.h ****  * @brief Macro defines for UART IrDA Control Register - valid for 11xx, 17xx/40xx UART0/2/3, 18xx/
 250:../../lpc11cx4-library/lpc_chip_11cxx_lib/inc/uart_11xx.h ****  */
 251:../../lpc11cx4-library/lpc_chip_11cxx_lib/inc/uart_11xx.h **** #define UART_ICR_IRDAEN         (1 << 0)			/*!< IrDA mode enable */
 252:../../lpc11cx4-library/lpc_chip_11cxx_lib/inc/uart_11xx.h **** #define UART_ICR_IRDAINV        (1 << 1)			/*!< IrDA serial input inverted */
 253:../../lpc11cx4-library/lpc_chip_11cxx_lib/inc/uart_11xx.h **** #define UART_ICR_FIXPULSE_EN    (1 << 2)			/*!< IrDA fixed pulse width mode */
 254:../../lpc11cx4-library/lpc_chip_11cxx_lib/inc/uart_11xx.h **** #define UART_ICR_PULSEDIV(n)    ((n & 0x07) << 3)	/*!< PulseDiv - Configures the pulse when FixPuls
 255:../../lpc11cx4-library/lpc_chip_11cxx_lib/inc/uart_11xx.h **** #define UART_ICR_BITMASK        (0x3F)				/*!< UART IRDA bit mask */
 256:../../lpc11cx4-library/lpc_chip_11cxx_lib/inc/uart_11xx.h **** 
 257:../../lpc11cx4-library/lpc_chip_11cxx_lib/inc/uart_11xx.h **** /**
 258:../../lpc11cx4-library/lpc_chip_11cxx_lib/inc/uart_11xx.h ****  * @brief Macro defines for UART half duplex register - ????
 259:../../lpc11cx4-library/lpc_chip_11cxx_lib/inc/uart_11xx.h ****  */
 260:../../lpc11cx4-library/lpc_chip_11cxx_lib/inc/uart_11xx.h **** #define UART_HDEN_HDEN          ((1 << 0))			/*!< enable half-duplex mode*/
 261:../../lpc11cx4-library/lpc_chip_11cxx_lib/inc/uart_11xx.h **** 
 262:../../lpc11cx4-library/lpc_chip_11cxx_lib/inc/uart_11xx.h **** /**
 263:../../lpc11cx4-library/lpc_chip_11cxx_lib/inc/uart_11xx.h ****  * @brief Macro defines for UART Smart card interface Control Register - valid for 11xx, 18xx/43xx 
 264:../../lpc11cx4-library/lpc_chip_11cxx_lib/inc/uart_11xx.h ****  */
 265:../../lpc11cx4-library/lpc_chip_11cxx_lib/inc/uart_11xx.h **** #define UART_SCICTRL_SCIEN        (1 << 0)			/*!< enable asynchronous half-duplex smart card interf
 266:../../lpc11cx4-library/lpc_chip_11cxx_lib/inc/uart_11xx.h **** #define UART_SCICTRL_NACKDIS      (1 << 1)			/*!< NACK response is inhibited*/
 267:../../lpc11cx4-library/lpc_chip_11cxx_lib/inc/uart_11xx.h **** #define UART_SCICTRL_PROTSEL_T1   (1 << 2)			/*!< ISO7816-3 protocol T1 is selected*/
 268:../../lpc11cx4-library/lpc_chip_11cxx_lib/inc/uart_11xx.h **** #define UART_SCICTRL_TXRETRY(n)   ((n & 0x07) << 5)	/*!< number of retransmission*/
 269:../../lpc11cx4-library/lpc_chip_11cxx_lib/inc/uart_11xx.h **** #define UART_SCICTRL_GUARDTIME(n) ((n & 0xFF) << 8)	/*!< Extra guard time*/
 270:../../lpc11cx4-library/lpc_chip_11cxx_lib/inc/uart_11xx.h **** 
 271:../../lpc11cx4-library/lpc_chip_11cxx_lib/inc/uart_11xx.h **** /**
 272:../../lpc11cx4-library/lpc_chip_11cxx_lib/inc/uart_11xx.h ****  * @brief Macro defines for UART Fractional Divider Register
 273:../../lpc11cx4-library/lpc_chip_11cxx_lib/inc/uart_11xx.h ****  */
 274:../../lpc11cx4-library/lpc_chip_11cxx_lib/inc/uart_11xx.h **** #define UART_FDR_DIVADDVAL(n)   (n & 0x0F)			/*!< Baud-rate generation pre-scaler divisor */
 275:../../lpc11cx4-library/lpc_chip_11cxx_lib/inc/uart_11xx.h **** #define UART_FDR_MULVAL(n)      ((n << 4) & 0xF0)	/*!< Baud-rate pre-scaler multiplier value */
 276:../../lpc11cx4-library/lpc_chip_11cxx_lib/inc/uart_11xx.h **** #define UART_FDR_BITMASK        (0xFF)				/*!< UART Fractional Divider register bit mask */
 277:../../lpc11cx4-library/lpc_chip_11cxx_lib/inc/uart_11xx.h **** 
 278:../../lpc11cx4-library/lpc_chip_11cxx_lib/inc/uart_11xx.h **** /**
 279:../../lpc11cx4-library/lpc_chip_11cxx_lib/inc/uart_11xx.h ****  * @brief Macro defines for UART Tx Enable Register
 280:../../lpc11cx4-library/lpc_chip_11cxx_lib/inc/uart_11xx.h ****  */
 281:../../lpc11cx4-library/lpc_chip_11cxx_lib/inc/uart_11xx.h **** #define UART_TER1_TXEN      (1 << 7)		/*!< Transmit enable bit  - valid for 11xx, 13xx, 17xx/40xx o
 282:../../lpc11cx4-library/lpc_chip_11cxx_lib/inc/uart_11xx.h **** #define UART_TER2_TXEN      (1 << 0)		/*!< Transmit enable bit  - valid for 18xx/43xx only */
 283:../../lpc11cx4-library/lpc_chip_11cxx_lib/inc/uart_11xx.h **** 
 284:../../lpc11cx4-library/lpc_chip_11cxx_lib/inc/uart_11xx.h **** /**
 285:../../lpc11cx4-library/lpc_chip_11cxx_lib/inc/uart_11xx.h ****  * @brief Macro defines for UART Synchronous Control Register - 11xx, 18xx/43xx UART0/2/3 only 
 286:../../lpc11cx4-library/lpc_chip_11cxx_lib/inc/uart_11xx.h ****  */
 287:../../lpc11cx4-library/lpc_chip_11cxx_lib/inc/uart_11xx.h **** #define UART_SYNCCTRL_SYNC             (1 << 0)			/*!< enable synchronous mode*/
 288:../../lpc11cx4-library/lpc_chip_11cxx_lib/inc/uart_11xx.h **** #define UART_SYNCCTRL_CSRC_MASTER      (1 << 1)  		/*!< synchronous master mode*/
 289:../../lpc11cx4-library/lpc_chip_11cxx_lib/inc/uart_11xx.h **** #define UART_SYNCCTRL_FES              (1 << 2)			/*!< sample on falling edge*/
 290:../../lpc11cx4-library/lpc_chip_11cxx_lib/inc/uart_11xx.h **** #define UART_SYNCCTRL_TSBYPASS         (1 << 3)			/*!< to be defined*/
 291:../../lpc11cx4-library/lpc_chip_11cxx_lib/inc/uart_11xx.h **** #define UART_SYNCCTRL_CSCEN            (1 << 4)			/*!< Continuous running clock enable (master mode
 292:../../lpc11cx4-library/lpc_chip_11cxx_lib/inc/uart_11xx.h **** #define UART_SYNCCTRL_STARTSTOPDISABLE (1 << 5)	        /*!< Do not send start/stop bit*/
 293:../../lpc11cx4-library/lpc_chip_11cxx_lib/inc/uart_11xx.h **** #define UART_SYNCCTRL_CCCLR            (1 << 6)			/*!< stop continuous clock*/
 294:../../lpc11cx4-library/lpc_chip_11cxx_lib/inc/uart_11xx.h **** 
ARM GAS  /tmp/cchQViiZ.s 			page 14


 295:../../lpc11cx4-library/lpc_chip_11cxx_lib/inc/uart_11xx.h **** /**
 296:../../lpc11cx4-library/lpc_chip_11cxx_lib/inc/uart_11xx.h ****  * @brief	Enable transmission on UART TxD pin
 297:../../lpc11cx4-library/lpc_chip_11cxx_lib/inc/uart_11xx.h ****  * @param	pUART	: Pointer to selected pUART peripheral
 298:../../lpc11cx4-library/lpc_chip_11cxx_lib/inc/uart_11xx.h ****  * @return Nothing
 299:../../lpc11cx4-library/lpc_chip_11cxx_lib/inc/uart_11xx.h ****  */
 300:../../lpc11cx4-library/lpc_chip_11cxx_lib/inc/uart_11xx.h **** STATIC INLINE void Chip_UART_TXEnable(LPC_USART_T *pUART)
 301:../../lpc11cx4-library/lpc_chip_11cxx_lib/inc/uart_11xx.h **** {
 302:../../lpc11cx4-library/lpc_chip_11cxx_lib/inc/uart_11xx.h **** 	pUART->TER1 = UART_TER1_TXEN;
 303:../../lpc11cx4-library/lpc_chip_11cxx_lib/inc/uart_11xx.h **** }
 304:../../lpc11cx4-library/lpc_chip_11cxx_lib/inc/uart_11xx.h **** 
 305:../../lpc11cx4-library/lpc_chip_11cxx_lib/inc/uart_11xx.h **** /**
 306:../../lpc11cx4-library/lpc_chip_11cxx_lib/inc/uart_11xx.h ****  * @brief	Disable transmission on UART TxD pin
 307:../../lpc11cx4-library/lpc_chip_11cxx_lib/inc/uart_11xx.h ****  * @param	pUART	: Pointer to selected pUART peripheral
 308:../../lpc11cx4-library/lpc_chip_11cxx_lib/inc/uart_11xx.h ****  * @return Nothing
 309:../../lpc11cx4-library/lpc_chip_11cxx_lib/inc/uart_11xx.h ****  */
 310:../../lpc11cx4-library/lpc_chip_11cxx_lib/inc/uart_11xx.h **** STATIC INLINE void Chip_UART_TXDisable(LPC_USART_T *pUART)
 311:../../lpc11cx4-library/lpc_chip_11cxx_lib/inc/uart_11xx.h **** {
 312:../../lpc11cx4-library/lpc_chip_11cxx_lib/inc/uart_11xx.h **** 	pUART->TER1 = 0;
 313:../../lpc11cx4-library/lpc_chip_11cxx_lib/inc/uart_11xx.h **** }
 314:../../lpc11cx4-library/lpc_chip_11cxx_lib/inc/uart_11xx.h **** 
 315:../../lpc11cx4-library/lpc_chip_11cxx_lib/inc/uart_11xx.h **** /**
 316:../../lpc11cx4-library/lpc_chip_11cxx_lib/inc/uart_11xx.h ****  * @brief	Transmit a single data byte through the UART peripheral
 317:../../lpc11cx4-library/lpc_chip_11cxx_lib/inc/uart_11xx.h ****  * @param	pUART	: Pointer to selected UART peripheral
 318:../../lpc11cx4-library/lpc_chip_11cxx_lib/inc/uart_11xx.h ****  * @param	data	: Byte to transmit
 319:../../lpc11cx4-library/lpc_chip_11cxx_lib/inc/uart_11xx.h ****  * @return	Nothing
 320:../../lpc11cx4-library/lpc_chip_11cxx_lib/inc/uart_11xx.h ****  * @note	This function attempts to place a byte into the UART transmit
 321:../../lpc11cx4-library/lpc_chip_11cxx_lib/inc/uart_11xx.h ****  *			FIFO or transmit hold register regard regardless of UART state
 322:../../lpc11cx4-library/lpc_chip_11cxx_lib/inc/uart_11xx.h ****  */
 323:../../lpc11cx4-library/lpc_chip_11cxx_lib/inc/uart_11xx.h **** STATIC INLINE void Chip_UART_SendByte(LPC_USART_T *pUART, uint8_t data)
 324:../../lpc11cx4-library/lpc_chip_11cxx_lib/inc/uart_11xx.h **** {
 325:../../lpc11cx4-library/lpc_chip_11cxx_lib/inc/uart_11xx.h **** 	pUART->THR = (uint32_t) data;
 326:../../lpc11cx4-library/lpc_chip_11cxx_lib/inc/uart_11xx.h **** }
 327:../../lpc11cx4-library/lpc_chip_11cxx_lib/inc/uart_11xx.h **** 
 328:../../lpc11cx4-library/lpc_chip_11cxx_lib/inc/uart_11xx.h **** /**
 329:../../lpc11cx4-library/lpc_chip_11cxx_lib/inc/uart_11xx.h ****  * @brief	Read a single byte data from the UART peripheral
 330:../../lpc11cx4-library/lpc_chip_11cxx_lib/inc/uart_11xx.h ****  * @param	pUART	: Pointer to selected UART peripheral
 331:../../lpc11cx4-library/lpc_chip_11cxx_lib/inc/uart_11xx.h ****  * @return	A single byte of data read
 332:../../lpc11cx4-library/lpc_chip_11cxx_lib/inc/uart_11xx.h ****  * @note	This function reads a byte from the UART receive FIFO or
 333:../../lpc11cx4-library/lpc_chip_11cxx_lib/inc/uart_11xx.h ****  *			receive hold register regard regardless of UART state. The
 334:../../lpc11cx4-library/lpc_chip_11cxx_lib/inc/uart_11xx.h ****  *			FIFO status should be read first prior to using this function
 335:../../lpc11cx4-library/lpc_chip_11cxx_lib/inc/uart_11xx.h ****  */
 336:../../lpc11cx4-library/lpc_chip_11cxx_lib/inc/uart_11xx.h **** STATIC INLINE uint8_t Chip_UART_ReadByte(LPC_USART_T *pUART)
 337:../../lpc11cx4-library/lpc_chip_11cxx_lib/inc/uart_11xx.h **** {
 338:../../lpc11cx4-library/lpc_chip_11cxx_lib/inc/uart_11xx.h **** 	return (uint8_t) (pUART->RBR & UART_RBR_MASKBIT);
 339:../../lpc11cx4-library/lpc_chip_11cxx_lib/inc/uart_11xx.h **** }
 340:../../lpc11cx4-library/lpc_chip_11cxx_lib/inc/uart_11xx.h **** 
 341:../../lpc11cx4-library/lpc_chip_11cxx_lib/inc/uart_11xx.h **** /**
 342:../../lpc11cx4-library/lpc_chip_11cxx_lib/inc/uart_11xx.h ****  * @brief	Enable UART interrupts
 343:../../lpc11cx4-library/lpc_chip_11cxx_lib/inc/uart_11xx.h ****  * @param	pUART	: Pointer to selected UART peripheral
 344:../../lpc11cx4-library/lpc_chip_11cxx_lib/inc/uart_11xx.h ****  * @param	intMask	: OR'ed Interrupts to enable in the Interrupt Enable Register (IER)
 345:../../lpc11cx4-library/lpc_chip_11cxx_lib/inc/uart_11xx.h ****  * @return	Nothing
 346:../../lpc11cx4-library/lpc_chip_11cxx_lib/inc/uart_11xx.h ****  * @note	Use an OR'ed value of UART_IER_* definitions with this function
 347:../../lpc11cx4-library/lpc_chip_11cxx_lib/inc/uart_11xx.h ****  *			to enable specific UART interrupts. The Divisor Latch Access Bit
 348:../../lpc11cx4-library/lpc_chip_11cxx_lib/inc/uart_11xx.h ****  *			(DLAB) in LCR must be cleared in order to access the IER register.
 349:../../lpc11cx4-library/lpc_chip_11cxx_lib/inc/uart_11xx.h ****  *			This function doesn't alter the DLAB state
 350:../../lpc11cx4-library/lpc_chip_11cxx_lib/inc/uart_11xx.h ****  */
 351:../../lpc11cx4-library/lpc_chip_11cxx_lib/inc/uart_11xx.h **** STATIC INLINE void Chip_UART_IntEnable(LPC_USART_T *pUART, uint32_t intMask)
ARM GAS  /tmp/cchQViiZ.s 			page 15


 352:../../lpc11cx4-library/lpc_chip_11cxx_lib/inc/uart_11xx.h **** {
 353:../../lpc11cx4-library/lpc_chip_11cxx_lib/inc/uart_11xx.h **** 	pUART->IER |= intMask;
 354:../../lpc11cx4-library/lpc_chip_11cxx_lib/inc/uart_11xx.h **** }
 355:../../lpc11cx4-library/lpc_chip_11cxx_lib/inc/uart_11xx.h **** 
 356:../../lpc11cx4-library/lpc_chip_11cxx_lib/inc/uart_11xx.h **** /**
 357:../../lpc11cx4-library/lpc_chip_11cxx_lib/inc/uart_11xx.h ****  * @brief	Disable UART interrupts
 358:../../lpc11cx4-library/lpc_chip_11cxx_lib/inc/uart_11xx.h ****  * @param	pUART	: Pointer to selected UART peripheral
 359:../../lpc11cx4-library/lpc_chip_11cxx_lib/inc/uart_11xx.h ****  * @param	intMask	: OR'ed Interrupts to disable in the Interrupt Enable Register (IER)
 360:../../lpc11cx4-library/lpc_chip_11cxx_lib/inc/uart_11xx.h ****  * @return	Nothing
 361:../../lpc11cx4-library/lpc_chip_11cxx_lib/inc/uart_11xx.h ****  * @note	Use an OR'ed value of UART_IER_* definitions with this function
 362:../../lpc11cx4-library/lpc_chip_11cxx_lib/inc/uart_11xx.h ****  *			to disable specific UART interrupts. The Divisor Latch Access Bit
 363:../../lpc11cx4-library/lpc_chip_11cxx_lib/inc/uart_11xx.h ****  *			(DLAB) in LCR must be cleared in order to access the IER register.
 364:../../lpc11cx4-library/lpc_chip_11cxx_lib/inc/uart_11xx.h ****  *			This function doesn't alter the DLAB state
 365:../../lpc11cx4-library/lpc_chip_11cxx_lib/inc/uart_11xx.h ****  */
 366:../../lpc11cx4-library/lpc_chip_11cxx_lib/inc/uart_11xx.h **** STATIC INLINE void Chip_UART_IntDisable(LPC_USART_T *pUART, uint32_t intMask)
 367:../../lpc11cx4-library/lpc_chip_11cxx_lib/inc/uart_11xx.h **** {
 368:../../lpc11cx4-library/lpc_chip_11cxx_lib/inc/uart_11xx.h **** 	pUART->IER &= ~intMask;
 369:../../lpc11cx4-library/lpc_chip_11cxx_lib/inc/uart_11xx.h **** }
 370:../../lpc11cx4-library/lpc_chip_11cxx_lib/inc/uart_11xx.h **** 
 371:../../lpc11cx4-library/lpc_chip_11cxx_lib/inc/uart_11xx.h **** /**
 372:../../lpc11cx4-library/lpc_chip_11cxx_lib/inc/uart_11xx.h ****  * @brief	Returns UART interrupts that are enabled
 373:../../lpc11cx4-library/lpc_chip_11cxx_lib/inc/uart_11xx.h ****  * @param	pUART	: Pointer to selected UART peripheral
 374:../../lpc11cx4-library/lpc_chip_11cxx_lib/inc/uart_11xx.h ****  * @return	Returns the enabled UART interrupts
 375:../../lpc11cx4-library/lpc_chip_11cxx_lib/inc/uart_11xx.h ****  * @note	Use an OR'ed value of UART_IER_* definitions with this function
 376:../../lpc11cx4-library/lpc_chip_11cxx_lib/inc/uart_11xx.h ****  *			to determine which interrupts are enabled. You can check
 377:../../lpc11cx4-library/lpc_chip_11cxx_lib/inc/uart_11xx.h ****  *			for multiple enabled bits if needed.
 378:../../lpc11cx4-library/lpc_chip_11cxx_lib/inc/uart_11xx.h ****  */
 379:../../lpc11cx4-library/lpc_chip_11cxx_lib/inc/uart_11xx.h **** STATIC INLINE uint32_t Chip_UART_GetIntsEnabled(LPC_USART_T *pUART)
 380:../../lpc11cx4-library/lpc_chip_11cxx_lib/inc/uart_11xx.h **** {
 381:../../lpc11cx4-library/lpc_chip_11cxx_lib/inc/uart_11xx.h **** 	return pUART->IER;
 382:../../lpc11cx4-library/lpc_chip_11cxx_lib/inc/uart_11xx.h **** }
 383:../../lpc11cx4-library/lpc_chip_11cxx_lib/inc/uart_11xx.h **** 
 384:../../lpc11cx4-library/lpc_chip_11cxx_lib/inc/uart_11xx.h **** /**
 385:../../lpc11cx4-library/lpc_chip_11cxx_lib/inc/uart_11xx.h ****  * @brief	Read the Interrupt Identification Register (IIR)
 386:../../lpc11cx4-library/lpc_chip_11cxx_lib/inc/uart_11xx.h ****  * @param	pUART	: Pointer to selected UART peripheral
 387:../../lpc11cx4-library/lpc_chip_11cxx_lib/inc/uart_11xx.h ****  * @return	Current pending interrupt status per the IIR register
 388:../../lpc11cx4-library/lpc_chip_11cxx_lib/inc/uart_11xx.h ****  */
 389:../../lpc11cx4-library/lpc_chip_11cxx_lib/inc/uart_11xx.h **** STATIC INLINE uint32_t Chip_UART_ReadIntIDReg(LPC_USART_T *pUART)
 390:../../lpc11cx4-library/lpc_chip_11cxx_lib/inc/uart_11xx.h **** {
 391:../../lpc11cx4-library/lpc_chip_11cxx_lib/inc/uart_11xx.h **** 	return pUART->IIR;
 392:../../lpc11cx4-library/lpc_chip_11cxx_lib/inc/uart_11xx.h **** }
 393:../../lpc11cx4-library/lpc_chip_11cxx_lib/inc/uart_11xx.h **** 
 394:../../lpc11cx4-library/lpc_chip_11cxx_lib/inc/uart_11xx.h **** /**
 395:../../lpc11cx4-library/lpc_chip_11cxx_lib/inc/uart_11xx.h ****  * @brief	Setup the UART FIFOs
 396:../../lpc11cx4-library/lpc_chip_11cxx_lib/inc/uart_11xx.h ****  * @param	pUART	: Pointer to selected UART peripheral
 397:../../lpc11cx4-library/lpc_chip_11cxx_lib/inc/uart_11xx.h ****  * @param	fcr		: FIFO control register setup OR'ed flags
 398:../../lpc11cx4-library/lpc_chip_11cxx_lib/inc/uart_11xx.h ****  * @return	Nothing
 399:../../lpc11cx4-library/lpc_chip_11cxx_lib/inc/uart_11xx.h ****  * @note	Use OR'ed value of UART_FCR_* definitions with this function
 400:../../lpc11cx4-library/lpc_chip_11cxx_lib/inc/uart_11xx.h ****  *			to select specific options. For example, to enable the FIFOs
 401:../../lpc11cx4-library/lpc_chip_11cxx_lib/inc/uart_11xx.h ****  *			with a RX trip level of 8 characters, use something like
 402:../../lpc11cx4-library/lpc_chip_11cxx_lib/inc/uart_11xx.h ****  *			(UART_FCR_FIFO_EN | UART_FCR_TRG_LEV2)
 403:../../lpc11cx4-library/lpc_chip_11cxx_lib/inc/uart_11xx.h ****  */
 404:../../lpc11cx4-library/lpc_chip_11cxx_lib/inc/uart_11xx.h **** STATIC INLINE void Chip_UART_SetupFIFOS(LPC_USART_T *pUART, uint32_t fcr)
 405:../../lpc11cx4-library/lpc_chip_11cxx_lib/inc/uart_11xx.h **** {
 406:../../lpc11cx4-library/lpc_chip_11cxx_lib/inc/uart_11xx.h **** 	pUART->FCR = fcr;
 407:../../lpc11cx4-library/lpc_chip_11cxx_lib/inc/uart_11xx.h **** }
 408:../../lpc11cx4-library/lpc_chip_11cxx_lib/inc/uart_11xx.h **** 
ARM GAS  /tmp/cchQViiZ.s 			page 16


 409:../../lpc11cx4-library/lpc_chip_11cxx_lib/inc/uart_11xx.h **** /**
 410:../../lpc11cx4-library/lpc_chip_11cxx_lib/inc/uart_11xx.h ****  * @brief	Configure data width, parity and stop bits
 411:../../lpc11cx4-library/lpc_chip_11cxx_lib/inc/uart_11xx.h ****  * @param	pUART	: Pointer to selected pUART peripheral
 412:../../lpc11cx4-library/lpc_chip_11cxx_lib/inc/uart_11xx.h ****  * @param	config	: UART configuration, OR'ed values of UART_LCR_* defines
 413:../../lpc11cx4-library/lpc_chip_11cxx_lib/inc/uart_11xx.h ****  * @return	Nothing
 414:../../lpc11cx4-library/lpc_chip_11cxx_lib/inc/uart_11xx.h ****  * @note	Select OR'ed config options for the UART from the UART_LCR_*
 415:../../lpc11cx4-library/lpc_chip_11cxx_lib/inc/uart_11xx.h ****  *			definitions. For example, a configuration of 8 data bits, 1
 416:../../lpc11cx4-library/lpc_chip_11cxx_lib/inc/uart_11xx.h ****  *			stop bit, and even (enabled) parity would be
 417:../../lpc11cx4-library/lpc_chip_11cxx_lib/inc/uart_11xx.h ****  *			(UART_LCR_WLEN8 | UART_LCR_SBS_1BIT | UART_LCR_PARITY_EN | UART_LCR_PARITY_EVEN)
 418:../../lpc11cx4-library/lpc_chip_11cxx_lib/inc/uart_11xx.h ****  */
 419:../../lpc11cx4-library/lpc_chip_11cxx_lib/inc/uart_11xx.h **** STATIC INLINE void Chip_UART_ConfigData(LPC_USART_T *pUART, uint32_t config)
 420:../../lpc11cx4-library/lpc_chip_11cxx_lib/inc/uart_11xx.h **** {
 421:../../lpc11cx4-library/lpc_chip_11cxx_lib/inc/uart_11xx.h **** 	pUART->LCR = config;
 162              		.loc 3 421 0
 163 0020 0323     		movs	r3, #3	@ tmp120,
 164 0022 E360     		str	r3, [r4, #12]	@ tmp120, MEM[(struct LPC_USART_T *)1073774592B].LCR
 165              	.LVL5:
 166              	.LBE257:
 167              	.LBE256:
 168              	.LBB258:
 169              	.LBB259:
 406:../../lpc11cx4-library/lpc_chip_11cxx_lib/inc/uart_11xx.h **** }
 170              		.loc 3 406 0
 171 0024 7E33     		adds	r3, r3, #126	@ tmp122,
 172 0026 A360     		str	r3, [r4, #8]	@ tmp122, MEM[(struct LPC_USART_T *)1073774592B].D.5050.FCR
 173              	.LVL6:
 174              	.LBE259:
 175              	.LBE258:
 176              	.LBB260:
 177              	.LBB261:
 302:../../lpc11cx4-library/lpc_chip_11cxx_lib/inc/uart_11xx.h **** }
 178              		.loc 3 302 0
 179 0028 013B     		subs	r3, r3, #1	@ tmp124,
 180 002a 2363     		str	r3, [r4, #48]	@ tmp124, MEM[(struct LPC_USART_T *)1073774592B].TER1
 181              	.LVL7:
 182              	.LBE261:
 183              	.LBE260:
  35:src/main.c    ****     Chip_UART_ConfigData(LPC_USART, (UART_LCR_WLEN8 | UART_LCR_SBS_1BIT | UART_LCR_PARITY_DIS));
  36:src/main.c    ****     Chip_UART_SetupFIFOS(LPC_USART, (UART_FCR_FIFO_EN | UART_FCR_TRG_LEV2));
  37:src/main.c    ****     Chip_UART_TXEnable(LPC_USART);
  38:src/main.c    **** }
 184              		.loc 1 38 0
 185              		@ sp needed	@
 186 002c 10BD     		pop	{r4, pc}
 187              	.L6:
 188 002e C046     		.align	2
 189              	.L5:
 190 0030 00400440 		.word	1074020352
 191 0034 00800040 		.word	1073774592
 192              		.cfi_endproc
 193              	.LFE199:
 194              		.size	Uart_Setup, .-Uart_Setup
 195              		.section	.text.GPIO_Setup,"ax",%progbits
 196              		.align	1
 197              		.p2align 2,,3
 198              		.global	GPIO_Setup
 199              		.syntax unified
ARM GAS  /tmp/cchQViiZ.s 			page 17


 200              		.code	16
 201              		.thumb_func
 202              		.fpu softvfp
 203              		.type	GPIO_Setup, %function
 204              	GPIO_Setup:
 205              	.LFB202:
  39:src/main.c    **** 
  40:src/main.c    **** static void GPIO_Init(uint8_t port, uint8_t pin) {
  41:src/main.c    **** 	Chip_GPIO_WriteDirBit(LPC_GPIO, port, pin, true);
  42:src/main.c    **** 	Chip_GPIO_SetPinState(LPC_GPIO, port, pin, false);
  43:src/main.c    **** }
  44:src/main.c    **** 
  45:src/main.c    **** static void Pin_Write(uint8_t port, uint8_t pin, uint8_t val) {
  46:src/main.c    **** 	Chip_GPIO_SetPinState(LPC_GPIO, port, pin, val);
  47:src/main.c    **** }
  48:src/main.c    **** 
  49:src/main.c    **** void GPIO_Setup(void){
 206              		.loc 1 49 0
 207              		.cfi_startproc
 208              		@ args = 0, pretend = 0, frame = 0
 209              		@ frame_needed = 0, uses_anonymous_args = 0
 210 0000 F8B5     		push	{r3, r4, r5, r6, r7, lr}	@
 211              		.cfi_def_cfa_offset 24
 212              		.cfi_offset 3, -24
 213              		.cfi_offset 4, -20
 214              		.cfi_offset 5, -16
 215              		.cfi_offset 6, -12
 216              		.cfi_offset 7, -8
 217              		.cfi_offset 14, -4
  50:src/main.c    ****     Chip_GPIO_Init(LPC_GPIO);
 218              		.loc 1 50 0
 219 0002 A024     		movs	r4, #160	@ tmp110,
 220              	.LBB262:
 221              	.LBB263:
 222              	.LBB264:
 223              	.LBB265:
 224              		.file 4 "../../lpc11cx4-library/lpc_chip_11cxx_lib/inc/gpio_11xx_2.h"
   1:../../lpc11cx4-library/lpc_chip_11cxx_lib/inc/gpio_11xx_2.h **** /*
   2:../../lpc11cx4-library/lpc_chip_11cxx_lib/inc/gpio_11xx_2.h ****  * @brief LPC11xx GPIO driver for CHIP_LPC11CXX, CHIP_LPC110X, CHIP_LPC11XXLV,
   3:../../lpc11cx4-library/lpc_chip_11cxx_lib/inc/gpio_11xx_2.h ****  * and CHIP_LPC1125 families only.
   4:../../lpc11cx4-library/lpc_chip_11cxx_lib/inc/gpio_11xx_2.h ****  *
   5:../../lpc11cx4-library/lpc_chip_11cxx_lib/inc/gpio_11xx_2.h ****  * @note
   6:../../lpc11cx4-library/lpc_chip_11cxx_lib/inc/gpio_11xx_2.h ****  * Copyright(C) NXP Semiconductors, 2013
   7:../../lpc11cx4-library/lpc_chip_11cxx_lib/inc/gpio_11xx_2.h ****  * All rights reserved.
   8:../../lpc11cx4-library/lpc_chip_11cxx_lib/inc/gpio_11xx_2.h ****  *
   9:../../lpc11cx4-library/lpc_chip_11cxx_lib/inc/gpio_11xx_2.h ****  * @par
  10:../../lpc11cx4-library/lpc_chip_11cxx_lib/inc/gpio_11xx_2.h ****  * Software that is described herein is for illustrative purposes only
  11:../../lpc11cx4-library/lpc_chip_11cxx_lib/inc/gpio_11xx_2.h ****  * which provides customers with programming information regarding the
  12:../../lpc11cx4-library/lpc_chip_11cxx_lib/inc/gpio_11xx_2.h ****  * LPC products.  This software is supplied "AS IS" without any warranties of
  13:../../lpc11cx4-library/lpc_chip_11cxx_lib/inc/gpio_11xx_2.h ****  * any kind, and NXP Semiconductors and its licensor disclaim any and
  14:../../lpc11cx4-library/lpc_chip_11cxx_lib/inc/gpio_11xx_2.h ****  * all warranties, express or implied, including all implied warranties of
  15:../../lpc11cx4-library/lpc_chip_11cxx_lib/inc/gpio_11xx_2.h ****  * merchantability, fitness for a particular purpose and non-infringement of
  16:../../lpc11cx4-library/lpc_chip_11cxx_lib/inc/gpio_11xx_2.h ****  * intellectual property rights.  NXP Semiconductors assumes no responsibility
  17:../../lpc11cx4-library/lpc_chip_11cxx_lib/inc/gpio_11xx_2.h ****  * or liability for the use of the software, conveys no license or rights under any
  18:../../lpc11cx4-library/lpc_chip_11cxx_lib/inc/gpio_11xx_2.h ****  * patent, copyright, mask work right, or any other intellectual property rights in
  19:../../lpc11cx4-library/lpc_chip_11cxx_lib/inc/gpio_11xx_2.h ****  * or to any products. NXP Semiconductors reserves the right to make changes
  20:../../lpc11cx4-library/lpc_chip_11cxx_lib/inc/gpio_11xx_2.h ****  * in the software without notification. NXP Semiconductors also makes no
ARM GAS  /tmp/cchQViiZ.s 			page 18


  21:../../lpc11cx4-library/lpc_chip_11cxx_lib/inc/gpio_11xx_2.h ****  * representation or warranty that such application will be suitable for the
  22:../../lpc11cx4-library/lpc_chip_11cxx_lib/inc/gpio_11xx_2.h ****  * specified use without further testing or modification.
  23:../../lpc11cx4-library/lpc_chip_11cxx_lib/inc/gpio_11xx_2.h ****  *
  24:../../lpc11cx4-library/lpc_chip_11cxx_lib/inc/gpio_11xx_2.h ****  * @par
  25:../../lpc11cx4-library/lpc_chip_11cxx_lib/inc/gpio_11xx_2.h ****  * Permission to use, copy, modify, and distribute this software and its
  26:../../lpc11cx4-library/lpc_chip_11cxx_lib/inc/gpio_11xx_2.h ****  * documentation is hereby granted, under NXP Semiconductors' and its
  27:../../lpc11cx4-library/lpc_chip_11cxx_lib/inc/gpio_11xx_2.h ****  * licensor's relevant copyrights in the software, without fee, provided that it
  28:../../lpc11cx4-library/lpc_chip_11cxx_lib/inc/gpio_11xx_2.h ****  * is used in conjunction with NXP Semiconductors microcontrollers.  This
  29:../../lpc11cx4-library/lpc_chip_11cxx_lib/inc/gpio_11xx_2.h ****  * copyright, permission, and disclaimer notice must appear in all copies of
  30:../../lpc11cx4-library/lpc_chip_11cxx_lib/inc/gpio_11xx_2.h ****  * this code.
  31:../../lpc11cx4-library/lpc_chip_11cxx_lib/inc/gpio_11xx_2.h ****  */
  32:../../lpc11cx4-library/lpc_chip_11cxx_lib/inc/gpio_11xx_2.h **** 
  33:../../lpc11cx4-library/lpc_chip_11cxx_lib/inc/gpio_11xx_2.h **** #ifndef __GPIO_11XX_2_H_
  34:../../lpc11cx4-library/lpc_chip_11cxx_lib/inc/gpio_11xx_2.h **** #define __GPIO_11XX_2_H_
  35:../../lpc11cx4-library/lpc_chip_11cxx_lib/inc/gpio_11xx_2.h **** 
  36:../../lpc11cx4-library/lpc_chip_11cxx_lib/inc/gpio_11xx_2.h **** #ifdef __cplusplus
  37:../../lpc11cx4-library/lpc_chip_11cxx_lib/inc/gpio_11xx_2.h **** extern "C" {
  38:../../lpc11cx4-library/lpc_chip_11cxx_lib/inc/gpio_11xx_2.h **** #endif
  39:../../lpc11cx4-library/lpc_chip_11cxx_lib/inc/gpio_11xx_2.h **** 
  40:../../lpc11cx4-library/lpc_chip_11cxx_lib/inc/gpio_11xx_2.h **** /** @defgroup GPIO_11XX_2 CHIP: LPC11xx GPIO driver for CHIP_LPC11CXX, CHIP_LPC110X, and CHIP_LPC11
  41:../../lpc11cx4-library/lpc_chip_11cxx_lib/inc/gpio_11xx_2.h ****  * @ingroup CHIP_11XX_Drivers
  42:../../lpc11cx4-library/lpc_chip_11cxx_lib/inc/gpio_11xx_2.h ****  * For device familes identified with CHIP definitions CHIP_LPC11CXX,
  43:../../lpc11cx4-library/lpc_chip_11cxx_lib/inc/gpio_11xx_2.h ****  * CHIP_LPC110X, and CHIP_LPC11XXLV only.
  44:../../lpc11cx4-library/lpc_chip_11cxx_lib/inc/gpio_11xx_2.h ****  * @{
  45:../../lpc11cx4-library/lpc_chip_11cxx_lib/inc/gpio_11xx_2.h ****  */
  46:../../lpc11cx4-library/lpc_chip_11cxx_lib/inc/gpio_11xx_2.h **** 
  47:../../lpc11cx4-library/lpc_chip_11cxx_lib/inc/gpio_11xx_2.h **** #if defined(CHIP_LPC11CXX) || defined(CHIP_LPC110X) || defined(CHIP_LPC11XXLV) || defined(CHIP_LPC1
  48:../../lpc11cx4-library/lpc_chip_11cxx_lib/inc/gpio_11xx_2.h **** 
  49:../../lpc11cx4-library/lpc_chip_11cxx_lib/inc/gpio_11xx_2.h **** /**
  50:../../lpc11cx4-library/lpc_chip_11cxx_lib/inc/gpio_11xx_2.h ****  * @brief  GPIO port register block structure
  51:../../lpc11cx4-library/lpc_chip_11cxx_lib/inc/gpio_11xx_2.h ****  */
  52:../../lpc11cx4-library/lpc_chip_11cxx_lib/inc/gpio_11xx_2.h **** typedef struct {				/*!< GPIO_PORT Structure */
  53:../../lpc11cx4-library/lpc_chip_11cxx_lib/inc/gpio_11xx_2.h **** 	__IO uint32_t DATA[4096];			/*!< Offset: 0x0000 to 0x3FFC Data address masking register (R/W) */
  54:../../lpc11cx4-library/lpc_chip_11cxx_lib/inc/gpio_11xx_2.h **** 	uint32_t RESERVED1[4096];
  55:../../lpc11cx4-library/lpc_chip_11cxx_lib/inc/gpio_11xx_2.h **** 	__IO uint32_t DIR;					/*!< Offset: 0x8000 Data direction register (R/W) */
  56:../../lpc11cx4-library/lpc_chip_11cxx_lib/inc/gpio_11xx_2.h **** 	__IO uint32_t IS;					/*!< Offset: 0x8004 Interrupt sense register (R/W) */
  57:../../lpc11cx4-library/lpc_chip_11cxx_lib/inc/gpio_11xx_2.h **** 	__IO uint32_t IBE;					/*!< Offset: 0x8008 Interrupt both edges register (R/W) */
  58:../../lpc11cx4-library/lpc_chip_11cxx_lib/inc/gpio_11xx_2.h **** 	__IO uint32_t IEV;					/*!< Offset: 0x800C Interrupt event register  (R/W) */
  59:../../lpc11cx4-library/lpc_chip_11cxx_lib/inc/gpio_11xx_2.h **** 	__IO uint32_t IE;					/*!< Offset: 0x8010 Interrupt mask register (R/W) */
  60:../../lpc11cx4-library/lpc_chip_11cxx_lib/inc/gpio_11xx_2.h **** 	__I  uint32_t RIS;					/*!< Offset: 0x8014 Raw interrupt status register (R/ ) */
  61:../../lpc11cx4-library/lpc_chip_11cxx_lib/inc/gpio_11xx_2.h **** 	__I  uint32_t MIS;					/*!< Offset: 0x8018 Masked interrupt status register (R/ ) */
  62:../../lpc11cx4-library/lpc_chip_11cxx_lib/inc/gpio_11xx_2.h **** 	__O  uint32_t IC;					/*!< Offset: 0x801C Interrupt clear register (W) */
  63:../../lpc11cx4-library/lpc_chip_11cxx_lib/inc/gpio_11xx_2.h **** 	uint32_t RESERVED2[8184];			/* Padding added for aligning contiguous GPIO blocks */
  64:../../lpc11cx4-library/lpc_chip_11cxx_lib/inc/gpio_11xx_2.h **** } LPC_GPIO_T;
  65:../../lpc11cx4-library/lpc_chip_11cxx_lib/inc/gpio_11xx_2.h **** 
  66:../../lpc11cx4-library/lpc_chip_11cxx_lib/inc/gpio_11xx_2.h **** /**
  67:../../lpc11cx4-library/lpc_chip_11cxx_lib/inc/gpio_11xx_2.h ****  * @brief	Initialize GPIO block
  68:../../lpc11cx4-library/lpc_chip_11cxx_lib/inc/gpio_11xx_2.h ****  * @param	pGPIO	: The base of GPIO peripheral on the chip
  69:../../lpc11cx4-library/lpc_chip_11cxx_lib/inc/gpio_11xx_2.h ****  * @return	Nothing
  70:../../lpc11cx4-library/lpc_chip_11cxx_lib/inc/gpio_11xx_2.h ****  */
  71:../../lpc11cx4-library/lpc_chip_11cxx_lib/inc/gpio_11xx_2.h **** void Chip_GPIO_Init(LPC_GPIO_T *pGPIO);
  72:../../lpc11cx4-library/lpc_chip_11cxx_lib/inc/gpio_11xx_2.h **** 
  73:../../lpc11cx4-library/lpc_chip_11cxx_lib/inc/gpio_11xx_2.h **** /**
  74:../../lpc11cx4-library/lpc_chip_11cxx_lib/inc/gpio_11xx_2.h ****  * @brief	De-Initialize GPIO block
  75:../../lpc11cx4-library/lpc_chip_11cxx_lib/inc/gpio_11xx_2.h ****  * @param	pGPIO	: The base of GPIO peripheral on the chip
  76:../../lpc11cx4-library/lpc_chip_11cxx_lib/inc/gpio_11xx_2.h ****  * @return	Nothing
  77:../../lpc11cx4-library/lpc_chip_11cxx_lib/inc/gpio_11xx_2.h ****  */
ARM GAS  /tmp/cchQViiZ.s 			page 19


  78:../../lpc11cx4-library/lpc_chip_11cxx_lib/inc/gpio_11xx_2.h **** void Chip_GPIO_DeInit(LPC_GPIO_T *pGPIO);
  79:../../lpc11cx4-library/lpc_chip_11cxx_lib/inc/gpio_11xx_2.h **** 
  80:../../lpc11cx4-library/lpc_chip_11cxx_lib/inc/gpio_11xx_2.h **** /**
  81:../../lpc11cx4-library/lpc_chip_11cxx_lib/inc/gpio_11xx_2.h ****  * @brief	Set a GPIO port/bit state
  82:../../lpc11cx4-library/lpc_chip_11cxx_lib/inc/gpio_11xx_2.h ****  * @param	pGPIO	: The base of GPIO peripheral on the chip
  83:../../lpc11cx4-library/lpc_chip_11cxx_lib/inc/gpio_11xx_2.h ****  * @param	port	: GPIO port to set
  84:../../lpc11cx4-library/lpc_chip_11cxx_lib/inc/gpio_11xx_2.h ****  * @param	bit		: GPIO bit to set
  85:../../lpc11cx4-library/lpc_chip_11cxx_lib/inc/gpio_11xx_2.h ****  * @param	setting	: true for high, false for low
  86:../../lpc11cx4-library/lpc_chip_11cxx_lib/inc/gpio_11xx_2.h ****  * @return	Nothing
  87:../../lpc11cx4-library/lpc_chip_11cxx_lib/inc/gpio_11xx_2.h ****  */
  88:../../lpc11cx4-library/lpc_chip_11cxx_lib/inc/gpio_11xx_2.h **** STATIC INLINE void Chip_GPIO_WritePortBit(LPC_GPIO_T *pGPIO, uint32_t port, uint8_t bit, bool setti
  89:../../lpc11cx4-library/lpc_chip_11cxx_lib/inc/gpio_11xx_2.h **** {
  90:../../lpc11cx4-library/lpc_chip_11cxx_lib/inc/gpio_11xx_2.h **** 	pGPIO[port].DATA[1 << bit] = setting << bit;
  91:../../lpc11cx4-library/lpc_chip_11cxx_lib/inc/gpio_11xx_2.h **** }
  92:../../lpc11cx4-library/lpc_chip_11cxx_lib/inc/gpio_11xx_2.h **** 
  93:../../lpc11cx4-library/lpc_chip_11cxx_lib/inc/gpio_11xx_2.h **** /**
  94:../../lpc11cx4-library/lpc_chip_11cxx_lib/inc/gpio_11xx_2.h ****  * @brief	Set a GPIO pin state via the GPIO byte register
  95:../../lpc11cx4-library/lpc_chip_11cxx_lib/inc/gpio_11xx_2.h ****  * @param	pGPIO	: The base of GPIO peripheral on the chip
  96:../../lpc11cx4-library/lpc_chip_11cxx_lib/inc/gpio_11xx_2.h ****  * @param	port	: Port number
  97:../../lpc11cx4-library/lpc_chip_11cxx_lib/inc/gpio_11xx_2.h ****  * @param	pin		: GPIO pin to set
  98:../../lpc11cx4-library/lpc_chip_11cxx_lib/inc/gpio_11xx_2.h ****  * @param	setting	: true for high, false for low
  99:../../lpc11cx4-library/lpc_chip_11cxx_lib/inc/gpio_11xx_2.h ****  * @return	Nothing
 100:../../lpc11cx4-library/lpc_chip_11cxx_lib/inc/gpio_11xx_2.h ****  * @note	This function replaces Chip_GPIO_WritePortBit()
 101:../../lpc11cx4-library/lpc_chip_11cxx_lib/inc/gpio_11xx_2.h ****  */
 102:../../lpc11cx4-library/lpc_chip_11cxx_lib/inc/gpio_11xx_2.h **** STATIC INLINE void Chip_GPIO_SetPinState(LPC_GPIO_T *pGPIO, uint8_t port, uint8_t pin, bool setting
 103:../../lpc11cx4-library/lpc_chip_11cxx_lib/inc/gpio_11xx_2.h **** {
 104:../../lpc11cx4-library/lpc_chip_11cxx_lib/inc/gpio_11xx_2.h **** 	pGPIO[port].DATA[1 << pin] = setting << pin;
 225              		.loc 4 104 0
 226 0004 8027     		movs	r7, #128	@ tmp113,
 227 0006 0025     		movs	r5, #0	@ tmp114,
 228              	.LBE265:
 229              	.LBE264:
 230              	.LBE263:
 231              	.LBE262:
 232              		.loc 1 50 0
 233 0008 E405     		lsls	r4, r4, #23	@ tmp110, tmp110,
 234              	.LBB274:
 235              	.LBB272:
 236              	.LBB269:
 237              	.LBB266:
 238              		.loc 4 104 0
 239 000a 1E4E     		ldr	r6, .L8	@ tmp112,
 240              	.LBE266:
 241              	.LBE269:
 242              	.LBE272:
 243              	.LBE274:
 244              		.loc 1 50 0
 245 000c 2000     		movs	r0, r4	@, tmp110
 246 000e FFF7FEFF 		bl	Chip_GPIO_Init	@
 247              	.LVL8:
 248              	.LBB275:
 249              	.LBB273:
 250              	.LBB270:
 251              	.LBB267:
 252              		.loc 4 104 0
 253 0012 FF00     		lsls	r7, r7, #3	@ tmp113, tmp113,
 254              	.LBE267:
ARM GAS  /tmp/cchQViiZ.s 			page 20


 255              	.LBE270:
  41:src/main.c    **** 	Chip_GPIO_SetPinState(LPC_GPIO, port, pin, false);
 256              		.loc 1 41 0
 257 0014 2000     		movs	r0, r4	@, tmp110
 258 0016 0123     		movs	r3, #1	@,
 259 0018 0822     		movs	r2, #8	@,
 260 001a 0221     		movs	r1, #2	@,
 261 001c FFF7FEFF 		bl	Chip_GPIO_WriteDirBit	@
 262              	.LVL9:
 263              	.LBB271:
 264              	.LBB268:
 265              		.loc 4 104 0
 266 0020 F551     		str	r5, [r6, r7]	@ tmp114, MEM[(struct LPC_GPIO_T *)1342308352B].DATA
 267              	.LVL10:
 268              	.LBE268:
 269              	.LBE271:
 270              	.LBE273:
 271              	.LBE275:
 272              	.LBB276:
 273              	.LBB277:
  41:src/main.c    **** 	Chip_GPIO_SetPinState(LPC_GPIO, port, pin, false);
 274              		.loc 1 41 0
 275 0022 2000     		movs	r0, r4	@, tmp110
 276 0024 0123     		movs	r3, #1	@,
 277 0026 0722     		movs	r2, #7	@,
 278 0028 0221     		movs	r1, #2	@,
 279 002a FFF7FEFF 		bl	Chip_GPIO_WriteDirBit	@
 280              	.LVL11:
 281              	.LBB278:
 282              	.LBB279:
 283              		.loc 4 104 0
 284 002e 8023     		movs	r3, #128	@ tmp117,
 285 0030 9B00     		lsls	r3, r3, #2	@ tmp117, tmp117,
 286 0032 F550     		str	r5, [r6, r3]	@ tmp114, MEM[(struct LPC_GPIO_T *)1342308352B].DATA
 287              	.LVL12:
 288              	.LBE279:
 289              	.LBE278:
 290              	.LBE277:
 291              	.LBE276:
 292              	.LBB280:
 293              	.LBB281:
  41:src/main.c    **** 	Chip_GPIO_SetPinState(LPC_GPIO, port, pin, false);
 294              		.loc 1 41 0
 295 0034 2000     		movs	r0, r4	@, tmp110
 296 0036 0123     		movs	r3, #1	@,
 297 0038 0822     		movs	r2, #8	@,
 298 003a 0121     		movs	r1, #1	@,
 299 003c FFF7FEFF 		bl	Chip_GPIO_WriteDirBit	@
 300              	.LVL13:
 301              	.LBB282:
 302              	.LBB283:
 303              		.loc 4 104 0
 304 0040 114B     		ldr	r3, .L8+4	@ tmp120,
 305              	.LBE283:
 306              	.LBE282:
 307              	.LBE281:
 308              	.LBE280:
ARM GAS  /tmp/cchQViiZ.s 			page 21


 309              	.LBB287:
 310              	.LBB288:
  41:src/main.c    **** 	Chip_GPIO_SetPinState(LPC_GPIO, port, pin, false);
 311              		.loc 1 41 0
 312 0042 2000     		movs	r0, r4	@, tmp110
 313              	.LBE288:
 314              	.LBE287:
 315              	.LBB292:
 316              	.LBB286:
 317              	.LBB285:
 318              	.LBB284:
 319              		.loc 4 104 0
 320 0044 DD51     		str	r5, [r3, r7]	@ tmp114, MEM[(struct LPC_GPIO_T *)1342242816B].DATA
 321              	.LVL14:
 322              	.LBE284:
 323              	.LBE285:
 324              	.LBE286:
 325              	.LBE292:
 326              	.LBB293:
 327              	.LBB291:
  41:src/main.c    **** 	Chip_GPIO_SetPinState(LPC_GPIO, port, pin, false);
 328              		.loc 1 41 0
 329 0046 0622     		movs	r2, #6	@,
 330 0048 0123     		movs	r3, #1	@,
 331 004a 0221     		movs	r1, #2	@,
 332 004c FFF7FEFF 		bl	Chip_GPIO_WriteDirBit	@
 333              	.LVL15:
 334              	.LBB289:
 335              	.LBB290:
 336              		.loc 4 104 0
 337 0050 8023     		movs	r3, #128	@ tmp125,
 338 0052 5B00     		lsls	r3, r3, #1	@ tmp125, tmp125,
 339 0054 F550     		str	r5, [r6, r3]	@ tmp114, MEM[(struct LPC_GPIO_T *)1342308352B].DATA
 340              	.LVL16:
 341              	.LBE290:
 342              	.LBE289:
 343              	.LBE291:
 344              	.LBE293:
 345              	.LBB294:
 346              	.LBB295:
 347              	.LBB296:
 348              	.LBB297:
 349 0056 0D4E     		ldr	r6, .L8+8	@ tmp128,
 350              	.LBE297:
 351              	.LBE296:
  41:src/main.c    **** 	Chip_GPIO_SetPinState(LPC_GPIO, port, pin, false);
 352              		.loc 1 41 0
 353 0058 2000     		movs	r0, r4	@, tmp110
 354 005a FF3B     		subs	r3, r3, #255	@,
 355 005c 0322     		movs	r2, #3	@,
 356 005e 0321     		movs	r1, #3	@,
 357 0060 FFF7FEFF 		bl	Chip_GPIO_WriteDirBit	@
 358              	.LVL17:
 359              	.LBB299:
 360              	.LBB298:
 361              		.loc 4 104 0
 362 0064 3562     		str	r5, [r6, #32]	@ tmp114, MEM[(struct LPC_GPIO_T *)1342373888B].DATA
ARM GAS  /tmp/cchQViiZ.s 			page 22


 363              	.LVL18:
 364              	.LBE298:
 365              	.LBE299:
 366              	.LBE295:
 367              	.LBE294:
 368              	.LBB300:
 369              	.LBB301:
  41:src/main.c    **** 	Chip_GPIO_SetPinState(LPC_GPIO, port, pin, false);
 370              		.loc 1 41 0
 371 0066 2000     		movs	r0, r4	@, tmp110
 372 0068 0123     		movs	r3, #1	@,
 373 006a 0122     		movs	r2, #1	@,
 374 006c 0321     		movs	r1, #3	@,
 375 006e FFF7FEFF 		bl	Chip_GPIO_WriteDirBit	@
 376              	.LVL19:
 377              	.LBB302:
 378              	.LBB303:
 379              		.loc 4 104 0
 380 0072 B560     		str	r5, [r6, #8]	@ tmp114, MEM[(struct LPC_GPIO_T *)1342373888B].DATA
 381              	.LVL20:
 382              	.LBE303:
 383              	.LBE302:
 384              	.LBE301:
 385              	.LBE300:
 386              	.LBB304:
 387              	.LBB305:
  41:src/main.c    **** 	Chip_GPIO_SetPinState(LPC_GPIO, port, pin, false);
 388              		.loc 1 41 0
 389 0074 0123     		movs	r3, #1	@,
 390 0076 0022     		movs	r2, #0	@,
 391 0078 0321     		movs	r1, #3	@,
 392 007a 2000     		movs	r0, r4	@, tmp110
 393 007c FFF7FEFF 		bl	Chip_GPIO_WriteDirBit	@
 394              	.LVL21:
 395              	.LBE305:
 396              	.LBE304:
  51:src/main.c    ****     GPIO_Init(RS);
  52:src/main.c    ****     GPIO_Init(RW);
  53:src/main.c    ****     GPIO_Init(EN);
  54:src/main.c    ****     GPIO_Init(DB4);
  55:src/main.c    ****     GPIO_Init(DB5);
  56:src/main.c    ****     GPIO_Init(DB6);
  57:src/main.c    ****     GPIO_Init(DB7);
  58:src/main.c    **** }
 397              		.loc 1 58 0
 398              		@ sp needed	@
 399              	.LBB309:
 400              	.LBB308:
 401              	.LBB306:
 402              	.LBB307:
 403              		.loc 4 104 0
 404 0080 7560     		str	r5, [r6, #4]	@ tmp114, MEM[(struct LPC_GPIO_T *)1342373888B].DATA
 405              	.LVL22:
 406              	.LBE307:
 407              	.LBE306:
 408              	.LBE308:
 409              	.LBE309:
ARM GAS  /tmp/cchQViiZ.s 			page 23


 410              		.loc 1 58 0
 411 0082 F8BD     		pop	{r3, r4, r5, r6, r7, pc}
 412              	.L9:
 413              		.align	2
 414              	.L8:
 415 0084 00000250 		.word	1342308352
 416 0088 00000150 		.word	1342242816
 417 008c 00000350 		.word	1342373888
 418              		.cfi_endproc
 419              	.LFE202:
 420              		.size	GPIO_Setup, .-GPIO_Setup
 421              		.section	.text.Enable,"ax",%progbits
 422              		.align	1
 423              		.p2align 2,,3
 424              		.global	Enable
 425              		.syntax unified
 426              		.code	16
 427              		.thumb_func
 428              		.fpu softvfp
 429              		.type	Enable, %function
 430              	Enable:
 431              	.LFB204:
  59:src/main.c    **** 
  60:src/main.c    **** static void Delay(uint32_t dlyTicks) {
  61:src/main.c    ****     uint32_t startTime = msTicks;
  62:src/main.c    ****     uint32_t diff = 0;
  63:src/main.c    ****     while(diff < dlyTicks){
  64:src/main.c    ****         diff = msTicks - startTime;
  65:src/main.c    ****     }
  66:src/main.c    **** }
  67:src/main.c    **** 
  68:src/main.c    **** void Enable(void){
 432              		.loc 1 68 0
 433              		.cfi_startproc
 434              		@ args = 0, pretend = 0, frame = 0
 435              		@ frame_needed = 0, uses_anonymous_args = 0
 436              		@ link register save eliminated.
 437              	.LVL23:
 438              	.LBB310:
 439              	.LBB311:
 440              	.LBB312:
 441              		.loc 4 104 0
 442 0000 8021     		movs	r1, #128	@ tmp116,
 443 0002 8023     		movs	r3, #128	@ tmp115,
 444 0004 094A     		ldr	r2, .L16	@ tmp114,
 445 0006 4900     		lsls	r1, r1, #1	@ tmp116, tmp116,
 446 0008 DB00     		lsls	r3, r3, #3	@ tmp115, tmp115,
 447 000a D150     		str	r1, [r2, r3]	@ tmp116, MEM[(struct LPC_GPIO_T *)1342242816B].DATA
 448              	.LVL24:
 449              	.LBE312:
 450              	.LBE311:
 451              	.LBE310:
 452              	.LBB313:
 453              	.LBB314:
  61:src/main.c    ****     uint32_t diff = 0;
 454              		.loc 1 61 0
 455 000c 084B     		ldr	r3, .L16+4	@ tmp124,
ARM GAS  /tmp/cchQViiZ.s 			page 24


 456 000e 1968     		ldr	r1, [r3]	@ startTime, msTicks
 457              	.LVL25:
 458              	.L11:
  64:src/main.c    ****     }
 459              		.loc 1 64 0
 460 0010 1A68     		ldr	r2, [r3]	@ msTicks.1_7, msTicks
 461              	.LVL26:
  63:src/main.c    ****         diff = msTicks - startTime;
 462              		.loc 1 63 0
 463 0012 9142     		cmp	r1, r2	@ startTime, msTicks.1_7
 464 0014 FCD0     		beq	.L11	@,
 465              	.LVL27:
 466              	.LBE314:
 467              	.LBE313:
 468              	.LBB315:
 469              	.LBB316:
 470              	.LBB317:
 471              		.loc 4 104 0
 472 0016 8022     		movs	r2, #128	@ tmp120,
 473 0018 0020     		movs	r0, #0	@ tmp121,
 474 001a 0449     		ldr	r1, .L16	@ tmp119,
 475 001c D200     		lsls	r2, r2, #3	@ tmp120, tmp120,
 476 001e 8850     		str	r0, [r1, r2]	@ tmp121, MEM[(struct LPC_GPIO_T *)1342242816B].DATA
 477              	.LVL28:
 478              	.LBE317:
 479              	.LBE316:
 480              	.LBE315:
 481              	.LBB318:
 482              	.LBB319:
  61:src/main.c    ****     uint32_t diff = 0;
 483              		.loc 1 61 0
 484 0020 1968     		ldr	r1, [r3]	@ startTime, msTicks
 485              	.LVL29:
 486              	.L12:
  64:src/main.c    ****     }
 487              		.loc 1 64 0
 488 0022 1A68     		ldr	r2, [r3]	@ msTicks.1_3, msTicks
 489              	.LVL30:
  63:src/main.c    ****         diff = msTicks - startTime;
 490              		.loc 1 63 0
 491 0024 9142     		cmp	r1, r2	@ startTime, msTicks.1_3
 492 0026 FCD0     		beq	.L12	@,
 493              	.LBE319:
 494              	.LBE318:
  69:src/main.c    ****     Pin_Write(EN, 1);
  70:src/main.c    ****     Delay(1);
  71:src/main.c    ****     Pin_Write(EN, 0);
  72:src/main.c    ****     Delay(1);
  73:src/main.c    **** }
 495              		.loc 1 73 0
 496              		@ sp needed	@
 497 0028 7047     		bx	lr
 498              	.L17:
 499 002a C046     		.align	2
 500              	.L16:
 501 002c 00000150 		.word	1342242816
 502 0030 00000000 		.word	msTicks
ARM GAS  /tmp/cchQViiZ.s 			page 25


 503              		.cfi_endproc
 504              	.LFE204:
 505              		.size	Enable, .-Enable
 506              		.section	.text.Clean_Data,"ax",%progbits
 507              		.align	1
 508              		.p2align 2,,3
 509              		.global	Clean_Data
 510              		.syntax unified
 511              		.code	16
 512              		.thumb_func
 513              		.fpu softvfp
 514              		.type	Clean_Data, %function
 515              	Clean_Data:
 516              	.LFB205:
  74:src/main.c    **** 
  75:src/main.c    **** void Clean_Data(void){
 517              		.loc 1 75 0
 518              		.cfi_startproc
 519              		@ args = 0, pretend = 0, frame = 0
 520              		@ frame_needed = 0, uses_anonymous_args = 0
 521              		@ link register save eliminated.
 522              	.LVL31:
 523              	.LBB320:
 524              	.LBB321:
 525              	.LBB322:
 526              		.loc 4 104 0
 527 0000 8022     		movs	r2, #128	@ tmp111,
 528 0002 0023     		movs	r3, #0	@ tmp112,
 529 0004 0349     		ldr	r1, .L19	@ tmp110,
 530 0006 5200     		lsls	r2, r2, #1	@ tmp111, tmp111,
 531 0008 8B50     		str	r3, [r1, r2]	@ tmp112, MEM[(struct LPC_GPIO_T *)1342308352B].DATA
 532              	.LVL32:
 533              	.LBE322:
 534              	.LBE321:
 535              	.LBE320:
 536              	.LBB323:
 537              	.LBB324:
 538              	.LBB325:
 539 000a 034A     		ldr	r2, .L19+4	@ tmp113,
 540              	.LBE325:
 541              	.LBE324:
 542              	.LBE323:
  76:src/main.c    ****     Pin_Write(DB4, 0);
  77:src/main.c    ****     Pin_Write(DB5, 0);
  78:src/main.c    ****     Pin_Write(DB6, 0);
  79:src/main.c    ****     Pin_Write(DB7, 0);
  80:src/main.c    **** }
 543              		.loc 1 80 0
 544              		@ sp needed	@
 545              	.LBB328:
 546              	.LBB327:
 547              	.LBB326:
 548              		.loc 4 104 0
 549 000c 1362     		str	r3, [r2, #32]	@ tmp112, MEM[(struct LPC_GPIO_T *)1342373888B].DATA
 550              	.LVL33:
 551              	.LBE326:
 552              	.LBE327:
ARM GAS  /tmp/cchQViiZ.s 			page 26


 553              	.LBE328:
 554              	.LBB329:
 555              	.LBB330:
 556              	.LBB331:
 557 000e 9360     		str	r3, [r2, #8]	@ tmp112, MEM[(struct LPC_GPIO_T *)1342373888B].DATA
 558              	.LVL34:
 559              	.LBE331:
 560              	.LBE330:
 561              	.LBE329:
 562              	.LBB332:
 563              	.LBB333:
 564              	.LBB334:
 565 0010 5360     		str	r3, [r2, #4]	@ tmp112, MEM[(struct LPC_GPIO_T *)1342373888B].DATA
 566              	.LVL35:
 567              	.LBE334:
 568              	.LBE333:
 569              	.LBE332:
 570              		.loc 1 80 0
 571 0012 7047     		bx	lr
 572              	.L20:
 573              		.align	2
 574              	.L19:
 575 0014 00000250 		.word	1342308352
 576 0018 00000350 		.word	1342373888
 577              		.cfi_endproc
 578              	.LFE205:
 579              		.size	Clean_Data, .-Clean_Data
 580              		.section	.text.LCD_Cnvrt,"ax",%progbits
 581              		.align	1
 582              		.p2align 2,,3
 583              		.global	LCD_Cnvrt
 584              		.syntax unified
 585              		.code	16
 586              		.thumb_func
 587              		.fpu softvfp
 588              		.type	LCD_Cnvrt, %function
 589              	LCD_Cnvrt:
 590              	.LFB206:
  81:src/main.c    **** void LCD_Cnvrt(char c){
 591              		.loc 1 81 0
 592              		.cfi_startproc
 593              		@ args = 0, pretend = 0, frame = 0
 594              		@ frame_needed = 0, uses_anonymous_args = 0
 595              	.LVL36:
 596              	.LBB335:
 597              	.LBB336:
 598              	.LBB337:
 599              		.loc 4 104 0
 600 0000 0122     		movs	r2, #1	@ tmp155,
 601              	.LBE337:
 602              	.LBE336:
 603              	.LBE335:
 604              		.loc 1 81 0
 605 0002 70B5     		push	{r4, r5, r6, lr}	@
 606              		.cfi_def_cfa_offset 16
 607              		.cfi_offset 4, -16
 608              		.cfi_offset 5, -12
ARM GAS  /tmp/cchQViiZ.s 			page 27


 609              		.cfi_offset 6, -8
 610              		.cfi_offset 14, -4
 611              	.LBB342:
 612              	.LBB340:
 613              	.LBB338:
 614              		.loc 4 104 0
 615 0004 8024     		movs	r4, #128	@ tmp158,
 616              	.LBE338:
 617              	.LBE340:
 618              	.LBE342:
  82:src/main.c    ****     int upper = c >> 4;
 619              		.loc 1 82 0
 620 0006 0309     		lsrs	r3, r0, #4	@ _2, c,
 621              	.LVL37:
 622              	.LBB343:
 623              	.LBB341:
 624              	.LBB339:
 625              		.loc 4 104 0
 626 0008 1A40     		ands	r2, r3	@ tmp156, _2
 627 000a 2349     		ldr	r1, .L30	@ tmp157,
 628 000c 9201     		lsls	r2, r2, #6	@ _69, tmp156,
 629 000e 6400     		lsls	r4, r4, #1	@ tmp158, tmp158,
 630 0010 0A51     		str	r2, [r1, r4]	@ _69, MEM[(struct LPC_GPIO_T *)1342308352B].DATA
 631              	.LVL38:
 632              	.LBE339:
 633              	.LBE341:
 634              	.LBE343:
 635              	.LBB344:
 636              	.LBB345:
 637              	.LBB346:
 638 0012 0822     		movs	r2, #8	@ tmp161,
 639              	.LBE346:
 640              	.LBE345:
 641              	.LBE344:
 642              	.LBB349:
 643              	.LBB350:
 644              	.LBB351:
 645 0014 0225     		movs	r5, #2	@ tmp165,
 646              	.LBE351:
 647              	.LBE350:
 648              	.LBE349:
 649              	.LBB356:
 650              	.LBB348:
 651              	.LBB347:
 652 0016 9900     		lsls	r1, r3, #2	@ tmp160, _2,
 653 0018 1140     		ands	r1, r2	@ _65, tmp161
 654 001a 204A     		ldr	r2, .L30+4	@ tmp162,
 655 001c 1162     		str	r1, [r2, #32]	@ _65, MEM[(struct LPC_GPIO_T *)1342373888B].DATA
 656              	.LVL39:
 657              	.LBE347:
 658              	.LBE348:
 659              	.LBE356:
 660              	.LBB357:
 661              	.LBB354:
 662              	.LBB352:
 663 001e 5908     		lsrs	r1, r3, #1	@ tmp164, _2,
 664 0020 2940     		ands	r1, r5	@ _61, tmp165
ARM GAS  /tmp/cchQViiZ.s 			page 28


 665              	.LBE352:
 666              	.LBE354:
 667              	.LBE357:
  83:src/main.c    ****     int og = c;
  84:src/main.c    ****     ///upper bits///
  85:src/main.c    ****     Pin_Write(DB4, (upper&(1<<0))>>0);
  86:src/main.c    ****     Pin_Write(DB5, (upper&(1<<1))>>1);
  87:src/main.c    ****     Pin_Write(DB6, (upper&(1<<2))>>2);
  88:src/main.c    ****     Pin_Write(DB7, (upper&(1<<3))>>3);
 668              		.loc 1 88 0
 669 0022 DB10     		asrs	r3, r3, #3	@ _57, _2,
 670              	.LVL40:
 671              	.LBB358:
 672              	.LBB355:
 673              	.LBB353:
 674              		.loc 4 104 0
 675 0024 9160     		str	r1, [r2, #8]	@ _61, MEM[(struct LPC_GPIO_T *)1342373888B].DATA
 676              	.LVL41:
 677              	.LBE353:
 678              	.LBE355:
 679              	.LBE358:
 680              	.LBB359:
 681              	.LBB360:
 682              	.LBB361:
 683 0026 5360     		str	r3, [r2, #4]	@ _57, MEM[(struct LPC_GPIO_T *)1342373888B].DATA
 684              	.LVL42:
 685              	.LBE361:
 686              	.LBE360:
 687              	.LBE359:
 688              	.LBB362:
 689              	.LBB363:
 690              	.LBB364:
 691              	.LBB365:
 692 0028 8023     		movs	r3, #128	@ tmp169,
 693 002a 1D4A     		ldr	r2, .L30+8	@ tmp168,
 694 002c DB00     		lsls	r3, r3, #3	@ tmp169, tmp169,
 695 002e D450     		str	r4, [r2, r3]	@ tmp158, MEM[(struct LPC_GPIO_T *)1342242816B].DATA
 696              	.LVL43:
 697              	.LBE365:
 698              	.LBE364:
 699              	.LBE363:
 700              	.LBB366:
 701              	.LBB367:
  61:src/main.c    ****     uint32_t diff = 0;
 702              		.loc 1 61 0
 703 0030 1C4B     		ldr	r3, .L30+12	@ tmp206,
 704 0032 1968     		ldr	r1, [r3]	@ startTime, msTicks
 705              	.LVL44:
 706              	.L22:
  64:src/main.c    ****     }
 707              		.loc 1 64 0
 708 0034 1A68     		ldr	r2, [r3]	@ msTicks.1_49, msTicks
 709              	.LVL45:
  63:src/main.c    ****         diff = msTicks - startTime;
 710              		.loc 1 63 0
 711 0036 9142     		cmp	r1, r2	@ startTime, msTicks.1_49
 712 0038 FCD0     		beq	.L22	@,
ARM GAS  /tmp/cchQViiZ.s 			page 29


 713              	.LVL46:
 714              	.LBE367:
 715              	.LBE366:
 716              	.LBB368:
 717              	.LBB369:
 718              	.LBB370:
 719              		.loc 4 104 0
 720 003a 8022     		movs	r2, #128	@ tmp174,
 721 003c 0024     		movs	r4, #0	@ tmp175,
 722 003e 1849     		ldr	r1, .L30+8	@ tmp173,
 723 0040 D200     		lsls	r2, r2, #3	@ tmp174, tmp174,
 724 0042 8C50     		str	r4, [r1, r2]	@ tmp175, MEM[(struct LPC_GPIO_T *)1342242816B].DATA
 725              	.LVL47:
 726              	.LBE370:
 727              	.LBE369:
 728              	.LBE368:
 729              	.LBB371:
 730              	.LBB372:
  61:src/main.c    ****     uint32_t diff = 0;
 731              		.loc 1 61 0
 732 0044 1968     		ldr	r1, [r3]	@ startTime, msTicks
 733              	.LVL48:
 734              	.L23:
  64:src/main.c    ****     }
 735              		.loc 1 64 0
 736 0046 1A68     		ldr	r2, [r3]	@ msTicks.1_53, msTicks
 737              	.LVL49:
  63:src/main.c    ****         diff = msTicks - startTime;
 738              		.loc 1 63 0
 739 0048 9142     		cmp	r1, r2	@ startTime, msTicks.1_53
 740 004a FCD0     		beq	.L23	@,
 741              	.LVL50:
 742              	.LBE372:
 743              	.LBE371:
 744              	.LBE362:
  89:src/main.c    ****     Enable();
  90:src/main.c    ****     // Delay(1);
  91:src/main.c    ****     ///llower bits///
  92:src/main.c    ****     Pin_Write(DB4, (og&(1<<0))>>0);
 745              		.loc 1 92 0
 746 004c 0122     		movs	r2, #1	@ tmp179,
 747              	.LBB373:
 748              	.LBB374:
 749              	.LBB375:
 750              		.loc 4 104 0
 751 004e 1100     		movs	r1, r2	@ tmp182, tmp179
 752 0050 8025     		movs	r5, #128	@ tmp184,
 753 0052 0140     		ands	r1, r0	@ tmp182, c
 754 0054 104C     		ldr	r4, .L30	@ tmp183,
 755 0056 8901     		lsls	r1, r1, #6	@ _47, tmp182,
 756 0058 6D00     		lsls	r5, r5, #1	@ tmp184, tmp184,
 757 005a 6151     		str	r1, [r4, r5]	@ _47, MEM[(struct LPC_GPIO_T *)1342308352B].DATA
 758              	.LVL51:
 759              	.LBE375:
 760              	.LBE374:
 761              	.LBE373:
 762              	.LBB376:
ARM GAS  /tmp/cchQViiZ.s 			page 30


 763              	.LBB377:
 764              	.LBB378:
 765 005c 0821     		movs	r1, #8	@ tmp187,
 766 005e 8400     		lsls	r4, r0, #2	@ tmp186, c,
 767 0060 0C40     		ands	r4, r1	@ _43, tmp187
 768 0062 0E49     		ldr	r1, .L30+4	@ tmp188,
 769              	.LBE378:
 770              	.LBE377:
 771              	.LBE376:
 772              	.LBB381:
 773              	.LBB382:
 774              	.LBB383:
 775 0064 0226     		movs	r6, #2	@ tmp191,
 776              	.LBE383:
 777              	.LBE382:
 778              	.LBE381:
 779              	.LBB388:
 780              	.LBB380:
 781              	.LBB379:
 782 0066 0C62     		str	r4, [r1, #32]	@ _43, MEM[(struct LPC_GPIO_T *)1342373888B].DATA
 783              	.LVL52:
 784              	.LBE379:
 785              	.LBE380:
 786              	.LBE388:
 787              	.LBB389:
 788              	.LBB386:
 789              	.LBB384:
 790 0068 4408     		lsrs	r4, r0, #1	@ tmp190, c,
 791              	.LBE384:
 792              	.LBE386:
 793              	.LBE389:
  93:src/main.c    ****     Pin_Write(DB5, (og&(1<<1))>>1);
  94:src/main.c    ****     Pin_Write(DB6, (og&(1<<2))>>2);
  95:src/main.c    ****     Pin_Write(DB7, (og&(1<<3))>>3);
 794              		.loc 1 95 0
 795 006a C010     		asrs	r0, r0, #3	@ tmp193, c,
 796              	.LVL53:
 797              	.LBB390:
 798              	.LBB391:
 799              	.LBB392:
 800              		.loc 4 104 0
 801 006c 1040     		ands	r0, r2	@ _35, tmp179
 802              	.LBE392:
 803              	.LBE391:
 804              	.LBE390:
 805              	.LBB395:
 806              	.LBB396:
 807              	.LBB397:
 808              	.LBB398:
 809 006e 8022     		movs	r2, #128	@ tmp197,
 810              	.LBE398:
 811              	.LBE397:
 812              	.LBE396:
 813              	.LBE395:
 814              	.LBB409:
 815              	.LBB387:
 816              	.LBB385:
ARM GAS  /tmp/cchQViiZ.s 			page 31


 817 0070 3440     		ands	r4, r6	@ _39, tmp191
 818 0072 8C60     		str	r4, [r1, #8]	@ _39, MEM[(struct LPC_GPIO_T *)1342373888B].DATA
 819              	.LVL54:
 820              	.LBE385:
 821              	.LBE387:
 822              	.LBE409:
 823              	.LBB410:
 824              	.LBB394:
 825              	.LBB393:
 826 0074 4860     		str	r0, [r1, #4]	@ _35, MEM[(struct LPC_GPIO_T *)1342373888B].DATA
 827              	.LVL55:
 828              	.LBE393:
 829              	.LBE394:
 830              	.LBE410:
 831              	.LBB411:
 832              	.LBB401:
 833              	.LBB400:
 834              	.LBB399:
 835 0076 0A49     		ldr	r1, .L30+8	@ tmp196,
 836 0078 D200     		lsls	r2, r2, #3	@ tmp197, tmp197,
 837 007a 8D50     		str	r5, [r1, r2]	@ tmp184, MEM[(struct LPC_GPIO_T *)1342242816B].DATA
 838              	.LVL56:
 839              	.LBE399:
 840              	.LBE400:
 841              	.LBE401:
 842              	.LBB402:
 843              	.LBB403:
  61:src/main.c    ****     uint32_t diff = 0;
 844              		.loc 1 61 0
 845 007c 1968     		ldr	r1, [r3]	@ startTime, msTicks
 846              	.LVL57:
 847              	.L24:
  64:src/main.c    ****     }
 848              		.loc 1 64 0
 849 007e 1A68     		ldr	r2, [r3]	@ msTicks.1_27, msTicks
 850              	.LVL58:
  63:src/main.c    ****         diff = msTicks - startTime;
 851              		.loc 1 63 0
 852 0080 9142     		cmp	r1, r2	@ startTime, msTicks.1_27
 853 0082 FCD0     		beq	.L24	@,
 854              	.LVL59:
 855              	.LBE403:
 856              	.LBE402:
 857              	.LBB404:
 858              	.LBB405:
 859              	.LBB406:
 860              		.loc 4 104 0
 861 0084 8022     		movs	r2, #128	@ tmp202,
 862 0086 0020     		movs	r0, #0	@ tmp203,
 863 0088 0549     		ldr	r1, .L30+8	@ tmp201,
 864 008a D200     		lsls	r2, r2, #3	@ tmp202, tmp202,
 865 008c 8850     		str	r0, [r1, r2]	@ tmp203, MEM[(struct LPC_GPIO_T *)1342242816B].DATA
 866              	.LVL60:
 867              	.LBE406:
 868              	.LBE405:
 869              	.LBE404:
 870              	.LBB407:
ARM GAS  /tmp/cchQViiZ.s 			page 32


 871              	.LBB408:
  61:src/main.c    ****     uint32_t diff = 0;
 872              		.loc 1 61 0
 873 008e 1968     		ldr	r1, [r3]	@ startTime, msTicks
 874              	.LVL61:
 875              	.L25:
  64:src/main.c    ****     }
 876              		.loc 1 64 0
 877 0090 1A68     		ldr	r2, [r3]	@ msTicks.1_31, msTicks
 878              	.LVL62:
  63:src/main.c    ****         diff = msTicks - startTime;
 879              		.loc 1 63 0
 880 0092 9142     		cmp	r1, r2	@ startTime, msTicks.1_31
 881 0094 FCD0     		beq	.L25	@,
 882              	.LBE408:
 883              	.LBE407:
 884              	.LBE411:
  96:src/main.c    ****     Enable();
  97:src/main.c    **** }
 885              		.loc 1 97 0
 886              		@ sp needed	@
 887 0096 70BD     		pop	{r4, r5, r6, pc}
 888              	.L31:
 889              		.align	2
 890              	.L30:
 891 0098 00000250 		.word	1342308352
 892 009c 00000350 		.word	1342373888
 893 00a0 00000150 		.word	1342242816
 894 00a4 00000000 		.word	msTicks
 895              		.cfi_endproc
 896              	.LFE206:
 897              		.size	LCD_Cnvrt, .-LCD_Cnvrt
 898              		.section	.text.LCD_Special_Cmd,"ax",%progbits
 899              		.align	1
 900              		.p2align 2,,3
 901              		.global	LCD_Special_Cmd
 902              		.syntax unified
 903              		.code	16
 904              		.thumb_func
 905              		.fpu softvfp
 906              		.type	LCD_Special_Cmd, %function
 907              	LCD_Special_Cmd:
 908              	.LFB207:
  98:src/main.c    **** 
  99:src/main.c    **** void LCD_Special_Cmd(char c){
 909              		.loc 1 99 0
 910              		.cfi_startproc
 911              		@ args = 0, pretend = 0, frame = 0
 912              		@ frame_needed = 0, uses_anonymous_args = 0
 913              	.LVL63:
 914              	.LBB412:
 915              	.LBB413:
 916              	.LBB414:
 917              		.loc 4 104 0
 918 0000 8022     		movs	r2, #128	@ tmp132,
 919 0002 0023     		movs	r3, #0	@ tmp133,
 920              	.LBE414:
ARM GAS  /tmp/cchQViiZ.s 			page 33


 921              	.LBE413:
 922              	.LBE412:
 923              		.loc 1 99 0
 924 0004 F0B5     		push	{r4, r5, r6, r7, lr}	@
 925              		.cfi_def_cfa_offset 20
 926              		.cfi_offset 4, -20
 927              		.cfi_offset 5, -16
 928              		.cfi_offset 6, -12
 929              		.cfi_offset 7, -8
 930              		.cfi_offset 14, -4
 931              	.LBB419:
 932              	.LBB417:
 933              	.LBB415:
 934              		.loc 4 104 0
 935 0006 144C     		ldr	r4, .L37	@ tmp131,
 936              	.LBE415:
 937              	.LBE417:
 938              	.LBE419:
 939              	.LBB420:
 940              	.LBB421:
 941              	.LBB422:
 942 0008 144D     		ldr	r5, .L37+4	@ tmp134,
 943              	.LBE422:
 944              	.LBE421:
 945              	.LBE420:
 946              	.LBB425:
 947              	.LBB418:
 948              	.LBB416:
 949 000a D200     		lsls	r2, r2, #3	@ tmp132, tmp132,
 950 000c A350     		str	r3, [r4, r2]	@ tmp133, MEM[(struct LPC_GPIO_T *)1342308352B].DATA
 951              	.LVL64:
 952              	.LBE416:
 953              	.LBE418:
 954              	.LBE425:
 955              	.LBB426:
 956              	.LBB424:
 957              	.LBB423:
 958 000e AB50     		str	r3, [r5, r2]	@ tmp133, MEM[(struct LPC_GPIO_T *)1342242816B].DATA
 959              	.LVL65:
 960              	.LBE423:
 961              	.LBE424:
 962              	.LBE426:
 100:src/main.c    ****     Pin_Write(RS, 0);
 101:src/main.c    ****     Pin_Write(EN, 0);
 102:src/main.c    **** 
 103:src/main.c    ****     int og = c;
 104:src/main.c    ****     Pin_Write(DB4, (og&(1<<0))>>0);
 963              		.loc 1 104 0
 964 0010 0133     		adds	r3, r3, #1	@ tmp138,
 965              	.LBB427:
 966              	.LBB428:
 967              	.LBB429:
 968              		.loc 4 104 0
 969 0012 1900     		movs	r1, r3	@ tmp141, tmp138
 970 0014 8026     		movs	r6, #128	@ tmp143,
 971 0016 0140     		ands	r1, r0	@ tmp141, c
 972 0018 8901     		lsls	r1, r1, #6	@ _35, tmp141,
ARM GAS  /tmp/cchQViiZ.s 			page 34


 973 001a 7600     		lsls	r6, r6, #1	@ tmp143, tmp143,
 974 001c A151     		str	r1, [r4, r6]	@ _35, MEM[(struct LPC_GPIO_T *)1342308352B].DATA
 975              	.LVL66:
 976              	.LBE429:
 977              	.LBE428:
 978              	.LBE427:
 979              	.LBB430:
 980              	.LBB431:
 981              	.LBB432:
 982 001e 0821     		movs	r1, #8	@ tmp146,
 983              	.LBE432:
 984              	.LBE431:
 985              	.LBE430:
 986              	.LBB435:
 987              	.LBB436:
 988              	.LBB437:
 989 0020 0227     		movs	r7, #2	@ tmp150,
 990              	.LBE437:
 991              	.LBE436:
 992              	.LBE435:
 993              	.LBB444:
 994              	.LBB434:
 995              	.LBB433:
 996 0022 8400     		lsls	r4, r0, #2	@ tmp145, c,
 997 0024 0C40     		ands	r4, r1	@ _31, tmp146
 998 0026 0E49     		ldr	r1, .L37+8	@ tmp147,
 999 0028 0C62     		str	r4, [r1, #32]	@ _31, MEM[(struct LPC_GPIO_T *)1342373888B].DATA
 1000              	.LVL67:
 1001              	.LBE433:
 1002              	.LBE434:
 1003              	.LBE444:
 1004              	.LBB445:
 1005              	.LBB441:
 1006              	.LBB438:
 1007 002a 4408     		lsrs	r4, r0, #1	@ tmp149, c,
 1008              	.LBE438:
 1009              	.LBE441:
 1010              	.LBE445:
 105:src/main.c    ****     Pin_Write(DB5, (og&(1<<1))>>1);
 106:src/main.c    ****     Pin_Write(DB6, (og&(1<<2))>>2);
 107:src/main.c    ****     Pin_Write(DB7, (og&(1<<3))>>3);
 1011              		.loc 1 107 0
 1012 002c C010     		asrs	r0, r0, #3	@ tmp152, c,
 1013              	.LVL68:
 1014              	.LBB446:
 1015              	.LBB447:
 1016              	.LBB448:
 1017              		.loc 4 104 0
 1018 002e 1840     		ands	r0, r3	@ _23, tmp138
 1019              	.LBE448:
 1020              	.LBE447:
 1021              	.LBE446:
 1022              	.LBB451:
 1023              	.LBB442:
 1024              	.LBB439:
 1025 0030 3C40     		ands	r4, r7	@ _27, tmp150
 1026              	.LBE439:
ARM GAS  /tmp/cchQViiZ.s 			page 35


 1027              	.LBE442:
 1028              	.LBE451:
 1029              	.LBB452:
 1030              	.LBB453:
 1031              	.LBB454:
  61:src/main.c    ****     uint32_t diff = 0;
 1032              		.loc 1 61 0
 1033 0032 0C4B     		ldr	r3, .L37+12	@ tmp165,
 1034              	.LBE454:
 1035              	.LBE453:
 1036              	.LBE452:
 1037              	.LBB465:
 1038              	.LBB443:
 1039              	.LBB440:
 1040              		.loc 4 104 0
 1041 0034 8C60     		str	r4, [r1, #8]	@ _27, MEM[(struct LPC_GPIO_T *)1342373888B].DATA
 1042              	.LVL69:
 1043              	.LBE440:
 1044              	.LBE443:
 1045              	.LBE465:
 1046              	.LBB466:
 1047              	.LBB450:
 1048              	.LBB449:
 1049 0036 4860     		str	r0, [r1, #4]	@ _23, MEM[(struct LPC_GPIO_T *)1342373888B].DATA
 1050              	.LVL70:
 1051              	.LBE449:
 1052              	.LBE450:
 1053              	.LBE466:
 1054              	.LBB467:
 1055              	.LBB456:
 1056              	.LBB457:
 1057              	.LBB458:
 1058 0038 AE50     		str	r6, [r5, r2]	@ tmp143, MEM[(struct LPC_GPIO_T *)1342242816B].DATA
 1059              	.LVL71:
 1060              	.LBE458:
 1061              	.LBE457:
 1062              	.LBE456:
 1063              	.LBB459:
 1064              	.LBB455:
  61:src/main.c    ****     uint32_t diff = 0;
 1065              		.loc 1 61 0
 1066 003a 1968     		ldr	r1, [r3]	@ startTime, msTicks
 1067              	.LVL72:
 1068              	.L33:
  64:src/main.c    ****     }
 1069              		.loc 1 64 0
 1070 003c 1A68     		ldr	r2, [r3]	@ msTicks.1_15, msTicks
 1071              	.LVL73:
  63:src/main.c    ****         diff = msTicks - startTime;
 1072              		.loc 1 63 0
 1073 003e 9142     		cmp	r1, r2	@ startTime, msTicks.1_15
 1074 0040 FCD0     		beq	.L33	@,
 1075              	.LVL74:
 1076              	.LBE455:
 1077              	.LBE459:
 1078              	.LBB460:
 1079              	.LBB461:
ARM GAS  /tmp/cchQViiZ.s 			page 36


 1080              	.LBB462:
 1081              		.loc 4 104 0
 1082 0042 8022     		movs	r2, #128	@ tmp161,
 1083 0044 0020     		movs	r0, #0	@ tmp162,
 1084 0046 0549     		ldr	r1, .L37+4	@ tmp160,
 1085 0048 D200     		lsls	r2, r2, #3	@ tmp161, tmp161,
 1086 004a 8850     		str	r0, [r1, r2]	@ tmp162, MEM[(struct LPC_GPIO_T *)1342242816B].DATA
 1087              	.LVL75:
 1088              	.LBE462:
 1089              	.LBE461:
 1090              	.LBE460:
 1091              	.LBB463:
 1092              	.LBB464:
  61:src/main.c    ****     uint32_t diff = 0;
 1093              		.loc 1 61 0
 1094 004c 1968     		ldr	r1, [r3]	@ startTime, msTicks
 1095              	.LVL76:
 1096              	.L34:
  64:src/main.c    ****     }
 1097              		.loc 1 64 0
 1098 004e 1A68     		ldr	r2, [r3]	@ msTicks.1_19, msTicks
 1099              	.LVL77:
  63:src/main.c    ****         diff = msTicks - startTime;
 1100              		.loc 1 63 0
 1101 0050 9142     		cmp	r1, r2	@ startTime, msTicks.1_19
 1102 0052 FCD0     		beq	.L34	@,
 1103              	.LBE464:
 1104              	.LBE463:
 1105              	.LBE467:
 108:src/main.c    ****     Enable();
 109:src/main.c    **** }
 1106              		.loc 1 109 0
 1107              		@ sp needed	@
 1108 0054 F0BD     		pop	{r4, r5, r6, r7, pc}
 1109              	.L38:
 1110 0056 C046     		.align	2
 1111              	.L37:
 1112 0058 00000250 		.word	1342308352
 1113 005c 00000150 		.word	1342242816
 1114 0060 00000350 		.word	1342373888
 1115 0064 00000000 		.word	msTicks
 1116              		.cfi_endproc
 1117              	.LFE207:
 1118              		.size	LCD_Special_Cmd, .-LCD_Special_Cmd
 1119              		.section	.text.LCD_Cmd,"ax",%progbits
 1120              		.align	1
 1121              		.p2align 2,,3
 1122              		.global	LCD_Cmd
 1123              		.syntax unified
 1124              		.code	16
 1125              		.thumb_func
 1126              		.fpu softvfp
 1127              		.type	LCD_Cmd, %function
 1128              	LCD_Cmd:
 1129              	.LFB208:
 110:src/main.c    **** 
 111:src/main.c    **** void LCD_Cmd(unsigned int cmd){
ARM GAS  /tmp/cchQViiZ.s 			page 37


 1130              		.loc 1 111 0
 1131              		.cfi_startproc
 1132              		@ args = 0, pretend = 0, frame = 0
 1133              		@ frame_needed = 0, uses_anonymous_args = 0
 1134              	.LVL78:
 1135              	.LBB468:
 1136              	.LBB469:
 1137              	.LBB470:
 1138              		.loc 4 104 0
 1139 0000 8023     		movs	r3, #128	@ tmp113,
 1140 0002 0022     		movs	r2, #0	@ tmp114,
 1141              	.LBE470:
 1142              	.LBE469:
 1143              	.LBE468:
 1144              		.loc 1 111 0
 1145 0004 10B5     		push	{r4, lr}	@
 1146              		.cfi_def_cfa_offset 8
 1147              		.cfi_offset 4, -8
 1148              		.cfi_offset 14, -4
 1149              	.LBB473:
 1150              	.LBB472:
 1151              	.LBB471:
 1152              		.loc 4 104 0
 1153 0006 0449     		ldr	r1, .L40	@ tmp112,
 1154 0008 DB00     		lsls	r3, r3, #3	@ tmp113, tmp113,
 1155 000a CA50     		str	r2, [r1, r3]	@ tmp114, MEM[(struct LPC_GPIO_T *)1342308352B].DATA
 1156              	.LVL79:
 1157              	.LBE471:
 1158              	.LBE472:
 1159              	.LBE473:
 1160              	.LBB474:
 1161              	.LBB475:
 1162              	.LBB476:
 1163 000c 0349     		ldr	r1, .L40+4	@ tmp115,
 1164              	.LBE476:
 1165              	.LBE475:
 1166              	.LBE474:
 112:src/main.c    ****     Pin_Write(RS, 0);
 113:src/main.c    ****     Pin_Write(EN, 0);
 114:src/main.c    ****     LCD_Cnvrt(cmd);
 1167              		.loc 1 114 0
 1168 000e C0B2     		uxtb	r0, r0	@ cmd, cmd
 1169              	.LVL80:
 1170              	.LBB479:
 1171              	.LBB478:
 1172              	.LBB477:
 1173              		.loc 4 104 0
 1174 0010 CA50     		str	r2, [r1, r3]	@ tmp114, MEM[(struct LPC_GPIO_T *)1342242816B].DATA
 1175              	.LVL81:
 1176              	.LBE477:
 1177              	.LBE478:
 1178              	.LBE479:
 1179              		.loc 1 114 0
 1180 0012 FFF7FEFF 		bl	LCD_Cnvrt	@
 1181              	.LVL82:
 115:src/main.c    **** 
 116:src/main.c    **** }
ARM GAS  /tmp/cchQViiZ.s 			page 38


 1182              		.loc 1 116 0
 1183              		@ sp needed	@
 1184 0016 10BD     		pop	{r4, pc}
 1185              	.L41:
 1186              		.align	2
 1187              	.L40:
 1188 0018 00000250 		.word	1342308352
 1189 001c 00000150 		.word	1342242816
 1190              		.cfi_endproc
 1191              	.LFE208:
 1192              		.size	LCD_Cmd, .-LCD_Cmd
 1193              		.section	.text.LCD_WriteChar,"ax",%progbits
 1194              		.align	1
 1195              		.p2align 2,,3
 1196              		.global	LCD_WriteChar
 1197              		.syntax unified
 1198              		.code	16
 1199              		.thumb_func
 1200              		.fpu softvfp
 1201              		.type	LCD_WriteChar, %function
 1202              	LCD_WriteChar:
 1203              	.LFB209:
 117:src/main.c    **** 
 118:src/main.c    **** void LCD_WriteChar(char c){
 1204              		.loc 1 118 0
 1205              		.cfi_startproc
 1206              		@ args = 0, pretend = 0, frame = 0
 1207              		@ frame_needed = 0, uses_anonymous_args = 0
 1208              	.LVL83:
 1209              	.LBB480:
 1210              	.LBB481:
 1211              	.LBB482:
 1212              		.loc 4 104 0
 1213 0000 8023     		movs	r3, #128	@ tmp112,
 1214 0002 8021     		movs	r1, #128	@ tmp113,
 1215 0004 054A     		ldr	r2, .L43	@ tmp111,
 1216 0006 DB00     		lsls	r3, r3, #3	@ tmp112, tmp112,
 1217 0008 4900     		lsls	r1, r1, #1	@ tmp113, tmp113,
 1218              	.LBE482:
 1219              	.LBE481:
 1220              	.LBE480:
 1221              		.loc 1 118 0
 1222 000a 10B5     		push	{r4, lr}	@
 1223              		.cfi_def_cfa_offset 8
 1224              		.cfi_offset 4, -8
 1225              		.cfi_offset 14, -4
 1226              	.LBB485:
 1227              	.LBB484:
 1228              	.LBB483:
 1229              		.loc 4 104 0
 1230 000c D150     		str	r1, [r2, r3]	@ tmp113, MEM[(struct LPC_GPIO_T *)1342308352B].DATA
 1231              	.LVL84:
 1232              	.LBE483:
 1233              	.LBE484:
 1234              	.LBE485:
 1235              	.LBB486:
 1236              	.LBB487:
ARM GAS  /tmp/cchQViiZ.s 			page 39


 1237              	.LBB488:
 1238 000e 0021     		movs	r1, #0	@ tmp116,
 1239 0010 034A     		ldr	r2, .L43+4	@ tmp114,
 1240              	.LBE488:
 1241              	.LBE487:
 1242              	.LBE486:
 119:src/main.c    ****     Pin_Write(RS, 1);
 120:src/main.c    ****     Pin_Write(EN, 0);
 121:src/main.c    ****     LCD_Cnvrt(c);
 122:src/main.c    **** }
 1243              		.loc 1 122 0
 1244              		@ sp needed	@
 1245              	.LBB491:
 1246              	.LBB490:
 1247              	.LBB489:
 1248              		.loc 4 104 0
 1249 0012 D150     		str	r1, [r2, r3]	@ tmp116, MEM[(struct LPC_GPIO_T *)1342242816B].DATA
 1250              	.LVL85:
 1251              	.LBE489:
 1252              	.LBE490:
 1253              	.LBE491:
 121:src/main.c    **** }
 1254              		.loc 1 121 0
 1255 0014 FFF7FEFF 		bl	LCD_Cnvrt	@
 1256              	.LVL86:
 1257              		.loc 1 122 0
 1258 0018 10BD     		pop	{r4, pc}
 1259              	.L44:
 1260 001a C046     		.align	2
 1261              	.L43:
 1262 001c 00000250 		.word	1342308352
 1263 0020 00000150 		.word	1342242816
 1264              		.cfi_endproc
 1265              	.LFE209:
 1266              		.size	LCD_WriteChar, .-LCD_WriteChar
 1267              		.section	.text.Init_LCD,"ax",%progbits
 1268              		.align	1
 1269              		.p2align 2,,3
 1270              		.global	Init_LCD
 1271              		.syntax unified
 1272              		.code	16
 1273              		.thumb_func
 1274              		.fpu softvfp
 1275              		.type	Init_LCD, %function
 1276              	Init_LCD:
 1277              	.LFB210:
 123:src/main.c    **** void Init_LCD(void){
 1278              		.loc 1 123 0
 1279              		.cfi_startproc
 1280              		@ args = 0, pretend = 0, frame = 0
 1281              		@ frame_needed = 0, uses_anonymous_args = 0
 1282              	.LVL87:
 1283 0000 10B5     		push	{r4, lr}	@
 1284              		.cfi_def_cfa_offset 8
 1285              		.cfi_offset 4, -8
 1286              		.cfi_offset 14, -4
 1287              	.LBB492:
ARM GAS  /tmp/cchQViiZ.s 			page 40


 1288              	.LBB493:
  61:src/main.c    ****     uint32_t diff = 0;
 1289              		.loc 1 61 0
 1290 0002 294C     		ldr	r4, .L58	@ tmp173,
 1291 0004 2268     		ldr	r2, [r4]	@ startTime, msTicks
 1292              	.LVL88:
 1293              	.L46:
  64:src/main.c    ****     }
 1294              		.loc 1 64 0
 1295 0006 2368     		ldr	r3, [r4]	@ msTicks.1_23, msTicks
 1296              	.LVL89:
 1297 0008 9B1A     		subs	r3, r3, r2	@ diff, msTicks.1_23, startTime
 1298              	.LVL90:
  63:src/main.c    ****         diff = msTicks - startTime;
 1299              		.loc 1 63 0
 1300 000a 272B     		cmp	r3, #39	@ diff,
 1301 000c FBD9     		bls	.L46	@,
 1302              	.LVL91:
 1303              	.LBE493:
 1304              	.LBE492:
 1305              	.LBB494:
 1306              	.LBB495:
 1307              	.LBB496:
 1308              		.loc 4 104 0
 1309 000e 8022     		movs	r2, #128	@ tmp129,
 1310 0010 0023     		movs	r3, #0	@ tmp130,
 1311 0012 2649     		ldr	r1, .L58+4	@ tmp128,
 1312 0014 9200     		lsls	r2, r2, #2	@ tmp129, tmp129,
 1313 0016 8B50     		str	r3, [r1, r2]	@ tmp130, MEM[(struct LPC_GPIO_T *)1342308352B].DATA
 1314              	.LVL92:
 1315              	.LBE496:
 1316              	.LBE495:
 1317              	.LBE494:
 1318              	.LBB497:
 1319              	.LBB498:
 1320              	.LBB499:
 1321              	.LBB500:
 1322              	.LBB501:
 1323 0018 8022     		movs	r2, #128	@ tmp132,
 1324 001a D200     		lsls	r2, r2, #3	@ tmp132, tmp132,
 1325 001c 8B50     		str	r3, [r1, r2]	@ tmp130, MEM[(struct LPC_GPIO_T *)1342308352B].DATA
 1326              	.LVL93:
 1327              	.LBE501:
 1328              	.LBE500:
 1329              	.LBE499:
 1330              	.LBB502:
 1331              	.LBB503:
 1332              	.LBB504:
 1333 001e 2449     		ldr	r1, .L58+8	@ tmp134,
 1334              	.LBE504:
 1335              	.LBE503:
 1336              	.LBE502:
 114:src/main.c    **** 
 1337              		.loc 1 114 0
 1338 0020 2020     		movs	r0, #32	@,
 1339              	.LBB507:
 1340              	.LBB506:
ARM GAS  /tmp/cchQViiZ.s 			page 41


 1341              	.LBB505:
 1342              		.loc 4 104 0
 1343 0022 8B50     		str	r3, [r1, r2]	@ tmp130, MEM[(struct LPC_GPIO_T *)1342242816B].DATA
 1344              	.LVL94:
 1345              	.LBE505:
 1346              	.LBE506:
 1347              	.LBE507:
 114:src/main.c    **** 
 1348              		.loc 1 114 0
 1349 0024 FFF7FEFF 		bl	LCD_Cnvrt	@
 1350              	.LVL95:
 1351              	.LBE498:
 1352              	.LBE497:
 1353              	.LBB508:
 1354              	.LBB509:
  61:src/main.c    ****     uint32_t diff = 0;
 1355              		.loc 1 61 0
 1356 0028 2268     		ldr	r2, [r4]	@ startTime, msTicks
 1357              	.LVL96:
 1358              	.L47:
  64:src/main.c    ****     }
 1359              		.loc 1 64 0
 1360 002a 2368     		ldr	r3, [r4]	@ msTicks.1_19, msTicks
 1361              	.LVL97:
  63:src/main.c    ****         diff = msTicks - startTime;
 1362              		.loc 1 63 0
 1363 002c 9A42     		cmp	r2, r3	@ startTime, msTicks.1_19
 1364 002e FCD0     		beq	.L47	@,
 1365              	.LVL98:
 1366              	.LBE509:
 1367              	.LBE508:
 1368              	.LBB510:
 1369              	.LBB511:
 1370              	.LBB512:
 1371              	.LBB513:
 1372              	.LBB514:
 1373              		.loc 4 104 0
 1374 0030 8023     		movs	r3, #128	@ tmp140,
 1375 0032 0022     		movs	r2, #0	@ tmp141,
 1376 0034 1D49     		ldr	r1, .L58+4	@ tmp139,
 1377 0036 DB00     		lsls	r3, r3, #3	@ tmp140, tmp140,
 1378 0038 CA50     		str	r2, [r1, r3]	@ tmp141, MEM[(struct LPC_GPIO_T *)1342308352B].DATA
 1379              	.LVL99:
 1380              	.LBE514:
 1381              	.LBE513:
 1382              	.LBE512:
 1383              	.LBB515:
 1384              	.LBB516:
 1385              	.LBB517:
 1386 003a 1D49     		ldr	r1, .L58+8	@ tmp142,
 1387              	.LBE517:
 1388              	.LBE516:
 1389              	.LBE515:
 114:src/main.c    **** 
 1390              		.loc 1 114 0
 1391 003c 2020     		movs	r0, #32	@,
 1392              	.LBB520:
ARM GAS  /tmp/cchQViiZ.s 			page 42


 1393              	.LBB519:
 1394              	.LBB518:
 1395              		.loc 4 104 0
 1396 003e CA50     		str	r2, [r1, r3]	@ tmp141, MEM[(struct LPC_GPIO_T *)1342242816B].DATA
 1397              	.LVL100:
 1398              	.LBE518:
 1399              	.LBE519:
 1400              	.LBE520:
 114:src/main.c    **** 
 1401              		.loc 1 114 0
 1402 0040 FFF7FEFF 		bl	LCD_Cnvrt	@
 1403              	.LVL101:
 1404              	.LBE511:
 1405              	.LBE510:
 1406              	.LBB521:
 1407              	.LBB522:
  61:src/main.c    ****     uint32_t diff = 0;
 1408              		.loc 1 61 0
 1409 0044 2268     		ldr	r2, [r4]	@ startTime, msTicks
 1410              	.LVL102:
 1411              	.L48:
  64:src/main.c    ****     }
 1412              		.loc 1 64 0
 1413 0046 2368     		ldr	r3, [r4]	@ msTicks.1_15, msTicks
 1414              	.LVL103:
  63:src/main.c    ****         diff = msTicks - startTime;
 1415              		.loc 1 63 0
 1416 0048 9A42     		cmp	r2, r3	@ startTime, msTicks.1_15
 1417 004a FCD0     		beq	.L48	@,
 1418              	.LVL104:
 1419              	.LBE522:
 1420              	.LBE521:
 1421              	.LBB523:
 1422              	.LBB524:
 1423              	.LBB525:
 1424              	.LBB526:
 1425              	.LBB527:
 1426              		.loc 4 104 0
 1427 004c 8023     		movs	r3, #128	@ tmp148,
 1428 004e 0022     		movs	r2, #0	@ tmp149,
 1429 0050 1649     		ldr	r1, .L58+4	@ tmp147,
 1430 0052 DB00     		lsls	r3, r3, #3	@ tmp148, tmp148,
 1431 0054 CA50     		str	r2, [r1, r3]	@ tmp149, MEM[(struct LPC_GPIO_T *)1342308352B].DATA
 1432              	.LVL105:
 1433              	.LBE527:
 1434              	.LBE526:
 1435              	.LBE525:
 1436              	.LBB528:
 1437              	.LBB529:
 1438              	.LBB530:
 1439 0056 1649     		ldr	r1, .L58+8	@ tmp150,
 1440              	.LBE530:
 1441              	.LBE529:
 1442              	.LBE528:
 114:src/main.c    **** 
 1443              		.loc 1 114 0
 1444 0058 0C20     		movs	r0, #12	@,
ARM GAS  /tmp/cchQViiZ.s 			page 43


 1445              	.LBB533:
 1446              	.LBB532:
 1447              	.LBB531:
 1448              		.loc 4 104 0
 1449 005a CA50     		str	r2, [r1, r3]	@ tmp149, MEM[(struct LPC_GPIO_T *)1342242816B].DATA
 1450              	.LVL106:
 1451              	.LBE531:
 1452              	.LBE532:
 1453              	.LBE533:
 114:src/main.c    **** 
 1454              		.loc 1 114 0
 1455 005c FFF7FEFF 		bl	LCD_Cnvrt	@
 1456              	.LVL107:
 1457              	.LBE524:
 1458              	.LBE523:
 1459              	.LBB534:
 1460              	.LBB535:
  61:src/main.c    ****     uint32_t diff = 0;
 1461              		.loc 1 61 0
 1462 0060 2268     		ldr	r2, [r4]	@ startTime, msTicks
 1463              	.LVL108:
 1464              	.L49:
  64:src/main.c    ****     }
 1465              		.loc 1 64 0
 1466 0062 2368     		ldr	r3, [r4]	@ msTicks.1_11, msTicks
 1467              	.LVL109:
  63:src/main.c    ****         diff = msTicks - startTime;
 1468              		.loc 1 63 0
 1469 0064 9A42     		cmp	r2, r3	@ startTime, msTicks.1_11
 1470 0066 FCD0     		beq	.L49	@,
 1471              	.LVL110:
 1472              	.LBE535:
 1473              	.LBE534:
 1474              	.LBB536:
 1475              	.LBB537:
 1476              	.LBB538:
 1477              	.LBB539:
 1478              	.LBB540:
 1479              		.loc 4 104 0
 1480 0068 8023     		movs	r3, #128	@ tmp156,
 1481 006a 0022     		movs	r2, #0	@ tmp157,
 1482 006c 0F49     		ldr	r1, .L58+4	@ tmp155,
 1483 006e DB00     		lsls	r3, r3, #3	@ tmp156, tmp156,
 1484 0070 CA50     		str	r2, [r1, r3]	@ tmp157, MEM[(struct LPC_GPIO_T *)1342308352B].DATA
 1485              	.LVL111:
 1486              	.LBE540:
 1487              	.LBE539:
 1488              	.LBE538:
 1489              	.LBB541:
 1490              	.LBB542:
 1491              	.LBB543:
 1492 0072 0F49     		ldr	r1, .L58+8	@ tmp158,
 1493              	.LBE543:
 1494              	.LBE542:
 1495              	.LBE541:
 114:src/main.c    **** 
 1496              		.loc 1 114 0
ARM GAS  /tmp/cchQViiZ.s 			page 44


 1497 0074 0120     		movs	r0, #1	@,
 1498              	.LBB546:
 1499              	.LBB545:
 1500              	.LBB544:
 1501              		.loc 4 104 0
 1502 0076 CA50     		str	r2, [r1, r3]	@ tmp157, MEM[(struct LPC_GPIO_T *)1342242816B].DATA
 1503              	.LVL112:
 1504              	.LBE544:
 1505              	.LBE545:
 1506              	.LBE546:
 114:src/main.c    **** 
 1507              		.loc 1 114 0
 1508 0078 FFF7FEFF 		bl	LCD_Cnvrt	@
 1509              	.LVL113:
 1510              	.LBE537:
 1511              	.LBE536:
 1512              	.LBB547:
 1513              	.LBB548:
  61:src/main.c    ****     uint32_t diff = 0;
 1514              		.loc 1 61 0
 1515 007c 2268     		ldr	r2, [r4]	@ startTime, msTicks
 1516              	.LVL114:
 1517              	.L50:
  64:src/main.c    ****     }
 1518              		.loc 1 64 0
 1519 007e 2368     		ldr	r3, [r4]	@ msTicks.1_7, msTicks
 1520              	.LVL115:
 1521 0080 9B1A     		subs	r3, r3, r2	@ diff, msTicks.1_7, startTime
 1522              	.LVL116:
  63:src/main.c    ****         diff = msTicks - startTime;
 1523              		.loc 1 63 0
 1524 0082 012B     		cmp	r3, #1	@ diff,
 1525 0084 FBD9     		bls	.L50	@,
 1526              	.LVL117:
 1527              	.LBE548:
 1528              	.LBE547:
 1529              	.LBB549:
 1530              	.LBB550:
 1531              	.LBB551:
 1532              	.LBB552:
 1533              	.LBB553:
 1534              		.loc 4 104 0
 1535 0086 8023     		movs	r3, #128	@ tmp165,
 1536 0088 0022     		movs	r2, #0	@ tmp166,
 1537 008a 0849     		ldr	r1, .L58+4	@ tmp164,
 1538 008c DB00     		lsls	r3, r3, #3	@ tmp165, tmp165,
 1539 008e CA50     		str	r2, [r1, r3]	@ tmp166, MEM[(struct LPC_GPIO_T *)1342308352B].DATA
 1540              	.LVL118:
 1541              	.LBE553:
 1542              	.LBE552:
 1543              	.LBE551:
 1544              	.LBB554:
 1545              	.LBB555:
 1546              	.LBB556:
 1547 0090 0749     		ldr	r1, .L58+8	@ tmp167,
 1548              	.LBE556:
 1549              	.LBE555:
ARM GAS  /tmp/cchQViiZ.s 			page 45


 1550              	.LBE554:
 114:src/main.c    **** 
 1551              		.loc 1 114 0
 1552 0092 0620     		movs	r0, #6	@,
 1553              	.LBB559:
 1554              	.LBB558:
 1555              	.LBB557:
 1556              		.loc 4 104 0
 1557 0094 CA50     		str	r2, [r1, r3]	@ tmp166, MEM[(struct LPC_GPIO_T *)1342242816B].DATA
 1558              	.LVL119:
 1559              	.LBE557:
 1560              	.LBE558:
 1561              	.LBE559:
 114:src/main.c    **** 
 1562              		.loc 1 114 0
 1563 0096 FFF7FEFF 		bl	LCD_Cnvrt	@
 1564              	.LVL120:
 1565              	.LBE550:
 1566              	.LBE549:
 1567              	.LBB560:
 1568              	.LBB561:
  61:src/main.c    ****     uint32_t diff = 0;
 1569              		.loc 1 61 0
 1570 009a 2268     		ldr	r2, [r4]	@ startTime, msTicks
 1571              	.LVL121:
 1572              	.L51:
  64:src/main.c    ****     }
 1573              		.loc 1 64 0
 1574 009c 2368     		ldr	r3, [r4]	@ msTicks.1_3, msTicks
 1575              	.LVL122:
 1576 009e 9B1A     		subs	r3, r3, r2	@ diff, msTicks.1_3, startTime
 1577              	.LVL123:
  63:src/main.c    ****         diff = msTicks - startTime;
 1578              		.loc 1 63 0
 1579 00a0 012B     		cmp	r3, #1	@ diff,
 1580 00a2 FBD9     		bls	.L51	@,
 1581              	.LBE561:
 1582              	.LBE560:
 124:src/main.c    ****     Delay(40);
 125:src/main.c    ****     Pin_Write(RW, 0);
 126:src/main.c    ****     //set configuration//
 127:src/main.c    ****     // LCD_Special_Cmd(0b0011); //functionset
 128:src/main.c    ****     // Delay(1);
 129:src/main.c    ****     LCD_Cmd(0b00100000); //functionset
 130:src/main.c    ****     Delay(1);
 131:src/main.c    ****     LCD_Cmd(0b00100000); //functionset
 132:src/main.c    ****     Delay(1);
 133:src/main.c    ****     LCD_Cmd(0b00001100); //display on/off control
 134:src/main.c    ****     Delay(1);
 135:src/main.c    ****     LCD_Cmd(0b00000001); //display clear
 136:src/main.c    ****     Delay(2);
 137:src/main.c    ****     LCD_Cmd(0b00000110); //entry mode set
 138:src/main.c    ****     Delay(2);
 139:src/main.c    **** 
 140:src/main.c    **** }
 1583              		.loc 1 140 0
 1584              		@ sp needed	@
ARM GAS  /tmp/cchQViiZ.s 			page 46


 1585 00a4 10BD     		pop	{r4, pc}
 1586              	.L59:
 1587 00a6 C046     		.align	2
 1588              	.L58:
 1589 00a8 00000000 		.word	msTicks
 1590 00ac 00000250 		.word	1342308352
 1591 00b0 00000150 		.word	1342242816
 1592              		.cfi_endproc
 1593              	.LFE210:
 1594              		.size	Init_LCD, .-Init_LCD
 1595              		.global	__aeabi_uidiv
 1596              		.section	.text.startup.main,"ax",%progbits
 1597              		.align	1
 1598              		.p2align 2,,3
 1599              		.global	main
 1600              		.syntax unified
 1601              		.code	16
 1602              		.thumb_func
 1603              		.fpu softvfp
 1604              		.type	main, %function
 1605              	main:
 1606              	.LFB211:
 141:src/main.c    **** 
 142:src/main.c    **** 
 143:src/main.c    **** 
 144:src/main.c    **** int main(void)
 145:src/main.c    **** {
 1607              		.loc 1 145 0
 1608              		.cfi_startproc
 1609              		@ Volatile: function does not return.
 1610              		@ args = 0, pretend = 0, frame = 0
 1611              		@ frame_needed = 0, uses_anonymous_args = 0
 1612 0000 10B5     		push	{r4, lr}	@
 1613              		.cfi_def_cfa_offset 8
 1614              		.cfi_offset 4, -8
 1615              		.cfi_offset 14, -4
 146:src/main.c    **** 
 147:src/main.c    **** 	SystemCoreClockUpdate();
 1616              		.loc 1 147 0
 1617 0002 FFF7FEFF 		bl	SystemCoreClockUpdate	@
 1618              	.LVL124:
 148:src/main.c    **** 	if (SysTick_Config (SystemCoreClock / 1000)) {
 1619              		.loc 1 148 0
 1620 0006 FA21     		movs	r1, #250	@,
 1621 0008 124B     		ldr	r3, .L62	@ tmp117,
 1622              	.LVL125:
 1623 000a 8900     		lsls	r1, r1, #2	@,,
 1624 000c 1868     		ldr	r0, [r3]	@ SystemCoreClock, SystemCoreClock
 1625 000e FFF7FEFF 		bl	__aeabi_uidiv	@
 1626              	.LVL126:
 1627              	.LBB562:
 1628              	.LBB563:
 1629              	.LBB564:
 1630              	.LBB565:
 1631              		.file 5 "../../lpc11cx4-library/lpc_chip_11cxx_lib/inc/core_cm0.h"
   1:../../lpc11cx4-library/lpc_chip_11cxx_lib/inc/core_cm0.h **** /**************************************************************************//**
   2:../../lpc11cx4-library/lpc_chip_11cxx_lib/inc/core_cm0.h ****  * @file     core_cm0.h
ARM GAS  /tmp/cchQViiZ.s 			page 47


   3:../../lpc11cx4-library/lpc_chip_11cxx_lib/inc/core_cm0.h ****  * @brief    CMSIS Cortex-M0 Core Peripheral Access Layer Header File
   4:../../lpc11cx4-library/lpc_chip_11cxx_lib/inc/core_cm0.h ****  * @version  V3.01
   5:../../lpc11cx4-library/lpc_chip_11cxx_lib/inc/core_cm0.h ****  * @date     13. March 2012
   6:../../lpc11cx4-library/lpc_chip_11cxx_lib/inc/core_cm0.h ****  *
   7:../../lpc11cx4-library/lpc_chip_11cxx_lib/inc/core_cm0.h ****  * @note
   8:../../lpc11cx4-library/lpc_chip_11cxx_lib/inc/core_cm0.h ****  * Copyright (C) 2009-2012 ARM Limited. All rights reserved.
   9:../../lpc11cx4-library/lpc_chip_11cxx_lib/inc/core_cm0.h ****  *
  10:../../lpc11cx4-library/lpc_chip_11cxx_lib/inc/core_cm0.h ****  * @par
  11:../../lpc11cx4-library/lpc_chip_11cxx_lib/inc/core_cm0.h ****  * ARM Limited (ARM) is supplying this software for use with Cortex-M
  12:../../lpc11cx4-library/lpc_chip_11cxx_lib/inc/core_cm0.h ****  * processor based microcontrollers.  This file can be freely distributed
  13:../../lpc11cx4-library/lpc_chip_11cxx_lib/inc/core_cm0.h ****  * within development tools that are supporting such ARM based processors.
  14:../../lpc11cx4-library/lpc_chip_11cxx_lib/inc/core_cm0.h ****  *
  15:../../lpc11cx4-library/lpc_chip_11cxx_lib/inc/core_cm0.h ****  * @par
  16:../../lpc11cx4-library/lpc_chip_11cxx_lib/inc/core_cm0.h ****  * THIS SOFTWARE IS PROVIDED "AS IS".  NO WARRANTIES, WHETHER EXPRESS, IMPLIED
  17:../../lpc11cx4-library/lpc_chip_11cxx_lib/inc/core_cm0.h ****  * OR STATUTORY, INCLUDING, BUT NOT LIMITED TO, IMPLIED WARRANTIES OF
  18:../../lpc11cx4-library/lpc_chip_11cxx_lib/inc/core_cm0.h ****  * MERCHANTABILITY AND FITNESS FOR A PARTICULAR PURPOSE APPLY TO THIS SOFTWARE.
  19:../../lpc11cx4-library/lpc_chip_11cxx_lib/inc/core_cm0.h ****  * ARM SHALL NOT, IN ANY CIRCUMSTANCES, BE LIABLE FOR SPECIAL, INCIDENTAL, OR
  20:../../lpc11cx4-library/lpc_chip_11cxx_lib/inc/core_cm0.h ****  * CONSEQUENTIAL DAMAGES, FOR ANY REASON WHATSOEVER.
  21:../../lpc11cx4-library/lpc_chip_11cxx_lib/inc/core_cm0.h ****  *
  22:../../lpc11cx4-library/lpc_chip_11cxx_lib/inc/core_cm0.h ****  ******************************************************************************/
  23:../../lpc11cx4-library/lpc_chip_11cxx_lib/inc/core_cm0.h **** #if defined ( __ICCARM__ )
  24:../../lpc11cx4-library/lpc_chip_11cxx_lib/inc/core_cm0.h ****  #pragma system_include  /* treat file as system include file for MISRA check */
  25:../../lpc11cx4-library/lpc_chip_11cxx_lib/inc/core_cm0.h **** #endif
  26:../../lpc11cx4-library/lpc_chip_11cxx_lib/inc/core_cm0.h **** 
  27:../../lpc11cx4-library/lpc_chip_11cxx_lib/inc/core_cm0.h **** #ifdef __cplusplus
  28:../../lpc11cx4-library/lpc_chip_11cxx_lib/inc/core_cm0.h ****  extern "C" {
  29:../../lpc11cx4-library/lpc_chip_11cxx_lib/inc/core_cm0.h **** #endif
  30:../../lpc11cx4-library/lpc_chip_11cxx_lib/inc/core_cm0.h **** 
  31:../../lpc11cx4-library/lpc_chip_11cxx_lib/inc/core_cm0.h **** #ifndef __CORE_CM0_H_GENERIC
  32:../../lpc11cx4-library/lpc_chip_11cxx_lib/inc/core_cm0.h **** #define __CORE_CM0_H_GENERIC
  33:../../lpc11cx4-library/lpc_chip_11cxx_lib/inc/core_cm0.h **** 
  34:../../lpc11cx4-library/lpc_chip_11cxx_lib/inc/core_cm0.h **** /** \page CMSIS_MISRA_Exceptions  MISRA-C:2004 Compliance Exceptions
  35:../../lpc11cx4-library/lpc_chip_11cxx_lib/inc/core_cm0.h ****   CMSIS violates the following MISRA-C:2004 rules:
  36:../../lpc11cx4-library/lpc_chip_11cxx_lib/inc/core_cm0.h **** 
  37:../../lpc11cx4-library/lpc_chip_11cxx_lib/inc/core_cm0.h ****    \li Required Rule 8.5, object/function definition in header file.<br>
  38:../../lpc11cx4-library/lpc_chip_11cxx_lib/inc/core_cm0.h ****      Function definitions in header files are used to allow 'inlining'.
  39:../../lpc11cx4-library/lpc_chip_11cxx_lib/inc/core_cm0.h **** 
  40:../../lpc11cx4-library/lpc_chip_11cxx_lib/inc/core_cm0.h ****    \li Required Rule 18.4, declaration of union type or object of union type: '{...}'.<br>
  41:../../lpc11cx4-library/lpc_chip_11cxx_lib/inc/core_cm0.h ****      Unions are used for effective representation of core registers.
  42:../../lpc11cx4-library/lpc_chip_11cxx_lib/inc/core_cm0.h **** 
  43:../../lpc11cx4-library/lpc_chip_11cxx_lib/inc/core_cm0.h ****    \li Advisory Rule 19.7, Function-like macro defined.<br>
  44:../../lpc11cx4-library/lpc_chip_11cxx_lib/inc/core_cm0.h ****      Function-like macros are used to allow more efficient code.
  45:../../lpc11cx4-library/lpc_chip_11cxx_lib/inc/core_cm0.h ****  */
  46:../../lpc11cx4-library/lpc_chip_11cxx_lib/inc/core_cm0.h **** 
  47:../../lpc11cx4-library/lpc_chip_11cxx_lib/inc/core_cm0.h **** 
  48:../../lpc11cx4-library/lpc_chip_11cxx_lib/inc/core_cm0.h **** /*******************************************************************************
  49:../../lpc11cx4-library/lpc_chip_11cxx_lib/inc/core_cm0.h ****  *                 CMSIS definitions
  50:../../lpc11cx4-library/lpc_chip_11cxx_lib/inc/core_cm0.h ****  ******************************************************************************/
  51:../../lpc11cx4-library/lpc_chip_11cxx_lib/inc/core_cm0.h **** /** \ingroup Cortex_M0
  52:../../lpc11cx4-library/lpc_chip_11cxx_lib/inc/core_cm0.h ****   @{
  53:../../lpc11cx4-library/lpc_chip_11cxx_lib/inc/core_cm0.h ****  */
  54:../../lpc11cx4-library/lpc_chip_11cxx_lib/inc/core_cm0.h **** 
  55:../../lpc11cx4-library/lpc_chip_11cxx_lib/inc/core_cm0.h **** /*  CMSIS CM0 definitions */
  56:../../lpc11cx4-library/lpc_chip_11cxx_lib/inc/core_cm0.h **** #define __CM0_CMSIS_VERSION_MAIN  (0x03)                                   /*!< [31:16] CMSIS HAL m
  57:../../lpc11cx4-library/lpc_chip_11cxx_lib/inc/core_cm0.h **** #define __CM0_CMSIS_VERSION_SUB   (0x01)                                   /*!< [15:0]  CMSIS HAL s
  58:../../lpc11cx4-library/lpc_chip_11cxx_lib/inc/core_cm0.h **** #define __CM0_CMSIS_VERSION       ((__CM0_CMSIS_VERSION_MAIN << 16) | \
  59:../../lpc11cx4-library/lpc_chip_11cxx_lib/inc/core_cm0.h ****                                     __CM0_CMSIS_VERSION_SUB          )     /*!< CMSIS HAL version n
ARM GAS  /tmp/cchQViiZ.s 			page 48


  60:../../lpc11cx4-library/lpc_chip_11cxx_lib/inc/core_cm0.h **** 
  61:../../lpc11cx4-library/lpc_chip_11cxx_lib/inc/core_cm0.h **** #define __CORTEX_M                (0x00)                                   /*!< Cortex-M Core      
  62:../../lpc11cx4-library/lpc_chip_11cxx_lib/inc/core_cm0.h **** 
  63:../../lpc11cx4-library/lpc_chip_11cxx_lib/inc/core_cm0.h **** 
  64:../../lpc11cx4-library/lpc_chip_11cxx_lib/inc/core_cm0.h **** #if   defined ( __CC_ARM )
  65:../../lpc11cx4-library/lpc_chip_11cxx_lib/inc/core_cm0.h ****   #define __ASM            __asm                                      /*!< asm keyword for ARM Comp
  66:../../lpc11cx4-library/lpc_chip_11cxx_lib/inc/core_cm0.h ****   #define __INLINE         __inline                                   /*!< inline keyword for ARM C
  67:../../lpc11cx4-library/lpc_chip_11cxx_lib/inc/core_cm0.h ****   #define __STATIC_INLINE  static __inline
  68:../../lpc11cx4-library/lpc_chip_11cxx_lib/inc/core_cm0.h **** 
  69:../../lpc11cx4-library/lpc_chip_11cxx_lib/inc/core_cm0.h **** #elif defined ( __ICCARM__ )
  70:../../lpc11cx4-library/lpc_chip_11cxx_lib/inc/core_cm0.h ****   #define __ASM            __asm                                      /*!< asm keyword for IAR Comp
  71:../../lpc11cx4-library/lpc_chip_11cxx_lib/inc/core_cm0.h ****   #define __INLINE         inline                                     /*!< inline keyword for IAR C
  72:../../lpc11cx4-library/lpc_chip_11cxx_lib/inc/core_cm0.h ****   #define __STATIC_INLINE  static inline
  73:../../lpc11cx4-library/lpc_chip_11cxx_lib/inc/core_cm0.h **** 
  74:../../lpc11cx4-library/lpc_chip_11cxx_lib/inc/core_cm0.h **** #elif defined ( __GNUC__ )
  75:../../lpc11cx4-library/lpc_chip_11cxx_lib/inc/core_cm0.h ****   #define __ASM            __asm                                      /*!< asm keyword for GNU Comp
  76:../../lpc11cx4-library/lpc_chip_11cxx_lib/inc/core_cm0.h ****   #define __INLINE         inline                                     /*!< inline keyword for GNU C
  77:../../lpc11cx4-library/lpc_chip_11cxx_lib/inc/core_cm0.h ****   #define __STATIC_INLINE  static inline
  78:../../lpc11cx4-library/lpc_chip_11cxx_lib/inc/core_cm0.h **** 
  79:../../lpc11cx4-library/lpc_chip_11cxx_lib/inc/core_cm0.h **** #elif defined ( __TASKING__ )
  80:../../lpc11cx4-library/lpc_chip_11cxx_lib/inc/core_cm0.h ****   #define __ASM            __asm                                      /*!< asm keyword for TASKING 
  81:../../lpc11cx4-library/lpc_chip_11cxx_lib/inc/core_cm0.h ****   #define __INLINE         inline                                     /*!< inline keyword for TASKI
  82:../../lpc11cx4-library/lpc_chip_11cxx_lib/inc/core_cm0.h ****   #define __STATIC_INLINE  static inline
  83:../../lpc11cx4-library/lpc_chip_11cxx_lib/inc/core_cm0.h **** 
  84:../../lpc11cx4-library/lpc_chip_11cxx_lib/inc/core_cm0.h **** #endif
  85:../../lpc11cx4-library/lpc_chip_11cxx_lib/inc/core_cm0.h **** 
  86:../../lpc11cx4-library/lpc_chip_11cxx_lib/inc/core_cm0.h **** /** __FPU_USED indicates whether an FPU is used or not. This core does not support an FPU at all
  87:../../lpc11cx4-library/lpc_chip_11cxx_lib/inc/core_cm0.h **** */
  88:../../lpc11cx4-library/lpc_chip_11cxx_lib/inc/core_cm0.h **** #define __FPU_USED       0
  89:../../lpc11cx4-library/lpc_chip_11cxx_lib/inc/core_cm0.h **** 
  90:../../lpc11cx4-library/lpc_chip_11cxx_lib/inc/core_cm0.h **** #if defined ( __CC_ARM )
  91:../../lpc11cx4-library/lpc_chip_11cxx_lib/inc/core_cm0.h ****   #if defined __TARGET_FPU_VFP
  92:../../lpc11cx4-library/lpc_chip_11cxx_lib/inc/core_cm0.h ****     #warning "Compiler generates FPU instructions for a device without an FPU (check __FPU_PRESENT)
  93:../../lpc11cx4-library/lpc_chip_11cxx_lib/inc/core_cm0.h ****   #endif
  94:../../lpc11cx4-library/lpc_chip_11cxx_lib/inc/core_cm0.h **** 
  95:../../lpc11cx4-library/lpc_chip_11cxx_lib/inc/core_cm0.h **** #elif defined ( __ICCARM__ )
  96:../../lpc11cx4-library/lpc_chip_11cxx_lib/inc/core_cm0.h ****   #if defined __ARMVFP__
  97:../../lpc11cx4-library/lpc_chip_11cxx_lib/inc/core_cm0.h ****     #warning "Compiler generates FPU instructions for a device without an FPU (check __FPU_PRESENT)
  98:../../lpc11cx4-library/lpc_chip_11cxx_lib/inc/core_cm0.h ****   #endif
  99:../../lpc11cx4-library/lpc_chip_11cxx_lib/inc/core_cm0.h **** 
 100:../../lpc11cx4-library/lpc_chip_11cxx_lib/inc/core_cm0.h **** #elif defined ( __GNUC__ )
 101:../../lpc11cx4-library/lpc_chip_11cxx_lib/inc/core_cm0.h ****   #if defined (__VFP_FP__) && !defined(__SOFTFP__)
 102:../../lpc11cx4-library/lpc_chip_11cxx_lib/inc/core_cm0.h ****     #warning "Compiler generates FPU instructions for a device without an FPU (check __FPU_PRESENT)
 103:../../lpc11cx4-library/lpc_chip_11cxx_lib/inc/core_cm0.h ****   #endif
 104:../../lpc11cx4-library/lpc_chip_11cxx_lib/inc/core_cm0.h **** 
 105:../../lpc11cx4-library/lpc_chip_11cxx_lib/inc/core_cm0.h **** #elif defined ( __TASKING__ )
 106:../../lpc11cx4-library/lpc_chip_11cxx_lib/inc/core_cm0.h ****   #if defined __FPU_VFP__
 107:../../lpc11cx4-library/lpc_chip_11cxx_lib/inc/core_cm0.h ****     #error "Compiler generates FPU instructions for a device without an FPU (check __FPU_PRESENT)"
 108:../../lpc11cx4-library/lpc_chip_11cxx_lib/inc/core_cm0.h ****   #endif
 109:../../lpc11cx4-library/lpc_chip_11cxx_lib/inc/core_cm0.h **** #endif
 110:../../lpc11cx4-library/lpc_chip_11cxx_lib/inc/core_cm0.h **** 
 111:../../lpc11cx4-library/lpc_chip_11cxx_lib/inc/core_cm0.h **** #include <stdint.h>                      /* standard types definitions                      */
 112:../../lpc11cx4-library/lpc_chip_11cxx_lib/inc/core_cm0.h **** #include <core_cmInstr.h>                /* Core Instruction Access                         */
 113:../../lpc11cx4-library/lpc_chip_11cxx_lib/inc/core_cm0.h **** #include <core_cmFunc.h>                 /* Core Function Access                            */
 114:../../lpc11cx4-library/lpc_chip_11cxx_lib/inc/core_cm0.h **** 
 115:../../lpc11cx4-library/lpc_chip_11cxx_lib/inc/core_cm0.h **** #endif /* __CORE_CM0_H_GENERIC */
 116:../../lpc11cx4-library/lpc_chip_11cxx_lib/inc/core_cm0.h **** 
ARM GAS  /tmp/cchQViiZ.s 			page 49


 117:../../lpc11cx4-library/lpc_chip_11cxx_lib/inc/core_cm0.h **** #ifndef __CMSIS_GENERIC
 118:../../lpc11cx4-library/lpc_chip_11cxx_lib/inc/core_cm0.h **** 
 119:../../lpc11cx4-library/lpc_chip_11cxx_lib/inc/core_cm0.h **** #ifndef __CORE_CM0_H_DEPENDANT
 120:../../lpc11cx4-library/lpc_chip_11cxx_lib/inc/core_cm0.h **** #define __CORE_CM0_H_DEPENDANT
 121:../../lpc11cx4-library/lpc_chip_11cxx_lib/inc/core_cm0.h **** 
 122:../../lpc11cx4-library/lpc_chip_11cxx_lib/inc/core_cm0.h **** /* check device defines and use defaults */
 123:../../lpc11cx4-library/lpc_chip_11cxx_lib/inc/core_cm0.h **** #if defined __CHECK_DEVICE_DEFINES
 124:../../lpc11cx4-library/lpc_chip_11cxx_lib/inc/core_cm0.h ****   #ifndef __CM0_REV
 125:../../lpc11cx4-library/lpc_chip_11cxx_lib/inc/core_cm0.h ****     #define __CM0_REV               0x0000
 126:../../lpc11cx4-library/lpc_chip_11cxx_lib/inc/core_cm0.h ****     #warning "__CM0_REV not defined in device header file; using default!"
 127:../../lpc11cx4-library/lpc_chip_11cxx_lib/inc/core_cm0.h ****   #endif
 128:../../lpc11cx4-library/lpc_chip_11cxx_lib/inc/core_cm0.h **** 
 129:../../lpc11cx4-library/lpc_chip_11cxx_lib/inc/core_cm0.h ****   #ifndef __NVIC_PRIO_BITS
 130:../../lpc11cx4-library/lpc_chip_11cxx_lib/inc/core_cm0.h ****     #define __NVIC_PRIO_BITS          2
 131:../../lpc11cx4-library/lpc_chip_11cxx_lib/inc/core_cm0.h ****     #warning "__NVIC_PRIO_BITS not defined in device header file; using default!"
 132:../../lpc11cx4-library/lpc_chip_11cxx_lib/inc/core_cm0.h ****   #endif
 133:../../lpc11cx4-library/lpc_chip_11cxx_lib/inc/core_cm0.h **** 
 134:../../lpc11cx4-library/lpc_chip_11cxx_lib/inc/core_cm0.h ****   #ifndef __Vendor_SysTickConfig
 135:../../lpc11cx4-library/lpc_chip_11cxx_lib/inc/core_cm0.h ****     #define __Vendor_SysTickConfig    0
 136:../../lpc11cx4-library/lpc_chip_11cxx_lib/inc/core_cm0.h ****     #warning "__Vendor_SysTickConfig not defined in device header file; using default!"
 137:../../lpc11cx4-library/lpc_chip_11cxx_lib/inc/core_cm0.h ****   #endif
 138:../../lpc11cx4-library/lpc_chip_11cxx_lib/inc/core_cm0.h **** #endif
 139:../../lpc11cx4-library/lpc_chip_11cxx_lib/inc/core_cm0.h **** 
 140:../../lpc11cx4-library/lpc_chip_11cxx_lib/inc/core_cm0.h **** /* IO definitions (access restrictions to peripheral registers) */
 141:../../lpc11cx4-library/lpc_chip_11cxx_lib/inc/core_cm0.h **** /**
 142:../../lpc11cx4-library/lpc_chip_11cxx_lib/inc/core_cm0.h ****     \defgroup CMSIS_glob_defs CMSIS Global Defines
 143:../../lpc11cx4-library/lpc_chip_11cxx_lib/inc/core_cm0.h **** 
 144:../../lpc11cx4-library/lpc_chip_11cxx_lib/inc/core_cm0.h ****     <strong>IO Type Qualifiers</strong> are used
 145:../../lpc11cx4-library/lpc_chip_11cxx_lib/inc/core_cm0.h ****     \li to specify the access to peripheral variables.
 146:../../lpc11cx4-library/lpc_chip_11cxx_lib/inc/core_cm0.h ****     \li for automatic generation of peripheral register debug information.
 147:../../lpc11cx4-library/lpc_chip_11cxx_lib/inc/core_cm0.h **** */
 148:../../lpc11cx4-library/lpc_chip_11cxx_lib/inc/core_cm0.h **** #ifdef __cplusplus
 149:../../lpc11cx4-library/lpc_chip_11cxx_lib/inc/core_cm0.h ****   #define   __I     volatile             /*!< Defines 'read only' permissions                 */
 150:../../lpc11cx4-library/lpc_chip_11cxx_lib/inc/core_cm0.h **** #else
 151:../../lpc11cx4-library/lpc_chip_11cxx_lib/inc/core_cm0.h ****   #define   __I     volatile const       /*!< Defines 'read only' permissions                 */
 152:../../lpc11cx4-library/lpc_chip_11cxx_lib/inc/core_cm0.h **** #endif
 153:../../lpc11cx4-library/lpc_chip_11cxx_lib/inc/core_cm0.h **** #define     __O     volatile             /*!< Defines 'write only' permissions                */
 154:../../lpc11cx4-library/lpc_chip_11cxx_lib/inc/core_cm0.h **** #define     __IO    volatile             /*!< Defines 'read / write' permissions              */
 155:../../lpc11cx4-library/lpc_chip_11cxx_lib/inc/core_cm0.h **** 
 156:../../lpc11cx4-library/lpc_chip_11cxx_lib/inc/core_cm0.h **** /*@} end of group Cortex_M0 */
 157:../../lpc11cx4-library/lpc_chip_11cxx_lib/inc/core_cm0.h **** 
 158:../../lpc11cx4-library/lpc_chip_11cxx_lib/inc/core_cm0.h **** 
 159:../../lpc11cx4-library/lpc_chip_11cxx_lib/inc/core_cm0.h **** 
 160:../../lpc11cx4-library/lpc_chip_11cxx_lib/inc/core_cm0.h **** /*******************************************************************************
 161:../../lpc11cx4-library/lpc_chip_11cxx_lib/inc/core_cm0.h ****  *                 Register Abstraction
 162:../../lpc11cx4-library/lpc_chip_11cxx_lib/inc/core_cm0.h ****   Core Register contain:
 163:../../lpc11cx4-library/lpc_chip_11cxx_lib/inc/core_cm0.h ****   - Core Register
 164:../../lpc11cx4-library/lpc_chip_11cxx_lib/inc/core_cm0.h ****   - Core NVIC Register
 165:../../lpc11cx4-library/lpc_chip_11cxx_lib/inc/core_cm0.h ****   - Core SCB Register
 166:../../lpc11cx4-library/lpc_chip_11cxx_lib/inc/core_cm0.h ****   - Core SysTick Register
 167:../../lpc11cx4-library/lpc_chip_11cxx_lib/inc/core_cm0.h ****  ******************************************************************************/
 168:../../lpc11cx4-library/lpc_chip_11cxx_lib/inc/core_cm0.h **** /** \defgroup CMSIS_core_register Defines and Type Definitions
 169:../../lpc11cx4-library/lpc_chip_11cxx_lib/inc/core_cm0.h ****     \brief Type definitions and defines for Cortex-M processor based devices.
 170:../../lpc11cx4-library/lpc_chip_11cxx_lib/inc/core_cm0.h **** */
 171:../../lpc11cx4-library/lpc_chip_11cxx_lib/inc/core_cm0.h **** 
 172:../../lpc11cx4-library/lpc_chip_11cxx_lib/inc/core_cm0.h **** /** \ingroup    CMSIS_core_register
 173:../../lpc11cx4-library/lpc_chip_11cxx_lib/inc/core_cm0.h ****     \defgroup   CMSIS_CORE  Status and Control Registers
ARM GAS  /tmp/cchQViiZ.s 			page 50


 174:../../lpc11cx4-library/lpc_chip_11cxx_lib/inc/core_cm0.h ****     \brief  Core Register type definitions.
 175:../../lpc11cx4-library/lpc_chip_11cxx_lib/inc/core_cm0.h ****   @{
 176:../../lpc11cx4-library/lpc_chip_11cxx_lib/inc/core_cm0.h ****  */
 177:../../lpc11cx4-library/lpc_chip_11cxx_lib/inc/core_cm0.h **** 
 178:../../lpc11cx4-library/lpc_chip_11cxx_lib/inc/core_cm0.h **** /** \brief  Union type to access the Application Program Status Register (APSR).
 179:../../lpc11cx4-library/lpc_chip_11cxx_lib/inc/core_cm0.h ****  */
 180:../../lpc11cx4-library/lpc_chip_11cxx_lib/inc/core_cm0.h **** typedef union
 181:../../lpc11cx4-library/lpc_chip_11cxx_lib/inc/core_cm0.h **** {
 182:../../lpc11cx4-library/lpc_chip_11cxx_lib/inc/core_cm0.h ****   struct
 183:../../lpc11cx4-library/lpc_chip_11cxx_lib/inc/core_cm0.h ****   {
 184:../../lpc11cx4-library/lpc_chip_11cxx_lib/inc/core_cm0.h **** #if (__CORTEX_M != 0x04)
 185:../../lpc11cx4-library/lpc_chip_11cxx_lib/inc/core_cm0.h ****     uint32_t _reserved0:27;              /*!< bit:  0..26  Reserved                           */
 186:../../lpc11cx4-library/lpc_chip_11cxx_lib/inc/core_cm0.h **** #else
 187:../../lpc11cx4-library/lpc_chip_11cxx_lib/inc/core_cm0.h ****     uint32_t _reserved0:16;              /*!< bit:  0..15  Reserved                           */
 188:../../lpc11cx4-library/lpc_chip_11cxx_lib/inc/core_cm0.h ****     uint32_t GE:4;                       /*!< bit: 16..19  Greater than or Equal flags        */
 189:../../lpc11cx4-library/lpc_chip_11cxx_lib/inc/core_cm0.h ****     uint32_t _reserved1:7;               /*!< bit: 20..26  Reserved                           */
 190:../../lpc11cx4-library/lpc_chip_11cxx_lib/inc/core_cm0.h **** #endif
 191:../../lpc11cx4-library/lpc_chip_11cxx_lib/inc/core_cm0.h ****     uint32_t Q:1;                        /*!< bit:     27  Saturation condition flag          */
 192:../../lpc11cx4-library/lpc_chip_11cxx_lib/inc/core_cm0.h ****     uint32_t V:1;                        /*!< bit:     28  Overflow condition code flag       */
 193:../../lpc11cx4-library/lpc_chip_11cxx_lib/inc/core_cm0.h ****     uint32_t C:1;                        /*!< bit:     29  Carry condition code flag          */
 194:../../lpc11cx4-library/lpc_chip_11cxx_lib/inc/core_cm0.h ****     uint32_t Z:1;                        /*!< bit:     30  Zero condition code flag           */
 195:../../lpc11cx4-library/lpc_chip_11cxx_lib/inc/core_cm0.h ****     uint32_t N:1;                        /*!< bit:     31  Negative condition code flag       */
 196:../../lpc11cx4-library/lpc_chip_11cxx_lib/inc/core_cm0.h ****   } b;                                   /*!< Structure used for bit  access                  */
 197:../../lpc11cx4-library/lpc_chip_11cxx_lib/inc/core_cm0.h ****   uint32_t w;                            /*!< Type      used for word access                  */
 198:../../lpc11cx4-library/lpc_chip_11cxx_lib/inc/core_cm0.h **** } APSR_Type;
 199:../../lpc11cx4-library/lpc_chip_11cxx_lib/inc/core_cm0.h **** 
 200:../../lpc11cx4-library/lpc_chip_11cxx_lib/inc/core_cm0.h **** 
 201:../../lpc11cx4-library/lpc_chip_11cxx_lib/inc/core_cm0.h **** /** \brief  Union type to access the Interrupt Program Status Register (IPSR).
 202:../../lpc11cx4-library/lpc_chip_11cxx_lib/inc/core_cm0.h ****  */
 203:../../lpc11cx4-library/lpc_chip_11cxx_lib/inc/core_cm0.h **** typedef union
 204:../../lpc11cx4-library/lpc_chip_11cxx_lib/inc/core_cm0.h **** {
 205:../../lpc11cx4-library/lpc_chip_11cxx_lib/inc/core_cm0.h ****   struct
 206:../../lpc11cx4-library/lpc_chip_11cxx_lib/inc/core_cm0.h ****   {
 207:../../lpc11cx4-library/lpc_chip_11cxx_lib/inc/core_cm0.h ****     uint32_t ISR:9;                      /*!< bit:  0.. 8  Exception number                   */
 208:../../lpc11cx4-library/lpc_chip_11cxx_lib/inc/core_cm0.h ****     uint32_t _reserved0:23;              /*!< bit:  9..31  Reserved                           */
 209:../../lpc11cx4-library/lpc_chip_11cxx_lib/inc/core_cm0.h ****   } b;                                   /*!< Structure used for bit  access                  */
 210:../../lpc11cx4-library/lpc_chip_11cxx_lib/inc/core_cm0.h ****   uint32_t w;                            /*!< Type      used for word access                  */
 211:../../lpc11cx4-library/lpc_chip_11cxx_lib/inc/core_cm0.h **** } IPSR_Type;
 212:../../lpc11cx4-library/lpc_chip_11cxx_lib/inc/core_cm0.h **** 
 213:../../lpc11cx4-library/lpc_chip_11cxx_lib/inc/core_cm0.h **** 
 214:../../lpc11cx4-library/lpc_chip_11cxx_lib/inc/core_cm0.h **** /** \brief  Union type to access the Special-Purpose Program Status Registers (xPSR).
 215:../../lpc11cx4-library/lpc_chip_11cxx_lib/inc/core_cm0.h ****  */
 216:../../lpc11cx4-library/lpc_chip_11cxx_lib/inc/core_cm0.h **** typedef union
 217:../../lpc11cx4-library/lpc_chip_11cxx_lib/inc/core_cm0.h **** {
 218:../../lpc11cx4-library/lpc_chip_11cxx_lib/inc/core_cm0.h ****   struct
 219:../../lpc11cx4-library/lpc_chip_11cxx_lib/inc/core_cm0.h ****   {
 220:../../lpc11cx4-library/lpc_chip_11cxx_lib/inc/core_cm0.h ****     uint32_t ISR:9;                      /*!< bit:  0.. 8  Exception number                   */
 221:../../lpc11cx4-library/lpc_chip_11cxx_lib/inc/core_cm0.h **** #if (__CORTEX_M != 0x04)
 222:../../lpc11cx4-library/lpc_chip_11cxx_lib/inc/core_cm0.h ****     uint32_t _reserved0:15;              /*!< bit:  9..23  Reserved                           */
 223:../../lpc11cx4-library/lpc_chip_11cxx_lib/inc/core_cm0.h **** #else
 224:../../lpc11cx4-library/lpc_chip_11cxx_lib/inc/core_cm0.h ****     uint32_t _reserved0:7;               /*!< bit:  9..15  Reserved                           */
 225:../../lpc11cx4-library/lpc_chip_11cxx_lib/inc/core_cm0.h ****     uint32_t GE:4;                       /*!< bit: 16..19  Greater than or Equal flags        */
 226:../../lpc11cx4-library/lpc_chip_11cxx_lib/inc/core_cm0.h ****     uint32_t _reserved1:4;               /*!< bit: 20..23  Reserved                           */
 227:../../lpc11cx4-library/lpc_chip_11cxx_lib/inc/core_cm0.h **** #endif
 228:../../lpc11cx4-library/lpc_chip_11cxx_lib/inc/core_cm0.h ****     uint32_t T:1;                        /*!< bit:     24  Thumb bit        (read 0)          */
 229:../../lpc11cx4-library/lpc_chip_11cxx_lib/inc/core_cm0.h ****     uint32_t IT:2;                       /*!< bit: 25..26  saved IT state   (read 0)          */
 230:../../lpc11cx4-library/lpc_chip_11cxx_lib/inc/core_cm0.h ****     uint32_t Q:1;                        /*!< bit:     27  Saturation condition flag          */
ARM GAS  /tmp/cchQViiZ.s 			page 51


 231:../../lpc11cx4-library/lpc_chip_11cxx_lib/inc/core_cm0.h ****     uint32_t V:1;                        /*!< bit:     28  Overflow condition code flag       */
 232:../../lpc11cx4-library/lpc_chip_11cxx_lib/inc/core_cm0.h ****     uint32_t C:1;                        /*!< bit:     29  Carry condition code flag          */
 233:../../lpc11cx4-library/lpc_chip_11cxx_lib/inc/core_cm0.h ****     uint32_t Z:1;                        /*!< bit:     30  Zero condition code flag           */
 234:../../lpc11cx4-library/lpc_chip_11cxx_lib/inc/core_cm0.h ****     uint32_t N:1;                        /*!< bit:     31  Negative condition code flag       */
 235:../../lpc11cx4-library/lpc_chip_11cxx_lib/inc/core_cm0.h ****   } b;                                   /*!< Structure used for bit  access                  */
 236:../../lpc11cx4-library/lpc_chip_11cxx_lib/inc/core_cm0.h ****   uint32_t w;                            /*!< Type      used for word access                  */
 237:../../lpc11cx4-library/lpc_chip_11cxx_lib/inc/core_cm0.h **** } xPSR_Type;
 238:../../lpc11cx4-library/lpc_chip_11cxx_lib/inc/core_cm0.h **** 
 239:../../lpc11cx4-library/lpc_chip_11cxx_lib/inc/core_cm0.h **** 
 240:../../lpc11cx4-library/lpc_chip_11cxx_lib/inc/core_cm0.h **** /** \brief  Union type to access the Control Registers (CONTROL).
 241:../../lpc11cx4-library/lpc_chip_11cxx_lib/inc/core_cm0.h ****  */
 242:../../lpc11cx4-library/lpc_chip_11cxx_lib/inc/core_cm0.h **** typedef union
 243:../../lpc11cx4-library/lpc_chip_11cxx_lib/inc/core_cm0.h **** {
 244:../../lpc11cx4-library/lpc_chip_11cxx_lib/inc/core_cm0.h ****   struct
 245:../../lpc11cx4-library/lpc_chip_11cxx_lib/inc/core_cm0.h ****   {
 246:../../lpc11cx4-library/lpc_chip_11cxx_lib/inc/core_cm0.h ****     uint32_t nPRIV:1;                    /*!< bit:      0  Execution privilege in Thread mode */
 247:../../lpc11cx4-library/lpc_chip_11cxx_lib/inc/core_cm0.h ****     uint32_t SPSEL:1;                    /*!< bit:      1  Stack to be used                   */
 248:../../lpc11cx4-library/lpc_chip_11cxx_lib/inc/core_cm0.h ****     uint32_t FPCA:1;                     /*!< bit:      2  FP extension active flag           */
 249:../../lpc11cx4-library/lpc_chip_11cxx_lib/inc/core_cm0.h ****     uint32_t _reserved0:29;              /*!< bit:  3..31  Reserved                           */
 250:../../lpc11cx4-library/lpc_chip_11cxx_lib/inc/core_cm0.h ****   } b;                                   /*!< Structure used for bit  access                  */
 251:../../lpc11cx4-library/lpc_chip_11cxx_lib/inc/core_cm0.h ****   uint32_t w;                            /*!< Type      used for word access                  */
 252:../../lpc11cx4-library/lpc_chip_11cxx_lib/inc/core_cm0.h **** } CONTROL_Type;
 253:../../lpc11cx4-library/lpc_chip_11cxx_lib/inc/core_cm0.h **** 
 254:../../lpc11cx4-library/lpc_chip_11cxx_lib/inc/core_cm0.h **** /*@} end of group CMSIS_CORE */
 255:../../lpc11cx4-library/lpc_chip_11cxx_lib/inc/core_cm0.h **** 
 256:../../lpc11cx4-library/lpc_chip_11cxx_lib/inc/core_cm0.h **** 
 257:../../lpc11cx4-library/lpc_chip_11cxx_lib/inc/core_cm0.h **** /** \ingroup    CMSIS_core_register
 258:../../lpc11cx4-library/lpc_chip_11cxx_lib/inc/core_cm0.h ****     \defgroup   CMSIS_NVIC  Nested Vectored Interrupt Controller (NVIC)
 259:../../lpc11cx4-library/lpc_chip_11cxx_lib/inc/core_cm0.h ****     \brief      Type definitions for the NVIC Registers
 260:../../lpc11cx4-library/lpc_chip_11cxx_lib/inc/core_cm0.h ****   @{
 261:../../lpc11cx4-library/lpc_chip_11cxx_lib/inc/core_cm0.h ****  */
 262:../../lpc11cx4-library/lpc_chip_11cxx_lib/inc/core_cm0.h **** 
 263:../../lpc11cx4-library/lpc_chip_11cxx_lib/inc/core_cm0.h **** /** \brief  Structure type to access the Nested Vectored Interrupt Controller (NVIC).
 264:../../lpc11cx4-library/lpc_chip_11cxx_lib/inc/core_cm0.h ****  */
 265:../../lpc11cx4-library/lpc_chip_11cxx_lib/inc/core_cm0.h **** typedef struct
 266:../../lpc11cx4-library/lpc_chip_11cxx_lib/inc/core_cm0.h **** {
 267:../../lpc11cx4-library/lpc_chip_11cxx_lib/inc/core_cm0.h ****   __IO uint32_t ISER[1];                 /*!< Offset: 0x000 (R/W)  Interrupt Set Enable Register   
 268:../../lpc11cx4-library/lpc_chip_11cxx_lib/inc/core_cm0.h ****        uint32_t RESERVED0[31];
 269:../../lpc11cx4-library/lpc_chip_11cxx_lib/inc/core_cm0.h ****   __IO uint32_t ICER[1];                 /*!< Offset: 0x080 (R/W)  Interrupt Clear Enable Register 
 270:../../lpc11cx4-library/lpc_chip_11cxx_lib/inc/core_cm0.h ****        uint32_t RSERVED1[31];
 271:../../lpc11cx4-library/lpc_chip_11cxx_lib/inc/core_cm0.h ****   __IO uint32_t ISPR[1];                 /*!< Offset: 0x100 (R/W)  Interrupt Set Pending Register  
 272:../../lpc11cx4-library/lpc_chip_11cxx_lib/inc/core_cm0.h ****        uint32_t RESERVED2[31];
 273:../../lpc11cx4-library/lpc_chip_11cxx_lib/inc/core_cm0.h ****   __IO uint32_t ICPR[1];                 /*!< Offset: 0x180 (R/W)  Interrupt Clear Pending Register
 274:../../lpc11cx4-library/lpc_chip_11cxx_lib/inc/core_cm0.h ****        uint32_t RESERVED3[31];
 275:../../lpc11cx4-library/lpc_chip_11cxx_lib/inc/core_cm0.h ****        uint32_t RESERVED4[64];
 276:../../lpc11cx4-library/lpc_chip_11cxx_lib/inc/core_cm0.h ****   __IO uint32_t IP[8];                   /*!< Offset: 0x300 (R/W)  Interrupt Priority Register     
 277:../../lpc11cx4-library/lpc_chip_11cxx_lib/inc/core_cm0.h **** }  NVIC_Type;
 278:../../lpc11cx4-library/lpc_chip_11cxx_lib/inc/core_cm0.h **** 
 279:../../lpc11cx4-library/lpc_chip_11cxx_lib/inc/core_cm0.h **** /*@} end of group CMSIS_NVIC */
 280:../../lpc11cx4-library/lpc_chip_11cxx_lib/inc/core_cm0.h **** 
 281:../../lpc11cx4-library/lpc_chip_11cxx_lib/inc/core_cm0.h **** 
 282:../../lpc11cx4-library/lpc_chip_11cxx_lib/inc/core_cm0.h **** /** \ingroup  CMSIS_core_register
 283:../../lpc11cx4-library/lpc_chip_11cxx_lib/inc/core_cm0.h ****     \defgroup CMSIS_SCB     System Control Block (SCB)
 284:../../lpc11cx4-library/lpc_chip_11cxx_lib/inc/core_cm0.h ****     \brief      Type definitions for the System Control Block Registers
 285:../../lpc11cx4-library/lpc_chip_11cxx_lib/inc/core_cm0.h ****   @{
 286:../../lpc11cx4-library/lpc_chip_11cxx_lib/inc/core_cm0.h ****  */
 287:../../lpc11cx4-library/lpc_chip_11cxx_lib/inc/core_cm0.h **** 
ARM GAS  /tmp/cchQViiZ.s 			page 52


 288:../../lpc11cx4-library/lpc_chip_11cxx_lib/inc/core_cm0.h **** /** \brief  Structure type to access the System Control Block (SCB).
 289:../../lpc11cx4-library/lpc_chip_11cxx_lib/inc/core_cm0.h ****  */
 290:../../lpc11cx4-library/lpc_chip_11cxx_lib/inc/core_cm0.h **** typedef struct
 291:../../lpc11cx4-library/lpc_chip_11cxx_lib/inc/core_cm0.h **** {
 292:../../lpc11cx4-library/lpc_chip_11cxx_lib/inc/core_cm0.h ****   __I  uint32_t CPUID;                   /*!< Offset: 0x000 (R/ )  CPUID Base Register             
 293:../../lpc11cx4-library/lpc_chip_11cxx_lib/inc/core_cm0.h ****   __IO uint32_t ICSR;                    /*!< Offset: 0x004 (R/W)  Interrupt Control and State Regi
 294:../../lpc11cx4-library/lpc_chip_11cxx_lib/inc/core_cm0.h ****        uint32_t RESERVED0;
 295:../../lpc11cx4-library/lpc_chip_11cxx_lib/inc/core_cm0.h ****   __IO uint32_t AIRCR;                   /*!< Offset: 0x00C (R/W)  Application Interrupt and Reset 
 296:../../lpc11cx4-library/lpc_chip_11cxx_lib/inc/core_cm0.h ****   __IO uint32_t SCR;                     /*!< Offset: 0x010 (R/W)  System Control Register         
 297:../../lpc11cx4-library/lpc_chip_11cxx_lib/inc/core_cm0.h ****   __IO uint32_t CCR;                     /*!< Offset: 0x014 (R/W)  Configuration Control Register  
 298:../../lpc11cx4-library/lpc_chip_11cxx_lib/inc/core_cm0.h ****        uint32_t RESERVED1;
 299:../../lpc11cx4-library/lpc_chip_11cxx_lib/inc/core_cm0.h ****   __IO uint32_t SHP[2];                  /*!< Offset: 0x01C (R/W)  System Handlers Priority Registe
 300:../../lpc11cx4-library/lpc_chip_11cxx_lib/inc/core_cm0.h ****   __IO uint32_t SHCSR;                   /*!< Offset: 0x024 (R/W)  System Handler Control and State
 301:../../lpc11cx4-library/lpc_chip_11cxx_lib/inc/core_cm0.h **** } SCB_Type;
 302:../../lpc11cx4-library/lpc_chip_11cxx_lib/inc/core_cm0.h **** 
 303:../../lpc11cx4-library/lpc_chip_11cxx_lib/inc/core_cm0.h **** /* SCB CPUID Register Definitions */
 304:../../lpc11cx4-library/lpc_chip_11cxx_lib/inc/core_cm0.h **** #define SCB_CPUID_IMPLEMENTER_Pos          24                                             /*!< SCB 
 305:../../lpc11cx4-library/lpc_chip_11cxx_lib/inc/core_cm0.h **** #define SCB_CPUID_IMPLEMENTER_Msk          (0xFFUL << SCB_CPUID_IMPLEMENTER_Pos)          /*!< SCB 
 306:../../lpc11cx4-library/lpc_chip_11cxx_lib/inc/core_cm0.h **** 
 307:../../lpc11cx4-library/lpc_chip_11cxx_lib/inc/core_cm0.h **** #define SCB_CPUID_VARIANT_Pos              20                                             /*!< SCB 
 308:../../lpc11cx4-library/lpc_chip_11cxx_lib/inc/core_cm0.h **** #define SCB_CPUID_VARIANT_Msk              (0xFUL << SCB_CPUID_VARIANT_Pos)               /*!< SCB 
 309:../../lpc11cx4-library/lpc_chip_11cxx_lib/inc/core_cm0.h **** 
 310:../../lpc11cx4-library/lpc_chip_11cxx_lib/inc/core_cm0.h **** #define SCB_CPUID_ARCHITECTURE_Pos         16                                             /*!< SCB 
 311:../../lpc11cx4-library/lpc_chip_11cxx_lib/inc/core_cm0.h **** #define SCB_CPUID_ARCHITECTURE_Msk         (0xFUL << SCB_CPUID_ARCHITECTURE_Pos)          /*!< SCB 
 312:../../lpc11cx4-library/lpc_chip_11cxx_lib/inc/core_cm0.h **** 
 313:../../lpc11cx4-library/lpc_chip_11cxx_lib/inc/core_cm0.h **** #define SCB_CPUID_PARTNO_Pos                4                                             /*!< SCB 
 314:../../lpc11cx4-library/lpc_chip_11cxx_lib/inc/core_cm0.h **** #define SCB_CPUID_PARTNO_Msk               (0xFFFUL << SCB_CPUID_PARTNO_Pos)              /*!< SCB 
 315:../../lpc11cx4-library/lpc_chip_11cxx_lib/inc/core_cm0.h **** 
 316:../../lpc11cx4-library/lpc_chip_11cxx_lib/inc/core_cm0.h **** #define SCB_CPUID_REVISION_Pos              0                                             /*!< SCB 
 317:../../lpc11cx4-library/lpc_chip_11cxx_lib/inc/core_cm0.h **** #define SCB_CPUID_REVISION_Msk             (0xFUL << SCB_CPUID_REVISION_Pos)              /*!< SCB 
 318:../../lpc11cx4-library/lpc_chip_11cxx_lib/inc/core_cm0.h **** 
 319:../../lpc11cx4-library/lpc_chip_11cxx_lib/inc/core_cm0.h **** /* SCB Interrupt Control State Register Definitions */
 320:../../lpc11cx4-library/lpc_chip_11cxx_lib/inc/core_cm0.h **** #define SCB_ICSR_NMIPENDSET_Pos            31                                             /*!< SCB 
 321:../../lpc11cx4-library/lpc_chip_11cxx_lib/inc/core_cm0.h **** #define SCB_ICSR_NMIPENDSET_Msk            (1UL << SCB_ICSR_NMIPENDSET_Pos)               /*!< SCB 
 322:../../lpc11cx4-library/lpc_chip_11cxx_lib/inc/core_cm0.h **** 
 323:../../lpc11cx4-library/lpc_chip_11cxx_lib/inc/core_cm0.h **** #define SCB_ICSR_PENDSVSET_Pos             28                                             /*!< SCB 
 324:../../lpc11cx4-library/lpc_chip_11cxx_lib/inc/core_cm0.h **** #define SCB_ICSR_PENDSVSET_Msk             (1UL << SCB_ICSR_PENDSVSET_Pos)                /*!< SCB 
 325:../../lpc11cx4-library/lpc_chip_11cxx_lib/inc/core_cm0.h **** 
 326:../../lpc11cx4-library/lpc_chip_11cxx_lib/inc/core_cm0.h **** #define SCB_ICSR_PENDSVCLR_Pos             27                                             /*!< SCB 
 327:../../lpc11cx4-library/lpc_chip_11cxx_lib/inc/core_cm0.h **** #define SCB_ICSR_PENDSVCLR_Msk             (1UL << SCB_ICSR_PENDSVCLR_Pos)                /*!< SCB 
 328:../../lpc11cx4-library/lpc_chip_11cxx_lib/inc/core_cm0.h **** 
 329:../../lpc11cx4-library/lpc_chip_11cxx_lib/inc/core_cm0.h **** #define SCB_ICSR_PENDSTSET_Pos             26                                             /*!< SCB 
 330:../../lpc11cx4-library/lpc_chip_11cxx_lib/inc/core_cm0.h **** #define SCB_ICSR_PENDSTSET_Msk             (1UL << SCB_ICSR_PENDSTSET_Pos)                /*!< SCB 
 331:../../lpc11cx4-library/lpc_chip_11cxx_lib/inc/core_cm0.h **** 
 332:../../lpc11cx4-library/lpc_chip_11cxx_lib/inc/core_cm0.h **** #define SCB_ICSR_PENDSTCLR_Pos             25                                             /*!< SCB 
 333:../../lpc11cx4-library/lpc_chip_11cxx_lib/inc/core_cm0.h **** #define SCB_ICSR_PENDSTCLR_Msk             (1UL << SCB_ICSR_PENDSTCLR_Pos)                /*!< SCB 
 334:../../lpc11cx4-library/lpc_chip_11cxx_lib/inc/core_cm0.h **** 
 335:../../lpc11cx4-library/lpc_chip_11cxx_lib/inc/core_cm0.h **** #define SCB_ICSR_ISRPREEMPT_Pos            23                                             /*!< SCB 
 336:../../lpc11cx4-library/lpc_chip_11cxx_lib/inc/core_cm0.h **** #define SCB_ICSR_ISRPREEMPT_Msk            (1UL << SCB_ICSR_ISRPREEMPT_Pos)               /*!< SCB 
 337:../../lpc11cx4-library/lpc_chip_11cxx_lib/inc/core_cm0.h **** 
 338:../../lpc11cx4-library/lpc_chip_11cxx_lib/inc/core_cm0.h **** #define SCB_ICSR_ISRPENDING_Pos            22                                             /*!< SCB 
 339:../../lpc11cx4-library/lpc_chip_11cxx_lib/inc/core_cm0.h **** #define SCB_ICSR_ISRPENDING_Msk            (1UL << SCB_ICSR_ISRPENDING_Pos)               /*!< SCB 
 340:../../lpc11cx4-library/lpc_chip_11cxx_lib/inc/core_cm0.h **** 
 341:../../lpc11cx4-library/lpc_chip_11cxx_lib/inc/core_cm0.h **** #define SCB_ICSR_VECTPENDING_Pos           12                                             /*!< SCB 
 342:../../lpc11cx4-library/lpc_chip_11cxx_lib/inc/core_cm0.h **** #define SCB_ICSR_VECTPENDING_Msk           (0x1FFUL << SCB_ICSR_VECTPENDING_Pos)          /*!< SCB 
 343:../../lpc11cx4-library/lpc_chip_11cxx_lib/inc/core_cm0.h **** 
 344:../../lpc11cx4-library/lpc_chip_11cxx_lib/inc/core_cm0.h **** #define SCB_ICSR_VECTACTIVE_Pos             0                                             /*!< SCB 
ARM GAS  /tmp/cchQViiZ.s 			page 53


 345:../../lpc11cx4-library/lpc_chip_11cxx_lib/inc/core_cm0.h **** #define SCB_ICSR_VECTACTIVE_Msk            (0x1FFUL << SCB_ICSR_VECTACTIVE_Pos)           /*!< SCB 
 346:../../lpc11cx4-library/lpc_chip_11cxx_lib/inc/core_cm0.h **** 
 347:../../lpc11cx4-library/lpc_chip_11cxx_lib/inc/core_cm0.h **** /* SCB Application Interrupt and Reset Control Register Definitions */
 348:../../lpc11cx4-library/lpc_chip_11cxx_lib/inc/core_cm0.h **** #define SCB_AIRCR_VECTKEY_Pos              16                                             /*!< SCB 
 349:../../lpc11cx4-library/lpc_chip_11cxx_lib/inc/core_cm0.h **** #define SCB_AIRCR_VECTKEY_Msk              (0xFFFFUL << SCB_AIRCR_VECTKEY_Pos)            /*!< SCB 
 350:../../lpc11cx4-library/lpc_chip_11cxx_lib/inc/core_cm0.h **** 
 351:../../lpc11cx4-library/lpc_chip_11cxx_lib/inc/core_cm0.h **** #define SCB_AIRCR_VECTKEYSTAT_Pos          16                                             /*!< SCB 
 352:../../lpc11cx4-library/lpc_chip_11cxx_lib/inc/core_cm0.h **** #define SCB_AIRCR_VECTKEYSTAT_Msk          (0xFFFFUL << SCB_AIRCR_VECTKEYSTAT_Pos)        /*!< SCB 
 353:../../lpc11cx4-library/lpc_chip_11cxx_lib/inc/core_cm0.h **** 
 354:../../lpc11cx4-library/lpc_chip_11cxx_lib/inc/core_cm0.h **** #define SCB_AIRCR_ENDIANESS_Pos            15                                             /*!< SCB 
 355:../../lpc11cx4-library/lpc_chip_11cxx_lib/inc/core_cm0.h **** #define SCB_AIRCR_ENDIANESS_Msk            (1UL << SCB_AIRCR_ENDIANESS_Pos)               /*!< SCB 
 356:../../lpc11cx4-library/lpc_chip_11cxx_lib/inc/core_cm0.h **** 
 357:../../lpc11cx4-library/lpc_chip_11cxx_lib/inc/core_cm0.h **** #define SCB_AIRCR_SYSRESETREQ_Pos           2                                             /*!< SCB 
 358:../../lpc11cx4-library/lpc_chip_11cxx_lib/inc/core_cm0.h **** #define SCB_AIRCR_SYSRESETREQ_Msk          (1UL << SCB_AIRCR_SYSRESETREQ_Pos)             /*!< SCB 
 359:../../lpc11cx4-library/lpc_chip_11cxx_lib/inc/core_cm0.h **** 
 360:../../lpc11cx4-library/lpc_chip_11cxx_lib/inc/core_cm0.h **** #define SCB_AIRCR_VECTCLRACTIVE_Pos         1                                             /*!< SCB 
 361:../../lpc11cx4-library/lpc_chip_11cxx_lib/inc/core_cm0.h **** #define SCB_AIRCR_VECTCLRACTIVE_Msk        (1UL << SCB_AIRCR_VECTCLRACTIVE_Pos)           /*!< SCB 
 362:../../lpc11cx4-library/lpc_chip_11cxx_lib/inc/core_cm0.h **** 
 363:../../lpc11cx4-library/lpc_chip_11cxx_lib/inc/core_cm0.h **** /* SCB System Control Register Definitions */
 364:../../lpc11cx4-library/lpc_chip_11cxx_lib/inc/core_cm0.h **** #define SCB_SCR_SEVONPEND_Pos               4                                             /*!< SCB 
 365:../../lpc11cx4-library/lpc_chip_11cxx_lib/inc/core_cm0.h **** #define SCB_SCR_SEVONPEND_Msk              (1UL << SCB_SCR_SEVONPEND_Pos)                 /*!< SCB 
 366:../../lpc11cx4-library/lpc_chip_11cxx_lib/inc/core_cm0.h **** 
 367:../../lpc11cx4-library/lpc_chip_11cxx_lib/inc/core_cm0.h **** #define SCB_SCR_SLEEPDEEP_Pos               2                                             /*!< SCB 
 368:../../lpc11cx4-library/lpc_chip_11cxx_lib/inc/core_cm0.h **** #define SCB_SCR_SLEEPDEEP_Msk              (1UL << SCB_SCR_SLEEPDEEP_Pos)                 /*!< SCB 
 369:../../lpc11cx4-library/lpc_chip_11cxx_lib/inc/core_cm0.h **** 
 370:../../lpc11cx4-library/lpc_chip_11cxx_lib/inc/core_cm0.h **** #define SCB_SCR_SLEEPONEXIT_Pos             1                                             /*!< SCB 
 371:../../lpc11cx4-library/lpc_chip_11cxx_lib/inc/core_cm0.h **** #define SCB_SCR_SLEEPONEXIT_Msk            (1UL << SCB_SCR_SLEEPONEXIT_Pos)               /*!< SCB 
 372:../../lpc11cx4-library/lpc_chip_11cxx_lib/inc/core_cm0.h **** 
 373:../../lpc11cx4-library/lpc_chip_11cxx_lib/inc/core_cm0.h **** /* SCB Configuration Control Register Definitions */
 374:../../lpc11cx4-library/lpc_chip_11cxx_lib/inc/core_cm0.h **** #define SCB_CCR_STKALIGN_Pos                9                                             /*!< SCB 
 375:../../lpc11cx4-library/lpc_chip_11cxx_lib/inc/core_cm0.h **** #define SCB_CCR_STKALIGN_Msk               (1UL << SCB_CCR_STKALIGN_Pos)                  /*!< SCB 
 376:../../lpc11cx4-library/lpc_chip_11cxx_lib/inc/core_cm0.h **** 
 377:../../lpc11cx4-library/lpc_chip_11cxx_lib/inc/core_cm0.h **** #define SCB_CCR_UNALIGN_TRP_Pos             3                                             /*!< SCB 
 378:../../lpc11cx4-library/lpc_chip_11cxx_lib/inc/core_cm0.h **** #define SCB_CCR_UNALIGN_TRP_Msk            (1UL << SCB_CCR_UNALIGN_TRP_Pos)               /*!< SCB 
 379:../../lpc11cx4-library/lpc_chip_11cxx_lib/inc/core_cm0.h **** 
 380:../../lpc11cx4-library/lpc_chip_11cxx_lib/inc/core_cm0.h **** /* SCB System Handler Control and State Register Definitions */
 381:../../lpc11cx4-library/lpc_chip_11cxx_lib/inc/core_cm0.h **** #define SCB_SHCSR_SVCALLPENDED_Pos         15                                             /*!< SCB 
 382:../../lpc11cx4-library/lpc_chip_11cxx_lib/inc/core_cm0.h **** #define SCB_SHCSR_SVCALLPENDED_Msk         (1UL << SCB_SHCSR_SVCALLPENDED_Pos)            /*!< SCB 
 383:../../lpc11cx4-library/lpc_chip_11cxx_lib/inc/core_cm0.h **** 
 384:../../lpc11cx4-library/lpc_chip_11cxx_lib/inc/core_cm0.h **** /*@} end of group CMSIS_SCB */
 385:../../lpc11cx4-library/lpc_chip_11cxx_lib/inc/core_cm0.h **** 
 386:../../lpc11cx4-library/lpc_chip_11cxx_lib/inc/core_cm0.h **** 
 387:../../lpc11cx4-library/lpc_chip_11cxx_lib/inc/core_cm0.h **** /** \ingroup  CMSIS_core_register
 388:../../lpc11cx4-library/lpc_chip_11cxx_lib/inc/core_cm0.h ****     \defgroup CMSIS_SysTick     System Tick Timer (SysTick)
 389:../../lpc11cx4-library/lpc_chip_11cxx_lib/inc/core_cm0.h ****     \brief      Type definitions for the System Timer Registers.
 390:../../lpc11cx4-library/lpc_chip_11cxx_lib/inc/core_cm0.h ****   @{
 391:../../lpc11cx4-library/lpc_chip_11cxx_lib/inc/core_cm0.h ****  */
 392:../../lpc11cx4-library/lpc_chip_11cxx_lib/inc/core_cm0.h **** 
 393:../../lpc11cx4-library/lpc_chip_11cxx_lib/inc/core_cm0.h **** /** \brief  Structure type to access the System Timer (SysTick).
 394:../../lpc11cx4-library/lpc_chip_11cxx_lib/inc/core_cm0.h ****  */
 395:../../lpc11cx4-library/lpc_chip_11cxx_lib/inc/core_cm0.h **** typedef struct
 396:../../lpc11cx4-library/lpc_chip_11cxx_lib/inc/core_cm0.h **** {
 397:../../lpc11cx4-library/lpc_chip_11cxx_lib/inc/core_cm0.h ****   __IO uint32_t CTRL;                    /*!< Offset: 0x000 (R/W)  SysTick Control and Status Regis
 398:../../lpc11cx4-library/lpc_chip_11cxx_lib/inc/core_cm0.h ****   __IO uint32_t LOAD;                    /*!< Offset: 0x004 (R/W)  SysTick Reload Value Register   
 399:../../lpc11cx4-library/lpc_chip_11cxx_lib/inc/core_cm0.h ****   __IO uint32_t VAL;                     /*!< Offset: 0x008 (R/W)  SysTick Current Value Register  
 400:../../lpc11cx4-library/lpc_chip_11cxx_lib/inc/core_cm0.h ****   __I  uint32_t CALIB;                   /*!< Offset: 0x00C (R/ )  SysTick Calibration Register    
 401:../../lpc11cx4-library/lpc_chip_11cxx_lib/inc/core_cm0.h **** } SysTick_Type;
ARM GAS  /tmp/cchQViiZ.s 			page 54


 402:../../lpc11cx4-library/lpc_chip_11cxx_lib/inc/core_cm0.h **** 
 403:../../lpc11cx4-library/lpc_chip_11cxx_lib/inc/core_cm0.h **** /* SysTick Control / Status Register Definitions */
 404:../../lpc11cx4-library/lpc_chip_11cxx_lib/inc/core_cm0.h **** #define SysTick_CTRL_COUNTFLAG_Pos         16                                             /*!< SysT
 405:../../lpc11cx4-library/lpc_chip_11cxx_lib/inc/core_cm0.h **** #define SysTick_CTRL_COUNTFLAG_Msk         (1UL << SysTick_CTRL_COUNTFLAG_Pos)            /*!< SysT
 406:../../lpc11cx4-library/lpc_chip_11cxx_lib/inc/core_cm0.h **** 
 407:../../lpc11cx4-library/lpc_chip_11cxx_lib/inc/core_cm0.h **** #define SysTick_CTRL_CLKSOURCE_Pos          2                                             /*!< SysT
 408:../../lpc11cx4-library/lpc_chip_11cxx_lib/inc/core_cm0.h **** #define SysTick_CTRL_CLKSOURCE_Msk         (1UL << SysTick_CTRL_CLKSOURCE_Pos)            /*!< SysT
 409:../../lpc11cx4-library/lpc_chip_11cxx_lib/inc/core_cm0.h **** 
 410:../../lpc11cx4-library/lpc_chip_11cxx_lib/inc/core_cm0.h **** #define SysTick_CTRL_TICKINT_Pos            1                                             /*!< SysT
 411:../../lpc11cx4-library/lpc_chip_11cxx_lib/inc/core_cm0.h **** #define SysTick_CTRL_TICKINT_Msk           (1UL << SysTick_CTRL_TICKINT_Pos)              /*!< SysT
 412:../../lpc11cx4-library/lpc_chip_11cxx_lib/inc/core_cm0.h **** 
 413:../../lpc11cx4-library/lpc_chip_11cxx_lib/inc/core_cm0.h **** #define SysTick_CTRL_ENABLE_Pos             0                                             /*!< SysT
 414:../../lpc11cx4-library/lpc_chip_11cxx_lib/inc/core_cm0.h **** #define SysTick_CTRL_ENABLE_Msk            (1UL << SysTick_CTRL_ENABLE_Pos)               /*!< SysT
 415:../../lpc11cx4-library/lpc_chip_11cxx_lib/inc/core_cm0.h **** 
 416:../../lpc11cx4-library/lpc_chip_11cxx_lib/inc/core_cm0.h **** /* SysTick Reload Register Definitions */
 417:../../lpc11cx4-library/lpc_chip_11cxx_lib/inc/core_cm0.h **** #define SysTick_LOAD_RELOAD_Pos             0                                             /*!< SysT
 418:../../lpc11cx4-library/lpc_chip_11cxx_lib/inc/core_cm0.h **** #define SysTick_LOAD_RELOAD_Msk            (0xFFFFFFUL << SysTick_LOAD_RELOAD_Pos)        /*!< SysT
 419:../../lpc11cx4-library/lpc_chip_11cxx_lib/inc/core_cm0.h **** 
 420:../../lpc11cx4-library/lpc_chip_11cxx_lib/inc/core_cm0.h **** /* SysTick Current Register Definitions */
 421:../../lpc11cx4-library/lpc_chip_11cxx_lib/inc/core_cm0.h **** #define SysTick_VAL_CURRENT_Pos             0                                             /*!< SysT
 422:../../lpc11cx4-library/lpc_chip_11cxx_lib/inc/core_cm0.h **** #define SysTick_VAL_CURRENT_Msk            (0xFFFFFFUL << SysTick_VAL_CURRENT_Pos)        /*!< SysT
 423:../../lpc11cx4-library/lpc_chip_11cxx_lib/inc/core_cm0.h **** 
 424:../../lpc11cx4-library/lpc_chip_11cxx_lib/inc/core_cm0.h **** /* SysTick Calibration Register Definitions */
 425:../../lpc11cx4-library/lpc_chip_11cxx_lib/inc/core_cm0.h **** #define SysTick_CALIB_NOREF_Pos            31                                             /*!< SysT
 426:../../lpc11cx4-library/lpc_chip_11cxx_lib/inc/core_cm0.h **** #define SysTick_CALIB_NOREF_Msk            (1UL << SysTick_CALIB_NOREF_Pos)               /*!< SysT
 427:../../lpc11cx4-library/lpc_chip_11cxx_lib/inc/core_cm0.h **** 
 428:../../lpc11cx4-library/lpc_chip_11cxx_lib/inc/core_cm0.h **** #define SysTick_CALIB_SKEW_Pos             30                                             /*!< SysT
 429:../../lpc11cx4-library/lpc_chip_11cxx_lib/inc/core_cm0.h **** #define SysTick_CALIB_SKEW_Msk             (1UL << SysTick_CALIB_SKEW_Pos)                /*!< SysT
 430:../../lpc11cx4-library/lpc_chip_11cxx_lib/inc/core_cm0.h **** 
 431:../../lpc11cx4-library/lpc_chip_11cxx_lib/inc/core_cm0.h **** #define SysTick_CALIB_TENMS_Pos             0                                             /*!< SysT
 432:../../lpc11cx4-library/lpc_chip_11cxx_lib/inc/core_cm0.h **** #define SysTick_CALIB_TENMS_Msk            (0xFFFFFFUL << SysTick_VAL_CURRENT_Pos)        /*!< SysT
 433:../../lpc11cx4-library/lpc_chip_11cxx_lib/inc/core_cm0.h **** 
 434:../../lpc11cx4-library/lpc_chip_11cxx_lib/inc/core_cm0.h **** /*@} end of group CMSIS_SysTick */
 435:../../lpc11cx4-library/lpc_chip_11cxx_lib/inc/core_cm0.h **** 
 436:../../lpc11cx4-library/lpc_chip_11cxx_lib/inc/core_cm0.h **** 
 437:../../lpc11cx4-library/lpc_chip_11cxx_lib/inc/core_cm0.h **** /** \ingroup  CMSIS_core_register
 438:../../lpc11cx4-library/lpc_chip_11cxx_lib/inc/core_cm0.h ****     \defgroup CMSIS_CoreDebug       Core Debug Registers (CoreDebug)
 439:../../lpc11cx4-library/lpc_chip_11cxx_lib/inc/core_cm0.h ****     \brief      Cortex-M0 Core Debug Registers (DCB registers, SHCSR, and DFSR)
 440:../../lpc11cx4-library/lpc_chip_11cxx_lib/inc/core_cm0.h ****                 are only accessible over DAP and not via processor. Therefore
 441:../../lpc11cx4-library/lpc_chip_11cxx_lib/inc/core_cm0.h ****                 they are not covered by the Cortex-M0 header file.
 442:../../lpc11cx4-library/lpc_chip_11cxx_lib/inc/core_cm0.h ****   @{
 443:../../lpc11cx4-library/lpc_chip_11cxx_lib/inc/core_cm0.h ****  */
 444:../../lpc11cx4-library/lpc_chip_11cxx_lib/inc/core_cm0.h **** /*@} end of group CMSIS_CoreDebug */
 445:../../lpc11cx4-library/lpc_chip_11cxx_lib/inc/core_cm0.h **** 
 446:../../lpc11cx4-library/lpc_chip_11cxx_lib/inc/core_cm0.h **** 
 447:../../lpc11cx4-library/lpc_chip_11cxx_lib/inc/core_cm0.h **** /** \ingroup    CMSIS_core_register
 448:../../lpc11cx4-library/lpc_chip_11cxx_lib/inc/core_cm0.h ****     \defgroup   CMSIS_core_base     Core Definitions
 449:../../lpc11cx4-library/lpc_chip_11cxx_lib/inc/core_cm0.h ****     \brief      Definitions for base addresses, unions, and structures.
 450:../../lpc11cx4-library/lpc_chip_11cxx_lib/inc/core_cm0.h ****   @{
 451:../../lpc11cx4-library/lpc_chip_11cxx_lib/inc/core_cm0.h ****  */
 452:../../lpc11cx4-library/lpc_chip_11cxx_lib/inc/core_cm0.h **** 
 453:../../lpc11cx4-library/lpc_chip_11cxx_lib/inc/core_cm0.h **** /* Memory mapping of Cortex-M0 Hardware */
 454:../../lpc11cx4-library/lpc_chip_11cxx_lib/inc/core_cm0.h **** #define SCS_BASE            (0xE000E000UL)                            /*!< System Control Space Bas
 455:../../lpc11cx4-library/lpc_chip_11cxx_lib/inc/core_cm0.h **** #define SysTick_BASE        (SCS_BASE +  0x0010UL)                    /*!< SysTick Base Address    
 456:../../lpc11cx4-library/lpc_chip_11cxx_lib/inc/core_cm0.h **** #define NVIC_BASE           (SCS_BASE +  0x0100UL)                    /*!< NVIC Base Address       
 457:../../lpc11cx4-library/lpc_chip_11cxx_lib/inc/core_cm0.h **** #define SCB_BASE            (SCS_BASE +  0x0D00UL)                    /*!< System Control Block Bas
 458:../../lpc11cx4-library/lpc_chip_11cxx_lib/inc/core_cm0.h **** 
ARM GAS  /tmp/cchQViiZ.s 			page 55


 459:../../lpc11cx4-library/lpc_chip_11cxx_lib/inc/core_cm0.h **** #define SCB                 ((SCB_Type       *)     SCB_BASE      )   /*!< SCB configuration struct
 460:../../lpc11cx4-library/lpc_chip_11cxx_lib/inc/core_cm0.h **** #define SysTick             ((SysTick_Type   *)     SysTick_BASE  )   /*!< SysTick configuration st
 461:../../lpc11cx4-library/lpc_chip_11cxx_lib/inc/core_cm0.h **** #define NVIC                ((NVIC_Type      *)     NVIC_BASE     )   /*!< NVIC configuration struc
 462:../../lpc11cx4-library/lpc_chip_11cxx_lib/inc/core_cm0.h **** 
 463:../../lpc11cx4-library/lpc_chip_11cxx_lib/inc/core_cm0.h **** 
 464:../../lpc11cx4-library/lpc_chip_11cxx_lib/inc/core_cm0.h **** /*@} */
 465:../../lpc11cx4-library/lpc_chip_11cxx_lib/inc/core_cm0.h **** 
 466:../../lpc11cx4-library/lpc_chip_11cxx_lib/inc/core_cm0.h **** 
 467:../../lpc11cx4-library/lpc_chip_11cxx_lib/inc/core_cm0.h **** 
 468:../../lpc11cx4-library/lpc_chip_11cxx_lib/inc/core_cm0.h **** /*******************************************************************************
 469:../../lpc11cx4-library/lpc_chip_11cxx_lib/inc/core_cm0.h ****  *                Hardware Abstraction Layer
 470:../../lpc11cx4-library/lpc_chip_11cxx_lib/inc/core_cm0.h ****   Core Function Interface contains:
 471:../../lpc11cx4-library/lpc_chip_11cxx_lib/inc/core_cm0.h ****   - Core NVIC Functions
 472:../../lpc11cx4-library/lpc_chip_11cxx_lib/inc/core_cm0.h ****   - Core SysTick Functions
 473:../../lpc11cx4-library/lpc_chip_11cxx_lib/inc/core_cm0.h ****   - Core Register Access Functions
 474:../../lpc11cx4-library/lpc_chip_11cxx_lib/inc/core_cm0.h ****  ******************************************************************************/
 475:../../lpc11cx4-library/lpc_chip_11cxx_lib/inc/core_cm0.h **** /** \defgroup CMSIS_Core_FunctionInterface Functions and Instructions Reference
 476:../../lpc11cx4-library/lpc_chip_11cxx_lib/inc/core_cm0.h **** */
 477:../../lpc11cx4-library/lpc_chip_11cxx_lib/inc/core_cm0.h **** 
 478:../../lpc11cx4-library/lpc_chip_11cxx_lib/inc/core_cm0.h **** 
 479:../../lpc11cx4-library/lpc_chip_11cxx_lib/inc/core_cm0.h **** 
 480:../../lpc11cx4-library/lpc_chip_11cxx_lib/inc/core_cm0.h **** /* ##########################   NVIC functions  #################################### */
 481:../../lpc11cx4-library/lpc_chip_11cxx_lib/inc/core_cm0.h **** /** \ingroup  CMSIS_Core_FunctionInterface
 482:../../lpc11cx4-library/lpc_chip_11cxx_lib/inc/core_cm0.h ****     \defgroup CMSIS_Core_NVICFunctions NVIC Functions
 483:../../lpc11cx4-library/lpc_chip_11cxx_lib/inc/core_cm0.h ****     \brief      Functions that manage interrupts and exceptions via the NVIC.
 484:../../lpc11cx4-library/lpc_chip_11cxx_lib/inc/core_cm0.h ****     @{
 485:../../lpc11cx4-library/lpc_chip_11cxx_lib/inc/core_cm0.h ****  */
 486:../../lpc11cx4-library/lpc_chip_11cxx_lib/inc/core_cm0.h **** 
 487:../../lpc11cx4-library/lpc_chip_11cxx_lib/inc/core_cm0.h **** /* Interrupt Priorities are WORD accessible only under ARMv6M                   */
 488:../../lpc11cx4-library/lpc_chip_11cxx_lib/inc/core_cm0.h **** /* The following MACROS handle generation of the register offset and byte masks */
 489:../../lpc11cx4-library/lpc_chip_11cxx_lib/inc/core_cm0.h **** #define _BIT_SHIFT(IRQn)         (  (((uint32_t)(IRQn)       )    &  0x03) * 8 )
 490:../../lpc11cx4-library/lpc_chip_11cxx_lib/inc/core_cm0.h **** #define _SHP_IDX(IRQn)           ( ((((uint32_t)(IRQn) & 0x0F)-8) >>    2)     )
 491:../../lpc11cx4-library/lpc_chip_11cxx_lib/inc/core_cm0.h **** #define _IP_IDX(IRQn)            (   ((uint32_t)(IRQn)            >>    2)     )
 492:../../lpc11cx4-library/lpc_chip_11cxx_lib/inc/core_cm0.h **** 
 493:../../lpc11cx4-library/lpc_chip_11cxx_lib/inc/core_cm0.h **** 
 494:../../lpc11cx4-library/lpc_chip_11cxx_lib/inc/core_cm0.h **** /** \brief  Enable External Interrupt
 495:../../lpc11cx4-library/lpc_chip_11cxx_lib/inc/core_cm0.h **** 
 496:../../lpc11cx4-library/lpc_chip_11cxx_lib/inc/core_cm0.h ****     The function enables a device-specific interrupt in the NVIC interrupt controller.
 497:../../lpc11cx4-library/lpc_chip_11cxx_lib/inc/core_cm0.h **** 
 498:../../lpc11cx4-library/lpc_chip_11cxx_lib/inc/core_cm0.h ****     \param [in]      IRQn  External interrupt number. Value cannot be negative.
 499:../../lpc11cx4-library/lpc_chip_11cxx_lib/inc/core_cm0.h ****  */
 500:../../lpc11cx4-library/lpc_chip_11cxx_lib/inc/core_cm0.h **** __STATIC_INLINE void NVIC_EnableIRQ(IRQn_Type IRQn)
 501:../../lpc11cx4-library/lpc_chip_11cxx_lib/inc/core_cm0.h **** {
 502:../../lpc11cx4-library/lpc_chip_11cxx_lib/inc/core_cm0.h ****   NVIC->ISER[0] = (1 << ((uint32_t)(IRQn) & 0x1F));
 503:../../lpc11cx4-library/lpc_chip_11cxx_lib/inc/core_cm0.h **** }
 504:../../lpc11cx4-library/lpc_chip_11cxx_lib/inc/core_cm0.h **** 
 505:../../lpc11cx4-library/lpc_chip_11cxx_lib/inc/core_cm0.h **** 
 506:../../lpc11cx4-library/lpc_chip_11cxx_lib/inc/core_cm0.h **** /** \brief  Disable External Interrupt
 507:../../lpc11cx4-library/lpc_chip_11cxx_lib/inc/core_cm0.h **** 
 508:../../lpc11cx4-library/lpc_chip_11cxx_lib/inc/core_cm0.h ****     The function disables a device-specific interrupt in the NVIC interrupt controller.
 509:../../lpc11cx4-library/lpc_chip_11cxx_lib/inc/core_cm0.h **** 
 510:../../lpc11cx4-library/lpc_chip_11cxx_lib/inc/core_cm0.h ****     \param [in]      IRQn  External interrupt number. Value cannot be negative.
 511:../../lpc11cx4-library/lpc_chip_11cxx_lib/inc/core_cm0.h ****  */
 512:../../lpc11cx4-library/lpc_chip_11cxx_lib/inc/core_cm0.h **** __STATIC_INLINE void NVIC_DisableIRQ(IRQn_Type IRQn)
 513:../../lpc11cx4-library/lpc_chip_11cxx_lib/inc/core_cm0.h **** {
 514:../../lpc11cx4-library/lpc_chip_11cxx_lib/inc/core_cm0.h ****   NVIC->ICER[0] = (1 << ((uint32_t)(IRQn) & 0x1F));
 515:../../lpc11cx4-library/lpc_chip_11cxx_lib/inc/core_cm0.h **** }
ARM GAS  /tmp/cchQViiZ.s 			page 56


 516:../../lpc11cx4-library/lpc_chip_11cxx_lib/inc/core_cm0.h **** 
 517:../../lpc11cx4-library/lpc_chip_11cxx_lib/inc/core_cm0.h **** 
 518:../../lpc11cx4-library/lpc_chip_11cxx_lib/inc/core_cm0.h **** /** \brief  Get Pending Interrupt
 519:../../lpc11cx4-library/lpc_chip_11cxx_lib/inc/core_cm0.h **** 
 520:../../lpc11cx4-library/lpc_chip_11cxx_lib/inc/core_cm0.h ****     The function reads the pending register in the NVIC and returns the pending bit
 521:../../lpc11cx4-library/lpc_chip_11cxx_lib/inc/core_cm0.h ****     for the specified interrupt.
 522:../../lpc11cx4-library/lpc_chip_11cxx_lib/inc/core_cm0.h **** 
 523:../../lpc11cx4-library/lpc_chip_11cxx_lib/inc/core_cm0.h ****     \param [in]      IRQn  Interrupt number.
 524:../../lpc11cx4-library/lpc_chip_11cxx_lib/inc/core_cm0.h **** 
 525:../../lpc11cx4-library/lpc_chip_11cxx_lib/inc/core_cm0.h ****     \return             0  Interrupt status is not pending.
 526:../../lpc11cx4-library/lpc_chip_11cxx_lib/inc/core_cm0.h ****     \return             1  Interrupt status is pending.
 527:../../lpc11cx4-library/lpc_chip_11cxx_lib/inc/core_cm0.h ****  */
 528:../../lpc11cx4-library/lpc_chip_11cxx_lib/inc/core_cm0.h **** __STATIC_INLINE uint32_t NVIC_GetPendingIRQ(IRQn_Type IRQn)
 529:../../lpc11cx4-library/lpc_chip_11cxx_lib/inc/core_cm0.h **** {
 530:../../lpc11cx4-library/lpc_chip_11cxx_lib/inc/core_cm0.h ****   return((uint32_t) ((NVIC->ISPR[0] & (1 << ((uint32_t)(IRQn) & 0x1F)))?1:0));
 531:../../lpc11cx4-library/lpc_chip_11cxx_lib/inc/core_cm0.h **** }
 532:../../lpc11cx4-library/lpc_chip_11cxx_lib/inc/core_cm0.h **** 
 533:../../lpc11cx4-library/lpc_chip_11cxx_lib/inc/core_cm0.h **** 
 534:../../lpc11cx4-library/lpc_chip_11cxx_lib/inc/core_cm0.h **** /** \brief  Set Pending Interrupt
 535:../../lpc11cx4-library/lpc_chip_11cxx_lib/inc/core_cm0.h **** 
 536:../../lpc11cx4-library/lpc_chip_11cxx_lib/inc/core_cm0.h ****     The function sets the pending bit of an external interrupt.
 537:../../lpc11cx4-library/lpc_chip_11cxx_lib/inc/core_cm0.h **** 
 538:../../lpc11cx4-library/lpc_chip_11cxx_lib/inc/core_cm0.h ****     \param [in]      IRQn  Interrupt number. Value cannot be negative.
 539:../../lpc11cx4-library/lpc_chip_11cxx_lib/inc/core_cm0.h ****  */
 540:../../lpc11cx4-library/lpc_chip_11cxx_lib/inc/core_cm0.h **** __STATIC_INLINE void NVIC_SetPendingIRQ(IRQn_Type IRQn)
 541:../../lpc11cx4-library/lpc_chip_11cxx_lib/inc/core_cm0.h **** {
 542:../../lpc11cx4-library/lpc_chip_11cxx_lib/inc/core_cm0.h ****   NVIC->ISPR[0] = (1 << ((uint32_t)(IRQn) & 0x1F));
 543:../../lpc11cx4-library/lpc_chip_11cxx_lib/inc/core_cm0.h **** }
 544:../../lpc11cx4-library/lpc_chip_11cxx_lib/inc/core_cm0.h **** 
 545:../../lpc11cx4-library/lpc_chip_11cxx_lib/inc/core_cm0.h **** 
 546:../../lpc11cx4-library/lpc_chip_11cxx_lib/inc/core_cm0.h **** /** \brief  Clear Pending Interrupt
 547:../../lpc11cx4-library/lpc_chip_11cxx_lib/inc/core_cm0.h **** 
 548:../../lpc11cx4-library/lpc_chip_11cxx_lib/inc/core_cm0.h ****     The function clears the pending bit of an external interrupt.
 549:../../lpc11cx4-library/lpc_chip_11cxx_lib/inc/core_cm0.h **** 
 550:../../lpc11cx4-library/lpc_chip_11cxx_lib/inc/core_cm0.h ****     \param [in]      IRQn  External interrupt number. Value cannot be negative.
 551:../../lpc11cx4-library/lpc_chip_11cxx_lib/inc/core_cm0.h ****  */
 552:../../lpc11cx4-library/lpc_chip_11cxx_lib/inc/core_cm0.h **** __STATIC_INLINE void NVIC_ClearPendingIRQ(IRQn_Type IRQn)
 553:../../lpc11cx4-library/lpc_chip_11cxx_lib/inc/core_cm0.h **** {
 554:../../lpc11cx4-library/lpc_chip_11cxx_lib/inc/core_cm0.h ****   NVIC->ICPR[0] = (1 << ((uint32_t)(IRQn) & 0x1F)); /* Clear pending interrupt */
 555:../../lpc11cx4-library/lpc_chip_11cxx_lib/inc/core_cm0.h **** }
 556:../../lpc11cx4-library/lpc_chip_11cxx_lib/inc/core_cm0.h **** 
 557:../../lpc11cx4-library/lpc_chip_11cxx_lib/inc/core_cm0.h **** 
 558:../../lpc11cx4-library/lpc_chip_11cxx_lib/inc/core_cm0.h **** /** \brief  Set Interrupt Priority
 559:../../lpc11cx4-library/lpc_chip_11cxx_lib/inc/core_cm0.h **** 
 560:../../lpc11cx4-library/lpc_chip_11cxx_lib/inc/core_cm0.h ****     The function sets the priority of an interrupt.
 561:../../lpc11cx4-library/lpc_chip_11cxx_lib/inc/core_cm0.h **** 
 562:../../lpc11cx4-library/lpc_chip_11cxx_lib/inc/core_cm0.h ****     \note The priority cannot be set for every core interrupt.
 563:../../lpc11cx4-library/lpc_chip_11cxx_lib/inc/core_cm0.h **** 
 564:../../lpc11cx4-library/lpc_chip_11cxx_lib/inc/core_cm0.h ****     \param [in]      IRQn  Interrupt number.
 565:../../lpc11cx4-library/lpc_chip_11cxx_lib/inc/core_cm0.h ****     \param [in]  priority  Priority to set.
 566:../../lpc11cx4-library/lpc_chip_11cxx_lib/inc/core_cm0.h ****  */
 567:../../lpc11cx4-library/lpc_chip_11cxx_lib/inc/core_cm0.h **** __STATIC_INLINE void NVIC_SetPriority(IRQn_Type IRQn, uint32_t priority)
 568:../../lpc11cx4-library/lpc_chip_11cxx_lib/inc/core_cm0.h **** {
 569:../../lpc11cx4-library/lpc_chip_11cxx_lib/inc/core_cm0.h ****   if(IRQn < 0) {
 570:../../lpc11cx4-library/lpc_chip_11cxx_lib/inc/core_cm0.h ****     SCB->SHP[_SHP_IDX(IRQn)] = (SCB->SHP[_SHP_IDX(IRQn)] & ~(0xFF << _BIT_SHIFT(IRQn))) |
 1632              		.loc 5 570 0
 1633 0012 C021     		movs	r1, #192	@ tmp127,
ARM GAS  /tmp/cchQViiZ.s 			page 57


 1634              	.LBE565:
 1635              	.LBE564:
 571:../../lpc11cx4-library/lpc_chip_11cxx_lib/inc/core_cm0.h ****         (((priority << (8 - __NVIC_PRIO_BITS)) & 0xFF) << _BIT_SHIFT(IRQn)); }
 572:../../lpc11cx4-library/lpc_chip_11cxx_lib/inc/core_cm0.h ****   else {
 573:../../lpc11cx4-library/lpc_chip_11cxx_lib/inc/core_cm0.h ****     NVIC->IP[_IP_IDX(IRQn)] = (NVIC->IP[_IP_IDX(IRQn)] & ~(0xFF << _BIT_SHIFT(IRQn))) |
 574:../../lpc11cx4-library/lpc_chip_11cxx_lib/inc/core_cm0.h ****         (((priority << (8 - __NVIC_PRIO_BITS)) & 0xFF) << _BIT_SHIFT(IRQn)); }
 575:../../lpc11cx4-library/lpc_chip_11cxx_lib/inc/core_cm0.h **** }
 576:../../lpc11cx4-library/lpc_chip_11cxx_lib/inc/core_cm0.h **** 
 577:../../lpc11cx4-library/lpc_chip_11cxx_lib/inc/core_cm0.h **** 
 578:../../lpc11cx4-library/lpc_chip_11cxx_lib/inc/core_cm0.h **** /** \brief  Get Interrupt Priority
 579:../../lpc11cx4-library/lpc_chip_11cxx_lib/inc/core_cm0.h **** 
 580:../../lpc11cx4-library/lpc_chip_11cxx_lib/inc/core_cm0.h ****     The function reads the priority of an interrupt. The interrupt
 581:../../lpc11cx4-library/lpc_chip_11cxx_lib/inc/core_cm0.h ****     number can be positive to specify an external (device specific)
 582:../../lpc11cx4-library/lpc_chip_11cxx_lib/inc/core_cm0.h ****     interrupt, or negative to specify an internal (core) interrupt.
 583:../../lpc11cx4-library/lpc_chip_11cxx_lib/inc/core_cm0.h **** 
 584:../../lpc11cx4-library/lpc_chip_11cxx_lib/inc/core_cm0.h **** 
 585:../../lpc11cx4-library/lpc_chip_11cxx_lib/inc/core_cm0.h ****     \param [in]   IRQn  Interrupt number.
 586:../../lpc11cx4-library/lpc_chip_11cxx_lib/inc/core_cm0.h ****     \return             Interrupt Priority. Value is aligned automatically to the implemented
 587:../../lpc11cx4-library/lpc_chip_11cxx_lib/inc/core_cm0.h ****                         priority bits of the microcontroller.
 588:../../lpc11cx4-library/lpc_chip_11cxx_lib/inc/core_cm0.h ****  */
 589:../../lpc11cx4-library/lpc_chip_11cxx_lib/inc/core_cm0.h **** __STATIC_INLINE uint32_t NVIC_GetPriority(IRQn_Type IRQn)
 590:../../lpc11cx4-library/lpc_chip_11cxx_lib/inc/core_cm0.h **** {
 591:../../lpc11cx4-library/lpc_chip_11cxx_lib/inc/core_cm0.h **** 
 592:../../lpc11cx4-library/lpc_chip_11cxx_lib/inc/core_cm0.h ****   if(IRQn < 0) {
 593:../../lpc11cx4-library/lpc_chip_11cxx_lib/inc/core_cm0.h ****     return((uint32_t)((SCB->SHP[_SHP_IDX(IRQn)] >> _BIT_SHIFT(IRQn) ) >> (8 - __NVIC_PRIO_BITS))); 
 594:../../lpc11cx4-library/lpc_chip_11cxx_lib/inc/core_cm0.h ****   else {
 595:../../lpc11cx4-library/lpc_chip_11cxx_lib/inc/core_cm0.h ****     return((uint32_t)((NVIC->IP[ _IP_IDX(IRQn)] >> _BIT_SHIFT(IRQn) ) >> (8 - __NVIC_PRIO_BITS))); 
 596:../../lpc11cx4-library/lpc_chip_11cxx_lib/inc/core_cm0.h **** }
 597:../../lpc11cx4-library/lpc_chip_11cxx_lib/inc/core_cm0.h **** 
 598:../../lpc11cx4-library/lpc_chip_11cxx_lib/inc/core_cm0.h **** 
 599:../../lpc11cx4-library/lpc_chip_11cxx_lib/inc/core_cm0.h **** /** \brief  System Reset
 600:../../lpc11cx4-library/lpc_chip_11cxx_lib/inc/core_cm0.h **** 
 601:../../lpc11cx4-library/lpc_chip_11cxx_lib/inc/core_cm0.h ****     The function initiates a system reset request to reset the MCU.
 602:../../lpc11cx4-library/lpc_chip_11cxx_lib/inc/core_cm0.h ****  */
 603:../../lpc11cx4-library/lpc_chip_11cxx_lib/inc/core_cm0.h **** __STATIC_INLINE void NVIC_SystemReset(void)
 604:../../lpc11cx4-library/lpc_chip_11cxx_lib/inc/core_cm0.h **** {
 605:../../lpc11cx4-library/lpc_chip_11cxx_lib/inc/core_cm0.h ****   __DSB();                                                     /* Ensure all outstanding memory acc
 606:../../lpc11cx4-library/lpc_chip_11cxx_lib/inc/core_cm0.h ****                                                                   buffered write are completed befo
 607:../../lpc11cx4-library/lpc_chip_11cxx_lib/inc/core_cm0.h ****   SCB->AIRCR  = ((0x5FA << SCB_AIRCR_VECTKEY_Pos)      |
 608:../../lpc11cx4-library/lpc_chip_11cxx_lib/inc/core_cm0.h ****                  SCB_AIRCR_SYSRESETREQ_Msk);
 609:../../lpc11cx4-library/lpc_chip_11cxx_lib/inc/core_cm0.h ****   __DSB();                                                     /* Ensure completion of memory acces
 610:../../lpc11cx4-library/lpc_chip_11cxx_lib/inc/core_cm0.h ****   while(1);                                                    /* wait until reset */
 611:../../lpc11cx4-library/lpc_chip_11cxx_lib/inc/core_cm0.h **** }
 612:../../lpc11cx4-library/lpc_chip_11cxx_lib/inc/core_cm0.h **** 
 613:../../lpc11cx4-library/lpc_chip_11cxx_lib/inc/core_cm0.h **** /*@} end of CMSIS_Core_NVICFunctions */
 614:../../lpc11cx4-library/lpc_chip_11cxx_lib/inc/core_cm0.h **** 
 615:../../lpc11cx4-library/lpc_chip_11cxx_lib/inc/core_cm0.h **** 
 616:../../lpc11cx4-library/lpc_chip_11cxx_lib/inc/core_cm0.h **** 
 617:../../lpc11cx4-library/lpc_chip_11cxx_lib/inc/core_cm0.h **** /* ##################################    SysTick function  ########################################
 618:../../lpc11cx4-library/lpc_chip_11cxx_lib/inc/core_cm0.h **** /** \ingroup  CMSIS_Core_FunctionInterface
 619:../../lpc11cx4-library/lpc_chip_11cxx_lib/inc/core_cm0.h ****     \defgroup CMSIS_Core_SysTickFunctions SysTick Functions
 620:../../lpc11cx4-library/lpc_chip_11cxx_lib/inc/core_cm0.h ****     \brief      Functions that configure the System.
 621:../../lpc11cx4-library/lpc_chip_11cxx_lib/inc/core_cm0.h ****   @{
 622:../../lpc11cx4-library/lpc_chip_11cxx_lib/inc/core_cm0.h ****  */
 623:../../lpc11cx4-library/lpc_chip_11cxx_lib/inc/core_cm0.h **** 
 624:../../lpc11cx4-library/lpc_chip_11cxx_lib/inc/core_cm0.h **** #if (__Vendor_SysTickConfig == 0)
 625:../../lpc11cx4-library/lpc_chip_11cxx_lib/inc/core_cm0.h **** 
ARM GAS  /tmp/cchQViiZ.s 			page 58


 626:../../lpc11cx4-library/lpc_chip_11cxx_lib/inc/core_cm0.h **** /** \brief  System Tick Configuration
 627:../../lpc11cx4-library/lpc_chip_11cxx_lib/inc/core_cm0.h **** 
 628:../../lpc11cx4-library/lpc_chip_11cxx_lib/inc/core_cm0.h ****     The function initializes the System Timer and its interrupt, and starts the System Tick Timer.
 629:../../lpc11cx4-library/lpc_chip_11cxx_lib/inc/core_cm0.h ****     Counter is in free running mode to generate periodic interrupts.
 630:../../lpc11cx4-library/lpc_chip_11cxx_lib/inc/core_cm0.h **** 
 631:../../lpc11cx4-library/lpc_chip_11cxx_lib/inc/core_cm0.h ****     \param [in]  ticks  Number of ticks between two interrupts.
 632:../../lpc11cx4-library/lpc_chip_11cxx_lib/inc/core_cm0.h **** 
 633:../../lpc11cx4-library/lpc_chip_11cxx_lib/inc/core_cm0.h ****     \return          0  Function succeeded.
 634:../../lpc11cx4-library/lpc_chip_11cxx_lib/inc/core_cm0.h ****     \return          1  Function failed.
 635:../../lpc11cx4-library/lpc_chip_11cxx_lib/inc/core_cm0.h **** 
 636:../../lpc11cx4-library/lpc_chip_11cxx_lib/inc/core_cm0.h ****     \note     When the variable <b>__Vendor_SysTickConfig</b> is set to 1, then the
 637:../../lpc11cx4-library/lpc_chip_11cxx_lib/inc/core_cm0.h ****     function <b>SysTick_Config</b> is not included. In this case, the file <b><i>device</i>.h</b>
 638:../../lpc11cx4-library/lpc_chip_11cxx_lib/inc/core_cm0.h ****     must contain a vendor-specific implementation of this function.
 639:../../lpc11cx4-library/lpc_chip_11cxx_lib/inc/core_cm0.h **** 
 640:../../lpc11cx4-library/lpc_chip_11cxx_lib/inc/core_cm0.h ****  */
 641:../../lpc11cx4-library/lpc_chip_11cxx_lib/inc/core_cm0.h **** __STATIC_INLINE uint32_t SysTick_Config(uint32_t ticks)
 642:../../lpc11cx4-library/lpc_chip_11cxx_lib/inc/core_cm0.h **** {
 643:../../lpc11cx4-library/lpc_chip_11cxx_lib/inc/core_cm0.h ****   if (ticks > SysTick_LOAD_RELOAD_Msk)  return (1);            /* Reload value impossible */
 644:../../lpc11cx4-library/lpc_chip_11cxx_lib/inc/core_cm0.h **** 
 645:../../lpc11cx4-library/lpc_chip_11cxx_lib/inc/core_cm0.h ****   SysTick->LOAD  = (ticks & SysTick_LOAD_RELOAD_Msk) - 1;      /* set reload register */
 1636              		.loc 5 645 0
 1637 0014 104A     		ldr	r2, .L62+4	@ tmp123,
 1638 0016 0138     		subs	r0, r0, #1	@ _9,
 1639 0018 5060     		str	r0, [r2, #4]	@ _9, MEM[(struct SysTick_Type *)3758153744B].LOAD
 1640              	.LVL127:
 1641              	.LBB568:
 1642              	.LBB566:
 570:../../lpc11cx4-library/lpc_chip_11cxx_lib/inc/core_cm0.h ****         (((priority << (8 - __NVIC_PRIO_BITS)) & 0xFF) << _BIT_SHIFT(IRQn)); }
 1643              		.loc 5 570 0
 1644 001a 1048     		ldr	r0, .L62+8	@ tmp124,
 1645 001c 0906     		lsls	r1, r1, #24	@ tmp127, tmp127,
 1646 001e 036A     		ldr	r3, [r0, #32]	@ _10, MEM[(struct SCB_Type *)3758157056B].SHP
 1647              	.LBE566:
 1648              	.LBE568:
 646:../../lpc11cx4-library/lpc_chip_11cxx_lib/inc/core_cm0.h ****   NVIC_SetPriority (SysTick_IRQn, (1<<__NVIC_PRIO_BITS) - 1);  /* set Priority for Systick Interrup
 647:../../lpc11cx4-library/lpc_chip_11cxx_lib/inc/core_cm0.h ****   SysTick->VAL   = 0;                                          /* Load the SysTick Counter Value */
 1649              		.loc 5 647 0
 1650 0020 0024     		movs	r4, #0	@ tmp130,
 1651              	.LBB569:
 1652              	.LBB567:
 570:../../lpc11cx4-library/lpc_chip_11cxx_lib/inc/core_cm0.h ****         (((priority << (8 - __NVIC_PRIO_BITS)) & 0xFF) << _BIT_SHIFT(IRQn)); }
 1653              		.loc 5 570 0
 1654 0022 1B02     		lsls	r3, r3, #8	@ tmp126, _10,
 1655 0024 1B0A     		lsrs	r3, r3, #8	@ tmp125, tmp126,
 1656 0026 0B43     		orrs	r3, r1	@ _12, tmp127
 1657 0028 0362     		str	r3, [r0, #32]	@ _12, MEM[(struct SCB_Type *)3758157056B].SHP
 1658              	.LVL128:
 1659              	.LBE567:
 1660              	.LBE569:
 648:../../lpc11cx4-library/lpc_chip_11cxx_lib/inc/core_cm0.h ****   SysTick->CTRL  = SysTick_CTRL_CLKSOURCE_Msk |
 1661              		.loc 5 648 0
 1662 002a 0723     		movs	r3, #7	@ tmp132,
 647:../../lpc11cx4-library/lpc_chip_11cxx_lib/inc/core_cm0.h ****   SysTick->CTRL  = SysTick_CTRL_CLKSOURCE_Msk |
 1663              		.loc 5 647 0
 1664 002c 9460     		str	r4, [r2, #8]	@ tmp130, MEM[(struct SysTick_Type *)3758153744B].VAL
 1665              		.loc 5 648 0
 1666 002e 1360     		str	r3, [r2]	@ tmp132, MEM[(struct SysTick_Type *)3758153744B].CTRL
ARM GAS  /tmp/cchQViiZ.s 			page 59


 1667              	.LBE563:
 1668              	.LBE562:
 149:src/main.c    **** 		//Error
 150:src/main.c    **** 
 151:src/main.c    **** 		while(1);
 152:src/main.c    **** 	}
 153:src/main.c    ****     Uart_Setup();
 1669              		.loc 1 153 0
 1670 0030 FFF7FEFF 		bl	Uart_Setup	@
 1671              	.LVL129:
 154:src/main.c    ****     GPIO_Setup();
 1672              		.loc 1 154 0
 1673 0034 FFF7FEFF 		bl	GPIO_Setup	@
 1674              	.LVL130:
 155:src/main.c    ****     Init_LCD();
 1675              		.loc 1 155 0
 1676 0038 FFF7FEFF 		bl	Init_LCD	@
 1677              	.LVL131:
 1678              	.LBB570:
 1679              	.LBB571:
 1680              	.LBB572:
 1681              	.LBB573:
 1682              	.LBB574:
 1683              		.loc 4 104 0
 1684 003c 8023     		movs	r3, #128	@ tmp134,
 1685 003e 8021     		movs	r1, #128	@ tmp135,
 1686 0040 074A     		ldr	r2, .L62+12	@ tmp133,
 1687 0042 DB00     		lsls	r3, r3, #3	@ tmp134, tmp134,
 1688 0044 4900     		lsls	r1, r1, #1	@ tmp135, tmp135,
 1689 0046 D150     		str	r1, [r2, r3]	@ tmp135, MEM[(struct LPC_GPIO_T *)1342308352B].DATA
 1690              	.LVL132:
 1691              	.LBE574:
 1692              	.LBE573:
 1693              	.LBE572:
 1694              	.LBB575:
 1695              	.LBB576:
 1696              	.LBB577:
 1697 0048 064A     		ldr	r2, .L62+16	@ tmp136,
 1698              	.LBE577:
 1699              	.LBE576:
 1700              	.LBE575:
 121:src/main.c    **** }
 1701              		.loc 1 121 0
 1702 004a 8020     		movs	r0, #128	@,
 1703              	.LBB580:
 1704              	.LBB579:
 1705              	.LBB578:
 1706              		.loc 4 104 0
 1707 004c D450     		str	r4, [r2, r3]	@ tmp130, MEM[(struct LPC_GPIO_T *)1342242816B].DATA
 1708              	.LVL133:
 1709              	.LBE578:
 1710              	.LBE579:
 1711              	.LBE580:
 121:src/main.c    **** }
 1712              		.loc 1 121 0
 1713 004e FFF7FEFF 		bl	LCD_Cnvrt	@
 1714              	.LVL134:
ARM GAS  /tmp/cchQViiZ.s 			page 60


 1715              	.L61:
 1716 0052 FEE7     		b	.L61	@
 1717              	.L63:
 1718              		.align	2
 1719              	.L62:
 1720 0054 00000000 		.word	SystemCoreClock
 1721 0058 10E000E0 		.word	-536813552
 1722 005c 00ED00E0 		.word	-536810240
 1723 0060 00000250 		.word	1342308352
 1724 0064 00000150 		.word	1342242816
 1725              	.LBE571:
 1726              	.LBE570:
 1727              		.cfi_endproc
 1728              	.LFE211:
 1729              		.size	main, .-main
 1730              		.comm	Rx_Buf,8,4
 1731              		.comm	msTicks,4,4
 1732              		.global	OscRateIn
 1733              		.section	.rodata.OscRateIn,"a",%progbits
 1734              		.align	2
 1735              		.type	OscRateIn, %object
 1736              		.size	OscRateIn, 4
 1737              	OscRateIn:
 1738 0000 00000000 		.space	4
 1739              		.text
 1740              	.Letext0:
 1741              		.file 6 "/usr/arm-none-eabi/include/machine/_default_types.h"
 1742              		.file 7 "/usr/arm-none-eabi/include/sys/_stdint.h"
 1743              		.file 8 "../../lpc11cx4-library/lpc_chip_11cxx_lib/inc/cmsis_11cxx.h"
 1744              		.file 9 "../../lpc11cx4-library/lpc_chip_11cxx_lib/inc/cmsis.h"
 1745              		.file 10 "../../lpc11cx4-library/lpc_chip_11cxx_lib/inc/chip.h"
 1746              		.file 11 "/usr/arm-none-eabi/include/sys/lock.h"
 1747              		.file 12 "/usr/arm-none-eabi/include/sys/_types.h"
 1748              		.file 13 "/usr/lib/gcc/arm-none-eabi/6.2.1/include/stddef.h"
 1749              		.file 14 "/usr/arm-none-eabi/include/sys/reent.h"