ARM GAS  /tmp/cc2Hmybh.s 			page 1


   1              		.cpu cortex-m0
   2              		.eabi_attribute 20, 1	@ Tag_ABI_FP_denormal
   3              		.eabi_attribute 21, 1	@ Tag_ABI_FP_exceptions
   4              		.eabi_attribute 23, 3	@ Tag_ABI_FP_number_model
   5              		.eabi_attribute 24, 1	@ Tag_ABI_align8_needed
   6              		.eabi_attribute 25, 1	@ Tag_ABI_align8_preserved
   7              		.eabi_attribute 26, 1	@ Tag_ABI_enum_size
   8              		.eabi_attribute 30, 2	@ Tag_ABI_optimization_goals
   9              		.eabi_attribute 34, 0	@ Tag_CPU_unaligned_access
  10              		.eabi_attribute 18, 4	@ Tag_ABI_PCS_wchar_t
  11              		.file	"pmu_11xx.c"
  12              	@ GNU C89 (GNU Tools for ARM Embedded Processors) version 6.2.1 20161205 (release) [ARM/embedded-6-
  13              	@	compiled by GNU C version 5.4.0 20160609, GMP version 6.1.0, MPFR version 3.1.4, MPC version 1.0.
  14              	@ GGC heuristics: --param ggc-min-expand=100 --param ggc-min-heapsize=131072
  15              	@ options passed:  -I . -I ../../lpc11cx4-library/lpc_chip_11cxx_lib/inc
  16              	@ -imultilib thumb/v6-m -iprefix /usr/bin/../lib/gcc/arm-none-eabi/6.2.1/
  17              	@ -isysroot /usr/bin/../arm-none-eabi -MD bin/pmu_11xx.d -MF bin/pmu_11xx.d
  18              	@ -MP -MQ bin/pmu_11xx.o -D__USES_INITFINI__ -D CORE_M0
  19              	@ ../../lpc11cx4-library/lpc_chip_11cxx_lib/src/pmu_11xx.c -mcpu=cortex-m0
  20              	@ -mthumb -auxbase-strip bin/pmu_11xx.o -g -ggdb3 -O2 -Wall
  21              	@ -Wstrict-prototypes -Wextra -std=gnu90 -ffunction-sections
  22              	@ -fdata-sections -fverbose-asm
  23              	@ options enabled:  -faggressive-loop-optimizations -falign-jumps
  24              	@ -falign-labels -falign-loops -fauto-inc-dec -fbranch-count-reg
  25              	@ -fcaller-saves -fchkp-check-incomplete-type -fchkp-check-read
  26              	@ -fchkp-check-write -fchkp-instrument-calls -fchkp-narrow-bounds
  27              	@ -fchkp-optimize -fchkp-store-bounds -fchkp-use-static-bounds
  28              	@ -fchkp-use-static-const-bounds -fchkp-use-wrappers
  29              	@ -fcombine-stack-adjustments -fcommon -fcompare-elim -fcprop-registers
  30              	@ -fcrossjumping -fcse-follow-jumps -fdata-sections -fdefer-pop
  31              	@ -fdelete-null-pointer-checks -fdevirtualize -fdevirtualize-speculatively
  32              	@ -fdwarf2-cfi-asm -fearly-inlining -feliminate-unused-debug-types
  33              	@ -fexpensive-optimizations -fforward-propagate -ffunction-cse
  34              	@ -ffunction-sections -fgcse -fgcse-lm -fgnu-runtime -fgnu-unique
  35              	@ -fguess-branch-probability -fhoist-adjacent-loads -fident -fif-conversion
  36              	@ -fif-conversion2 -findirect-inlining -finline -finline-atomics
  37              	@ -finline-functions-called-once -finline-small-functions -fipa-cp
  38              	@ -fipa-cp-alignment -fipa-icf -fipa-icf-functions -fipa-icf-variables
  39              	@ -fipa-profile -fipa-pure-const -fipa-reference -fipa-sra
  40              	@ -fira-hoist-pressure -fira-share-save-slots -fira-share-spill-slots
  41              	@ -fisolate-erroneous-paths-dereference -fivopts -fkeep-static-consts
  42              	@ -fleading-underscore -flifetime-dse -flra-remat -flto-odr-type-merging
  43              	@ -fmath-errno -fmerge-constants -fmerge-debug-strings
  44              	@ -fmove-loop-invariants -fomit-frame-pointer -foptimize-sibling-calls
  45              	@ -foptimize-strlen -fpartial-inlining -fpeephole -fpeephole2 -fplt
  46              	@ -fprefetch-loop-arrays -freg-struct-return -freorder-blocks
  47              	@ -freorder-functions -frerun-cse-after-loop
  48              	@ -fsched-critical-path-heuristic -fsched-dep-count-heuristic
  49              	@ -fsched-group-heuristic -fsched-interblock -fsched-last-insn-heuristic
  50              	@ -fsched-pressure -fsched-rank-heuristic -fsched-spec
  51              	@ -fsched-spec-insn-heuristic -fsched-stalled-insns-dep -fschedule-insns2
  52              	@ -fsection-anchors -fsemantic-interposition -fshow-column -fshrink-wrap
  53              	@ -fsigned-zeros -fsplit-ivs-in-unroller -fsplit-wide-types -fssa-backprop
  54              	@ -fssa-phiopt -fstdarg-opt -fstrict-aliasing -fstrict-overflow
  55              	@ -fstrict-volatile-bitfields -fsync-libcalls -fthread-jumps
  56              	@ -ftoplevel-reorder -ftrapping-math -ftree-bit-ccp -ftree-builtin-call-dce
  57              	@ -ftree-ccp -ftree-ch -ftree-coalesce-vars -ftree-copy-prop -ftree-cselim
ARM GAS  /tmp/cc2Hmybh.s 			page 2


  58              	@ -ftree-dce -ftree-dominator-opts -ftree-dse -ftree-forwprop -ftree-fre
  59              	@ -ftree-loop-if-convert -ftree-loop-im -ftree-loop-ivcanon
  60              	@ -ftree-loop-optimize -ftree-parallelize-loops= -ftree-phiprop -ftree-pre
  61              	@ -ftree-pta -ftree-reassoc -ftree-scev-cprop -ftree-sink -ftree-slsr
  62              	@ -ftree-sra -ftree-switch-conversion -ftree-tail-merge -ftree-ter
  63              	@ -ftree-vrp -funit-at-a-time -fvar-tracking -fvar-tracking-assignments
  64              	@ -fverbose-asm -fzero-initialized-in-bss -mlittle-endian
  65              	@ -mpic-data-is-text-relative -msched-prolog -mthumb
  66              	@ -mvectorize-with-neon-quad
  67              	
  68              		.text
  69              	.Ltext0:
  70              		.cfi_sections	.debug_frame
  71              		.section	.text.Chip_PMU_SleepState,"ax",%progbits
  72              		.align	1
  73              		.p2align 2,,3
  74              		.global	Chip_PMU_SleepState
  75              		.syntax unified
  76              		.code	16
  77              		.thumb_func
  78              		.fpu softvfp
  79              		.type	Chip_PMU_SleepState, %function
  80              	Chip_PMU_SleepState:
  81              	.LFB198:
  82              		.file 1 "../../lpc11cx4-library/lpc_chip_11cxx_lib/src/pmu_11xx.c"
   1:../../lpc11cx4-library/lpc_chip_11cxx_lib/src/pmu_11xx.c **** /*
   2:../../lpc11cx4-library/lpc_chip_11cxx_lib/src/pmu_11xx.c ****  * @brief LPC11xx PMU chip driver
   3:../../lpc11cx4-library/lpc_chip_11cxx_lib/src/pmu_11xx.c ****  *
   4:../../lpc11cx4-library/lpc_chip_11cxx_lib/src/pmu_11xx.c ****  * @note
   5:../../lpc11cx4-library/lpc_chip_11cxx_lib/src/pmu_11xx.c ****  * Copyright(C) NXP Semiconductors, 2013
   6:../../lpc11cx4-library/lpc_chip_11cxx_lib/src/pmu_11xx.c ****  * All rights reserved.
   7:../../lpc11cx4-library/lpc_chip_11cxx_lib/src/pmu_11xx.c ****  *
   8:../../lpc11cx4-library/lpc_chip_11cxx_lib/src/pmu_11xx.c ****  * @par
   9:../../lpc11cx4-library/lpc_chip_11cxx_lib/src/pmu_11xx.c ****  * Software that is described herein is for illustrative purposes only
  10:../../lpc11cx4-library/lpc_chip_11cxx_lib/src/pmu_11xx.c ****  * which provides customers with programming information regarding the
  11:../../lpc11cx4-library/lpc_chip_11cxx_lib/src/pmu_11xx.c ****  * LPC products.  This software is supplied "AS IS" without any warranties of
  12:../../lpc11cx4-library/lpc_chip_11cxx_lib/src/pmu_11xx.c ****  * any kind, and NXP Semiconductors and its licensor disclaim any and
  13:../../lpc11cx4-library/lpc_chip_11cxx_lib/src/pmu_11xx.c ****  * all warranties, express or implied, including all implied warranties of
  14:../../lpc11cx4-library/lpc_chip_11cxx_lib/src/pmu_11xx.c ****  * merchantability, fitness for a particular purpose and non-infringement of
  15:../../lpc11cx4-library/lpc_chip_11cxx_lib/src/pmu_11xx.c ****  * intellectual property rights.  NXP Semiconductors assumes no responsibility
  16:../../lpc11cx4-library/lpc_chip_11cxx_lib/src/pmu_11xx.c ****  * or liability for the use of the software, conveys no license or rights under any
  17:../../lpc11cx4-library/lpc_chip_11cxx_lib/src/pmu_11xx.c ****  * patent, copyright, mask work right, or any other intellectual property rights in
  18:../../lpc11cx4-library/lpc_chip_11cxx_lib/src/pmu_11xx.c ****  * or to any products. NXP Semiconductors reserves the right to make changes
  19:../../lpc11cx4-library/lpc_chip_11cxx_lib/src/pmu_11xx.c ****  * in the software without notification. NXP Semiconductors also makes no
  20:../../lpc11cx4-library/lpc_chip_11cxx_lib/src/pmu_11xx.c ****  * representation or warranty that such application will be suitable for the
  21:../../lpc11cx4-library/lpc_chip_11cxx_lib/src/pmu_11xx.c ****  * specified use without further testing or modification.
  22:../../lpc11cx4-library/lpc_chip_11cxx_lib/src/pmu_11xx.c ****  *
  23:../../lpc11cx4-library/lpc_chip_11cxx_lib/src/pmu_11xx.c ****  * @par
  24:../../lpc11cx4-library/lpc_chip_11cxx_lib/src/pmu_11xx.c ****  * Permission to use, copy, modify, and distribute this software and its
  25:../../lpc11cx4-library/lpc_chip_11cxx_lib/src/pmu_11xx.c ****  * documentation is hereby granted, under NXP Semiconductors' and its
  26:../../lpc11cx4-library/lpc_chip_11cxx_lib/src/pmu_11xx.c ****  * licensor's relevant copyrights in the software, without fee, provided that it
  27:../../lpc11cx4-library/lpc_chip_11cxx_lib/src/pmu_11xx.c ****  * is used in conjunction with NXP Semiconductors microcontrollers.  This
  28:../../lpc11cx4-library/lpc_chip_11cxx_lib/src/pmu_11xx.c ****  * copyright, permission, and disclaimer notice must appear in all copies of
  29:../../lpc11cx4-library/lpc_chip_11cxx_lib/src/pmu_11xx.c ****  * this code.
  30:../../lpc11cx4-library/lpc_chip_11cxx_lib/src/pmu_11xx.c ****  */
  31:../../lpc11cx4-library/lpc_chip_11cxx_lib/src/pmu_11xx.c **** 
  32:../../lpc11cx4-library/lpc_chip_11cxx_lib/src/pmu_11xx.c **** #include "chip.h"
ARM GAS  /tmp/cc2Hmybh.s 			page 3


  33:../../lpc11cx4-library/lpc_chip_11cxx_lib/src/pmu_11xx.c **** 
  34:../../lpc11cx4-library/lpc_chip_11cxx_lib/src/pmu_11xx.c **** #if defined(CHIP_LPC11AXX) || defined(CHIP_LPC11CXX) || defined(CHIP_LPC11EXX) || defined(CHIP_LPC1
  35:../../lpc11cx4-library/lpc_chip_11cxx_lib/src/pmu_11xx.c **** 
  36:../../lpc11cx4-library/lpc_chip_11cxx_lib/src/pmu_11xx.c **** /*****************************************************************************
  37:../../lpc11cx4-library/lpc_chip_11cxx_lib/src/pmu_11xx.c ****  * Private types/enumerations/variables
  38:../../lpc11cx4-library/lpc_chip_11cxx_lib/src/pmu_11xx.c ****  ****************************************************************************/
  39:../../lpc11cx4-library/lpc_chip_11cxx_lib/src/pmu_11xx.c **** 
  40:../../lpc11cx4-library/lpc_chip_11cxx_lib/src/pmu_11xx.c **** /*****************************************************************************
  41:../../lpc11cx4-library/lpc_chip_11cxx_lib/src/pmu_11xx.c ****  * Public types/enumerations/variables
  42:../../lpc11cx4-library/lpc_chip_11cxx_lib/src/pmu_11xx.c ****  ****************************************************************************/
  43:../../lpc11cx4-library/lpc_chip_11cxx_lib/src/pmu_11xx.c **** 
  44:../../lpc11cx4-library/lpc_chip_11cxx_lib/src/pmu_11xx.c **** /*****************************************************************************
  45:../../lpc11cx4-library/lpc_chip_11cxx_lib/src/pmu_11xx.c ****  * Private functions
  46:../../lpc11cx4-library/lpc_chip_11cxx_lib/src/pmu_11xx.c ****  ****************************************************************************/
  47:../../lpc11cx4-library/lpc_chip_11cxx_lib/src/pmu_11xx.c **** 
  48:../../lpc11cx4-library/lpc_chip_11cxx_lib/src/pmu_11xx.c **** /*****************************************************************************
  49:../../lpc11cx4-library/lpc_chip_11cxx_lib/src/pmu_11xx.c ****  * Public functions
  50:../../lpc11cx4-library/lpc_chip_11cxx_lib/src/pmu_11xx.c ****  ****************************************************************************/
  51:../../lpc11cx4-library/lpc_chip_11cxx_lib/src/pmu_11xx.c **** 
  52:../../lpc11cx4-library/lpc_chip_11cxx_lib/src/pmu_11xx.c **** /* Enter MCU Sleep mode */
  53:../../lpc11cx4-library/lpc_chip_11cxx_lib/src/pmu_11xx.c **** void Chip_PMU_SleepState(LPC_PMU_T *pPMU)
  54:../../lpc11cx4-library/lpc_chip_11cxx_lib/src/pmu_11xx.c **** {
  83              		.loc 1 54 0
  84              		.cfi_startproc
  85              		@ args = 0, pretend = 0, frame = 0
  86              		@ frame_needed = 0, uses_anonymous_args = 0
  87              		@ link register save eliminated.
  88              	.LVL0:
  55:../../lpc11cx4-library/lpc_chip_11cxx_lib/src/pmu_11xx.c **** 	pPMU->PCON = PMU_PCON_PM_SLEEP;
  89              		.loc 1 55 0
  90 0000 0023     		movs	r3, #0	@ tmp111,
  91 0002 0360     		str	r3, [r0]	@ tmp111, pPMU_2(D)->PCON
  92              	.LBB10:
  93              	.LBB11:
  94              		.file 2 "../../lpc11cx4-library/lpc_chip_11cxx_lib/inc/core_cmInstr.h"
   1:../../lpc11cx4-library/lpc_chip_11cxx_lib/inc/core_cmInstr.h **** /**************************************************************************//**
   2:../../lpc11cx4-library/lpc_chip_11cxx_lib/inc/core_cmInstr.h ****  * @file     core_cmInstr.h
   3:../../lpc11cx4-library/lpc_chip_11cxx_lib/inc/core_cmInstr.h ****  * @brief    CMSIS Cortex-M Core Instruction Access Header File
   4:../../lpc11cx4-library/lpc_chip_11cxx_lib/inc/core_cmInstr.h ****  * @version  V3.01
   5:../../lpc11cx4-library/lpc_chip_11cxx_lib/inc/core_cmInstr.h ****  * @date     06. March 2012
   6:../../lpc11cx4-library/lpc_chip_11cxx_lib/inc/core_cmInstr.h ****  *
   7:../../lpc11cx4-library/lpc_chip_11cxx_lib/inc/core_cmInstr.h ****  * @note
   8:../../lpc11cx4-library/lpc_chip_11cxx_lib/inc/core_cmInstr.h ****  * Copyright (C) 2009-2012 ARM Limited. All rights reserved.
   9:../../lpc11cx4-library/lpc_chip_11cxx_lib/inc/core_cmInstr.h ****  *
  10:../../lpc11cx4-library/lpc_chip_11cxx_lib/inc/core_cmInstr.h ****  * @par
  11:../../lpc11cx4-library/lpc_chip_11cxx_lib/inc/core_cmInstr.h ****  * ARM Limited (ARM) is supplying this software for use with Cortex-M
  12:../../lpc11cx4-library/lpc_chip_11cxx_lib/inc/core_cmInstr.h ****  * processor based microcontrollers.  This file can be freely distributed
  13:../../lpc11cx4-library/lpc_chip_11cxx_lib/inc/core_cmInstr.h ****  * within development tools that are supporting such ARM based processors.
  14:../../lpc11cx4-library/lpc_chip_11cxx_lib/inc/core_cmInstr.h ****  *
  15:../../lpc11cx4-library/lpc_chip_11cxx_lib/inc/core_cmInstr.h ****  * @par
  16:../../lpc11cx4-library/lpc_chip_11cxx_lib/inc/core_cmInstr.h ****  * THIS SOFTWARE IS PROVIDED "AS IS".  NO WARRANTIES, WHETHER EXPRESS, IMPLIED
  17:../../lpc11cx4-library/lpc_chip_11cxx_lib/inc/core_cmInstr.h ****  * OR STATUTORY, INCLUDING, BUT NOT LIMITED TO, IMPLIED WARRANTIES OF
  18:../../lpc11cx4-library/lpc_chip_11cxx_lib/inc/core_cmInstr.h ****  * MERCHANTABILITY AND FITNESS FOR A PARTICULAR PURPOSE APPLY TO THIS SOFTWARE.
  19:../../lpc11cx4-library/lpc_chip_11cxx_lib/inc/core_cmInstr.h ****  * ARM SHALL NOT, IN ANY CIRCUMSTANCES, BE LIABLE FOR SPECIAL, INCIDENTAL, OR
  20:../../lpc11cx4-library/lpc_chip_11cxx_lib/inc/core_cmInstr.h ****  * CONSEQUENTIAL DAMAGES, FOR ANY REASON WHATSOEVER.
  21:../../lpc11cx4-library/lpc_chip_11cxx_lib/inc/core_cmInstr.h ****  *
  22:../../lpc11cx4-library/lpc_chip_11cxx_lib/inc/core_cmInstr.h ****  ******************************************************************************/
ARM GAS  /tmp/cc2Hmybh.s 			page 4


  23:../../lpc11cx4-library/lpc_chip_11cxx_lib/inc/core_cmInstr.h **** 
  24:../../lpc11cx4-library/lpc_chip_11cxx_lib/inc/core_cmInstr.h **** #ifndef __CORE_CMINSTR_H
  25:../../lpc11cx4-library/lpc_chip_11cxx_lib/inc/core_cmInstr.h **** #define __CORE_CMINSTR_H
  26:../../lpc11cx4-library/lpc_chip_11cxx_lib/inc/core_cmInstr.h **** 
  27:../../lpc11cx4-library/lpc_chip_11cxx_lib/inc/core_cmInstr.h **** 
  28:../../lpc11cx4-library/lpc_chip_11cxx_lib/inc/core_cmInstr.h **** /* ##########################  Core Instruction Access  ######################### */
  29:../../lpc11cx4-library/lpc_chip_11cxx_lib/inc/core_cmInstr.h **** /** \defgroup CMSIS_Core_InstructionInterface CMSIS Core Instruction Interface
  30:../../lpc11cx4-library/lpc_chip_11cxx_lib/inc/core_cmInstr.h ****   Access to dedicated instructions
  31:../../lpc11cx4-library/lpc_chip_11cxx_lib/inc/core_cmInstr.h ****   @{
  32:../../lpc11cx4-library/lpc_chip_11cxx_lib/inc/core_cmInstr.h **** */
  33:../../lpc11cx4-library/lpc_chip_11cxx_lib/inc/core_cmInstr.h **** 
  34:../../lpc11cx4-library/lpc_chip_11cxx_lib/inc/core_cmInstr.h **** #if   defined ( __CC_ARM ) /*------------------RealView Compiler -----------------*/
  35:../../lpc11cx4-library/lpc_chip_11cxx_lib/inc/core_cmInstr.h **** /* ARM armcc specific functions */
  36:../../lpc11cx4-library/lpc_chip_11cxx_lib/inc/core_cmInstr.h **** 
  37:../../lpc11cx4-library/lpc_chip_11cxx_lib/inc/core_cmInstr.h **** #if (__ARMCC_VERSION < 400677)
  38:../../lpc11cx4-library/lpc_chip_11cxx_lib/inc/core_cmInstr.h ****   #error "Please use ARM Compiler Toolchain V4.0.677 or later!"
  39:../../lpc11cx4-library/lpc_chip_11cxx_lib/inc/core_cmInstr.h **** #endif
  40:../../lpc11cx4-library/lpc_chip_11cxx_lib/inc/core_cmInstr.h **** 
  41:../../lpc11cx4-library/lpc_chip_11cxx_lib/inc/core_cmInstr.h **** 
  42:../../lpc11cx4-library/lpc_chip_11cxx_lib/inc/core_cmInstr.h **** /** \brief  No Operation
  43:../../lpc11cx4-library/lpc_chip_11cxx_lib/inc/core_cmInstr.h **** 
  44:../../lpc11cx4-library/lpc_chip_11cxx_lib/inc/core_cmInstr.h ****     No Operation does nothing. This instruction can be used for code alignment purposes.
  45:../../lpc11cx4-library/lpc_chip_11cxx_lib/inc/core_cmInstr.h ****  */
  46:../../lpc11cx4-library/lpc_chip_11cxx_lib/inc/core_cmInstr.h **** #define __NOP                             __nop
  47:../../lpc11cx4-library/lpc_chip_11cxx_lib/inc/core_cmInstr.h **** 
  48:../../lpc11cx4-library/lpc_chip_11cxx_lib/inc/core_cmInstr.h **** 
  49:../../lpc11cx4-library/lpc_chip_11cxx_lib/inc/core_cmInstr.h **** /** \brief  Wait For Interrupt
  50:../../lpc11cx4-library/lpc_chip_11cxx_lib/inc/core_cmInstr.h **** 
  51:../../lpc11cx4-library/lpc_chip_11cxx_lib/inc/core_cmInstr.h ****     Wait For Interrupt is a hint instruction that suspends execution
  52:../../lpc11cx4-library/lpc_chip_11cxx_lib/inc/core_cmInstr.h ****     until one of a number of events occurs.
  53:../../lpc11cx4-library/lpc_chip_11cxx_lib/inc/core_cmInstr.h ****  */
  54:../../lpc11cx4-library/lpc_chip_11cxx_lib/inc/core_cmInstr.h **** #define __WFI                             __wfi
  55:../../lpc11cx4-library/lpc_chip_11cxx_lib/inc/core_cmInstr.h **** 
  56:../../lpc11cx4-library/lpc_chip_11cxx_lib/inc/core_cmInstr.h **** 
  57:../../lpc11cx4-library/lpc_chip_11cxx_lib/inc/core_cmInstr.h **** /** \brief  Wait For Event
  58:../../lpc11cx4-library/lpc_chip_11cxx_lib/inc/core_cmInstr.h **** 
  59:../../lpc11cx4-library/lpc_chip_11cxx_lib/inc/core_cmInstr.h ****     Wait For Event is a hint instruction that permits the processor to enter
  60:../../lpc11cx4-library/lpc_chip_11cxx_lib/inc/core_cmInstr.h ****     a low-power state until one of a number of events occurs.
  61:../../lpc11cx4-library/lpc_chip_11cxx_lib/inc/core_cmInstr.h ****  */
  62:../../lpc11cx4-library/lpc_chip_11cxx_lib/inc/core_cmInstr.h **** #define __WFE                             __wfe
  63:../../lpc11cx4-library/lpc_chip_11cxx_lib/inc/core_cmInstr.h **** 
  64:../../lpc11cx4-library/lpc_chip_11cxx_lib/inc/core_cmInstr.h **** 
  65:../../lpc11cx4-library/lpc_chip_11cxx_lib/inc/core_cmInstr.h **** /** \brief  Send Event
  66:../../lpc11cx4-library/lpc_chip_11cxx_lib/inc/core_cmInstr.h **** 
  67:../../lpc11cx4-library/lpc_chip_11cxx_lib/inc/core_cmInstr.h ****     Send Event is a hint instruction. It causes an event to be signaled to the CPU.
  68:../../lpc11cx4-library/lpc_chip_11cxx_lib/inc/core_cmInstr.h ****  */
  69:../../lpc11cx4-library/lpc_chip_11cxx_lib/inc/core_cmInstr.h **** #define __SEV                             __sev
  70:../../lpc11cx4-library/lpc_chip_11cxx_lib/inc/core_cmInstr.h **** 
  71:../../lpc11cx4-library/lpc_chip_11cxx_lib/inc/core_cmInstr.h **** 
  72:../../lpc11cx4-library/lpc_chip_11cxx_lib/inc/core_cmInstr.h **** /** \brief  Instruction Synchronization Barrier
  73:../../lpc11cx4-library/lpc_chip_11cxx_lib/inc/core_cmInstr.h **** 
  74:../../lpc11cx4-library/lpc_chip_11cxx_lib/inc/core_cmInstr.h ****     Instruction Synchronization Barrier flushes the pipeline in the processor,
  75:../../lpc11cx4-library/lpc_chip_11cxx_lib/inc/core_cmInstr.h ****     so that all instructions following the ISB are fetched from cache or
  76:../../lpc11cx4-library/lpc_chip_11cxx_lib/inc/core_cmInstr.h ****     memory, after the instruction has been completed.
  77:../../lpc11cx4-library/lpc_chip_11cxx_lib/inc/core_cmInstr.h ****  */
  78:../../lpc11cx4-library/lpc_chip_11cxx_lib/inc/core_cmInstr.h **** #define __ISB()                           __isb(0xF)
  79:../../lpc11cx4-library/lpc_chip_11cxx_lib/inc/core_cmInstr.h **** 
ARM GAS  /tmp/cc2Hmybh.s 			page 5


  80:../../lpc11cx4-library/lpc_chip_11cxx_lib/inc/core_cmInstr.h **** 
  81:../../lpc11cx4-library/lpc_chip_11cxx_lib/inc/core_cmInstr.h **** /** \brief  Data Synchronization Barrier
  82:../../lpc11cx4-library/lpc_chip_11cxx_lib/inc/core_cmInstr.h **** 
  83:../../lpc11cx4-library/lpc_chip_11cxx_lib/inc/core_cmInstr.h ****     This function acts as a special kind of Data Memory Barrier.
  84:../../lpc11cx4-library/lpc_chip_11cxx_lib/inc/core_cmInstr.h ****     It completes when all explicit memory accesses before this instruction complete.
  85:../../lpc11cx4-library/lpc_chip_11cxx_lib/inc/core_cmInstr.h ****  */
  86:../../lpc11cx4-library/lpc_chip_11cxx_lib/inc/core_cmInstr.h **** #define __DSB()                           __dsb(0xF)
  87:../../lpc11cx4-library/lpc_chip_11cxx_lib/inc/core_cmInstr.h **** 
  88:../../lpc11cx4-library/lpc_chip_11cxx_lib/inc/core_cmInstr.h **** 
  89:../../lpc11cx4-library/lpc_chip_11cxx_lib/inc/core_cmInstr.h **** /** \brief  Data Memory Barrier
  90:../../lpc11cx4-library/lpc_chip_11cxx_lib/inc/core_cmInstr.h **** 
  91:../../lpc11cx4-library/lpc_chip_11cxx_lib/inc/core_cmInstr.h ****     This function ensures the apparent order of the explicit memory operations before
  92:../../lpc11cx4-library/lpc_chip_11cxx_lib/inc/core_cmInstr.h ****     and after the instruction, without ensuring their completion.
  93:../../lpc11cx4-library/lpc_chip_11cxx_lib/inc/core_cmInstr.h ****  */
  94:../../lpc11cx4-library/lpc_chip_11cxx_lib/inc/core_cmInstr.h **** #define __DMB()                           __dmb(0xF)
  95:../../lpc11cx4-library/lpc_chip_11cxx_lib/inc/core_cmInstr.h **** 
  96:../../lpc11cx4-library/lpc_chip_11cxx_lib/inc/core_cmInstr.h **** 
  97:../../lpc11cx4-library/lpc_chip_11cxx_lib/inc/core_cmInstr.h **** /** \brief  Reverse byte order (32 bit)
  98:../../lpc11cx4-library/lpc_chip_11cxx_lib/inc/core_cmInstr.h **** 
  99:../../lpc11cx4-library/lpc_chip_11cxx_lib/inc/core_cmInstr.h ****     This function reverses the byte order in integer value.
 100:../../lpc11cx4-library/lpc_chip_11cxx_lib/inc/core_cmInstr.h **** 
 101:../../lpc11cx4-library/lpc_chip_11cxx_lib/inc/core_cmInstr.h ****     \param [in]    value  Value to reverse
 102:../../lpc11cx4-library/lpc_chip_11cxx_lib/inc/core_cmInstr.h ****     \return               Reversed value
 103:../../lpc11cx4-library/lpc_chip_11cxx_lib/inc/core_cmInstr.h ****  */
 104:../../lpc11cx4-library/lpc_chip_11cxx_lib/inc/core_cmInstr.h **** #define __REV                             __rev
 105:../../lpc11cx4-library/lpc_chip_11cxx_lib/inc/core_cmInstr.h **** 
 106:../../lpc11cx4-library/lpc_chip_11cxx_lib/inc/core_cmInstr.h **** 
 107:../../lpc11cx4-library/lpc_chip_11cxx_lib/inc/core_cmInstr.h **** /** \brief  Reverse byte order (16 bit)
 108:../../lpc11cx4-library/lpc_chip_11cxx_lib/inc/core_cmInstr.h **** 
 109:../../lpc11cx4-library/lpc_chip_11cxx_lib/inc/core_cmInstr.h ****     This function reverses the byte order in two unsigned short values.
 110:../../lpc11cx4-library/lpc_chip_11cxx_lib/inc/core_cmInstr.h **** 
 111:../../lpc11cx4-library/lpc_chip_11cxx_lib/inc/core_cmInstr.h ****     \param [in]    value  Value to reverse
 112:../../lpc11cx4-library/lpc_chip_11cxx_lib/inc/core_cmInstr.h ****     \return               Reversed value
 113:../../lpc11cx4-library/lpc_chip_11cxx_lib/inc/core_cmInstr.h ****  */
 114:../../lpc11cx4-library/lpc_chip_11cxx_lib/inc/core_cmInstr.h **** __attribute__((section(".rev16_text"))) __STATIC_INLINE __ASM uint32_t __REV16(uint32_t value)
 115:../../lpc11cx4-library/lpc_chip_11cxx_lib/inc/core_cmInstr.h **** {
 116:../../lpc11cx4-library/lpc_chip_11cxx_lib/inc/core_cmInstr.h ****   rev16 r0, r0
 117:../../lpc11cx4-library/lpc_chip_11cxx_lib/inc/core_cmInstr.h ****   bx lr
 118:../../lpc11cx4-library/lpc_chip_11cxx_lib/inc/core_cmInstr.h **** }
 119:../../lpc11cx4-library/lpc_chip_11cxx_lib/inc/core_cmInstr.h **** 
 120:../../lpc11cx4-library/lpc_chip_11cxx_lib/inc/core_cmInstr.h **** 
 121:../../lpc11cx4-library/lpc_chip_11cxx_lib/inc/core_cmInstr.h **** /** \brief  Reverse byte order in signed short value
 122:../../lpc11cx4-library/lpc_chip_11cxx_lib/inc/core_cmInstr.h **** 
 123:../../lpc11cx4-library/lpc_chip_11cxx_lib/inc/core_cmInstr.h ****     This function reverses the byte order in a signed short value with sign extension to integer.
 124:../../lpc11cx4-library/lpc_chip_11cxx_lib/inc/core_cmInstr.h **** 
 125:../../lpc11cx4-library/lpc_chip_11cxx_lib/inc/core_cmInstr.h ****     \param [in]    value  Value to reverse
 126:../../lpc11cx4-library/lpc_chip_11cxx_lib/inc/core_cmInstr.h ****     \return               Reversed value
 127:../../lpc11cx4-library/lpc_chip_11cxx_lib/inc/core_cmInstr.h ****  */
 128:../../lpc11cx4-library/lpc_chip_11cxx_lib/inc/core_cmInstr.h **** __attribute__((section(".revsh_text"))) __STATIC_INLINE __ASM int32_t __REVSH(int32_t value)
 129:../../lpc11cx4-library/lpc_chip_11cxx_lib/inc/core_cmInstr.h **** {
 130:../../lpc11cx4-library/lpc_chip_11cxx_lib/inc/core_cmInstr.h ****   revsh r0, r0
 131:../../lpc11cx4-library/lpc_chip_11cxx_lib/inc/core_cmInstr.h ****   bx lr
 132:../../lpc11cx4-library/lpc_chip_11cxx_lib/inc/core_cmInstr.h **** }
 133:../../lpc11cx4-library/lpc_chip_11cxx_lib/inc/core_cmInstr.h **** 
 134:../../lpc11cx4-library/lpc_chip_11cxx_lib/inc/core_cmInstr.h **** 
 135:../../lpc11cx4-library/lpc_chip_11cxx_lib/inc/core_cmInstr.h **** /** \brief  Rotate Right in unsigned value (32 bit)
 136:../../lpc11cx4-library/lpc_chip_11cxx_lib/inc/core_cmInstr.h **** 
ARM GAS  /tmp/cc2Hmybh.s 			page 6


 137:../../lpc11cx4-library/lpc_chip_11cxx_lib/inc/core_cmInstr.h ****     This function Rotate Right (immediate) provides the value of the contents of a register rotated
 138:../../lpc11cx4-library/lpc_chip_11cxx_lib/inc/core_cmInstr.h **** 
 139:../../lpc11cx4-library/lpc_chip_11cxx_lib/inc/core_cmInstr.h ****     \param [in]    value  Value to rotate
 140:../../lpc11cx4-library/lpc_chip_11cxx_lib/inc/core_cmInstr.h ****     \param [in]    value  Number of Bits to rotate
 141:../../lpc11cx4-library/lpc_chip_11cxx_lib/inc/core_cmInstr.h ****     \return               Rotated value
 142:../../lpc11cx4-library/lpc_chip_11cxx_lib/inc/core_cmInstr.h ****  */
 143:../../lpc11cx4-library/lpc_chip_11cxx_lib/inc/core_cmInstr.h **** #define __ROR                             __ror
 144:../../lpc11cx4-library/lpc_chip_11cxx_lib/inc/core_cmInstr.h **** 
 145:../../lpc11cx4-library/lpc_chip_11cxx_lib/inc/core_cmInstr.h **** 
 146:../../lpc11cx4-library/lpc_chip_11cxx_lib/inc/core_cmInstr.h **** #if       (__CORTEX_M >= 0x03)
 147:../../lpc11cx4-library/lpc_chip_11cxx_lib/inc/core_cmInstr.h **** 
 148:../../lpc11cx4-library/lpc_chip_11cxx_lib/inc/core_cmInstr.h **** /** \brief  Reverse bit order of value
 149:../../lpc11cx4-library/lpc_chip_11cxx_lib/inc/core_cmInstr.h **** 
 150:../../lpc11cx4-library/lpc_chip_11cxx_lib/inc/core_cmInstr.h ****     This function reverses the bit order of the given value.
 151:../../lpc11cx4-library/lpc_chip_11cxx_lib/inc/core_cmInstr.h **** 
 152:../../lpc11cx4-library/lpc_chip_11cxx_lib/inc/core_cmInstr.h ****     \param [in]    value  Value to reverse
 153:../../lpc11cx4-library/lpc_chip_11cxx_lib/inc/core_cmInstr.h ****     \return               Reversed value
 154:../../lpc11cx4-library/lpc_chip_11cxx_lib/inc/core_cmInstr.h ****  */
 155:../../lpc11cx4-library/lpc_chip_11cxx_lib/inc/core_cmInstr.h **** #define __RBIT                            __rbit
 156:../../lpc11cx4-library/lpc_chip_11cxx_lib/inc/core_cmInstr.h **** 
 157:../../lpc11cx4-library/lpc_chip_11cxx_lib/inc/core_cmInstr.h **** 
 158:../../lpc11cx4-library/lpc_chip_11cxx_lib/inc/core_cmInstr.h **** /** \brief  LDR Exclusive (8 bit)
 159:../../lpc11cx4-library/lpc_chip_11cxx_lib/inc/core_cmInstr.h **** 
 160:../../lpc11cx4-library/lpc_chip_11cxx_lib/inc/core_cmInstr.h ****     This function performs a exclusive LDR command for 8 bit value.
 161:../../lpc11cx4-library/lpc_chip_11cxx_lib/inc/core_cmInstr.h **** 
 162:../../lpc11cx4-library/lpc_chip_11cxx_lib/inc/core_cmInstr.h ****     \param [in]    ptr  Pointer to data
 163:../../lpc11cx4-library/lpc_chip_11cxx_lib/inc/core_cmInstr.h ****     \return             value of type uint8_t at (*ptr)
 164:../../lpc11cx4-library/lpc_chip_11cxx_lib/inc/core_cmInstr.h ****  */
 165:../../lpc11cx4-library/lpc_chip_11cxx_lib/inc/core_cmInstr.h **** #define __LDREXB(ptr)                     ((uint8_t ) __ldrex(ptr))
 166:../../lpc11cx4-library/lpc_chip_11cxx_lib/inc/core_cmInstr.h **** 
 167:../../lpc11cx4-library/lpc_chip_11cxx_lib/inc/core_cmInstr.h **** 
 168:../../lpc11cx4-library/lpc_chip_11cxx_lib/inc/core_cmInstr.h **** /** \brief  LDR Exclusive (16 bit)
 169:../../lpc11cx4-library/lpc_chip_11cxx_lib/inc/core_cmInstr.h **** 
 170:../../lpc11cx4-library/lpc_chip_11cxx_lib/inc/core_cmInstr.h ****     This function performs a exclusive LDR command for 16 bit values.
 171:../../lpc11cx4-library/lpc_chip_11cxx_lib/inc/core_cmInstr.h **** 
 172:../../lpc11cx4-library/lpc_chip_11cxx_lib/inc/core_cmInstr.h ****     \param [in]    ptr  Pointer to data
 173:../../lpc11cx4-library/lpc_chip_11cxx_lib/inc/core_cmInstr.h ****     \return        value of type uint16_t at (*ptr)
 174:../../lpc11cx4-library/lpc_chip_11cxx_lib/inc/core_cmInstr.h ****  */
 175:../../lpc11cx4-library/lpc_chip_11cxx_lib/inc/core_cmInstr.h **** #define __LDREXH(ptr)                     ((uint16_t) __ldrex(ptr))
 176:../../lpc11cx4-library/lpc_chip_11cxx_lib/inc/core_cmInstr.h **** 
 177:../../lpc11cx4-library/lpc_chip_11cxx_lib/inc/core_cmInstr.h **** 
 178:../../lpc11cx4-library/lpc_chip_11cxx_lib/inc/core_cmInstr.h **** /** \brief  LDR Exclusive (32 bit)
 179:../../lpc11cx4-library/lpc_chip_11cxx_lib/inc/core_cmInstr.h **** 
 180:../../lpc11cx4-library/lpc_chip_11cxx_lib/inc/core_cmInstr.h ****     This function performs a exclusive LDR command for 32 bit values.
 181:../../lpc11cx4-library/lpc_chip_11cxx_lib/inc/core_cmInstr.h **** 
 182:../../lpc11cx4-library/lpc_chip_11cxx_lib/inc/core_cmInstr.h ****     \param [in]    ptr  Pointer to data
 183:../../lpc11cx4-library/lpc_chip_11cxx_lib/inc/core_cmInstr.h ****     \return        value of type uint32_t at (*ptr)
 184:../../lpc11cx4-library/lpc_chip_11cxx_lib/inc/core_cmInstr.h ****  */
 185:../../lpc11cx4-library/lpc_chip_11cxx_lib/inc/core_cmInstr.h **** #define __LDREXW(ptr)                     ((uint32_t ) __ldrex(ptr))
 186:../../lpc11cx4-library/lpc_chip_11cxx_lib/inc/core_cmInstr.h **** 
 187:../../lpc11cx4-library/lpc_chip_11cxx_lib/inc/core_cmInstr.h **** 
 188:../../lpc11cx4-library/lpc_chip_11cxx_lib/inc/core_cmInstr.h **** /** \brief  STR Exclusive (8 bit)
 189:../../lpc11cx4-library/lpc_chip_11cxx_lib/inc/core_cmInstr.h **** 
 190:../../lpc11cx4-library/lpc_chip_11cxx_lib/inc/core_cmInstr.h ****     This function performs a exclusive STR command for 8 bit values.
 191:../../lpc11cx4-library/lpc_chip_11cxx_lib/inc/core_cmInstr.h **** 
 192:../../lpc11cx4-library/lpc_chip_11cxx_lib/inc/core_cmInstr.h ****     \param [in]  value  Value to store
 193:../../lpc11cx4-library/lpc_chip_11cxx_lib/inc/core_cmInstr.h ****     \param [in]    ptr  Pointer to location
ARM GAS  /tmp/cc2Hmybh.s 			page 7


 194:../../lpc11cx4-library/lpc_chip_11cxx_lib/inc/core_cmInstr.h ****     \return          0  Function succeeded
 195:../../lpc11cx4-library/lpc_chip_11cxx_lib/inc/core_cmInstr.h ****     \return          1  Function failed
 196:../../lpc11cx4-library/lpc_chip_11cxx_lib/inc/core_cmInstr.h ****  */
 197:../../lpc11cx4-library/lpc_chip_11cxx_lib/inc/core_cmInstr.h **** #define __STREXB(value, ptr)              __strex(value, ptr)
 198:../../lpc11cx4-library/lpc_chip_11cxx_lib/inc/core_cmInstr.h **** 
 199:../../lpc11cx4-library/lpc_chip_11cxx_lib/inc/core_cmInstr.h **** 
 200:../../lpc11cx4-library/lpc_chip_11cxx_lib/inc/core_cmInstr.h **** /** \brief  STR Exclusive (16 bit)
 201:../../lpc11cx4-library/lpc_chip_11cxx_lib/inc/core_cmInstr.h **** 
 202:../../lpc11cx4-library/lpc_chip_11cxx_lib/inc/core_cmInstr.h ****     This function performs a exclusive STR command for 16 bit values.
 203:../../lpc11cx4-library/lpc_chip_11cxx_lib/inc/core_cmInstr.h **** 
 204:../../lpc11cx4-library/lpc_chip_11cxx_lib/inc/core_cmInstr.h ****     \param [in]  value  Value to store
 205:../../lpc11cx4-library/lpc_chip_11cxx_lib/inc/core_cmInstr.h ****     \param [in]    ptr  Pointer to location
 206:../../lpc11cx4-library/lpc_chip_11cxx_lib/inc/core_cmInstr.h ****     \return          0  Function succeeded
 207:../../lpc11cx4-library/lpc_chip_11cxx_lib/inc/core_cmInstr.h ****     \return          1  Function failed
 208:../../lpc11cx4-library/lpc_chip_11cxx_lib/inc/core_cmInstr.h ****  */
 209:../../lpc11cx4-library/lpc_chip_11cxx_lib/inc/core_cmInstr.h **** #define __STREXH(value, ptr)              __strex(value, ptr)
 210:../../lpc11cx4-library/lpc_chip_11cxx_lib/inc/core_cmInstr.h **** 
 211:../../lpc11cx4-library/lpc_chip_11cxx_lib/inc/core_cmInstr.h **** 
 212:../../lpc11cx4-library/lpc_chip_11cxx_lib/inc/core_cmInstr.h **** /** \brief  STR Exclusive (32 bit)
 213:../../lpc11cx4-library/lpc_chip_11cxx_lib/inc/core_cmInstr.h **** 
 214:../../lpc11cx4-library/lpc_chip_11cxx_lib/inc/core_cmInstr.h ****     This function performs a exclusive STR command for 32 bit values.
 215:../../lpc11cx4-library/lpc_chip_11cxx_lib/inc/core_cmInstr.h **** 
 216:../../lpc11cx4-library/lpc_chip_11cxx_lib/inc/core_cmInstr.h ****     \param [in]  value  Value to store
 217:../../lpc11cx4-library/lpc_chip_11cxx_lib/inc/core_cmInstr.h ****     \param [in]    ptr  Pointer to location
 218:../../lpc11cx4-library/lpc_chip_11cxx_lib/inc/core_cmInstr.h ****     \return          0  Function succeeded
 219:../../lpc11cx4-library/lpc_chip_11cxx_lib/inc/core_cmInstr.h ****     \return          1  Function failed
 220:../../lpc11cx4-library/lpc_chip_11cxx_lib/inc/core_cmInstr.h ****  */
 221:../../lpc11cx4-library/lpc_chip_11cxx_lib/inc/core_cmInstr.h **** #define __STREXW(value, ptr)              __strex(value, ptr)
 222:../../lpc11cx4-library/lpc_chip_11cxx_lib/inc/core_cmInstr.h **** 
 223:../../lpc11cx4-library/lpc_chip_11cxx_lib/inc/core_cmInstr.h **** 
 224:../../lpc11cx4-library/lpc_chip_11cxx_lib/inc/core_cmInstr.h **** /** \brief  Remove the exclusive lock
 225:../../lpc11cx4-library/lpc_chip_11cxx_lib/inc/core_cmInstr.h **** 
 226:../../lpc11cx4-library/lpc_chip_11cxx_lib/inc/core_cmInstr.h ****     This function removes the exclusive lock which is created by LDREX.
 227:../../lpc11cx4-library/lpc_chip_11cxx_lib/inc/core_cmInstr.h **** 
 228:../../lpc11cx4-library/lpc_chip_11cxx_lib/inc/core_cmInstr.h ****  */
 229:../../lpc11cx4-library/lpc_chip_11cxx_lib/inc/core_cmInstr.h **** #define __CLREX                           __clrex
 230:../../lpc11cx4-library/lpc_chip_11cxx_lib/inc/core_cmInstr.h **** 
 231:../../lpc11cx4-library/lpc_chip_11cxx_lib/inc/core_cmInstr.h **** 
 232:../../lpc11cx4-library/lpc_chip_11cxx_lib/inc/core_cmInstr.h **** /** \brief  Signed Saturate
 233:../../lpc11cx4-library/lpc_chip_11cxx_lib/inc/core_cmInstr.h **** 
 234:../../lpc11cx4-library/lpc_chip_11cxx_lib/inc/core_cmInstr.h ****     This function saturates a signed value.
 235:../../lpc11cx4-library/lpc_chip_11cxx_lib/inc/core_cmInstr.h **** 
 236:../../lpc11cx4-library/lpc_chip_11cxx_lib/inc/core_cmInstr.h ****     \param [in]  value  Value to be saturated
 237:../../lpc11cx4-library/lpc_chip_11cxx_lib/inc/core_cmInstr.h ****     \param [in]    sat  Bit position to saturate to (1..32)
 238:../../lpc11cx4-library/lpc_chip_11cxx_lib/inc/core_cmInstr.h ****     \return             Saturated value
 239:../../lpc11cx4-library/lpc_chip_11cxx_lib/inc/core_cmInstr.h ****  */
 240:../../lpc11cx4-library/lpc_chip_11cxx_lib/inc/core_cmInstr.h **** #define __SSAT                            __ssat
 241:../../lpc11cx4-library/lpc_chip_11cxx_lib/inc/core_cmInstr.h **** 
 242:../../lpc11cx4-library/lpc_chip_11cxx_lib/inc/core_cmInstr.h **** 
 243:../../lpc11cx4-library/lpc_chip_11cxx_lib/inc/core_cmInstr.h **** /** \brief  Unsigned Saturate
 244:../../lpc11cx4-library/lpc_chip_11cxx_lib/inc/core_cmInstr.h **** 
 245:../../lpc11cx4-library/lpc_chip_11cxx_lib/inc/core_cmInstr.h ****     This function saturates an unsigned value.
 246:../../lpc11cx4-library/lpc_chip_11cxx_lib/inc/core_cmInstr.h **** 
 247:../../lpc11cx4-library/lpc_chip_11cxx_lib/inc/core_cmInstr.h ****     \param [in]  value  Value to be saturated
 248:../../lpc11cx4-library/lpc_chip_11cxx_lib/inc/core_cmInstr.h ****     \param [in]    sat  Bit position to saturate to (0..31)
 249:../../lpc11cx4-library/lpc_chip_11cxx_lib/inc/core_cmInstr.h ****     \return             Saturated value
 250:../../lpc11cx4-library/lpc_chip_11cxx_lib/inc/core_cmInstr.h ****  */
ARM GAS  /tmp/cc2Hmybh.s 			page 8


 251:../../lpc11cx4-library/lpc_chip_11cxx_lib/inc/core_cmInstr.h **** #define __USAT                            __usat
 252:../../lpc11cx4-library/lpc_chip_11cxx_lib/inc/core_cmInstr.h **** 
 253:../../lpc11cx4-library/lpc_chip_11cxx_lib/inc/core_cmInstr.h **** 
 254:../../lpc11cx4-library/lpc_chip_11cxx_lib/inc/core_cmInstr.h **** /** \brief  Count leading zeros
 255:../../lpc11cx4-library/lpc_chip_11cxx_lib/inc/core_cmInstr.h **** 
 256:../../lpc11cx4-library/lpc_chip_11cxx_lib/inc/core_cmInstr.h ****     This function counts the number of leading zeros of a data value.
 257:../../lpc11cx4-library/lpc_chip_11cxx_lib/inc/core_cmInstr.h **** 
 258:../../lpc11cx4-library/lpc_chip_11cxx_lib/inc/core_cmInstr.h ****     \param [in]  value  Value to count the leading zeros
 259:../../lpc11cx4-library/lpc_chip_11cxx_lib/inc/core_cmInstr.h ****     \return             number of leading zeros in value
 260:../../lpc11cx4-library/lpc_chip_11cxx_lib/inc/core_cmInstr.h ****  */
 261:../../lpc11cx4-library/lpc_chip_11cxx_lib/inc/core_cmInstr.h **** #define __CLZ                             __clz
 262:../../lpc11cx4-library/lpc_chip_11cxx_lib/inc/core_cmInstr.h **** 
 263:../../lpc11cx4-library/lpc_chip_11cxx_lib/inc/core_cmInstr.h **** #endif /* (__CORTEX_M >= 0x03) */
 264:../../lpc11cx4-library/lpc_chip_11cxx_lib/inc/core_cmInstr.h **** 
 265:../../lpc11cx4-library/lpc_chip_11cxx_lib/inc/core_cmInstr.h **** 
 266:../../lpc11cx4-library/lpc_chip_11cxx_lib/inc/core_cmInstr.h **** 
 267:../../lpc11cx4-library/lpc_chip_11cxx_lib/inc/core_cmInstr.h **** #elif defined ( __ICCARM__ ) /*------------------ ICC Compiler -------------------*/
 268:../../lpc11cx4-library/lpc_chip_11cxx_lib/inc/core_cmInstr.h **** /* IAR iccarm specific functions */
 269:../../lpc11cx4-library/lpc_chip_11cxx_lib/inc/core_cmInstr.h **** 
 270:../../lpc11cx4-library/lpc_chip_11cxx_lib/inc/core_cmInstr.h **** #include <cmsis_iar.h>
 271:../../lpc11cx4-library/lpc_chip_11cxx_lib/inc/core_cmInstr.h **** 
 272:../../lpc11cx4-library/lpc_chip_11cxx_lib/inc/core_cmInstr.h **** 
 273:../../lpc11cx4-library/lpc_chip_11cxx_lib/inc/core_cmInstr.h **** #elif defined ( __TMS470__ ) /*---------------- TI CCS Compiler ------------------*/
 274:../../lpc11cx4-library/lpc_chip_11cxx_lib/inc/core_cmInstr.h **** /* TI CCS specific functions */
 275:../../lpc11cx4-library/lpc_chip_11cxx_lib/inc/core_cmInstr.h **** 
 276:../../lpc11cx4-library/lpc_chip_11cxx_lib/inc/core_cmInstr.h **** #include <cmsis_ccs.h>
 277:../../lpc11cx4-library/lpc_chip_11cxx_lib/inc/core_cmInstr.h **** 
 278:../../lpc11cx4-library/lpc_chip_11cxx_lib/inc/core_cmInstr.h **** 
 279:../../lpc11cx4-library/lpc_chip_11cxx_lib/inc/core_cmInstr.h **** #elif defined ( __GNUC__ ) /*------------------ GNU Compiler ---------------------*/
 280:../../lpc11cx4-library/lpc_chip_11cxx_lib/inc/core_cmInstr.h **** /* GNU gcc specific functions */
 281:../../lpc11cx4-library/lpc_chip_11cxx_lib/inc/core_cmInstr.h **** 
 282:../../lpc11cx4-library/lpc_chip_11cxx_lib/inc/core_cmInstr.h **** /** \brief  No Operation
 283:../../lpc11cx4-library/lpc_chip_11cxx_lib/inc/core_cmInstr.h **** 
 284:../../lpc11cx4-library/lpc_chip_11cxx_lib/inc/core_cmInstr.h ****     No Operation does nothing. This instruction can be used for code alignment purposes.
 285:../../lpc11cx4-library/lpc_chip_11cxx_lib/inc/core_cmInstr.h ****  */
 286:../../lpc11cx4-library/lpc_chip_11cxx_lib/inc/core_cmInstr.h **** __attribute__( ( always_inline ) ) __STATIC_INLINE void __NOP(void)
 287:../../lpc11cx4-library/lpc_chip_11cxx_lib/inc/core_cmInstr.h **** {
 288:../../lpc11cx4-library/lpc_chip_11cxx_lib/inc/core_cmInstr.h ****   __ASM volatile ("nop");
 289:../../lpc11cx4-library/lpc_chip_11cxx_lib/inc/core_cmInstr.h **** }
 290:../../lpc11cx4-library/lpc_chip_11cxx_lib/inc/core_cmInstr.h **** 
 291:../../lpc11cx4-library/lpc_chip_11cxx_lib/inc/core_cmInstr.h **** 
 292:../../lpc11cx4-library/lpc_chip_11cxx_lib/inc/core_cmInstr.h **** /** \brief  Wait For Interrupt
 293:../../lpc11cx4-library/lpc_chip_11cxx_lib/inc/core_cmInstr.h **** 
 294:../../lpc11cx4-library/lpc_chip_11cxx_lib/inc/core_cmInstr.h ****     Wait For Interrupt is a hint instruction that suspends execution
 295:../../lpc11cx4-library/lpc_chip_11cxx_lib/inc/core_cmInstr.h ****     until one of a number of events occurs.
 296:../../lpc11cx4-library/lpc_chip_11cxx_lib/inc/core_cmInstr.h ****  */
 297:../../lpc11cx4-library/lpc_chip_11cxx_lib/inc/core_cmInstr.h **** __attribute__( ( always_inline ) ) __STATIC_INLINE void __WFI(void)
 298:../../lpc11cx4-library/lpc_chip_11cxx_lib/inc/core_cmInstr.h **** {
 299:../../lpc11cx4-library/lpc_chip_11cxx_lib/inc/core_cmInstr.h ****   __ASM volatile ("wfi");
  95              		.loc 2 299 0
  96              		.syntax divided
  97              	@ 299 "../../lpc11cx4-library/lpc_chip_11cxx_lib/inc/core_cmInstr.h" 1
  98 0004 30BF     		wfi
  99              	@ 0 "" 2
 100              		.thumb
 101              		.syntax unified
 102              	.LBE11:
ARM GAS  /tmp/cc2Hmybh.s 			page 9


 103              	.LBE10:
  56:../../lpc11cx4-library/lpc_chip_11cxx_lib/src/pmu_11xx.c **** 
  57:../../lpc11cx4-library/lpc_chip_11cxx_lib/src/pmu_11xx.c **** 	/* Enter sleep mode */
  58:../../lpc11cx4-library/lpc_chip_11cxx_lib/src/pmu_11xx.c **** 	__WFI();
  59:../../lpc11cx4-library/lpc_chip_11cxx_lib/src/pmu_11xx.c **** }
 104              		.loc 1 59 0
 105              		@ sp needed	@
 106 0006 7047     		bx	lr
 107              		.cfi_endproc
 108              	.LFE198:
 109              		.size	Chip_PMU_SleepState, .-Chip_PMU_SleepState
 110              		.section	.text.Chip_PMU_DeepPowerDownState,"ax",%progbits
 111              		.align	1
 112              		.p2align 2,,3
 113              		.global	Chip_PMU_DeepPowerDownState
 114              		.syntax unified
 115              		.code	16
 116              		.thumb_func
 117              		.fpu softvfp
 118              		.type	Chip_PMU_DeepPowerDownState, %function
 119              	Chip_PMU_DeepPowerDownState:
 120              	.LFB199:
  60:../../lpc11cx4-library/lpc_chip_11cxx_lib/src/pmu_11xx.c **** 
  61:../../lpc11cx4-library/lpc_chip_11cxx_lib/src/pmu_11xx.c **** #if defined(CHIP_LPC11AXX) || defined(CHIP_LPC11EXX) || defined(CHIP_LPC11UXX)
  62:../../lpc11cx4-library/lpc_chip_11cxx_lib/src/pmu_11xx.c **** /* Enter MCU Deep Sleep mode */
  63:../../lpc11cx4-library/lpc_chip_11cxx_lib/src/pmu_11xx.c **** void Chip_PMU_DeepSleepState(LPC_PMU_T *pPMU)
  64:../../lpc11cx4-library/lpc_chip_11cxx_lib/src/pmu_11xx.c **** {
  65:../../lpc11cx4-library/lpc_chip_11cxx_lib/src/pmu_11xx.c **** 	SCB->SCR |= (1UL << SCB_SCR_SLEEPDEEP_Pos);
  66:../../lpc11cx4-library/lpc_chip_11cxx_lib/src/pmu_11xx.c **** 	pPMU->PCON = PMU_PCON_PM_DEEPSLEEP;
  67:../../lpc11cx4-library/lpc_chip_11cxx_lib/src/pmu_11xx.c **** 
  68:../../lpc11cx4-library/lpc_chip_11cxx_lib/src/pmu_11xx.c **** 	/* Enter sleep mode */
  69:../../lpc11cx4-library/lpc_chip_11cxx_lib/src/pmu_11xx.c **** 	__WFI();
  70:../../lpc11cx4-library/lpc_chip_11cxx_lib/src/pmu_11xx.c **** }
  71:../../lpc11cx4-library/lpc_chip_11cxx_lib/src/pmu_11xx.c **** 
  72:../../lpc11cx4-library/lpc_chip_11cxx_lib/src/pmu_11xx.c **** /* Enter MCU Power down mode */
  73:../../lpc11cx4-library/lpc_chip_11cxx_lib/src/pmu_11xx.c **** void Chip_PMU_PowerDownState(LPC_PMU_T *pPMU)
  74:../../lpc11cx4-library/lpc_chip_11cxx_lib/src/pmu_11xx.c **** {
  75:../../lpc11cx4-library/lpc_chip_11cxx_lib/src/pmu_11xx.c **** 	SCB->SCR |= (1UL << SCB_SCR_SLEEPDEEP_Pos);
  76:../../lpc11cx4-library/lpc_chip_11cxx_lib/src/pmu_11xx.c **** 	pPMU->PCON = PMU_PCON_PM_POWERDOWN;
  77:../../lpc11cx4-library/lpc_chip_11cxx_lib/src/pmu_11xx.c **** 
  78:../../lpc11cx4-library/lpc_chip_11cxx_lib/src/pmu_11xx.c **** 	/* Enter sleep mode */
  79:../../lpc11cx4-library/lpc_chip_11cxx_lib/src/pmu_11xx.c **** 	__WFI();
  80:../../lpc11cx4-library/lpc_chip_11cxx_lib/src/pmu_11xx.c **** }
  81:../../lpc11cx4-library/lpc_chip_11cxx_lib/src/pmu_11xx.c **** #endif /* defined(CHIP_LPC11AXX) || defined(CHIP_LPC11EXX) || defined(CHIP_LPC11UXX) */
  82:../../lpc11cx4-library/lpc_chip_11cxx_lib/src/pmu_11xx.c **** 
  83:../../lpc11cx4-library/lpc_chip_11cxx_lib/src/pmu_11xx.c **** /* Enter MCU Deep Power down mode */
  84:../../lpc11cx4-library/lpc_chip_11cxx_lib/src/pmu_11xx.c **** void Chip_PMU_DeepPowerDownState(LPC_PMU_T *pPMU)
  85:../../lpc11cx4-library/lpc_chip_11cxx_lib/src/pmu_11xx.c **** {
 121              		.loc 1 85 0
 122              		.cfi_startproc
 123              		@ args = 0, pretend = 0, frame = 0
 124              		@ frame_needed = 0, uses_anonymous_args = 0
 125              		@ link register save eliminated.
 126              	.LVL1:
  86:../../lpc11cx4-library/lpc_chip_11cxx_lib/src/pmu_11xx.c **** 	SCB->SCR |= (1UL << SCB_SCR_SLEEPDEEP_Pos);
 127              		.loc 1 86 0
 128 0000 0421     		movs	r1, #4	@ tmp114,
ARM GAS  /tmp/cc2Hmybh.s 			page 10


 129 0002 044A     		ldr	r2, .L3	@ tmp113,
 130 0004 1369     		ldr	r3, [r2, #16]	@ _2, MEM[(struct SCB_Type *)3758157056B].SCR
 131 0006 0B43     		orrs	r3, r1	@ _3, tmp114
 132 0008 1361     		str	r3, [r2, #16]	@ _3, MEM[(struct SCB_Type *)3758157056B].SCR
  87:../../lpc11cx4-library/lpc_chip_11cxx_lib/src/pmu_11xx.c **** 	pPMU->PCON = PMU_PCON_PM_DEEPPOWERDOWN;
 133              		.loc 1 87 0
 134 000a 0223     		movs	r3, #2	@ tmp116,
 135 000c 0360     		str	r3, [r0]	@ tmp116, pPMU_5(D)->PCON
 136              	.LBB12:
 137              	.LBB13:
 138              		.loc 2 299 0
 139              		.syntax divided
 140              	@ 299 "../../lpc11cx4-library/lpc_chip_11cxx_lib/inc/core_cmInstr.h" 1
 141 000e 30BF     		wfi
 142              	@ 0 "" 2
 143              		.thumb
 144              		.syntax unified
 145              	.LBE13:
 146              	.LBE12:
  88:../../lpc11cx4-library/lpc_chip_11cxx_lib/src/pmu_11xx.c **** 
  89:../../lpc11cx4-library/lpc_chip_11cxx_lib/src/pmu_11xx.c **** 	/* Enter sleep mode */
  90:../../lpc11cx4-library/lpc_chip_11cxx_lib/src/pmu_11xx.c **** 	__WFI();
  91:../../lpc11cx4-library/lpc_chip_11cxx_lib/src/pmu_11xx.c **** }
 147              		.loc 1 91 0
 148              		@ sp needed	@
 149 0010 7047     		bx	lr
 150              	.L4:
 151 0012 C046     		.align	2
 152              	.L3:
 153 0014 00ED00E0 		.word	-536810240
 154              		.cfi_endproc
 155              	.LFE199:
 156              		.size	Chip_PMU_DeepPowerDownState, .-Chip_PMU_DeepPowerDownState
 157              		.section	.text.Chip_PMU_Sleep,"ax",%progbits
 158              		.align	1
 159              		.p2align 2,,3
 160              		.global	Chip_PMU_Sleep
 161              		.syntax unified
 162              		.code	16
 163              		.thumb_func
 164              		.fpu softvfp
 165              		.type	Chip_PMU_Sleep, %function
 166              	Chip_PMU_Sleep:
 167              	.LFB200:
  92:../../lpc11cx4-library/lpc_chip_11cxx_lib/src/pmu_11xx.c **** 
  93:../../lpc11cx4-library/lpc_chip_11cxx_lib/src/pmu_11xx.c **** /* Put some of the peripheral in sleep mode */
  94:../../lpc11cx4-library/lpc_chip_11cxx_lib/src/pmu_11xx.c **** void Chip_PMU_Sleep(LPC_PMU_T *pPMU, CHIP_PMU_MCUPOWER_T SleepMode)
  95:../../lpc11cx4-library/lpc_chip_11cxx_lib/src/pmu_11xx.c **** {
 168              		.loc 1 95 0
 169              		.cfi_startproc
 170              		@ args = 0, pretend = 0, frame = 0
 171              		@ frame_needed = 0, uses_anonymous_args = 0
 172              		@ link register save eliminated.
 173              	.LVL2:
  96:../../lpc11cx4-library/lpc_chip_11cxx_lib/src/pmu_11xx.c **** #if defined(CHIP_LPC11AXX) || defined(CHIP_LPC11EXX) || defined(CHIP_LPC11UXX)
  97:../../lpc11cx4-library/lpc_chip_11cxx_lib/src/pmu_11xx.c **** 	if (SleepMode == PMU_MCU_DEEP_SLEEP) {
  98:../../lpc11cx4-library/lpc_chip_11cxx_lib/src/pmu_11xx.c **** 		Chip_PMU_DeepSleepState(pPMU);
ARM GAS  /tmp/cc2Hmybh.s 			page 11


  99:../../lpc11cx4-library/lpc_chip_11cxx_lib/src/pmu_11xx.c **** 	}
 100:../../lpc11cx4-library/lpc_chip_11cxx_lib/src/pmu_11xx.c **** 	else if (SleepMode == PMU_MCU_POWER_DOWN) {
 101:../../lpc11cx4-library/lpc_chip_11cxx_lib/src/pmu_11xx.c **** 		Chip_PMU_PowerDownState(pPMU);
 102:../../lpc11cx4-library/lpc_chip_11cxx_lib/src/pmu_11xx.c **** 	}
 103:../../lpc11cx4-library/lpc_chip_11cxx_lib/src/pmu_11xx.c **** 	else if (SleepMode == PMU_MCU_DEEP_PWRDOWN) {
 104:../../lpc11cx4-library/lpc_chip_11cxx_lib/src/pmu_11xx.c **** 		Chip_PMU_DeepPowerDownState(pPMU);
 105:../../lpc11cx4-library/lpc_chip_11cxx_lib/src/pmu_11xx.c **** 	}
 106:../../lpc11cx4-library/lpc_chip_11cxx_lib/src/pmu_11xx.c **** 	else {
 107:../../lpc11cx4-library/lpc_chip_11cxx_lib/src/pmu_11xx.c **** 		/* PMU_MCU_SLEEP */
 108:../../lpc11cx4-library/lpc_chip_11cxx_lib/src/pmu_11xx.c **** 		Chip_PMU_SleepState(pPMU);
 109:../../lpc11cx4-library/lpc_chip_11cxx_lib/src/pmu_11xx.c **** 	}
 110:../../lpc11cx4-library/lpc_chip_11cxx_lib/src/pmu_11xx.c **** #elif defined(CHIP_LPC11CXX)
 111:../../lpc11cx4-library/lpc_chip_11cxx_lib/src/pmu_11xx.c **** 	if (SleepMode == PMU_MCU_DEEP_PWRDOWN) {
 174              		.loc 1 111 0
 175 0000 0329     		cmp	r1, #3	@ SleepMode,
 176 0002 07D1     		bne	.L5	@,
 177              	.LVL3:
 178              	.LBB14:
 179              	.LBB15:
  86:../../lpc11cx4-library/lpc_chip_11cxx_lib/src/pmu_11xx.c **** 	pPMU->PCON = PMU_PCON_PM_DEEPPOWERDOWN;
 180              		.loc 1 86 0
 181 0004 044A     		ldr	r2, .L8	@ tmp114,
 182 0006 0131     		adds	r1, r1, #1	@ tmp115,
 183              	.LVL4:
 184 0008 1369     		ldr	r3, [r2, #16]	@ _5, MEM[(struct SCB_Type *)3758157056B].SCR
 185 000a 0B43     		orrs	r3, r1	@ _6, tmp115
 186 000c 1361     		str	r3, [r2, #16]	@ _6, MEM[(struct SCB_Type *)3758157056B].SCR
  87:../../lpc11cx4-library/lpc_chip_11cxx_lib/src/pmu_11xx.c **** 
 187              		.loc 1 87 0
 188 000e 0223     		movs	r3, #2	@ tmp117,
 189 0010 0360     		str	r3, [r0]	@ tmp117, pPMU_4(D)->PCON
 190              	.LBB16:
 191              	.LBB17:
 192              		.loc 2 299 0
 193              		.syntax divided
 194              	@ 299 "../../lpc11cx4-library/lpc_chip_11cxx_lib/inc/core_cmInstr.h" 1
 195 0012 30BF     		wfi
 196              	@ 0 "" 2
 197              	.LVL5:
 198              		.thumb
 199              		.syntax unified
 200              	.L5:
 201              	.LBE17:
 202              	.LBE16:
 203              	.LBE15:
 204              	.LBE14:
 112:../../lpc11cx4-library/lpc_chip_11cxx_lib/src/pmu_11xx.c **** 		Chip_PMU_DeepPowerDownState(pPMU);
 113:../../lpc11cx4-library/lpc_chip_11cxx_lib/src/pmu_11xx.c **** 	}
 114:../../lpc11cx4-library/lpc_chip_11cxx_lib/src/pmu_11xx.c **** #endif /* defined(CHIP_LPC11AXX) || defined(CHIP_LPC11EXX) || defined(CHIP_LPC11UXX) */
 115:../../lpc11cx4-library/lpc_chip_11cxx_lib/src/pmu_11xx.c **** }
 205              		.loc 1 115 0
 206              		@ sp needed	@
 207 0014 7047     		bx	lr
 208              	.L9:
 209 0016 C046     		.align	2
 210              	.L8:
 211 0018 00ED00E0 		.word	-536810240
ARM GAS  /tmp/cc2Hmybh.s 			page 12


 212              		.cfi_endproc
 213              	.LFE200:
 214              		.size	Chip_PMU_Sleep, .-Chip_PMU_Sleep
 215              		.text
 216              	.Letext0:
 217              		.file 3 "/usr/arm-none-eabi/include/machine/_default_types.h"
 218              		.file 4 "/usr/arm-none-eabi/include/sys/_stdint.h"
 219              		.file 5 "../../lpc11cx4-library/lpc_chip_11cxx_lib/inc/core_cm0.h"
 220              		.file 6 "../../lpc11cx4-library/lpc_chip_11cxx_lib/inc/chip.h"
 221              		.file 7 "../../lpc11cx4-library/lpc_chip_11cxx_lib/inc/pmu_11xx.h"