ARM GAS  /tmp/cchmMkLH.s 			page 1


   1              		.cpu cortex-m0
   2              		.eabi_attribute 20, 1	@ Tag_ABI_FP_denormal
   3              		.eabi_attribute 21, 1	@ Tag_ABI_FP_exceptions
   4              		.eabi_attribute 23, 3	@ Tag_ABI_FP_number_model
   5              		.eabi_attribute 24, 1	@ Tag_ABI_align8_needed
   6              		.eabi_attribute 25, 1	@ Tag_ABI_align8_preserved
   7              		.eabi_attribute 26, 1	@ Tag_ABI_enum_size
   8              		.eabi_attribute 30, 2	@ Tag_ABI_optimization_goals
   9              		.eabi_attribute 34, 0	@ Tag_CPU_unaligned_access
  10              		.eabi_attribute 18, 4	@ Tag_ABI_PCS_wchar_t
  11              		.file	"ring_buffer.c"
  12              	@ GNU C89 (GNU Tools for ARM Embedded Processors) version 6.2.1 20161205 (release) [ARM/embedded-6-
  13              	@	compiled by GNU C version 5.4.0 20160609, GMP version 6.1.0, MPFR version 3.1.4, MPC version 1.0.
  14              	@ GGC heuristics: --param ggc-min-expand=100 --param ggc-min-heapsize=131072
  15              	@ options passed:  -I . -I ../../lpc11cx4-library/lpc_chip_11cxx_lib/inc
  16              	@ -imultilib thumb/v6-m -iprefix /usr/bin/../lib/gcc/arm-none-eabi/6.2.1/
  17              	@ -isysroot /usr/bin/../arm-none-eabi -MD bin/ring_buffer.d
  18              	@ -MF bin/ring_buffer.d -MP -MQ bin/ring_buffer.o -D__USES_INITFINI__
  19              	@ -D CORE_M0 ../../lpc11cx4-library/lpc_chip_11cxx_lib/src/ring_buffer.c
  20              	@ -mcpu=cortex-m0 -mthumb -auxbase-strip bin/ring_buffer.o -g -ggdb3 -O2
  21              	@ -Wall -Wstrict-prototypes -Wextra -std=gnu90 -ffunction-sections
  22              	@ -fdata-sections -fverbose-asm
  23              	@ options enabled:  -faggressive-loop-optimizations -falign-jumps
  24              	@ -falign-labels -falign-loops -fauto-inc-dec -fbranch-count-reg
  25              	@ -fcaller-saves -fchkp-check-incomplete-type -fchkp-check-read
  26              	@ -fchkp-check-write -fchkp-instrument-calls -fchkp-narrow-bounds
  27              	@ -fchkp-optimize -fchkp-store-bounds -fchkp-use-static-bounds
  28              	@ -fchkp-use-static-const-bounds -fchkp-use-wrappers
  29              	@ -fcombine-stack-adjustments -fcommon -fcompare-elim -fcprop-registers
  30              	@ -fcrossjumping -fcse-follow-jumps -fdata-sections -fdefer-pop
  31              	@ -fdelete-null-pointer-checks -fdevirtualize -fdevirtualize-speculatively
  32              	@ -fdwarf2-cfi-asm -fearly-inlining -feliminate-unused-debug-types
  33              	@ -fexpensive-optimizations -fforward-propagate -ffunction-cse
  34              	@ -ffunction-sections -fgcse -fgcse-lm -fgnu-runtime -fgnu-unique
  35              	@ -fguess-branch-probability -fhoist-adjacent-loads -fident -fif-conversion
  36              	@ -fif-conversion2 -findirect-inlining -finline -finline-atomics
  37              	@ -finline-functions-called-once -finline-small-functions -fipa-cp
  38              	@ -fipa-cp-alignment -fipa-icf -fipa-icf-functions -fipa-icf-variables
  39              	@ -fipa-profile -fipa-pure-const -fipa-reference -fipa-sra
  40              	@ -fira-hoist-pressure -fira-share-save-slots -fira-share-spill-slots
  41              	@ -fisolate-erroneous-paths-dereference -fivopts -fkeep-static-consts
  42              	@ -fleading-underscore -flifetime-dse -flra-remat -flto-odr-type-merging
  43              	@ -fmath-errno -fmerge-constants -fmerge-debug-strings
  44              	@ -fmove-loop-invariants -fomit-frame-pointer -foptimize-sibling-calls
  45              	@ -foptimize-strlen -fpartial-inlining -fpeephole -fpeephole2 -fplt
  46              	@ -fprefetch-loop-arrays -freg-struct-return -freorder-blocks
  47              	@ -freorder-functions -frerun-cse-after-loop
  48              	@ -fsched-critical-path-heuristic -fsched-dep-count-heuristic
  49              	@ -fsched-group-heuristic -fsched-interblock -fsched-last-insn-heuristic
  50              	@ -fsched-pressure -fsched-rank-heuristic -fsched-spec
  51              	@ -fsched-spec-insn-heuristic -fsched-stalled-insns-dep -fschedule-insns2
  52              	@ -fsection-anchors -fsemantic-interposition -fshow-column -fshrink-wrap
  53              	@ -fsigned-zeros -fsplit-ivs-in-unroller -fsplit-wide-types -fssa-backprop
  54              	@ -fssa-phiopt -fstdarg-opt -fstrict-aliasing -fstrict-overflow
  55              	@ -fstrict-volatile-bitfields -fsync-libcalls -fthread-jumps
  56              	@ -ftoplevel-reorder -ftrapping-math -ftree-bit-ccp -ftree-builtin-call-dce
  57              	@ -ftree-ccp -ftree-ch -ftree-coalesce-vars -ftree-copy-prop -ftree-cselim
ARM GAS  /tmp/cchmMkLH.s 			page 2


  58              	@ -ftree-dce -ftree-dominator-opts -ftree-dse -ftree-forwprop -ftree-fre
  59              	@ -ftree-loop-if-convert -ftree-loop-im -ftree-loop-ivcanon
  60              	@ -ftree-loop-optimize -ftree-parallelize-loops= -ftree-phiprop -ftree-pre
  61              	@ -ftree-pta -ftree-reassoc -ftree-scev-cprop -ftree-sink -ftree-slsr
  62              	@ -ftree-sra -ftree-switch-conversion -ftree-tail-merge -ftree-ter
  63              	@ -ftree-vrp -funit-at-a-time -fvar-tracking -fvar-tracking-assignments
  64              	@ -fverbose-asm -fzero-initialized-in-bss -mlittle-endian
  65              	@ -mpic-data-is-text-relative -msched-prolog -mthumb
  66              	@ -mvectorize-with-neon-quad
  67              	
  68              		.text
  69              	.Ltext0:
  70              		.cfi_sections	.debug_frame
  71              		.section	.text.RingBuffer_Init,"ax",%progbits
  72              		.align	1
  73              		.p2align 2,,3
  74              		.global	RingBuffer_Init
  75              		.syntax unified
  76              		.code	16
  77              		.thumb_func
  78              		.fpu softvfp
  79              		.type	RingBuffer_Init, %function
  80              	RingBuffer_Init:
  81              	.LFB6:
  82              		.file 1 "../../lpc11cx4-library/lpc_chip_11cxx_lib/src/ring_buffer.c"
   1:../../lpc11cx4-library/lpc_chip_11cxx_lib/src/ring_buffer.c **** /*
   2:../../lpc11cx4-library/lpc_chip_11cxx_lib/src/ring_buffer.c ****  * @brief Common ring buffer support functions
   3:../../lpc11cx4-library/lpc_chip_11cxx_lib/src/ring_buffer.c ****  *
   4:../../lpc11cx4-library/lpc_chip_11cxx_lib/src/ring_buffer.c ****  * @note
   5:../../lpc11cx4-library/lpc_chip_11cxx_lib/src/ring_buffer.c ****  * Copyright(C) NXP Semiconductors, 2012
   6:../../lpc11cx4-library/lpc_chip_11cxx_lib/src/ring_buffer.c ****  * All rights reserved.
   7:../../lpc11cx4-library/lpc_chip_11cxx_lib/src/ring_buffer.c ****  *
   8:../../lpc11cx4-library/lpc_chip_11cxx_lib/src/ring_buffer.c ****  * @par
   9:../../lpc11cx4-library/lpc_chip_11cxx_lib/src/ring_buffer.c ****  * Software that is described herein is for illustrative purposes only
  10:../../lpc11cx4-library/lpc_chip_11cxx_lib/src/ring_buffer.c ****  * which provides customers with programming information regarding the
  11:../../lpc11cx4-library/lpc_chip_11cxx_lib/src/ring_buffer.c ****  * LPC products.  This software is supplied "AS IS" without any warranties of
  12:../../lpc11cx4-library/lpc_chip_11cxx_lib/src/ring_buffer.c ****  * any kind, and NXP Semiconductors and its licensor disclaim any and
  13:../../lpc11cx4-library/lpc_chip_11cxx_lib/src/ring_buffer.c ****  * all warranties, express or implied, including all implied warranties of
  14:../../lpc11cx4-library/lpc_chip_11cxx_lib/src/ring_buffer.c ****  * merchantability, fitness for a particular purpose and non-infringement of
  15:../../lpc11cx4-library/lpc_chip_11cxx_lib/src/ring_buffer.c ****  * intellectual property rights.  NXP Semiconductors assumes no responsibility
  16:../../lpc11cx4-library/lpc_chip_11cxx_lib/src/ring_buffer.c ****  * or liability for the use of the software, conveys no license or rights under any
  17:../../lpc11cx4-library/lpc_chip_11cxx_lib/src/ring_buffer.c ****  * patent, copyright, mask work right, or any other intellectual property rights in
  18:../../lpc11cx4-library/lpc_chip_11cxx_lib/src/ring_buffer.c ****  * or to any products. NXP Semiconductors reserves the right to make changes
  19:../../lpc11cx4-library/lpc_chip_11cxx_lib/src/ring_buffer.c ****  * in the software without notification. NXP Semiconductors also makes no
  20:../../lpc11cx4-library/lpc_chip_11cxx_lib/src/ring_buffer.c ****  * representation or warranty that such application will be suitable for the
  21:../../lpc11cx4-library/lpc_chip_11cxx_lib/src/ring_buffer.c ****  * specified use without further testing or modification.
  22:../../lpc11cx4-library/lpc_chip_11cxx_lib/src/ring_buffer.c ****  *
  23:../../lpc11cx4-library/lpc_chip_11cxx_lib/src/ring_buffer.c ****  * @par
  24:../../lpc11cx4-library/lpc_chip_11cxx_lib/src/ring_buffer.c ****  * Permission to use, copy, modify, and distribute this software and its
  25:../../lpc11cx4-library/lpc_chip_11cxx_lib/src/ring_buffer.c ****  * documentation is hereby granted, under NXP Semiconductors' and its
  26:../../lpc11cx4-library/lpc_chip_11cxx_lib/src/ring_buffer.c ****  * licensor's relevant copyrights in the software, without fee, provided that it
  27:../../lpc11cx4-library/lpc_chip_11cxx_lib/src/ring_buffer.c ****  * is used in conjunction with NXP Semiconductors microcontrollers.  This
  28:../../lpc11cx4-library/lpc_chip_11cxx_lib/src/ring_buffer.c ****  * copyright, permission, and disclaimer notice must appear in all copies of
  29:../../lpc11cx4-library/lpc_chip_11cxx_lib/src/ring_buffer.c ****  * this code.
  30:../../lpc11cx4-library/lpc_chip_11cxx_lib/src/ring_buffer.c ****  */
  31:../../lpc11cx4-library/lpc_chip_11cxx_lib/src/ring_buffer.c **** 
  32:../../lpc11cx4-library/lpc_chip_11cxx_lib/src/ring_buffer.c **** #include <string.h>
ARM GAS  /tmp/cchmMkLH.s 			page 3


  33:../../lpc11cx4-library/lpc_chip_11cxx_lib/src/ring_buffer.c **** #include "ring_buffer.h"
  34:../../lpc11cx4-library/lpc_chip_11cxx_lib/src/ring_buffer.c **** 
  35:../../lpc11cx4-library/lpc_chip_11cxx_lib/src/ring_buffer.c **** /*****************************************************************************
  36:../../lpc11cx4-library/lpc_chip_11cxx_lib/src/ring_buffer.c ****  * Private types/enumerations/variables
  37:../../lpc11cx4-library/lpc_chip_11cxx_lib/src/ring_buffer.c ****  ****************************************************************************/
  38:../../lpc11cx4-library/lpc_chip_11cxx_lib/src/ring_buffer.c **** 
  39:../../lpc11cx4-library/lpc_chip_11cxx_lib/src/ring_buffer.c **** #define RB_INDH(rb)                ((rb)->head % (rb)->count)
  40:../../lpc11cx4-library/lpc_chip_11cxx_lib/src/ring_buffer.c **** #define RB_INDT(rb)                ((rb)->tail % (rb)->count)
  41:../../lpc11cx4-library/lpc_chip_11cxx_lib/src/ring_buffer.c **** 
  42:../../lpc11cx4-library/lpc_chip_11cxx_lib/src/ring_buffer.c **** /*****************************************************************************
  43:../../lpc11cx4-library/lpc_chip_11cxx_lib/src/ring_buffer.c ****  * Public types/enumerations/variables
  44:../../lpc11cx4-library/lpc_chip_11cxx_lib/src/ring_buffer.c ****  ****************************************************************************/
  45:../../lpc11cx4-library/lpc_chip_11cxx_lib/src/ring_buffer.c **** 
  46:../../lpc11cx4-library/lpc_chip_11cxx_lib/src/ring_buffer.c **** /*****************************************************************************
  47:../../lpc11cx4-library/lpc_chip_11cxx_lib/src/ring_buffer.c ****  * Private functions
  48:../../lpc11cx4-library/lpc_chip_11cxx_lib/src/ring_buffer.c ****  ****************************************************************************/
  49:../../lpc11cx4-library/lpc_chip_11cxx_lib/src/ring_buffer.c **** 
  50:../../lpc11cx4-library/lpc_chip_11cxx_lib/src/ring_buffer.c **** /*****************************************************************************
  51:../../lpc11cx4-library/lpc_chip_11cxx_lib/src/ring_buffer.c ****  * Public functions
  52:../../lpc11cx4-library/lpc_chip_11cxx_lib/src/ring_buffer.c ****  ****************************************************************************/
  53:../../lpc11cx4-library/lpc_chip_11cxx_lib/src/ring_buffer.c **** 
  54:../../lpc11cx4-library/lpc_chip_11cxx_lib/src/ring_buffer.c **** /* Initialize ring buffer */
  55:../../lpc11cx4-library/lpc_chip_11cxx_lib/src/ring_buffer.c **** int RingBuffer_Init(RINGBUFF_T *RingBuff, void *buffer, uint32_t itemSize, uint32_t count)
  56:../../lpc11cx4-library/lpc_chip_11cxx_lib/src/ring_buffer.c **** {
  83              		.loc 1 56 0
  84              		.cfi_startproc
  85              		@ args = 0, pretend = 0, frame = 0
  86              		@ frame_needed = 0, uses_anonymous_args = 0
  87              		@ link register save eliminated.
  88              	.LVL0:
  57:../../lpc11cx4-library/lpc_chip_11cxx_lib/src/ring_buffer.c **** 	RingBuff->data = buffer;
  58:../../lpc11cx4-library/lpc_chip_11cxx_lib/src/ring_buffer.c **** 	RingBuff->count = count;
  89              		.loc 1 58 0
  90 0000 4360     		str	r3, [r0, #4]	@ count, RingBuff_2(D)->count
  59:../../lpc11cx4-library/lpc_chip_11cxx_lib/src/ring_buffer.c **** 	RingBuff->itemSz = itemSize;
  60:../../lpc11cx4-library/lpc_chip_11cxx_lib/src/ring_buffer.c **** 	RingBuff->head = RingBuff->tail = 0;
  91              		.loc 1 60 0
  92 0002 0023     		movs	r3, #0	@ tmp115,
  93              	.LVL1:
  57:../../lpc11cx4-library/lpc_chip_11cxx_lib/src/ring_buffer.c **** 	RingBuff->data = buffer;
  94              		.loc 1 57 0
  95 0004 0160     		str	r1, [r0]	@ buffer, RingBuff_2(D)->data
  59:../../lpc11cx4-library/lpc_chip_11cxx_lib/src/ring_buffer.c **** 	RingBuff->itemSz = itemSize;
  96              		.loc 1 59 0
  97 0006 8260     		str	r2, [r0, #8]	@ itemSize, RingBuff_2(D)->itemSz
  98              		.loc 1 60 0
  99 0008 0361     		str	r3, [r0, #16]	@ tmp115, RingBuff_2(D)->tail
 100 000a C360     		str	r3, [r0, #12]	@ tmp115, RingBuff_2(D)->head
  61:../../lpc11cx4-library/lpc_chip_11cxx_lib/src/ring_buffer.c **** 
  62:../../lpc11cx4-library/lpc_chip_11cxx_lib/src/ring_buffer.c **** 	return 1;
  63:../../lpc11cx4-library/lpc_chip_11cxx_lib/src/ring_buffer.c **** }
 101              		.loc 1 63 0
 102              		@ sp needed	@
 103 000c 0120     		movs	r0, #1	@,
 104              	.LVL2:
 105 000e 7047     		bx	lr
 106              		.cfi_endproc
ARM GAS  /tmp/cchmMkLH.s 			page 4


 107              	.LFE6:
 108              		.size	RingBuffer_Init, .-RingBuffer_Init
 109              		.global	__aeabi_uidivmod
 110              		.section	.text.RingBuffer_Insert,"ax",%progbits
 111              		.align	1
 112              		.p2align 2,,3
 113              		.global	RingBuffer_Insert
 114              		.syntax unified
 115              		.code	16
 116              		.thumb_func
 117              		.fpu softvfp
 118              		.type	RingBuffer_Insert, %function
 119              	RingBuffer_Insert:
 120              	.LFB7:
  64:../../lpc11cx4-library/lpc_chip_11cxx_lib/src/ring_buffer.c **** 
  65:../../lpc11cx4-library/lpc_chip_11cxx_lib/src/ring_buffer.c **** /* Insert a single item into Ring Buffer */
  66:../../lpc11cx4-library/lpc_chip_11cxx_lib/src/ring_buffer.c **** int RingBuffer_Insert(RINGBUFF_T *RingBuff, const void *data)
  67:../../lpc11cx4-library/lpc_chip_11cxx_lib/src/ring_buffer.c **** {
 121              		.loc 1 67 0
 122              		.cfi_startproc
 123              		@ args = 0, pretend = 0, frame = 0
 124              		@ frame_needed = 0, uses_anonymous_args = 0
 125              	.LVL3:
 126 0000 F8B5     		push	{r3, r4, r5, r6, r7, lr}	@
 127              		.cfi_def_cfa_offset 24
 128              		.cfi_offset 3, -24
 129              		.cfi_offset 4, -20
 130              		.cfi_offset 5, -16
 131              		.cfi_offset 6, -12
 132              		.cfi_offset 7, -8
 133              		.cfi_offset 14, -4
 134 0002 C268     		ldr	r2, [r0, #12]	@ _6, MEM[(long unsigned int *)RingBuff_4(D) + 12B]
 135              	.LVL4:
 136              	.LBB24:
 137              	.LBB25:
 138              	.LBB26:
 139              	.LBB27:
 140              		.file 2 "../../lpc11cx4-library/lpc_chip_11cxx_lib/inc/ring_buffer.h"
   1:../../lpc11cx4-library/lpc_chip_11cxx_lib/inc/ring_buffer.h **** /*
   2:../../lpc11cx4-library/lpc_chip_11cxx_lib/inc/ring_buffer.h ****  * @brief Common ring buffer support functions
   3:../../lpc11cx4-library/lpc_chip_11cxx_lib/inc/ring_buffer.h ****  *
   4:../../lpc11cx4-library/lpc_chip_11cxx_lib/inc/ring_buffer.h ****  * @note
   5:../../lpc11cx4-library/lpc_chip_11cxx_lib/inc/ring_buffer.h ****  * Copyright(C) NXP Semiconductors, 2012
   6:../../lpc11cx4-library/lpc_chip_11cxx_lib/inc/ring_buffer.h ****  * All rights reserved.
   7:../../lpc11cx4-library/lpc_chip_11cxx_lib/inc/ring_buffer.h ****  *
   8:../../lpc11cx4-library/lpc_chip_11cxx_lib/inc/ring_buffer.h ****  * @par
   9:../../lpc11cx4-library/lpc_chip_11cxx_lib/inc/ring_buffer.h ****  * Software that is described herein is for illustrative purposes only
  10:../../lpc11cx4-library/lpc_chip_11cxx_lib/inc/ring_buffer.h ****  * which provides customers with programming information regarding the
  11:../../lpc11cx4-library/lpc_chip_11cxx_lib/inc/ring_buffer.h ****  * LPC products.  This software is supplied "AS IS" without any warranties of
  12:../../lpc11cx4-library/lpc_chip_11cxx_lib/inc/ring_buffer.h ****  * any kind, and NXP Semiconductors and its licensor disclaim any and
  13:../../lpc11cx4-library/lpc_chip_11cxx_lib/inc/ring_buffer.h ****  * all warranties, express or implied, including all implied warranties of
  14:../../lpc11cx4-library/lpc_chip_11cxx_lib/inc/ring_buffer.h ****  * merchantability, fitness for a particular purpose and non-infringement of
  15:../../lpc11cx4-library/lpc_chip_11cxx_lib/inc/ring_buffer.h ****  * intellectual property rights.  NXP Semiconductors assumes no responsibility
  16:../../lpc11cx4-library/lpc_chip_11cxx_lib/inc/ring_buffer.h ****  * or liability for the use of the software, conveys no license or rights under any
  17:../../lpc11cx4-library/lpc_chip_11cxx_lib/inc/ring_buffer.h ****  * patent, copyright, mask work right, or any other intellectual property rights in
  18:../../lpc11cx4-library/lpc_chip_11cxx_lib/inc/ring_buffer.h ****  * or to any products. NXP Semiconductors reserves the right to make changes
  19:../../lpc11cx4-library/lpc_chip_11cxx_lib/inc/ring_buffer.h ****  * in the software without notification. NXP Semiconductors also makes no
ARM GAS  /tmp/cchmMkLH.s 			page 5


  20:../../lpc11cx4-library/lpc_chip_11cxx_lib/inc/ring_buffer.h ****  * representation or warranty that such application will be suitable for the
  21:../../lpc11cx4-library/lpc_chip_11cxx_lib/inc/ring_buffer.h ****  * specified use without further testing or modification.
  22:../../lpc11cx4-library/lpc_chip_11cxx_lib/inc/ring_buffer.h ****  *
  23:../../lpc11cx4-library/lpc_chip_11cxx_lib/inc/ring_buffer.h ****  * @par
  24:../../lpc11cx4-library/lpc_chip_11cxx_lib/inc/ring_buffer.h ****  * Permission to use, copy, modify, and distribute this software and its
  25:../../lpc11cx4-library/lpc_chip_11cxx_lib/inc/ring_buffer.h ****  * documentation is hereby granted, under NXP Semiconductors' and its
  26:../../lpc11cx4-library/lpc_chip_11cxx_lib/inc/ring_buffer.h ****  * licensor's relevant copyrights in the software, without fee, provided that it
  27:../../lpc11cx4-library/lpc_chip_11cxx_lib/inc/ring_buffer.h ****  * is used in conjunction with NXP Semiconductors microcontrollers.  This
  28:../../lpc11cx4-library/lpc_chip_11cxx_lib/inc/ring_buffer.h ****  * copyright, permission, and disclaimer notice must appear in all copies of
  29:../../lpc11cx4-library/lpc_chip_11cxx_lib/inc/ring_buffer.h ****  * this code.
  30:../../lpc11cx4-library/lpc_chip_11cxx_lib/inc/ring_buffer.h ****  */
  31:../../lpc11cx4-library/lpc_chip_11cxx_lib/inc/ring_buffer.h **** 
  32:../../lpc11cx4-library/lpc_chip_11cxx_lib/inc/ring_buffer.h **** #ifndef __RING_BUFFER_H_
  33:../../lpc11cx4-library/lpc_chip_11cxx_lib/inc/ring_buffer.h **** #define __RING_BUFFER_H_
  34:../../lpc11cx4-library/lpc_chip_11cxx_lib/inc/ring_buffer.h **** 
  35:../../lpc11cx4-library/lpc_chip_11cxx_lib/inc/ring_buffer.h **** #include "lpc_types.h"
  36:../../lpc11cx4-library/lpc_chip_11cxx_lib/inc/ring_buffer.h **** 
  37:../../lpc11cx4-library/lpc_chip_11cxx_lib/inc/ring_buffer.h **** /** @defgroup Ring_Buffer CHIP: Simple ring buffer implementation
  38:../../lpc11cx4-library/lpc_chip_11cxx_lib/inc/ring_buffer.h ****  * @ingroup CHIP_Common
  39:../../lpc11cx4-library/lpc_chip_11cxx_lib/inc/ring_buffer.h ****  * @{
  40:../../lpc11cx4-library/lpc_chip_11cxx_lib/inc/ring_buffer.h ****  */
  41:../../lpc11cx4-library/lpc_chip_11cxx_lib/inc/ring_buffer.h **** 
  42:../../lpc11cx4-library/lpc_chip_11cxx_lib/inc/ring_buffer.h **** /**
  43:../../lpc11cx4-library/lpc_chip_11cxx_lib/inc/ring_buffer.h ****  * @brief Ring buffer structure
  44:../../lpc11cx4-library/lpc_chip_11cxx_lib/inc/ring_buffer.h ****  */
  45:../../lpc11cx4-library/lpc_chip_11cxx_lib/inc/ring_buffer.h **** typedef struct {
  46:../../lpc11cx4-library/lpc_chip_11cxx_lib/inc/ring_buffer.h **** 	void *data;
  47:../../lpc11cx4-library/lpc_chip_11cxx_lib/inc/ring_buffer.h **** 	uint32_t count;
  48:../../lpc11cx4-library/lpc_chip_11cxx_lib/inc/ring_buffer.h **** 	uint32_t itemSz;
  49:../../lpc11cx4-library/lpc_chip_11cxx_lib/inc/ring_buffer.h **** 	uint32_t head;
  50:../../lpc11cx4-library/lpc_chip_11cxx_lib/inc/ring_buffer.h **** 	uint32_t tail;
  51:../../lpc11cx4-library/lpc_chip_11cxx_lib/inc/ring_buffer.h **** } RINGBUFF_T;
  52:../../lpc11cx4-library/lpc_chip_11cxx_lib/inc/ring_buffer.h **** 
  53:../../lpc11cx4-library/lpc_chip_11cxx_lib/inc/ring_buffer.h **** /**
  54:../../lpc11cx4-library/lpc_chip_11cxx_lib/inc/ring_buffer.h ****  * @def		RB_VHEAD(rb)
  55:../../lpc11cx4-library/lpc_chip_11cxx_lib/inc/ring_buffer.h ****  * volatile typecasted head index
  56:../../lpc11cx4-library/lpc_chip_11cxx_lib/inc/ring_buffer.h ****  */
  57:../../lpc11cx4-library/lpc_chip_11cxx_lib/inc/ring_buffer.h **** // #define RB_VHEAD(rb)              (*(volatile uint32_t *) &(rb)->head)
  58:../../lpc11cx4-library/lpc_chip_11cxx_lib/inc/ring_buffer.h **** #define RB_VHEAD(rb)				((volatile uint32_t)(rb->head))
  59:../../lpc11cx4-library/lpc_chip_11cxx_lib/inc/ring_buffer.h **** 
  60:../../lpc11cx4-library/lpc_chip_11cxx_lib/inc/ring_buffer.h **** /**
  61:../../lpc11cx4-library/lpc_chip_11cxx_lib/inc/ring_buffer.h ****  * @def		RB_VTAIL(rb)
  62:../../lpc11cx4-library/lpc_chip_11cxx_lib/inc/ring_buffer.h ****  * volatile typecasted tail index
  63:../../lpc11cx4-library/lpc_chip_11cxx_lib/inc/ring_buffer.h ****  */
  64:../../lpc11cx4-library/lpc_chip_11cxx_lib/inc/ring_buffer.h **** // #define RB_VTAIL(rb)              (*(volatile uint32_t *) &(rb)->tail)
  65:../../lpc11cx4-library/lpc_chip_11cxx_lib/inc/ring_buffer.h **** #define RB_VTAIL(rb)				((volatile uint32_t)(rb->tail))
  66:../../lpc11cx4-library/lpc_chip_11cxx_lib/inc/ring_buffer.h **** 
  67:../../lpc11cx4-library/lpc_chip_11cxx_lib/inc/ring_buffer.h **** /**
  68:../../lpc11cx4-library/lpc_chip_11cxx_lib/inc/ring_buffer.h ****  * @brief	Initialize ring buffer
  69:../../lpc11cx4-library/lpc_chip_11cxx_lib/inc/ring_buffer.h ****  * @param	RingBuff	: Pointer to ring buffer to initialize
  70:../../lpc11cx4-library/lpc_chip_11cxx_lib/inc/ring_buffer.h ****  * @param	buffer		: Pointer to buffer to associate with RingBuff
  71:../../lpc11cx4-library/lpc_chip_11cxx_lib/inc/ring_buffer.h ****  * @param	itemSize	: Size of each buffer item size
  72:../../lpc11cx4-library/lpc_chip_11cxx_lib/inc/ring_buffer.h ****  * @param	count		: Size of ring buffer
  73:../../lpc11cx4-library/lpc_chip_11cxx_lib/inc/ring_buffer.h ****  * @note	Memory pointed by @a buffer must have correct alignment of
  74:../../lpc11cx4-library/lpc_chip_11cxx_lib/inc/ring_buffer.h ****  * 			@a itemSize, and @a count must be a power of 2 and must at
  75:../../lpc11cx4-library/lpc_chip_11cxx_lib/inc/ring_buffer.h ****  * 			least be 2 or greater.
  76:../../lpc11cx4-library/lpc_chip_11cxx_lib/inc/ring_buffer.h ****  * @return	Nothing
ARM GAS  /tmp/cchmMkLH.s 			page 6


  77:../../lpc11cx4-library/lpc_chip_11cxx_lib/inc/ring_buffer.h ****  */
  78:../../lpc11cx4-library/lpc_chip_11cxx_lib/inc/ring_buffer.h **** int RingBuffer_Init(RINGBUFF_T *RingBuff, void *buffer, uint32_t itemSize, uint32_t count);
  79:../../lpc11cx4-library/lpc_chip_11cxx_lib/inc/ring_buffer.h **** 
  80:../../lpc11cx4-library/lpc_chip_11cxx_lib/inc/ring_buffer.h **** /**
  81:../../lpc11cx4-library/lpc_chip_11cxx_lib/inc/ring_buffer.h ****  * @brief	Resets the ring buffer to empty
  82:../../lpc11cx4-library/lpc_chip_11cxx_lib/inc/ring_buffer.h ****  * @param	RingBuff	: Pointer to ring buffer
  83:../../lpc11cx4-library/lpc_chip_11cxx_lib/inc/ring_buffer.h ****  * @return	Nothing
  84:../../lpc11cx4-library/lpc_chip_11cxx_lib/inc/ring_buffer.h ****  */
  85:../../lpc11cx4-library/lpc_chip_11cxx_lib/inc/ring_buffer.h **** STATIC INLINE void RingBuffer_Flush(RINGBUFF_T *RingBuff)
  86:../../lpc11cx4-library/lpc_chip_11cxx_lib/inc/ring_buffer.h **** {
  87:../../lpc11cx4-library/lpc_chip_11cxx_lib/inc/ring_buffer.h **** 	RingBuff->head = RingBuff->tail = 0;
  88:../../lpc11cx4-library/lpc_chip_11cxx_lib/inc/ring_buffer.h **** }
  89:../../lpc11cx4-library/lpc_chip_11cxx_lib/inc/ring_buffer.h **** 
  90:../../lpc11cx4-library/lpc_chip_11cxx_lib/inc/ring_buffer.h **** /**
  91:../../lpc11cx4-library/lpc_chip_11cxx_lib/inc/ring_buffer.h ****  * @brief	Return size the ring buffer
  92:../../lpc11cx4-library/lpc_chip_11cxx_lib/inc/ring_buffer.h ****  * @param	RingBuff	: Pointer to ring buffer
  93:../../lpc11cx4-library/lpc_chip_11cxx_lib/inc/ring_buffer.h ****  * @return	Size of the ring buffer in bytes
  94:../../lpc11cx4-library/lpc_chip_11cxx_lib/inc/ring_buffer.h ****  */
  95:../../lpc11cx4-library/lpc_chip_11cxx_lib/inc/ring_buffer.h **** STATIC INLINE uint32_t RingBuffer_GetSize(RINGBUFF_T *RingBuff)
  96:../../lpc11cx4-library/lpc_chip_11cxx_lib/inc/ring_buffer.h **** {
  97:../../lpc11cx4-library/lpc_chip_11cxx_lib/inc/ring_buffer.h **** 	return RingBuff->count;
  98:../../lpc11cx4-library/lpc_chip_11cxx_lib/inc/ring_buffer.h **** }
  99:../../lpc11cx4-library/lpc_chip_11cxx_lib/inc/ring_buffer.h **** 
 100:../../lpc11cx4-library/lpc_chip_11cxx_lib/inc/ring_buffer.h **** /**
 101:../../lpc11cx4-library/lpc_chip_11cxx_lib/inc/ring_buffer.h ****  * @brief	Return number of items in the ring buffer
 102:../../lpc11cx4-library/lpc_chip_11cxx_lib/inc/ring_buffer.h ****  * @param	RingBuff	: Pointer to ring buffer
 103:../../lpc11cx4-library/lpc_chip_11cxx_lib/inc/ring_buffer.h ****  * @return	Number of items in the ring buffer
 104:../../lpc11cx4-library/lpc_chip_11cxx_lib/inc/ring_buffer.h ****  */
 105:../../lpc11cx4-library/lpc_chip_11cxx_lib/inc/ring_buffer.h **** STATIC INLINE uint32_t RingBuffer_GetCount(RINGBUFF_T *RingBuff)
 106:../../lpc11cx4-library/lpc_chip_11cxx_lib/inc/ring_buffer.h **** {
 107:../../lpc11cx4-library/lpc_chip_11cxx_lib/inc/ring_buffer.h **** 	return RB_VHEAD(RingBuff) - RB_VTAIL(RingBuff);
 141              		.loc 2 107 0
 142 0004 0369     		ldr	r3, [r0, #16]	@ tmp142, MEM[(long unsigned int *)RingBuff_4(D) + 16B]
 143              	.LBE27:
 144              	.LBE26:
 145              	.LBE25:
 146              	.LBE24:
 147              		.loc 1 67 0
 148 0006 0E00     		movs	r6, r1	@ data, data
 149              	.LBB32:
 150              	.LBB30:
 108:../../lpc11cx4-library/lpc_chip_11cxx_lib/inc/ring_buffer.h **** }
 109:../../lpc11cx4-library/lpc_chip_11cxx_lib/inc/ring_buffer.h **** 
 110:../../lpc11cx4-library/lpc_chip_11cxx_lib/inc/ring_buffer.h **** /**
 111:../../lpc11cx4-library/lpc_chip_11cxx_lib/inc/ring_buffer.h ****  * @brief	Return number of free items in the ring buffer
 112:../../lpc11cx4-library/lpc_chip_11cxx_lib/inc/ring_buffer.h ****  * @param	RingBuff	: Pointer to ring buffer
 113:../../lpc11cx4-library/lpc_chip_11cxx_lib/inc/ring_buffer.h ****  * @return	Number of free items in the ring buffer
 114:../../lpc11cx4-library/lpc_chip_11cxx_lib/inc/ring_buffer.h ****  */
 115:../../lpc11cx4-library/lpc_chip_11cxx_lib/inc/ring_buffer.h **** STATIC INLINE uint32_t RingBuffer_GetFree(RINGBUFF_T *RingBuff)
 116:../../lpc11cx4-library/lpc_chip_11cxx_lib/inc/ring_buffer.h **** {
 117:../../lpc11cx4-library/lpc_chip_11cxx_lib/inc/ring_buffer.h **** 	return RingBuff->count - RingBuffer_GetCount(RingBuff);
 118:../../lpc11cx4-library/lpc_chip_11cxx_lib/inc/ring_buffer.h **** }
 119:../../lpc11cx4-library/lpc_chip_11cxx_lib/inc/ring_buffer.h **** 
 120:../../lpc11cx4-library/lpc_chip_11cxx_lib/inc/ring_buffer.h **** /**
 121:../../lpc11cx4-library/lpc_chip_11cxx_lib/inc/ring_buffer.h ****  * @brief	Return number of items in the ring buffer
 122:../../lpc11cx4-library/lpc_chip_11cxx_lib/inc/ring_buffer.h ****  * @param	RingBuff	: Pointer to ring buffer
 123:../../lpc11cx4-library/lpc_chip_11cxx_lib/inc/ring_buffer.h ****  * @return	1 if the ring buffer is full, otherwise 0
ARM GAS  /tmp/cchmMkLH.s 			page 7


 124:../../lpc11cx4-library/lpc_chip_11cxx_lib/inc/ring_buffer.h ****  */
 125:../../lpc11cx4-library/lpc_chip_11cxx_lib/inc/ring_buffer.h **** STATIC INLINE int RingBuffer_IsFull(RINGBUFF_T *RingBuff)
 126:../../lpc11cx4-library/lpc_chip_11cxx_lib/inc/ring_buffer.h **** {
 127:../../lpc11cx4-library/lpc_chip_11cxx_lib/inc/ring_buffer.h **** 	return (RingBuffer_GetCount(RingBuff) >= RingBuff->count);
 151              		.loc 2 127 0
 152 0008 4168     		ldr	r1, [r0, #4]	@ _18, RingBuff_4(D)->count
 153              	.LVL5:
 154              	.LBE30:
 155              	.LBE32:
 156              		.loc 1 67 0
 157 000a 0400     		movs	r4, r0	@ RingBuff, RingBuff
 158              	.LBB33:
 159              	.LBB31:
 160              	.LBB29:
 161              	.LBB28:
 107:../../lpc11cx4-library/lpc_chip_11cxx_lib/inc/ring_buffer.h **** }
 162              		.loc 2 107 0
 163 000c D31A     		subs	r3, r2, r3	@ tmp124, _6, tmp142
 164              	.LBE28:
 165              	.LBE29:
 166              	.LBE31:
 167              	.LBE33:
  68:../../lpc11cx4-library/lpc_chip_11cxx_lib/src/ring_buffer.c **** 	uint8_t *ptr = RingBuff->data;
  69:../../lpc11cx4-library/lpc_chip_11cxx_lib/src/ring_buffer.c **** 
  70:../../lpc11cx4-library/lpc_chip_11cxx_lib/src/ring_buffer.c **** 	/* We cannot insert when queue is full */
  71:../../lpc11cx4-library/lpc_chip_11cxx_lib/src/ring_buffer.c **** 	if (RingBuffer_IsFull(RingBuff))
  72:../../lpc11cx4-library/lpc_chip_11cxx_lib/src/ring_buffer.c **** 		return 0;
 168              		.loc 1 72 0
 169 000e 0020     		movs	r0, #0	@ <retval>,
 170              	.LVL6:
  71:../../lpc11cx4-library/lpc_chip_11cxx_lib/src/ring_buffer.c **** 		return 0;
 171              		.loc 1 71 0
 172 0010 8B42     		cmp	r3, r1	@ tmp124, _18
 173 0012 0ED2     		bcs	.L2	@,
  73:../../lpc11cx4-library/lpc_chip_11cxx_lib/src/ring_buffer.c **** 
  74:../../lpc11cx4-library/lpc_chip_11cxx_lib/src/ring_buffer.c **** 	ptr += RB_INDH(RingBuff) * RingBuff->itemSz;
 174              		.loc 1 74 0
 175 0014 1000     		movs	r0, r2	@, _6
 176 0016 FFF7FEFF 		bl	__aeabi_uidivmod	@
 177              	.LVL7:
 178 001a A768     		ldr	r7, [r4, #8]	@ _8, RingBuff_4(D)->itemSz
  68:../../lpc11cx4-library/lpc_chip_11cxx_lib/src/ring_buffer.c **** 
 179              		.loc 1 68 0
 180 001c 2568     		ldr	r5, [r4]	@ ptr, RingBuff_4(D)->data
 181              		.loc 1 74 0
 182 001e 7943     		muls	r1, r7	@ tmp131, _8
  75:../../lpc11cx4-library/lpc_chip_11cxx_lib/src/ring_buffer.c **** 	memcpy(ptr, data, RingBuff->itemSz);
 183              		.loc 1 75 0
 184 0020 3A00     		movs	r2, r7	@, _8
  74:../../lpc11cx4-library/lpc_chip_11cxx_lib/src/ring_buffer.c **** 	memcpy(ptr, data, RingBuff->itemSz);
 185              		.loc 1 74 0
 186 0022 6818     		adds	r0, r5, r1	@ ptr, ptr, tmp132
 187              		.loc 1 75 0
 188 0024 3100     		movs	r1, r6	@, data
 189 0026 FFF7FEFF 		bl	memcpy	@
 190              	.LVL8:
  76:../../lpc11cx4-library/lpc_chip_11cxx_lib/src/ring_buffer.c **** 	RingBuff->head++;
ARM GAS  /tmp/cchmMkLH.s 			page 8


  77:../../lpc11cx4-library/lpc_chip_11cxx_lib/src/ring_buffer.c **** 
  78:../../lpc11cx4-library/lpc_chip_11cxx_lib/src/ring_buffer.c **** 	return 1;
 191              		.loc 1 78 0
 192 002a 0120     		movs	r0, #1	@ <retval>,
  76:../../lpc11cx4-library/lpc_chip_11cxx_lib/src/ring_buffer.c **** 	RingBuff->head++;
 193              		.loc 1 76 0
 194 002c E368     		ldr	r3, [r4, #12]	@ tmp144, RingBuff_4(D)->head
 195 002e 0133     		adds	r3, r3, #1	@ tmp139,
 196 0030 E360     		str	r3, [r4, #12]	@ tmp139, RingBuff_4(D)->head
 197              	.L2:
  79:../../lpc11cx4-library/lpc_chip_11cxx_lib/src/ring_buffer.c **** }
 198              		.loc 1 79 0
 199              		@ sp needed	@
 200              	.LVL9:
 201              	.LVL10:
 202 0032 F8BD     		pop	{r3, r4, r5, r6, r7, pc}
 203              		.cfi_endproc
 204              	.LFE7:
 205              		.size	RingBuffer_Insert, .-RingBuffer_Insert
 206              		.section	.text.RingBuffer_InsertMult,"ax",%progbits
 207              		.align	1
 208              		.p2align 2,,3
 209              		.global	RingBuffer_InsertMult
 210              		.syntax unified
 211              		.code	16
 212              		.thumb_func
 213              		.fpu softvfp
 214              		.type	RingBuffer_InsertMult, %function
 215              	RingBuffer_InsertMult:
 216              	.LFB8:
  80:../../lpc11cx4-library/lpc_chip_11cxx_lib/src/ring_buffer.c **** 
  81:../../lpc11cx4-library/lpc_chip_11cxx_lib/src/ring_buffer.c **** /* Insert multiple items into Ring Buffer */
  82:../../lpc11cx4-library/lpc_chip_11cxx_lib/src/ring_buffer.c **** uint32_t RingBuffer_InsertMult(RINGBUFF_T *RingBuff, const void *data, int num)
  83:../../lpc11cx4-library/lpc_chip_11cxx_lib/src/ring_buffer.c **** {
 217              		.loc 1 83 0
 218              		.cfi_startproc
 219              		@ args = 0, pretend = 0, frame = 0
 220              		@ frame_needed = 0, uses_anonymous_args = 0
 221              	.LVL11:
 222 0000 F0B5     		push	{r4, r5, r6, r7, lr}	@
 223              		.cfi_def_cfa_offset 20
 224              		.cfi_offset 4, -20
 225              		.cfi_offset 5, -16
 226              		.cfi_offset 6, -12
 227              		.cfi_offset 7, -8
 228              		.cfi_offset 14, -4
 229 0002 C646     		mov	lr, r8	@,
 230              	.LBB34:
 231              	.LBB35:
 232              	.LBB36:
 233              	.LBB37:
 107:../../lpc11cx4-library/lpc_chip_11cxx_lib/inc/ring_buffer.h **** }
 234              		.loc 2 107 0
 235 0004 0369     		ldr	r3, [r0, #16]	@ tmp186, MEM[(long unsigned int *)RingBuff_5(D) + 16B]
 236              	.LBE37:
 237              	.LBE36:
 238              	.LBE35:
ARM GAS  /tmp/cchmMkLH.s 			page 9


 239              	.LBE34:
 240              		.loc 1 83 0
 241 0006 1600     		movs	r6, r2	@ num, num
 242 0008 C268     		ldr	r2, [r0, #12]	@ _8, MEM[(long unsigned int *)RingBuff_5(D) + 12B]
 243              	.LVL12:
 244 000a 0400     		movs	r4, r0	@ RingBuff, RingBuff
 245              	.LBB42:
 246              	.LBB40:
 247              	.LBB39:
 248              	.LBB38:
 107:../../lpc11cx4-library/lpc_chip_11cxx_lib/inc/ring_buffer.h **** }
 249              		.loc 2 107 0
 250 000c D51A     		subs	r5, r2, r3	@ _45, _8, tmp186
 251              	.LBE38:
 252              	.LBE39:
 253              		.loc 2 127 0
 254 000e 4368     		ldr	r3, [r0, #4]	@ _46, RingBuff_5(D)->count
 255              	.LBE40:
 256              	.LBE42:
 257              		.loc 1 83 0
 258 0010 00B5     		push	{lr}	@
 259              		.cfi_def_cfa_offset 24
 260              		.cfi_offset 8, -24
 261              		.loc 1 83 0
 262 0012 0F00     		movs	r7, r1	@ data, data
 263              	.LBB43:
 264              	.LBB41:
 265              		.loc 2 127 0
 266 0014 9846     		mov	r8, r3	@ _46, _46
 267              	.LVL13:
 268              	.LBE41:
 269              	.LBE43:
  84:../../lpc11cx4-library/lpc_chip_11cxx_lib/src/ring_buffer.c **** 
  85:../../lpc11cx4-library/lpc_chip_11cxx_lib/src/ring_buffer.c **** 	uint8_t *ptr = RingBuff->data;
  86:../../lpc11cx4-library/lpc_chip_11cxx_lib/src/ring_buffer.c **** 	int cnt1, cnt2;
  87:../../lpc11cx4-library/lpc_chip_11cxx_lib/src/ring_buffer.c **** 
  88:../../lpc11cx4-library/lpc_chip_11cxx_lib/src/ring_buffer.c **** 	/* We cannot insert when queue is full */
  89:../../lpc11cx4-library/lpc_chip_11cxx_lib/src/ring_buffer.c **** 	if (RingBuffer_IsFull(RingBuff))
  90:../../lpc11cx4-library/lpc_chip_11cxx_lib/src/ring_buffer.c **** 		return 0;
 270              		.loc 1 90 0
 271 0016 0020     		movs	r0, #0	@ <retval>,
 272              	.LVL14:
  89:../../lpc11cx4-library/lpc_chip_11cxx_lib/src/ring_buffer.c **** 		return 0;
 273              		.loc 1 89 0
 274 0018 9D42     		cmp	r5, r3	@ _45, _46
 275 001a 31D2     		bcs	.L6	@,
 276              	.LVL15:
  91:../../lpc11cx4-library/lpc_chip_11cxx_lib/src/ring_buffer.c **** 
  92:../../lpc11cx4-library/lpc_chip_11cxx_lib/src/ring_buffer.c **** 	/* Calculate the segment lengths */
  93:../../lpc11cx4-library/lpc_chip_11cxx_lib/src/ring_buffer.c **** 	cnt1 = cnt2 = RingBuffer_GetFree(RingBuff);
  94:../../lpc11cx4-library/lpc_chip_11cxx_lib/src/ring_buffer.c **** 	if (RB_INDH(RingBuff) + cnt1 >= RingBuff->count)
 277              		.loc 1 94 0
 278 001c 1900     		movs	r1, r3	@, _46
 279              	.LVL16:
 280 001e 1000     		movs	r0, r2	@, _8
 281              	.LBB44:
 282              	.LBB45:
ARM GAS  /tmp/cchmMkLH.s 			page 10


 117:../../lpc11cx4-library/lpc_chip_11cxx_lib/inc/ring_buffer.h **** }
 283              		.loc 2 117 0
 284 0020 5D1B     		subs	r5, r3, r5	@ cnt1, _46, _45
 285              	.LVL17:
 286              	.LBE45:
 287              	.LBE44:
 288              		.loc 1 94 0
 289 0022 FFF7FEFF 		bl	__aeabi_uidivmod	@
 290              	.LVL18:
 291 0026 4B19     		adds	r3, r1, r5	@ tmp155, _10, cnt1
 292 0028 0022     		movs	r2, #0	@ _59,
 293 002a 4345     		cmp	r3, r8	@ tmp155, _46
 294 002c 03D3     		bcc	.L8	@,
  95:../../lpc11cx4-library/lpc_chip_11cxx_lib/src/ring_buffer.c **** 		cnt1 = RingBuff->count - RB_INDH(RingBuff);
 295              		.loc 1 95 0
 296 002e 4346     		mov	r3, r8	@ _46, _46
 297 0030 5B1A     		subs	r3, r3, r1	@ cnt1, _46, _10
 298              	.LVL19:
 299 0032 EA1A     		subs	r2, r5, r3	@ _59, cnt1, cnt1
 300 0034 1D00     		movs	r5, r3	@ cnt1, cnt1
 301              	.LVL20:
 302              	.L8:
  85:../../lpc11cx4-library/lpc_chip_11cxx_lib/src/ring_buffer.c **** 	int cnt1, cnt2;
 303              		.loc 1 85 0
 304 0036 2068     		ldr	r0, [r4]	@ ptr, RingBuff_5(D)->data
 305              	.LVL21:
  96:../../lpc11cx4-library/lpc_chip_11cxx_lib/src/ring_buffer.c **** 	cnt2 -= cnt1;
  97:../../lpc11cx4-library/lpc_chip_11cxx_lib/src/ring_buffer.c **** 
  98:../../lpc11cx4-library/lpc_chip_11cxx_lib/src/ring_buffer.c **** 	cnt1 = MIN(cnt1, num);
 306              		.loc 1 98 0
 307 0038 B542     		cmp	r5, r6	@ cnt1, num
 308 003a 26DC     		bgt	.L13	@,
 309              	.LVL22:
  99:../../lpc11cx4-library/lpc_chip_11cxx_lib/src/ring_buffer.c **** 	num -= cnt1;
 310              		.loc 1 99 0
 311 003c 731B     		subs	r3, r6, r5	@ cnt2, num, cnt1
 312              	.LVL23:
 313 003e 9846     		mov	r8, r3	@ cnt2, cnt2
 100:../../lpc11cx4-library/lpc_chip_11cxx_lib/src/ring_buffer.c **** 
 101:../../lpc11cx4-library/lpc_chip_11cxx_lib/src/ring_buffer.c **** 	cnt2 = MIN(cnt2, num);
 314              		.loc 1 101 0
 315 0040 9342     		cmp	r3, r2	@ cnt2, _59
 316 0042 20DC     		bgt	.L14	@,
 317              	.L10:
 318              	.LVL24:
 102:../../lpc11cx4-library/lpc_chip_11cxx_lib/src/ring_buffer.c **** 	num -= cnt2;
 103:../../lpc11cx4-library/lpc_chip_11cxx_lib/src/ring_buffer.c **** 
 104:../../lpc11cx4-library/lpc_chip_11cxx_lib/src/ring_buffer.c **** 	/* Write segment 1 */
 105:../../lpc11cx4-library/lpc_chip_11cxx_lib/src/ring_buffer.c **** 	ptr += RB_INDH(RingBuff) * RingBuff->itemSz;
 319              		.loc 1 105 0
 320 0044 A268     		ldr	r2, [r4, #8]	@ _19, RingBuff_5(D)->itemSz
 321              	.LVL25:
 322 0046 5143     		muls	r1, r2	@ tmp157, _19
 323              	.LVL26:
 106:../../lpc11cx4-library/lpc_chip_11cxx_lib/src/ring_buffer.c **** 	memcpy(ptr, data, cnt1 * RingBuff->itemSz);
 324              		.loc 1 106 0
 325 0048 6A43     		muls	r2, r5	@ tmp159, cnt1
ARM GAS  /tmp/cchmMkLH.s 			page 11


 105:../../lpc11cx4-library/lpc_chip_11cxx_lib/src/ring_buffer.c **** 	memcpy(ptr, data, cnt1 * RingBuff->itemSz);
 326              		.loc 1 105 0
 327 004a 4018     		adds	r0, r0, r1	@ ptr, ptr, tmp157
 328              	.LVL27:
 329              		.loc 1 106 0
 330 004c 3900     		movs	r1, r7	@, data
 331 004e FFF7FEFF 		bl	memcpy	@
 332              	.LVL28:
 107:../../lpc11cx4-library/lpc_chip_11cxx_lib/src/ring_buffer.c **** 	RingBuff->head += cnt1;
 333              		.loc 1 107 0
 334 0052 E368     		ldr	r3, [r4, #12]	@ tmp191, RingBuff_5(D)->head
 108:../../lpc11cx4-library/lpc_chip_11cxx_lib/src/ring_buffer.c **** 
 109:../../lpc11cx4-library/lpc_chip_11cxx_lib/src/ring_buffer.c **** 	/* Write segment 2 */
 110:../../lpc11cx4-library/lpc_chip_11cxx_lib/src/ring_buffer.c **** 	ptr = (uint8_t *) RingBuff->data + RB_INDH(RingBuff) * RingBuff->itemSz;
 335              		.loc 1 110 0
 336 0054 6168     		ldr	r1, [r4, #4]	@, RingBuff_5(D)->count
 107:../../lpc11cx4-library/lpc_chip_11cxx_lib/src/ring_buffer.c **** 	RingBuff->head += cnt1;
 337              		.loc 1 107 0
 338 0056 E818     		adds	r0, r5, r3	@ _27, cnt1, tmp191
 339 0058 E060     		str	r0, [r4, #12]	@ _27, RingBuff_5(D)->head
 340              		.loc 1 110 0
 341 005a FFF7FEFF 		bl	__aeabi_uidivmod	@
 342              	.LVL29:
 343 005e A668     		ldr	r6, [r4, #8]	@ _32, RingBuff_5(D)->itemSz
 344              	.LVL30:
 111:../../lpc11cx4-library/lpc_chip_11cxx_lib/src/ring_buffer.c **** 	data = (const uint8_t *) data + cnt1 * RingBuff->itemSz;
 112:../../lpc11cx4-library/lpc_chip_11cxx_lib/src/ring_buffer.c **** 	memcpy(ptr, data, cnt2 * RingBuff->itemSz);
 345              		.loc 1 112 0
 346 0060 4246     		mov	r2, r8	@ tmp175, cnt2
 110:../../lpc11cx4-library/lpc_chip_11cxx_lib/src/ring_buffer.c **** 	data = (const uint8_t *) data + cnt1 * RingBuff->itemSz;
 347              		.loc 1 110 0
 348 0062 7143     		muls	r1, r6	@ tmp171, _32
 349 0064 2368     		ldr	r3, [r4]	@ tmp193, RingBuff_5(D)->data
 350 0066 0800     		movs	r0, r1	@ tmp172, tmp171
 351 0068 9C46     		mov	ip, r3	@ tmp193, tmp193
 352              		.loc 1 112 0
 353 006a 7243     		muls	r2, r6	@ tmp175, _32
 111:../../lpc11cx4-library/lpc_chip_11cxx_lib/src/ring_buffer.c **** 	data = (const uint8_t *) data + cnt1 * RingBuff->itemSz;
 354              		.loc 1 111 0
 355 006c 6E43     		muls	r6, r5	@ tmp176, cnt1
 356              	.LVL31:
 110:../../lpc11cx4-library/lpc_chip_11cxx_lib/src/ring_buffer.c **** 	data = (const uint8_t *) data + cnt1 * RingBuff->itemSz;
 357              		.loc 1 110 0
 358 006e 6044     		add	r0, r0, ip	@ ptr, tmp193
 111:../../lpc11cx4-library/lpc_chip_11cxx_lib/src/ring_buffer.c **** 	data = (const uint8_t *) data + cnt1 * RingBuff->itemSz;
 359              		.loc 1 111 0
 360 0070 B919     		adds	r1, r7, r6	@ data, data, tmp176
 361              	.LVL32:
 362              		.loc 1 112 0
 363 0072 FFF7FEFF 		bl	memcpy	@
 364              	.LVL33:
 113:../../lpc11cx4-library/lpc_chip_11cxx_lib/src/ring_buffer.c **** 	RingBuff->head += cnt2;
 114:../../lpc11cx4-library/lpc_chip_11cxx_lib/src/ring_buffer.c **** 
 115:../../lpc11cx4-library/lpc_chip_11cxx_lib/src/ring_buffer.c **** 	return cnt1 + cnt2;
 365              		.loc 1 115 0
 366 0076 2800     		movs	r0, r5	@ cnt1, cnt1
 113:../../lpc11cx4-library/lpc_chip_11cxx_lib/src/ring_buffer.c **** 	RingBuff->head += cnt2;
ARM GAS  /tmp/cchmMkLH.s 			page 12


 367              		.loc 1 113 0
 368 0078 E368     		ldr	r3, [r4, #12]	@ tmp183, RingBuff_5(D)->head
 369              		.loc 1 115 0
 370 007a 4044     		add	r0, r0, r8	@ cnt1, cnt2
 113:../../lpc11cx4-library/lpc_chip_11cxx_lib/src/ring_buffer.c **** 	RingBuff->head += cnt2;
 371              		.loc 1 113 0
 372 007c 4344     		add	r3, r3, r8	@ tmp183, cnt2
 373 007e E360     		str	r3, [r4, #12]	@ tmp183, RingBuff_5(D)->head
 374              	.LVL34:
 375              	.L6:
 116:../../lpc11cx4-library/lpc_chip_11cxx_lib/src/ring_buffer.c **** }
 376              		.loc 1 116 0
 377              		@ sp needed	@
 378              	.LVL35:
 379 0080 04BC     		pop	{r2}
 380 0082 9046     		mov	r8, r2
 381 0084 F0BD     		pop	{r4, r5, r6, r7, pc}
 382              	.LVL36:
 383              	.L14:
 101:../../lpc11cx4-library/lpc_chip_11cxx_lib/src/ring_buffer.c **** 	num -= cnt2;
 384              		.loc 1 101 0
 385 0086 9046     		mov	r8, r2	@ cnt2, _59
 386 0088 DCE7     		b	.L10	@
 387              	.LVL37:
 388              	.L13:
  98:../../lpc11cx4-library/lpc_chip_11cxx_lib/src/ring_buffer.c **** 	num -= cnt1;
 389              		.loc 1 98 0
 390 008a 3500     		movs	r5, r6	@ cnt1, num
 391              	.LVL38:
  99:../../lpc11cx4-library/lpc_chip_11cxx_lib/src/ring_buffer.c **** 
 392              		.loc 1 99 0
 393 008c 731B     		subs	r3, r6, r5	@ cnt2, num, cnt1
 394              	.LVL39:
 395 008e 9846     		mov	r8, r3	@ cnt2, cnt2
 101:../../lpc11cx4-library/lpc_chip_11cxx_lib/src/ring_buffer.c **** 	num -= cnt2;
 396              		.loc 1 101 0
 397 0090 9342     		cmp	r3, r2	@ cnt2, _59
 398 0092 D7DD     		ble	.L10	@,
 399 0094 F7E7     		b	.L14	@
 400              		.cfi_endproc
 401              	.LFE8:
 402              		.size	RingBuffer_InsertMult, .-RingBuffer_InsertMult
 403 0096 C046     		.section	.text.RingBuffer_Pop,"ax",%progbits
 404              		.align	1
 405              		.p2align 2,,3
 406              		.global	RingBuffer_Pop
 407              		.syntax unified
 408              		.code	16
 409              		.thumb_func
 410              		.fpu softvfp
 411              		.type	RingBuffer_Pop, %function
 412              	RingBuffer_Pop:
 413              	.LFB9:
 117:../../lpc11cx4-library/lpc_chip_11cxx_lib/src/ring_buffer.c **** 
 118:../../lpc11cx4-library/lpc_chip_11cxx_lib/src/ring_buffer.c **** /* Pop single item from Ring Buffer */
 119:../../lpc11cx4-library/lpc_chip_11cxx_lib/src/ring_buffer.c **** int RingBuffer_Pop(RINGBUFF_T *RingBuff, void *data)
 120:../../lpc11cx4-library/lpc_chip_11cxx_lib/src/ring_buffer.c **** {
ARM GAS  /tmp/cchmMkLH.s 			page 13


 414              		.loc 1 120 0
 415              		.cfi_startproc
 416              		@ args = 0, pretend = 0, frame = 0
 417              		@ frame_needed = 0, uses_anonymous_args = 0
 418              	.LVL40:
 419 0000 F8B5     		push	{r3, r4, r5, r6, r7, lr}	@
 420              		.cfi_def_cfa_offset 24
 421              		.cfi_offset 3, -24
 422              		.cfi_offset 4, -20
 423              		.cfi_offset 5, -16
 424              		.cfi_offset 6, -12
 425              		.cfi_offset 7, -8
 426              		.cfi_offset 14, -4
 427              		.loc 1 120 0
 428 0002 0400     		movs	r4, r0	@ RingBuff, RingBuff
 429 0004 0369     		ldr	r3, [r0, #16]	@ _17, MEM[(long unsigned int *)RingBuff_4(D) + 16B]
 430              	.LVL41:
 121:../../lpc11cx4-library/lpc_chip_11cxx_lib/src/ring_buffer.c **** 	uint8_t *ptr = RingBuff->data;
 122:../../lpc11cx4-library/lpc_chip_11cxx_lib/src/ring_buffer.c **** 
 123:../../lpc11cx4-library/lpc_chip_11cxx_lib/src/ring_buffer.c **** 	/* We cannot pop when queue is empty */
 124:../../lpc11cx4-library/lpc_chip_11cxx_lib/src/ring_buffer.c **** 	if (RingBuffer_IsEmpty(RingBuff))
 431              		.loc 1 124 0
 432 0006 E268     		ldr	r2, [r4, #12]	@ tmp140, MEM[(long unsigned int *)RingBuff_4(D) + 12B]
 120:../../lpc11cx4-library/lpc_chip_11cxx_lib/src/ring_buffer.c **** 	uint8_t *ptr = RingBuff->data;
 433              		.loc 1 120 0
 434 0008 0E00     		movs	r6, r1	@ data, data
 125:../../lpc11cx4-library/lpc_chip_11cxx_lib/src/ring_buffer.c **** 		return 0;
 435              		.loc 1 125 0
 436 000a 0020     		movs	r0, #0	@ <retval>,
 437              	.LVL42:
 124:../../lpc11cx4-library/lpc_chip_11cxx_lib/src/ring_buffer.c **** 		return 0;
 438              		.loc 1 124 0
 439 000c 9A42     		cmp	r2, r3	@ tmp140, _17
 440 000e 0FD0     		beq	.L15	@,
 126:../../lpc11cx4-library/lpc_chip_11cxx_lib/src/ring_buffer.c **** 
 127:../../lpc11cx4-library/lpc_chip_11cxx_lib/src/ring_buffer.c **** 	ptr += RB_INDT(RingBuff) * RingBuff->itemSz;
 441              		.loc 1 127 0
 442 0010 1800     		movs	r0, r3	@, _17
 443 0012 6168     		ldr	r1, [r4, #4]	@, RingBuff_4(D)->count
 444              	.LVL43:
 445 0014 FFF7FEFF 		bl	__aeabi_uidivmod	@
 446              	.LVL44:
 447 0018 A768     		ldr	r7, [r4, #8]	@ _8, RingBuff_4(D)->itemSz
 121:../../lpc11cx4-library/lpc_chip_11cxx_lib/src/ring_buffer.c **** 
 448              		.loc 1 121 0
 449 001a 2568     		ldr	r5, [r4]	@ ptr, RingBuff_4(D)->data
 450              		.loc 1 127 0
 451 001c 7943     		muls	r1, r7	@ tmp130, _8
 128:../../lpc11cx4-library/lpc_chip_11cxx_lib/src/ring_buffer.c **** 	memcpy(data, ptr, RingBuff->itemSz);
 452              		.loc 1 128 0
 453 001e 3A00     		movs	r2, r7	@, _8
 127:../../lpc11cx4-library/lpc_chip_11cxx_lib/src/ring_buffer.c **** 	memcpy(data, ptr, RingBuff->itemSz);
 454              		.loc 1 127 0
 455 0020 6918     		adds	r1, r5, r1	@ ptr, ptr, tmp130
 456              		.loc 1 128 0
 457 0022 3000     		movs	r0, r6	@, data
 458 0024 FFF7FEFF 		bl	memcpy	@
ARM GAS  /tmp/cchmMkLH.s 			page 14


 459              	.LVL45:
 129:../../lpc11cx4-library/lpc_chip_11cxx_lib/src/ring_buffer.c **** 	RingBuff->tail++;
 130:../../lpc11cx4-library/lpc_chip_11cxx_lib/src/ring_buffer.c ****  
 131:../../lpc11cx4-library/lpc_chip_11cxx_lib/src/ring_buffer.c **** 	return 1;
 460              		.loc 1 131 0
 461 0028 0120     		movs	r0, #1	@ <retval>,
 129:../../lpc11cx4-library/lpc_chip_11cxx_lib/src/ring_buffer.c **** 	RingBuff->tail++;
 462              		.loc 1 129 0
 463 002a 2369     		ldr	r3, [r4, #16]	@ tmp142, RingBuff_4(D)->tail
 464 002c 0133     		adds	r3, r3, #1	@ tmp137,
 465 002e 2361     		str	r3, [r4, #16]	@ tmp137, RingBuff_4(D)->tail
 466              	.L15:
 132:../../lpc11cx4-library/lpc_chip_11cxx_lib/src/ring_buffer.c **** }
 467              		.loc 1 132 0
 468              		@ sp needed	@
 469              	.LVL46:
 470              	.LVL47:
 471 0030 F8BD     		pop	{r3, r4, r5, r6, r7, pc}
 472              		.cfi_endproc
 473              	.LFE9:
 474              		.size	RingBuffer_Pop, .-RingBuffer_Pop
 475 0032 C046     		.section	.text.RingBuffer_PopMult,"ax",%progbits
 476              		.align	1
 477              		.p2align 2,,3
 478              		.global	RingBuffer_PopMult
 479              		.syntax unified
 480              		.code	16
 481              		.thumb_func
 482              		.fpu softvfp
 483              		.type	RingBuffer_PopMult, %function
 484              	RingBuffer_PopMult:
 485              	.LFB10:
 133:../../lpc11cx4-library/lpc_chip_11cxx_lib/src/ring_buffer.c **** 
 134:../../lpc11cx4-library/lpc_chip_11cxx_lib/src/ring_buffer.c **** /* Pop multiple items from Ring buffer */
 135:../../lpc11cx4-library/lpc_chip_11cxx_lib/src/ring_buffer.c **** uint32_t RingBuffer_PopMult(RINGBUFF_T *RingBuff, void *data, int num)
 136:../../lpc11cx4-library/lpc_chip_11cxx_lib/src/ring_buffer.c **** {
 486              		.loc 1 136 0
 487              		.cfi_startproc
 488              		@ args = 0, pretend = 0, frame = 0
 489              		@ frame_needed = 0, uses_anonymous_args = 0
 490              	.LVL48:
 491 0000 F8B5     		push	{r3, r4, r5, r6, r7, lr}	@
 492              		.cfi_def_cfa_offset 24
 493              		.cfi_offset 3, -24
 494              		.cfi_offset 4, -20
 495              		.cfi_offset 5, -16
 496              		.cfi_offset 6, -12
 497              		.cfi_offset 7, -8
 498              		.cfi_offset 14, -4
 499 0002 4746     		mov	r7, r8	@,
 500 0004 CE46     		mov	lr, r9	@,
 501 0006 0600     		movs	r6, r0	@ RingBuff, RingBuff
 502 0008 C468     		ldr	r4, [r0, #12]	@ _44, MEM[(long unsigned int *)RingBuff_5(D) + 12B]
 503 000a 0069     		ldr	r0, [r0, #16]	@ _45, MEM[(long unsigned int *)RingBuff_5(D) + 16B]
 504              	.LVL49:
 505 000c 80B5     		push	{r7, lr}	@
 506              		.cfi_def_cfa_offset 32
ARM GAS  /tmp/cchmMkLH.s 			page 15


 507              		.cfi_offset 8, -32
 508              		.cfi_offset 9, -28
 509              		.loc 1 136 0
 510 000e 8846     		mov	r8, r1	@ data, data
 511 0010 1500     		movs	r5, r2	@ num, num
 137:../../lpc11cx4-library/lpc_chip_11cxx_lib/src/ring_buffer.c **** 	uint8_t *ptr = RingBuff->data;
 138:../../lpc11cx4-library/lpc_chip_11cxx_lib/src/ring_buffer.c **** 	int cnt1, cnt2;
 139:../../lpc11cx4-library/lpc_chip_11cxx_lib/src/ring_buffer.c **** 
 140:../../lpc11cx4-library/lpc_chip_11cxx_lib/src/ring_buffer.c **** 	/* We cannot insert when queue is empty */
 141:../../lpc11cx4-library/lpc_chip_11cxx_lib/src/ring_buffer.c **** 	if (RingBuffer_IsEmpty(RingBuff))
 512              		.loc 1 141 0
 513 0012 8442     		cmp	r4, r0	@ _44, _45
 514 0014 3DD0     		beq	.L23	@,
 515              	.LVL50:
 142:../../lpc11cx4-library/lpc_chip_11cxx_lib/src/ring_buffer.c **** 		return 0;
 143:../../lpc11cx4-library/lpc_chip_11cxx_lib/src/ring_buffer.c **** 
 144:../../lpc11cx4-library/lpc_chip_11cxx_lib/src/ring_buffer.c **** 	/* Calculate the segment lengths */
 145:../../lpc11cx4-library/lpc_chip_11cxx_lib/src/ring_buffer.c **** 	cnt1 = cnt2 = RingBuffer_GetCount(RingBuff);
 146:../../lpc11cx4-library/lpc_chip_11cxx_lib/src/ring_buffer.c **** 	if (RB_INDT(RingBuff) + cnt1 >= RingBuff->count)
 516              		.loc 1 146 0
 517 0016 7768     		ldr	r7, [r6, #4]	@ _8, RingBuff_5(D)->count
 518              	.LBB46:
 519              	.LBB47:
 107:../../lpc11cx4-library/lpc_chip_11cxx_lib/inc/ring_buffer.h **** }
 520              		.loc 2 107 0
 521 0018 241A     		subs	r4, r4, r0	@ cnt1, _44, _45
 522              	.LVL51:
 523              	.LBE47:
 524              	.LBE46:
 525              		.loc 1 146 0
 526 001a 3900     		movs	r1, r7	@, _8
 527              	.LVL52:
 528 001c FFF7FEFF 		bl	__aeabi_uidivmod	@
 529              	.LVL53:
 530 0020 0A19     		adds	r2, r1, r4	@ tmp153, _9, cnt1
 531 0022 0023     		movs	r3, #0	@ _58,
 532 0024 9742     		cmp	r7, r2	@ _8, tmp153
 533 0026 02D8     		bhi	.L20	@,
 147:../../lpc11cx4-library/lpc_chip_11cxx_lib/src/ring_buffer.c **** 		cnt1 = RingBuff->count - RB_INDT(RingBuff);
 534              		.loc 1 147 0
 535 0028 7F1A     		subs	r7, r7, r1	@ cnt1, _8, _9
 536              	.LVL54:
 537 002a E31B     		subs	r3, r4, r7	@ _58, cnt1, cnt1
 538 002c 3C00     		movs	r4, r7	@ cnt1, cnt1
 539              	.LVL55:
 540              	.L20:
 137:../../lpc11cx4-library/lpc_chip_11cxx_lib/src/ring_buffer.c **** 	int cnt1, cnt2;
 541              		.loc 1 137 0
 542 002e 3068     		ldr	r0, [r6]	@ ptr, RingBuff_5(D)->data
 543              	.LVL56:
 148:../../lpc11cx4-library/lpc_chip_11cxx_lib/src/ring_buffer.c **** 	cnt2 -= cnt1;
 149:../../lpc11cx4-library/lpc_chip_11cxx_lib/src/ring_buffer.c **** 
 150:../../lpc11cx4-library/lpc_chip_11cxx_lib/src/ring_buffer.c **** 	cnt1 = MIN(cnt1, num);
 544              		.loc 1 150 0
 545 0030 AC42     		cmp	r4, r5	@ cnt1, num
 546 0032 29DC     		bgt	.L25	@,
 547              	.LVL57:
ARM GAS  /tmp/cchmMkLH.s 			page 16


 151:../../lpc11cx4-library/lpc_chip_11cxx_lib/src/ring_buffer.c **** 	num -= cnt1;
 548              		.loc 1 151 0
 549 0034 2D1B     		subs	r5, r5, r4	@ cnt2, num, cnt1
 550              	.LVL58:
 152:../../lpc11cx4-library/lpc_chip_11cxx_lib/src/ring_buffer.c **** 
 153:../../lpc11cx4-library/lpc_chip_11cxx_lib/src/ring_buffer.c **** 	cnt2 = MIN(cnt2, num);
 551              		.loc 1 153 0
 552 0036 9D42     		cmp	r5, r3	@ cnt2, _58
 553 0038 24DC     		bgt	.L26	@,
 554              	.LVL59:
 555              	.L22:
 154:../../lpc11cx4-library/lpc_chip_11cxx_lib/src/ring_buffer.c **** 	num -= cnt2;
 155:../../lpc11cx4-library/lpc_chip_11cxx_lib/src/ring_buffer.c **** 
 156:../../lpc11cx4-library/lpc_chip_11cxx_lib/src/ring_buffer.c **** 	/* Write segment 1 */
 157:../../lpc11cx4-library/lpc_chip_11cxx_lib/src/ring_buffer.c **** 	ptr += RB_INDT(RingBuff) * RingBuff->itemSz;
 158:../../lpc11cx4-library/lpc_chip_11cxx_lib/src/ring_buffer.c **** 	memcpy(data, ptr, cnt1 * RingBuff->itemSz);
 556              		.loc 1 158 0
 557 003a 2200     		movs	r2, r4	@ tmp155, cnt1
 157:../../lpc11cx4-library/lpc_chip_11cxx_lib/src/ring_buffer.c **** 	memcpy(data, ptr, cnt1 * RingBuff->itemSz);
 558              		.loc 1 157 0
 559 003c B368     		ldr	r3, [r6, #8]	@ _18, RingBuff_5(D)->itemSz
 560              	.LVL60:
 561 003e 5943     		muls	r1, r3	@ tmp156, _18
 562              	.LVL61:
 563              		.loc 1 158 0
 564 0040 5A43     		muls	r2, r3	@ tmp155, _18
 157:../../lpc11cx4-library/lpc_chip_11cxx_lib/src/ring_buffer.c **** 	memcpy(data, ptr, cnt1 * RingBuff->itemSz);
 565              		.loc 1 157 0
 566 0042 4118     		adds	r1, r0, r1	@ ptr, ptr, tmp156
 567              	.LVL62:
 568              		.loc 1 158 0
 569 0044 4046     		mov	r0, r8	@, data
 570 0046 FFF7FEFF 		bl	memcpy	@
 571              	.LVL63:
 159:../../lpc11cx4-library/lpc_chip_11cxx_lib/src/ring_buffer.c **** 	RingBuff->tail += cnt1;
 572              		.loc 1 159 0
 573 004a 3369     		ldr	r3, [r6, #16]	@ tmp185, RingBuff_5(D)->tail
 160:../../lpc11cx4-library/lpc_chip_11cxx_lib/src/ring_buffer.c **** 
 161:../../lpc11cx4-library/lpc_chip_11cxx_lib/src/ring_buffer.c **** 	/* Write segment 2 */
 162:../../lpc11cx4-library/lpc_chip_11cxx_lib/src/ring_buffer.c **** 	ptr = (uint8_t *) RingBuff->data + RB_INDT(RingBuff) * RingBuff->itemSz;
 574              		.loc 1 162 0
 575 004c B768     		ldr	r7, [r6, #8]	@ _31, RingBuff_5(D)->itemSz
 159:../../lpc11cx4-library/lpc_chip_11cxx_lib/src/ring_buffer.c **** 	RingBuff->tail += cnt1;
 576              		.loc 1 159 0
 577 004e E018     		adds	r0, r4, r3	@ _26, cnt1, tmp185
 578              	.LVL64:
 163:../../lpc11cx4-library/lpc_chip_11cxx_lib/src/ring_buffer.c **** 	data = (uint8_t *) data + cnt1 * RingBuff->itemSz;
 579              		.loc 1 163 0
 580 0050 3B00     		movs	r3, r7	@ tmp164, _31
 581 0052 6343     		muls	r3, r4	@ tmp164, cnt1
 582 0054 9844     		add	r8, r8, r3	@ data, tmp164
 583              	.LVL65:
 164:../../lpc11cx4-library/lpc_chip_11cxx_lib/src/ring_buffer.c **** 	memcpy(data, ptr, cnt2 * RingBuff->itemSz);
 584              		.loc 1 164 0
 585 0056 2B00     		movs	r3, r5	@ tmp166, cnt2
 586 0058 7B43     		muls	r3, r7	@ tmp166, _31
 162:../../lpc11cx4-library/lpc_chip_11cxx_lib/src/ring_buffer.c **** 	data = (uint8_t *) data + cnt1 * RingBuff->itemSz;
ARM GAS  /tmp/cchmMkLH.s 			page 17


 587              		.loc 1 162 0
 588 005a 7168     		ldr	r1, [r6, #4]	@, RingBuff_5(D)->count
 159:../../lpc11cx4-library/lpc_chip_11cxx_lib/src/ring_buffer.c **** 
 589              		.loc 1 159 0
 590 005c 3061     		str	r0, [r6, #16]	@ _26, RingBuff_5(D)->tail
 591              		.loc 1 164 0
 592 005e 9946     		mov	r9, r3	@ tmp166, tmp166
 162:../../lpc11cx4-library/lpc_chip_11cxx_lib/src/ring_buffer.c **** 	data = (uint8_t *) data + cnt1 * RingBuff->itemSz;
 593              		.loc 1 162 0
 594 0060 FFF7FEFF 		bl	__aeabi_uidivmod	@
 595              	.LVL66:
 596 0064 3368     		ldr	r3, [r6]	@ tmp188, RingBuff_5(D)->data
 597 0066 7943     		muls	r1, r7	@ tmp173, _31
 598 0068 9C46     		mov	ip, r3	@ tmp188, tmp188
 599              		.loc 1 164 0
 600 006a 4A46     		mov	r2, r9	@, tmp166
 162:../../lpc11cx4-library/lpc_chip_11cxx_lib/src/ring_buffer.c **** 	data = (uint8_t *) data + cnt1 * RingBuff->itemSz;
 601              		.loc 1 162 0
 602 006c 6144     		add	r1, r1, ip	@ ptr, tmp188
 603              		.loc 1 164 0
 604 006e 4046     		mov	r0, r8	@, data
 605 0070 FFF7FEFF 		bl	memcpy	@
 606              	.LVL67:
 165:../../lpc11cx4-library/lpc_chip_11cxx_lib/src/ring_buffer.c **** 	RingBuff->tail += cnt2;
 607              		.loc 1 165 0
 608 0074 3369     		ldr	r3, [r6, #16]	@ tmp190, RingBuff_5(D)->tail
 166:../../lpc11cx4-library/lpc_chip_11cxx_lib/src/ring_buffer.c **** 
 167:../../lpc11cx4-library/lpc_chip_11cxx_lib/src/ring_buffer.c **** 	return cnt1 + cnt2;
 609              		.loc 1 167 0
 610 0076 6019     		adds	r0, r4, r5	@ <retval>, cnt1, cnt2
 165:../../lpc11cx4-library/lpc_chip_11cxx_lib/src/ring_buffer.c **** 	RingBuff->tail += cnt2;
 611              		.loc 1 165 0
 612 0078 5B19     		adds	r3, r3, r5	@ tmp181, tmp190, cnt2
 613 007a 3361     		str	r3, [r6, #16]	@ tmp181, RingBuff_5(D)->tail
 614              	.LVL68:
 615              	.L18:
 168:../../lpc11cx4-library/lpc_chip_11cxx_lib/src/ring_buffer.c **** }
 616              		.loc 1 168 0
 617              		@ sp needed	@
 618              	.LVL69:
 619              	.LVL70:
 620 007c 0CBC     		pop	{r2, r3}
 621 007e 9046     		mov	r8, r2
 622 0080 9946     		mov	r9, r3
 623 0082 F8BD     		pop	{r3, r4, r5, r6, r7, pc}
 624              	.LVL71:
 625              	.L26:
 153:../../lpc11cx4-library/lpc_chip_11cxx_lib/src/ring_buffer.c **** 	num -= cnt2;
 626              		.loc 1 153 0
 627 0084 1D00     		movs	r5, r3	@ cnt2, _58
 628              	.LVL72:
 629 0086 D8E7     		b	.L22	@
 630              	.LVL73:
 631              	.L25:
 150:../../lpc11cx4-library/lpc_chip_11cxx_lib/src/ring_buffer.c **** 	num -= cnt1;
 632              		.loc 1 150 0
 633 0088 2C00     		movs	r4, r5	@ cnt1, num
ARM GAS  /tmp/cchmMkLH.s 			page 18


 634              	.LVL74:
 151:../../lpc11cx4-library/lpc_chip_11cxx_lib/src/ring_buffer.c **** 
 635              		.loc 1 151 0
 636 008a 2D1B     		subs	r5, r5, r4	@ cnt2, num, cnt1
 637              	.LVL75:
 153:../../lpc11cx4-library/lpc_chip_11cxx_lib/src/ring_buffer.c **** 	num -= cnt2;
 638              		.loc 1 153 0
 639 008c 9D42     		cmp	r5, r3	@ cnt2, _58
 640 008e D4DD     		ble	.L22	@,
 641 0090 F8E7     		b	.L26	@
 642              	.LVL76:
 643              	.L23:
 142:../../lpc11cx4-library/lpc_chip_11cxx_lib/src/ring_buffer.c **** 
 644              		.loc 1 142 0
 645 0092 0020     		movs	r0, #0	@ <retval>,
 646 0094 F2E7     		b	.L18	@
 647              		.cfi_endproc
 648              	.LFE10:
 649              		.size	RingBuffer_PopMult, .-RingBuffer_PopMult
 650 0096 C046     		.text
 651              	.Letext0:
 652              		.file 3 "/usr/arm-none-eabi/include/machine/_default_types.h"
 653              		.file 4 "/usr/arm-none-eabi/include/sys/lock.h"
 654              		.file 5 "/usr/arm-none-eabi/include/sys/_types.h"
 655              		.file 6 "/usr/lib/gcc/arm-none-eabi/6.2.1/include/stddef.h"
 656              		.file 7 "/usr/arm-none-eabi/include/sys/reent.h"
 657              		.file 8 "/usr/arm-none-eabi/include/sys/_stdint.h"