ARM GAS  /tmp/ccGPnUeu.s 			page 1


   1              		.cpu cortex-m0
   2              		.eabi_attribute 20, 1	@ Tag_ABI_FP_denormal
   3              		.eabi_attribute 21, 1	@ Tag_ABI_FP_exceptions
   4              		.eabi_attribute 23, 3	@ Tag_ABI_FP_number_model
   5              		.eabi_attribute 24, 1	@ Tag_ABI_align8_needed
   6              		.eabi_attribute 25, 1	@ Tag_ABI_align8_preserved
   7              		.eabi_attribute 26, 1	@ Tag_ABI_enum_size
   8              		.eabi_attribute 30, 2	@ Tag_ABI_optimization_goals
   9              		.eabi_attribute 34, 0	@ Tag_CPU_unaligned_access
  10              		.eabi_attribute 18, 4	@ Tag_ABI_PCS_wchar_t
  11              		.file	"sysctl_11xx.c"
  12              	@ GNU C89 (GNU Tools for ARM Embedded Processors) version 6.2.1 20161205 (release) [ARM/embedded-6-
  13              	@	compiled by GNU C version 5.4.0 20160609, GMP version 6.1.0, MPFR version 3.1.4, MPC version 1.0.
  14              	@ GGC heuristics: --param ggc-min-expand=100 --param ggc-min-heapsize=131072
  15              	@ options passed:  -I . -I ../../lpc11cx4-library/lpc_chip_11cxx_lib/inc
  16              	@ -imultilib thumb/v6-m -iprefix /usr/bin/../lib/gcc/arm-none-eabi/6.2.1/
  17              	@ -isysroot /usr/bin/../arm-none-eabi -MD bin/sysctl_11xx.d
  18              	@ -MF bin/sysctl_11xx.d -MP -MQ bin/sysctl_11xx.o -D__USES_INITFINI__
  19              	@ -D CORE_M0 ../../lpc11cx4-library/lpc_chip_11cxx_lib/src/sysctl_11xx.c
  20              	@ -mcpu=cortex-m0 -mthumb -auxbase-strip bin/sysctl_11xx.o -g -ggdb3 -O2
  21              	@ -Wall -Wstrict-prototypes -Wextra -std=gnu90 -ffunction-sections
  22              	@ -fdata-sections -fverbose-asm
  23              	@ options enabled:  -faggressive-loop-optimizations -falign-jumps
  24              	@ -falign-labels -falign-loops -fauto-inc-dec -fbranch-count-reg
  25              	@ -fcaller-saves -fchkp-check-incomplete-type -fchkp-check-read
  26              	@ -fchkp-check-write -fchkp-instrument-calls -fchkp-narrow-bounds
  27              	@ -fchkp-optimize -fchkp-store-bounds -fchkp-use-static-bounds
  28              	@ -fchkp-use-static-const-bounds -fchkp-use-wrappers
  29              	@ -fcombine-stack-adjustments -fcommon -fcompare-elim -fcprop-registers
  30              	@ -fcrossjumping -fcse-follow-jumps -fdata-sections -fdefer-pop
  31              	@ -fdelete-null-pointer-checks -fdevirtualize -fdevirtualize-speculatively
  32              	@ -fdwarf2-cfi-asm -fearly-inlining -feliminate-unused-debug-types
  33              	@ -fexpensive-optimizations -fforward-propagate -ffunction-cse
  34              	@ -ffunction-sections -fgcse -fgcse-lm -fgnu-runtime -fgnu-unique
  35              	@ -fguess-branch-probability -fhoist-adjacent-loads -fident -fif-conversion
  36              	@ -fif-conversion2 -findirect-inlining -finline -finline-atomics
  37              	@ -finline-functions-called-once -finline-small-functions -fipa-cp
  38              	@ -fipa-cp-alignment -fipa-icf -fipa-icf-functions -fipa-icf-variables
  39              	@ -fipa-profile -fipa-pure-const -fipa-reference -fipa-sra
  40              	@ -fira-hoist-pressure -fira-share-save-slots -fira-share-spill-slots
  41              	@ -fisolate-erroneous-paths-dereference -fivopts -fkeep-static-consts
  42              	@ -fleading-underscore -flifetime-dse -flra-remat -flto-odr-type-merging
  43              	@ -fmath-errno -fmerge-constants -fmerge-debug-strings
  44              	@ -fmove-loop-invariants -fomit-frame-pointer -foptimize-sibling-calls
  45              	@ -foptimize-strlen -fpartial-inlining -fpeephole -fpeephole2 -fplt
  46              	@ -fprefetch-loop-arrays -freg-struct-return -freorder-blocks
  47              	@ -freorder-functions -frerun-cse-after-loop
  48              	@ -fsched-critical-path-heuristic -fsched-dep-count-heuristic
  49              	@ -fsched-group-heuristic -fsched-interblock -fsched-last-insn-heuristic
  50              	@ -fsched-pressure -fsched-rank-heuristic -fsched-spec
  51              	@ -fsched-spec-insn-heuristic -fsched-stalled-insns-dep -fschedule-insns2
  52              	@ -fsection-anchors -fsemantic-interposition -fshow-column -fshrink-wrap
  53              	@ -fsigned-zeros -fsplit-ivs-in-unroller -fsplit-wide-types -fssa-backprop
  54              	@ -fssa-phiopt -fstdarg-opt -fstrict-aliasing -fstrict-overflow
  55              	@ -fstrict-volatile-bitfields -fsync-libcalls -fthread-jumps
  56              	@ -ftoplevel-reorder -ftrapping-math -ftree-bit-ccp -ftree-builtin-call-dce
  57              	@ -ftree-ccp -ftree-ch -ftree-coalesce-vars -ftree-copy-prop -ftree-cselim
ARM GAS  /tmp/ccGPnUeu.s 			page 2


  58              	@ -ftree-dce -ftree-dominator-opts -ftree-dse -ftree-forwprop -ftree-fre
  59              	@ -ftree-loop-if-convert -ftree-loop-im -ftree-loop-ivcanon
  60              	@ -ftree-loop-optimize -ftree-parallelize-loops= -ftree-phiprop -ftree-pre
  61              	@ -ftree-pta -ftree-reassoc -ftree-scev-cprop -ftree-sink -ftree-slsr
  62              	@ -ftree-sra -ftree-switch-conversion -ftree-tail-merge -ftree-ter
  63              	@ -ftree-vrp -funit-at-a-time -fvar-tracking -fvar-tracking-assignments
  64              	@ -fverbose-asm -fzero-initialized-in-bss -mlittle-endian
  65              	@ -mpic-data-is-text-relative -msched-prolog -mthumb
  66              	@ -mvectorize-with-neon-quad
  67              	
  68              		.text
  69              	.Ltext0:
  70              		.cfi_sections	.debug_frame
  71              		.section	.text.Chip_SYSCTL_SetDeepSleepPD,"ax",%progbits
  72              		.align	1
  73              		.p2align 2,,3
  74              		.global	Chip_SYSCTL_SetDeepSleepPD
  75              		.syntax unified
  76              		.code	16
  77              		.thumb_func
  78              		.fpu softvfp
  79              		.type	Chip_SYSCTL_SetDeepSleepPD, %function
  80              	Chip_SYSCTL_SetDeepSleepPD:
  81              	.LFB198:
  82              		.file 1 "../../lpc11cx4-library/lpc_chip_11cxx_lib/src/sysctl_11xx.c"
   1:../../lpc11cx4-library/lpc_chip_11cxx_lib/src/sysctl_11xx.c **** /*
   2:../../lpc11cx4-library/lpc_chip_11cxx_lib/src/sysctl_11xx.c ****  * @brief LPC11XX System Control functions
   3:../../lpc11cx4-library/lpc_chip_11cxx_lib/src/sysctl_11xx.c ****  *
   4:../../lpc11cx4-library/lpc_chip_11cxx_lib/src/sysctl_11xx.c ****  * Copyright(C) NXP Semiconductors, 2012
   5:../../lpc11cx4-library/lpc_chip_11cxx_lib/src/sysctl_11xx.c ****  * All rights reserved.
   6:../../lpc11cx4-library/lpc_chip_11cxx_lib/src/sysctl_11xx.c ****  *
   7:../../lpc11cx4-library/lpc_chip_11cxx_lib/src/sysctl_11xx.c ****  * Software that is described herein is for illustrative purposes only
   8:../../lpc11cx4-library/lpc_chip_11cxx_lib/src/sysctl_11xx.c ****  * which provides customers with programming information regarding the
   9:../../lpc11cx4-library/lpc_chip_11cxx_lib/src/sysctl_11xx.c ****  * LPC products.  This software is supplied "AS IS" without any warranties of
  10:../../lpc11cx4-library/lpc_chip_11cxx_lib/src/sysctl_11xx.c ****  * any kind, and NXP Semiconductors and its licensor disclaim any and
  11:../../lpc11cx4-library/lpc_chip_11cxx_lib/src/sysctl_11xx.c ****  * all warranties, express or implied, including all implied warranties of
  12:../../lpc11cx4-library/lpc_chip_11cxx_lib/src/sysctl_11xx.c ****  * merchantability, fitness for a particular purpose and non-infringement of
  13:../../lpc11cx4-library/lpc_chip_11cxx_lib/src/sysctl_11xx.c ****  * intellectual property rights.  NXP Semiconductors assumes no responsibility
  14:../../lpc11cx4-library/lpc_chip_11cxx_lib/src/sysctl_11xx.c ****  * or liability for the use of the software, conveys no license or rights under any
  15:../../lpc11cx4-library/lpc_chip_11cxx_lib/src/sysctl_11xx.c ****  * patent, copyright, mask work right, or any other intellectual property rights in
  16:../../lpc11cx4-library/lpc_chip_11cxx_lib/src/sysctl_11xx.c ****  * or to any products. NXP Semiconductors reserves the right to make changes
  17:../../lpc11cx4-library/lpc_chip_11cxx_lib/src/sysctl_11xx.c ****  * in the software without notification. NXP Semiconductors also makes no
  18:../../lpc11cx4-library/lpc_chip_11cxx_lib/src/sysctl_11xx.c ****  * representation or warranty that such application will be suitable for the
  19:../../lpc11cx4-library/lpc_chip_11cxx_lib/src/sysctl_11xx.c ****  * specified use without further testing or modification.
  20:../../lpc11cx4-library/lpc_chip_11cxx_lib/src/sysctl_11xx.c ****  *
  21:../../lpc11cx4-library/lpc_chip_11cxx_lib/src/sysctl_11xx.c ****  * Permission to use, copy, modify, and distribute this software and its
  22:../../lpc11cx4-library/lpc_chip_11cxx_lib/src/sysctl_11xx.c ****  * documentation is hereby granted, under NXP Semiconductors' and its
  23:../../lpc11cx4-library/lpc_chip_11cxx_lib/src/sysctl_11xx.c ****  * licensor's relevant copyrights in the software, without fee, provided that it
  24:../../lpc11cx4-library/lpc_chip_11cxx_lib/src/sysctl_11xx.c ****  * is used in conjunction with NXP Semiconductors microcontrollers.  This
  25:../../lpc11cx4-library/lpc_chip_11cxx_lib/src/sysctl_11xx.c ****  * copyright, permission, and disclaimer notice must appear in all copies of
  26:../../lpc11cx4-library/lpc_chip_11cxx_lib/src/sysctl_11xx.c ****  * this code.
  27:../../lpc11cx4-library/lpc_chip_11cxx_lib/src/sysctl_11xx.c ****  */
  28:../../lpc11cx4-library/lpc_chip_11cxx_lib/src/sysctl_11xx.c **** 
  29:../../lpc11cx4-library/lpc_chip_11cxx_lib/src/sysctl_11xx.c **** #include "chip.h"
  30:../../lpc11cx4-library/lpc_chip_11cxx_lib/src/sysctl_11xx.c **** 
  31:../../lpc11cx4-library/lpc_chip_11cxx_lib/src/sysctl_11xx.c **** /*****************************************************************************
  32:../../lpc11cx4-library/lpc_chip_11cxx_lib/src/sysctl_11xx.c ****  * Private types/enumerations/variables
ARM GAS  /tmp/ccGPnUeu.s 			page 3


  33:../../lpc11cx4-library/lpc_chip_11cxx_lib/src/sysctl_11xx.c ****  ****************************************************************************/
  34:../../lpc11cx4-library/lpc_chip_11cxx_lib/src/sysctl_11xx.c **** 
  35:../../lpc11cx4-library/lpc_chip_11cxx_lib/src/sysctl_11xx.c **** #if !defined(LPC11AXX)
  36:../../lpc11cx4-library/lpc_chip_11cxx_lib/src/sysctl_11xx.c **** /* PDSLEEPCFG register mask */
  37:../../lpc11cx4-library/lpc_chip_11cxx_lib/src/sysctl_11xx.c **** #define PDSLEEPUSEMASK 0x000018FF
  38:../../lpc11cx4-library/lpc_chip_11cxx_lib/src/sysctl_11xx.c **** #if defined(CHIP_LPC11XXLV)
  39:../../lpc11cx4-library/lpc_chip_11cxx_lib/src/sysctl_11xx.c **** #define PDSLEEPMASKTMP (SYSCTL_DEEPSLP_BOD_PD | SYSCTL_DEEPSLP_WDTOSC_PD | \
  40:../../lpc11cx4-library/lpc_chip_11cxx_lib/src/sysctl_11xx.c **** 						SYSCTL_DEEPSLP_IRCOUT_PD | SYSCTL_DEEPSLP_IRC_PD)
  41:../../lpc11cx4-library/lpc_chip_11cxx_lib/src/sysctl_11xx.c **** #else
  42:../../lpc11cx4-library/lpc_chip_11cxx_lib/src/sysctl_11xx.c **** #define PDSLEEPMASKTMP (SYSCTL_DEEPSLP_BOD_PD | SYSCTL_DEEPSLP_WDTOSC_PD)
  43:../../lpc11cx4-library/lpc_chip_11cxx_lib/src/sysctl_11xx.c **** #endif
  44:../../lpc11cx4-library/lpc_chip_11cxx_lib/src/sysctl_11xx.c **** #define PDSLEEPMASK ((PDSLEEPUSEMASK) &~(PDSLEEPMASKTMP))
  45:../../lpc11cx4-library/lpc_chip_11cxx_lib/src/sysctl_11xx.c **** 
  46:../../lpc11cx4-library/lpc_chip_11cxx_lib/src/sysctl_11xx.c **** /* PDWAKECFG register mask */
  47:../../lpc11cx4-library/lpc_chip_11cxx_lib/src/sysctl_11xx.c **** #if defined(CHIP_LPC11UXX)
  48:../../lpc11cx4-library/lpc_chip_11cxx_lib/src/sysctl_11xx.c **** #define PDWAKEUPUSEMASK 0x0000E800
  49:../../lpc11cx4-library/lpc_chip_11cxx_lib/src/sysctl_11xx.c **** #define PDWAKEUPMASKTMP 0x000000FF
  50:../../lpc11cx4-library/lpc_chip_11cxx_lib/src/sysctl_11xx.c **** #elif defined(CHIP_LPC1125)
  51:../../lpc11cx4-library/lpc_chip_11cxx_lib/src/sysctl_11xx.c **** #define PDWAKEUPUSEMASK 0x0000ED00
  52:../../lpc11cx4-library/lpc_chip_11cxx_lib/src/sysctl_11xx.c **** #define PDWAKEUPMASKTMP 0x000000FF
  53:../../lpc11cx4-library/lpc_chip_11cxx_lib/src/sysctl_11xx.c **** #else
  54:../../lpc11cx4-library/lpc_chip_11cxx_lib/src/sysctl_11xx.c **** #define PDWAKEUPUSEMASK 0x0000ED00
  55:../../lpc11cx4-library/lpc_chip_11cxx_lib/src/sysctl_11xx.c **** #define PDWAKEUPMASKTMP 0x000005FF
  56:../../lpc11cx4-library/lpc_chip_11cxx_lib/src/sysctl_11xx.c **** #endif
  57:../../lpc11cx4-library/lpc_chip_11cxx_lib/src/sysctl_11xx.c **** #endif /* !defined(LPC11AXX) */
  58:../../lpc11cx4-library/lpc_chip_11cxx_lib/src/sysctl_11xx.c **** 
  59:../../lpc11cx4-library/lpc_chip_11cxx_lib/src/sysctl_11xx.c **** /* PDRUNCFG register mask */
  60:../../lpc11cx4-library/lpc_chip_11cxx_lib/src/sysctl_11xx.c **** #if defined(CHIP_LPC11AXX)
  61:../../lpc11cx4-library/lpc_chip_11cxx_lib/src/sysctl_11xx.c **** #define PDRUNCFGUSEMASK 0x00000D08
  62:../../lpc11cx4-library/lpc_chip_11cxx_lib/src/sysctl_11xx.c **** #define PDRUNCFGMASKTMP 0x0001E0F7
  63:../../lpc11cx4-library/lpc_chip_11cxx_lib/src/sysctl_11xx.c **** #elif defined(CHIP_LPC11UXX)
  64:../../lpc11cx4-library/lpc_chip_11cxx_lib/src/sysctl_11xx.c **** #define PDRUNCFGUSEMASK 0x0000E800
  65:../../lpc11cx4-library/lpc_chip_11cxx_lib/src/sysctl_11xx.c **** #define PDRUNCFGMASKTMP 0x000005FF
  66:../../lpc11cx4-library/lpc_chip_11cxx_lib/src/sysctl_11xx.c **** #elif defined(CHIP_LPC1125)
  67:../../lpc11cx4-library/lpc_chip_11cxx_lib/src/sysctl_11xx.c **** #define PDRUNCFGUSEMASK 0x0000ED00
  68:../../lpc11cx4-library/lpc_chip_11cxx_lib/src/sysctl_11xx.c **** #define PDRUNCFGMASKTMP 0x000000FF
  69:../../lpc11cx4-library/lpc_chip_11cxx_lib/src/sysctl_11xx.c **** #else
  70:../../lpc11cx4-library/lpc_chip_11cxx_lib/src/sysctl_11xx.c **** #define PDRUNCFGUSEMASK 0x0000ED00
  71:../../lpc11cx4-library/lpc_chip_11cxx_lib/src/sysctl_11xx.c **** #define PDRUNCFGMASKTMP 0x000000FF
  72:../../lpc11cx4-library/lpc_chip_11cxx_lib/src/sysctl_11xx.c **** #endif
  73:../../lpc11cx4-library/lpc_chip_11cxx_lib/src/sysctl_11xx.c **** 
  74:../../lpc11cx4-library/lpc_chip_11cxx_lib/src/sysctl_11xx.c **** /*****************************************************************************
  75:../../lpc11cx4-library/lpc_chip_11cxx_lib/src/sysctl_11xx.c ****  * Public types/enumerations/variables
  76:../../lpc11cx4-library/lpc_chip_11cxx_lib/src/sysctl_11xx.c ****  ****************************************************************************/
  77:../../lpc11cx4-library/lpc_chip_11cxx_lib/src/sysctl_11xx.c **** 
  78:../../lpc11cx4-library/lpc_chip_11cxx_lib/src/sysctl_11xx.c **** /*****************************************************************************
  79:../../lpc11cx4-library/lpc_chip_11cxx_lib/src/sysctl_11xx.c ****  * Private functions
  80:../../lpc11cx4-library/lpc_chip_11cxx_lib/src/sysctl_11xx.c ****  ****************************************************************************/
  81:../../lpc11cx4-library/lpc_chip_11cxx_lib/src/sysctl_11xx.c **** 
  82:../../lpc11cx4-library/lpc_chip_11cxx_lib/src/sysctl_11xx.c **** /*****************************************************************************
  83:../../lpc11cx4-library/lpc_chip_11cxx_lib/src/sysctl_11xx.c ****  * Public functions
  84:../../lpc11cx4-library/lpc_chip_11cxx_lib/src/sysctl_11xx.c ****  ****************************************************************************/
  85:../../lpc11cx4-library/lpc_chip_11cxx_lib/src/sysctl_11xx.c **** 
  86:../../lpc11cx4-library/lpc_chip_11cxx_lib/src/sysctl_11xx.c **** #if !defined(LPC11AXX)
  87:../../lpc11cx4-library/lpc_chip_11cxx_lib/src/sysctl_11xx.c **** /* Setup deep sleep behaviour for power down */
  88:../../lpc11cx4-library/lpc_chip_11cxx_lib/src/sysctl_11xx.c **** void Chip_SYSCTL_SetDeepSleepPD(uint32_t sleepmask)
  89:../../lpc11cx4-library/lpc_chip_11cxx_lib/src/sysctl_11xx.c **** {
ARM GAS  /tmp/ccGPnUeu.s 			page 4


  83              		.loc 1 89 0
  84              		.cfi_startproc
  85              		@ args = 0, pretend = 0, frame = 0
  86              		@ frame_needed = 0, uses_anonymous_args = 0
  87              		@ link register save eliminated.
  88              	.LVL0:
  90:../../lpc11cx4-library/lpc_chip_11cxx_lib/src/sysctl_11xx.c **** 	/* Update new value */
  91:../../lpc11cx4-library/lpc_chip_11cxx_lib/src/sysctl_11xx.c **** 	LPC_SYSCTL->PDSLEEPCFG = PDSLEEPMASK | (sleepmask & PDSLEEPMASKTMP);
  89              		.loc 1 91 0
  90 0000 FF23     		movs	r3, #255	@ tmp113,
  91 0002 0340     		ands	r3, r0	@ tmp114, sleepmask
  92 0004 0348     		ldr	r0, .L2	@ tmp115,
  93              	.LVL1:
  94 0006 044A     		ldr	r2, .L2+4	@ tmp116,
  95 0008 1843     		orrs	r0, r3	@ _3, tmp114
  96 000a 8C23     		movs	r3, #140	@ tmp117,
  97 000c 9B00     		lsls	r3, r3, #2	@ tmp117, tmp117,
  98 000e D050     		str	r0, [r2, r3]	@ _3, MEM[(struct LPC_SYSCTL_T *)1074036736B].PDSLEEPCFG
  92:../../lpc11cx4-library/lpc_chip_11cxx_lib/src/sysctl_11xx.c **** }
  99              		.loc 1 92 0
 100              		@ sp needed	@
 101 0010 7047     		bx	lr
 102              	.L3:
 103 0012 C046     		.align	2
 104              	.L2:
 105 0014 B7180000 		.word	6327
 106 0018 00800440 		.word	1074036736
 107              		.cfi_endproc
 108              	.LFE198:
 109              		.size	Chip_SYSCTL_SetDeepSleepPD, .-Chip_SYSCTL_SetDeepSleepPD
 110              		.section	.text.Chip_SYSCTL_SetWakeup,"ax",%progbits
 111              		.align	1
 112              		.p2align 2,,3
 113              		.global	Chip_SYSCTL_SetWakeup
 114              		.syntax unified
 115              		.code	16
 116              		.thumb_func
 117              		.fpu softvfp
 118              		.type	Chip_SYSCTL_SetWakeup, %function
 119              	Chip_SYSCTL_SetWakeup:
 120              	.LFB199:
  93:../../lpc11cx4-library/lpc_chip_11cxx_lib/src/sysctl_11xx.c **** 
  94:../../lpc11cx4-library/lpc_chip_11cxx_lib/src/sysctl_11xx.c **** /* Setup wakeup behaviour from deep sleep */
  95:../../lpc11cx4-library/lpc_chip_11cxx_lib/src/sysctl_11xx.c **** void Chip_SYSCTL_SetWakeup(uint32_t wakeupmask)
  96:../../lpc11cx4-library/lpc_chip_11cxx_lib/src/sysctl_11xx.c **** {
 121              		.loc 1 96 0
 122              		.cfi_startproc
 123              		@ args = 0, pretend = 0, frame = 0
 124              		@ frame_needed = 0, uses_anonymous_args = 0
 125              		@ link register save eliminated.
 126              	.LVL2:
  97:../../lpc11cx4-library/lpc_chip_11cxx_lib/src/sysctl_11xx.c **** 	/* Update new value */
  98:../../lpc11cx4-library/lpc_chip_11cxx_lib/src/sysctl_11xx.c **** 	LPC_SYSCTL->PDWAKECFG = PDWAKEUPUSEMASK | (wakeupmask & PDWAKEUPMASKTMP);
 127              		.loc 1 98 0
 128 0000 FF23     		movs	r3, #255	@ tmp113,
 129 0002 0340     		ands	r3, r0	@ tmp114, wakeupmask
 130 0004 ED20     		movs	r0, #237	@ tmp115,
ARM GAS  /tmp/ccGPnUeu.s 			page 5


 131              	.LVL3:
 132 0006 0002     		lsls	r0, r0, #8	@ tmp115, tmp115,
 133 0008 1843     		orrs	r0, r3	@ _3, tmp114
 134 000a 8D23     		movs	r3, #141	@ tmp117,
 135 000c 014A     		ldr	r2, .L5	@ tmp116,
 136 000e 9B00     		lsls	r3, r3, #2	@ tmp117, tmp117,
 137 0010 D050     		str	r0, [r2, r3]	@ _3, MEM[(struct LPC_SYSCTL_T *)1074036736B].PDWAKECFG
  99:../../lpc11cx4-library/lpc_chip_11cxx_lib/src/sysctl_11xx.c **** }
 138              		.loc 1 99 0
 139              		@ sp needed	@
 140 0012 7047     		bx	lr
 141              	.L6:
 142              		.align	2
 143              	.L5:
 144 0014 00800440 		.word	1074036736
 145              		.cfi_endproc
 146              	.LFE199:
 147              		.size	Chip_SYSCTL_SetWakeup, .-Chip_SYSCTL_SetWakeup
 148              		.section	.text.Chip_SYSCTL_PowerDown,"ax",%progbits
 149              		.align	1
 150              		.p2align 2,,3
 151              		.global	Chip_SYSCTL_PowerDown
 152              		.syntax unified
 153              		.code	16
 154              		.thumb_func
 155              		.fpu softvfp
 156              		.type	Chip_SYSCTL_PowerDown, %function
 157              	Chip_SYSCTL_PowerDown:
 158              	.LFB200:
 100:../../lpc11cx4-library/lpc_chip_11cxx_lib/src/sysctl_11xx.c **** 
 101:../../lpc11cx4-library/lpc_chip_11cxx_lib/src/sysctl_11xx.c **** #endif
 102:../../lpc11cx4-library/lpc_chip_11cxx_lib/src/sysctl_11xx.c **** 
 103:../../lpc11cx4-library/lpc_chip_11cxx_lib/src/sysctl_11xx.c **** /* Power down one or more blocks or peripherals */
 104:../../lpc11cx4-library/lpc_chip_11cxx_lib/src/sysctl_11xx.c **** void Chip_SYSCTL_PowerDown(uint32_t powerdownmask)
 105:../../lpc11cx4-library/lpc_chip_11cxx_lib/src/sysctl_11xx.c **** {
 159              		.loc 1 105 0
 160              		.cfi_startproc
 161              		@ args = 0, pretend = 0, frame = 0
 162              		@ frame_needed = 0, uses_anonymous_args = 0
 163              		@ link register save eliminated.
 164              	.LVL4:
 106:../../lpc11cx4-library/lpc_chip_11cxx_lib/src/sysctl_11xx.c **** 	uint32_t pdrun;
 107:../../lpc11cx4-library/lpc_chip_11cxx_lib/src/sysctl_11xx.c **** 
 108:../../lpc11cx4-library/lpc_chip_11cxx_lib/src/sysctl_11xx.c **** 	pdrun = LPC_SYSCTL->PDRUNCFG & PDRUNCFGMASKTMP;
 165              		.loc 1 108 0
 166 0000 8E22     		movs	r2, #142	@ tmp116,
 167 0002 0549     		ldr	r1, .L8	@ tmp115,
 168 0004 9200     		lsls	r2, r2, #2	@ tmp116, tmp116,
 169 0006 8B58     		ldr	r3, [r1, r2]	@ _3, MEM[(struct LPC_SYSCTL_T *)1074036736B].PDRUNCFG
 170              	.LVL5:
 109:../../lpc11cx4-library/lpc_chip_11cxx_lib/src/sysctl_11xx.c **** 	pdrun |= (powerdownmask & PDRUNCFGMASKTMP);
 110:../../lpc11cx4-library/lpc_chip_11cxx_lib/src/sysctl_11xx.c **** 
 111:../../lpc11cx4-library/lpc_chip_11cxx_lib/src/sysctl_11xx.c **** 	LPC_SYSCTL->PDRUNCFG = (pdrun | PDRUNCFGUSEMASK);
 112:../../lpc11cx4-library/lpc_chip_11cxx_lib/src/sysctl_11xx.c **** }
 171              		.loc 1 112 0
 172              		@ sp needed	@
 109:../../lpc11cx4-library/lpc_chip_11cxx_lib/src/sysctl_11xx.c **** 	pdrun |= (powerdownmask & PDRUNCFGMASKTMP);
ARM GAS  /tmp/ccGPnUeu.s 			page 6


 173              		.loc 1 109 0
 174 0008 1843     		orrs	r0, r3	@ tmp117, _3
 175              	.LVL6:
 176 000a FF23     		movs	r3, #255	@ tmp118,
 177              	.LVL7:
 178 000c 0340     		ands	r3, r0	@ pdrun, tmp117
 179              	.LVL8:
 111:../../lpc11cx4-library/lpc_chip_11cxx_lib/src/sysctl_11xx.c **** }
 180              		.loc 1 111 0
 181 000e ED20     		movs	r0, #237	@ tmp120,
 182 0010 0002     		lsls	r0, r0, #8	@ tmp120, tmp120,
 183 0012 1843     		orrs	r0, r3	@ _6, pdrun
 184 0014 8850     		str	r0, [r1, r2]	@ _6, MEM[(struct LPC_SYSCTL_T *)1074036736B].PDRUNCFG
 185              		.loc 1 112 0
 186 0016 7047     		bx	lr
 187              	.L9:
 188              		.align	2
 189              	.L8:
 190 0018 00800440 		.word	1074036736
 191              		.cfi_endproc
 192              	.LFE200:
 193              		.size	Chip_SYSCTL_PowerDown, .-Chip_SYSCTL_PowerDown
 194              		.section	.text.Chip_SYSCTL_PowerUp,"ax",%progbits
 195              		.align	1
 196              		.p2align 2,,3
 197              		.global	Chip_SYSCTL_PowerUp
 198              		.syntax unified
 199              		.code	16
 200              		.thumb_func
 201              		.fpu softvfp
 202              		.type	Chip_SYSCTL_PowerUp, %function
 203              	Chip_SYSCTL_PowerUp:
 204              	.LFB201:
 113:../../lpc11cx4-library/lpc_chip_11cxx_lib/src/sysctl_11xx.c **** 
 114:../../lpc11cx4-library/lpc_chip_11cxx_lib/src/sysctl_11xx.c **** /* Power up one or more blocks or peripherals */
 115:../../lpc11cx4-library/lpc_chip_11cxx_lib/src/sysctl_11xx.c **** void Chip_SYSCTL_PowerUp(uint32_t powerupmask)
 116:../../lpc11cx4-library/lpc_chip_11cxx_lib/src/sysctl_11xx.c **** {
 205              		.loc 1 116 0
 206              		.cfi_startproc
 207              		@ args = 0, pretend = 0, frame = 0
 208              		@ frame_needed = 0, uses_anonymous_args = 0
 209              	.LVL9:
 117:../../lpc11cx4-library/lpc_chip_11cxx_lib/src/sysctl_11xx.c **** 	uint32_t pdrun;
 118:../../lpc11cx4-library/lpc_chip_11cxx_lib/src/sysctl_11xx.c **** 
 119:../../lpc11cx4-library/lpc_chip_11cxx_lib/src/sysctl_11xx.c **** 	pdrun = LPC_SYSCTL->PDRUNCFG & PDRUNCFGMASKTMP;
 210              		.loc 1 119 0
 211 0000 8E21     		movs	r1, #142	@ tmp118,
 212 0002 FF22     		movs	r2, #255	@ tmp119,
 116:../../lpc11cx4-library/lpc_chip_11cxx_lib/src/sysctl_11xx.c **** 	uint32_t pdrun;
 213              		.loc 1 116 0
 214 0004 10B5     		push	{r4, lr}	@
 215              		.cfi_def_cfa_offset 8
 216              		.cfi_offset 4, -8
 217              		.cfi_offset 14, -4
 218              		.loc 1 119 0
 219 0006 054C     		ldr	r4, .L11	@ tmp117,
 220 0008 8900     		lsls	r1, r1, #2	@ tmp118, tmp118,
ARM GAS  /tmp/ccGPnUeu.s 			page 7


 221 000a 6358     		ldr	r3, [r4, r1]	@ _2, MEM[(struct LPC_SYSCTL_T *)1074036736B].PDRUNCFG
 120:../../lpc11cx4-library/lpc_chip_11cxx_lib/src/sysctl_11xx.c **** 	pdrun &= ~(powerupmask & PDRUNCFGMASKTMP);
 121:../../lpc11cx4-library/lpc_chip_11cxx_lib/src/sysctl_11xx.c **** 
 122:../../lpc11cx4-library/lpc_chip_11cxx_lib/src/sysctl_11xx.c **** 	LPC_SYSCTL->PDRUNCFG = (pdrun | PDRUNCFGUSEMASK);
 123:../../lpc11cx4-library/lpc_chip_11cxx_lib/src/sysctl_11xx.c **** }
 222              		.loc 1 123 0
 223              		@ sp needed	@
 119:../../lpc11cx4-library/lpc_chip_11cxx_lib/src/sysctl_11xx.c **** 	pdrun &= ~(powerupmask & PDRUNCFGMASKTMP);
 224              		.loc 1 119 0
 225 000c 1340     		ands	r3, r2	@ pdrun, tmp119
 226              	.LVL10:
 120:../../lpc11cx4-library/lpc_chip_11cxx_lib/src/sysctl_11xx.c **** 	pdrun &= ~(powerupmask & PDRUNCFGMASKTMP);
 227              		.loc 1 120 0
 228 000e 0240     		ands	r2, r0	@ tmp121, powerupmask
 229 0010 9343     		bics	r3, r2	@ pdrun, tmp121
 230              	.LVL11:
 122:../../lpc11cx4-library/lpc_chip_11cxx_lib/src/sysctl_11xx.c **** }
 231              		.loc 1 122 0
 232 0012 ED22     		movs	r2, #237	@ tmp124,
 233 0014 1202     		lsls	r2, r2, #8	@ tmp124, tmp124,
 234 0016 1343     		orrs	r3, r2	@ _8, tmp124
 235 0018 6350     		str	r3, [r4, r1]	@ _8, MEM[(struct LPC_SYSCTL_T *)1074036736B].PDRUNCFG
 236              		.loc 1 123 0
 237 001a 10BD     		pop	{r4, pc}
 238              	.L12:
 239              		.align	2
 240              	.L11:
 241 001c 00800440 		.word	1074036736
 242              		.cfi_endproc
 243              	.LFE201:
 244              		.size	Chip_SYSCTL_PowerUp, .-Chip_SYSCTL_PowerUp
 245              		.text
 246              	.Letext0:
 247              		.file 2 "/usr/arm-none-eabi/include/machine/_default_types.h"
 248              		.file 3 "/usr/arm-none-eabi/include/sys/_stdint.h"
 249              		.file 4 "../../lpc11cx4-library/lpc_chip_11cxx_lib/inc/chip.h"
 250              		.file 5 "../../lpc11cx4-library/lpc_chip_11cxx_lib/inc/sysctl_11xx.h"