ARM GAS  /tmp/ccZ3PTEI.s 			page 1


   1              		.cpu cortex-m0
   2              		.eabi_attribute 20, 1	@ Tag_ABI_FP_denormal
   3              		.eabi_attribute 21, 1	@ Tag_ABI_FP_exceptions
   4              		.eabi_attribute 23, 3	@ Tag_ABI_FP_number_model
   5              		.eabi_attribute 24, 1	@ Tag_ABI_align8_needed
   6              		.eabi_attribute 25, 1	@ Tag_ABI_align8_preserved
   7              		.eabi_attribute 26, 1	@ Tag_ABI_enum_size
   8              		.eabi_attribute 30, 2	@ Tag_ABI_optimization_goals
   9              		.eabi_attribute 34, 0	@ Tag_CPU_unaligned_access
  10              		.eabi_attribute 18, 4	@ Tag_ABI_PCS_wchar_t
  11              		.file	"blink.c"
  12              	@ GNU C89 (GNU Tools for ARM Embedded Processors) version 6.2.1 20161205 (release) [ARM/embedded-6-
  13              	@	compiled by GNU C version 5.4.0 20160609, GMP version 6.1.0, MPFR version 3.1.4, MPC version 1.0.
  14              	@ GGC heuristics: --param ggc-min-expand=100 --param ggc-min-heapsize=131072
  15              	@ options passed:  -I . -I ../../lpc11cx4-library/lpc_chip_11cxx_lib/inc
  16              	@ -imultilib thumb/v6-m -iprefix /usr/bin/../lib/gcc/arm-none-eabi/6.2.1/
  17              	@ -isysroot /usr/bin/../arm-none-eabi -MD bin/blink.d -MF bin/blink.d -MP
  18              	@ -MQ bin/blink.o -D__USES_INITFINI__ -D CORE_M0 src/blink.c
  19              	@ -mcpu=cortex-m0 -mthumb -auxbase-strip bin/blink.o -g -ggdb3 -O2 -Wall
  20              	@ -Wstrict-prototypes -Wextra -std=gnu90 -ffunction-sections
  21              	@ -fdata-sections -fverbose-asm
  22              	@ options enabled:  -faggressive-loop-optimizations -falign-jumps
  23              	@ -falign-labels -falign-loops -fauto-inc-dec -fbranch-count-reg
  24              	@ -fcaller-saves -fchkp-check-incomplete-type -fchkp-check-read
  25              	@ -fchkp-check-write -fchkp-instrument-calls -fchkp-narrow-bounds
  26              	@ -fchkp-optimize -fchkp-store-bounds -fchkp-use-static-bounds
  27              	@ -fchkp-use-static-const-bounds -fchkp-use-wrappers
  28              	@ -fcombine-stack-adjustments -fcommon -fcompare-elim -fcprop-registers
  29              	@ -fcrossjumping -fcse-follow-jumps -fdata-sections -fdefer-pop
  30              	@ -fdelete-null-pointer-checks -fdevirtualize -fdevirtualize-speculatively
  31              	@ -fdwarf2-cfi-asm -fearly-inlining -feliminate-unused-debug-types
  32              	@ -fexpensive-optimizations -fforward-propagate -ffunction-cse
  33              	@ -ffunction-sections -fgcse -fgcse-lm -fgnu-runtime -fgnu-unique
  34              	@ -fguess-branch-probability -fhoist-adjacent-loads -fident -fif-conversion
  35              	@ -fif-conversion2 -findirect-inlining -finline -finline-atomics
  36              	@ -finline-functions-called-once -finline-small-functions -fipa-cp
  37              	@ -fipa-cp-alignment -fipa-icf -fipa-icf-functions -fipa-icf-variables
  38              	@ -fipa-profile -fipa-pure-const -fipa-reference -fipa-sra
  39              	@ -fira-hoist-pressure -fira-share-save-slots -fira-share-spill-slots
  40              	@ -fisolate-erroneous-paths-dereference -fivopts -fkeep-static-consts
  41              	@ -fleading-underscore -flifetime-dse -flra-remat -flto-odr-type-merging
  42              	@ -fmath-errno -fmerge-constants -fmerge-debug-strings
  43              	@ -fmove-loop-invariants -fomit-frame-pointer -foptimize-sibling-calls
  44              	@ -foptimize-strlen -fpartial-inlining -fpeephole -fpeephole2 -fplt
  45              	@ -fprefetch-loop-arrays -freg-struct-return -freorder-blocks
  46              	@ -freorder-functions -frerun-cse-after-loop
  47              	@ -fsched-critical-path-heuristic -fsched-dep-count-heuristic
  48              	@ -fsched-group-heuristic -fsched-interblock -fsched-last-insn-heuristic
  49              	@ -fsched-pressure -fsched-rank-heuristic -fsched-spec
  50              	@ -fsched-spec-insn-heuristic -fsched-stalled-insns-dep -fschedule-insns2
  51              	@ -fsection-anchors -fsemantic-interposition -fshow-column -fshrink-wrap
  52              	@ -fsigned-zeros -fsplit-ivs-in-unroller -fsplit-wide-types -fssa-backprop
  53              	@ -fssa-phiopt -fstdarg-opt -fstrict-aliasing -fstrict-overflow
  54              	@ -fstrict-volatile-bitfields -fsync-libcalls -fthread-jumps
  55              	@ -ftoplevel-reorder -ftrapping-math -ftree-bit-ccp -ftree-builtin-call-dce
  56              	@ -ftree-ccp -ftree-ch -ftree-coalesce-vars -ftree-copy-prop -ftree-cselim
  57              	@ -ftree-dce -ftree-dominator-opts -ftree-dse -ftree-forwprop -ftree-fre
ARM GAS  /tmp/ccZ3PTEI.s 			page 2


  58              	@ -ftree-loop-if-convert -ftree-loop-im -ftree-loop-ivcanon
  59              	@ -ftree-loop-optimize -ftree-parallelize-loops= -ftree-phiprop -ftree-pre
  60              	@ -ftree-pta -ftree-reassoc -ftree-scev-cprop -ftree-sink -ftree-slsr
  61              	@ -ftree-sra -ftree-switch-conversion -ftree-tail-merge -ftree-ter
  62              	@ -ftree-vrp -funit-at-a-time -fvar-tracking -fvar-tracking-assignments
  63              	@ -fverbose-asm -fzero-initialized-in-bss -mlittle-endian
  64              	@ -mpic-data-is-text-relative -msched-prolog -mthumb
  65              	@ -mvectorize-with-neon-quad
  66              	
  67              		.text
  68              	.Ltext0:
  69              		.cfi_sections	.debug_frame
  70              		.section	.text.SysTick_Handler,"ax",%progbits
  71              		.align	1
  72              		.p2align 2,,3
  73              		.global	SysTick_Handler
  74              		.syntax unified
  75              		.code	16
  76              		.thumb_func
  77              		.fpu softvfp
  78              		.type	SysTick_Handler, %function
  79              	SysTick_Handler:
  80              	.LFB198:
  81              		.file 1 "src/blink.c"
   1:src/blink.c   **** 
   2:src/blink.c   **** #include "chip.h"
   3:src/blink.c   **** 
   4:src/blink.c   **** const uint32_t OscRateIn = 12000000;
   5:src/blink.c   **** 
   6:src/blink.c   **** #define LED0 2, 8
   7:src/blink.c   **** #define LED1 0, 6
   8:src/blink.c   **** #define LED2 0, 7
   9:src/blink.c   **** #define LED3 2, 9
  10:src/blink.c   **** 
  11:src/blink.c   **** volatile uint32_t msTicks;
  12:src/blink.c   **** 
  13:src/blink.c   **** void SysTick_Handler(void) {
  82              		.loc 1 13 0
  83              		.cfi_startproc
  84              		@ args = 0, pretend = 0, frame = 0
  85              		@ frame_needed = 0, uses_anonymous_args = 0
  86              		@ link register save eliminated.
  14:src/blink.c   **** 	msTicks++;
  87              		.loc 1 14 0
  88 0000 024A     		ldr	r2, .L2	@ tmp112,
  15:src/blink.c   **** }
  89              		.loc 1 15 0
  90              		@ sp needed	@
  14:src/blink.c   **** 	msTicks++;
  91              		.loc 1 14 0
  92 0002 1368     		ldr	r3, [r2]	@ msTicks.0_2, msTicks
  93 0004 0133     		adds	r3, r3, #1	@ _3,
  94 0006 1360     		str	r3, [r2]	@ _3, msTicks
  95              		.loc 1 15 0
  96 0008 7047     		bx	lr
  97              	.L3:
  98 000a C046     		.align	2
ARM GAS  /tmp/ccZ3PTEI.s 			page 3


  99              	.L2:
 100 000c 00000000 		.word	msTicks
 101              		.cfi_endproc
 102              	.LFE198:
 103              		.size	SysTick_Handler, .-SysTick_Handler
 104              		.global	__aeabi_uidiv
 105              		.section	.text.startup.main,"ax",%progbits
 106              		.align	1
 107              		.p2align 2,,3
 108              		.global	main
 109              		.syntax unified
 110              		.code	16
 111              		.thumb_func
 112              		.fpu softvfp
 113              		.type	main, %function
 114              	main:
 115              	.LFB203:
  16:src/blink.c   **** 
  17:src/blink.c   **** static void Delay(uint32_t dlyTicks) {
  18:src/blink.c   ****     uint32_t startTime = msTicks;
  19:src/blink.c   ****     uint32_t diff = 0;
  20:src/blink.c   ****     while(diff < dlyTicks){
  21:src/blink.c   ****         diff = msTicks - startTime;
  22:src/blink.c   ****     }
  23:src/blink.c   **** }
  24:src/blink.c   **** 
  25:src/blink.c   **** static void GPIO_Config(void) {
  26:src/blink.c   **** 	Chip_GPIO_Init(LPC_GPIO);
  27:src/blink.c   **** 
  28:src/blink.c   **** }
  29:src/blink.c   **** 
  30:src/blink.c   **** static void LED_Init(uint8_t port, uint8_t pin) {
  31:src/blink.c   **** 	Chip_GPIO_WriteDirBit(LPC_GPIO, port, pin, true);
  32:src/blink.c   **** 	Chip_GPIO_SetPinState(LPC_GPIO, port, pin, false);
  33:src/blink.c   **** 
  34:src/blink.c   **** }
  35:src/blink.c   **** 
  36:src/blink.c   **** static void LED_Write(uint8_t port, uint8_t pin, uint8_t val) {
  37:src/blink.c   **** 	Chip_GPIO_SetPinState(LPC_GPIO, port, pin, val);
  38:src/blink.c   **** }
  39:src/blink.c   **** 
  40:src/blink.c   **** int main (void) {
 116              		.loc 1 40 0
 117              		.cfi_startproc
 118              		@ Volatile: function does not return.
 119              		@ args = 0, pretend = 0, frame = 0
 120              		@ frame_needed = 0, uses_anonymous_args = 0
 121 0000 F0B5     		push	{r4, r5, r6, r7, lr}	@
 122              		.cfi_def_cfa_offset 20
 123              		.cfi_offset 4, -20
 124              		.cfi_offset 5, -16
 125              		.cfi_offset 6, -12
 126              		.cfi_offset 7, -8
 127              		.cfi_offset 14, -4
 128 0002 C646     		mov	lr, r8	@,
 129 0004 00B5     		push	{lr}	@
 130              		.cfi_def_cfa_offset 24
ARM GAS  /tmp/ccZ3PTEI.s 			page 4


 131              		.cfi_offset 8, -24
  41:src/blink.c   **** 
  42:src/blink.c   **** 	SystemCoreClockUpdate();
 132              		.loc 1 42 0
 133 0006 FFF7FEFF 		bl	SystemCoreClockUpdate	@
 134              	.LVL0:
  43:src/blink.c   **** 
  44:src/blink.c   **** 	if (SysTick_Config (SystemCoreClock / 1000)) {
 135              		.loc 1 44 0
 136 000a FA21     		movs	r1, #250	@,
 137 000c 284B     		ldr	r3, .L11	@ tmp123,
 138              	.LVL1:
 139 000e 8900     		lsls	r1, r1, #2	@,,
 140 0010 1868     		ldr	r0, [r3]	@ SystemCoreClock, SystemCoreClock
 141 0012 FFF7FEFF 		bl	__aeabi_uidiv	@
 142              	.LVL2:
 143              	.LBB42:
 144              	.LBB43:
 145              	.LBB44:
 146              	.LBB45:
 147              		.file 2 "../../lpc11cx4-library/lpc_chip_11cxx_lib/inc/core_cm0.h"
   1:../../lpc11cx4-library/lpc_chip_11cxx_lib/inc/core_cm0.h **** /**************************************************************************//**
   2:../../lpc11cx4-library/lpc_chip_11cxx_lib/inc/core_cm0.h ****  * @file     core_cm0.h
   3:../../lpc11cx4-library/lpc_chip_11cxx_lib/inc/core_cm0.h ****  * @brief    CMSIS Cortex-M0 Core Peripheral Access Layer Header File
   4:../../lpc11cx4-library/lpc_chip_11cxx_lib/inc/core_cm0.h ****  * @version  V3.01
   5:../../lpc11cx4-library/lpc_chip_11cxx_lib/inc/core_cm0.h ****  * @date     13. March 2012
   6:../../lpc11cx4-library/lpc_chip_11cxx_lib/inc/core_cm0.h ****  *
   7:../../lpc11cx4-library/lpc_chip_11cxx_lib/inc/core_cm0.h ****  * @note
   8:../../lpc11cx4-library/lpc_chip_11cxx_lib/inc/core_cm0.h ****  * Copyright (C) 2009-2012 ARM Limited. All rights reserved.
   9:../../lpc11cx4-library/lpc_chip_11cxx_lib/inc/core_cm0.h ****  *
  10:../../lpc11cx4-library/lpc_chip_11cxx_lib/inc/core_cm0.h ****  * @par
  11:../../lpc11cx4-library/lpc_chip_11cxx_lib/inc/core_cm0.h ****  * ARM Limited (ARM) is supplying this software for use with Cortex-M
  12:../../lpc11cx4-library/lpc_chip_11cxx_lib/inc/core_cm0.h ****  * processor based microcontrollers.  This file can be freely distributed
  13:../../lpc11cx4-library/lpc_chip_11cxx_lib/inc/core_cm0.h ****  * within development tools that are supporting such ARM based processors.
  14:../../lpc11cx4-library/lpc_chip_11cxx_lib/inc/core_cm0.h ****  *
  15:../../lpc11cx4-library/lpc_chip_11cxx_lib/inc/core_cm0.h ****  * @par
  16:../../lpc11cx4-library/lpc_chip_11cxx_lib/inc/core_cm0.h ****  * THIS SOFTWARE IS PROVIDED "AS IS".  NO WARRANTIES, WHETHER EXPRESS, IMPLIED
  17:../../lpc11cx4-library/lpc_chip_11cxx_lib/inc/core_cm0.h ****  * OR STATUTORY, INCLUDING, BUT NOT LIMITED TO, IMPLIED WARRANTIES OF
  18:../../lpc11cx4-library/lpc_chip_11cxx_lib/inc/core_cm0.h ****  * MERCHANTABILITY AND FITNESS FOR A PARTICULAR PURPOSE APPLY TO THIS SOFTWARE.
  19:../../lpc11cx4-library/lpc_chip_11cxx_lib/inc/core_cm0.h ****  * ARM SHALL NOT, IN ANY CIRCUMSTANCES, BE LIABLE FOR SPECIAL, INCIDENTAL, OR
  20:../../lpc11cx4-library/lpc_chip_11cxx_lib/inc/core_cm0.h ****  * CONSEQUENTIAL DAMAGES, FOR ANY REASON WHATSOEVER.
  21:../../lpc11cx4-library/lpc_chip_11cxx_lib/inc/core_cm0.h ****  *
  22:../../lpc11cx4-library/lpc_chip_11cxx_lib/inc/core_cm0.h ****  ******************************************************************************/
  23:../../lpc11cx4-library/lpc_chip_11cxx_lib/inc/core_cm0.h **** #if defined ( __ICCARM__ )
  24:../../lpc11cx4-library/lpc_chip_11cxx_lib/inc/core_cm0.h ****  #pragma system_include  /* treat file as system include file for MISRA check */
  25:../../lpc11cx4-library/lpc_chip_11cxx_lib/inc/core_cm0.h **** #endif
  26:../../lpc11cx4-library/lpc_chip_11cxx_lib/inc/core_cm0.h **** 
  27:../../lpc11cx4-library/lpc_chip_11cxx_lib/inc/core_cm0.h **** #ifdef __cplusplus
  28:../../lpc11cx4-library/lpc_chip_11cxx_lib/inc/core_cm0.h ****  extern "C" {
  29:../../lpc11cx4-library/lpc_chip_11cxx_lib/inc/core_cm0.h **** #endif
  30:../../lpc11cx4-library/lpc_chip_11cxx_lib/inc/core_cm0.h **** 
  31:../../lpc11cx4-library/lpc_chip_11cxx_lib/inc/core_cm0.h **** #ifndef __CORE_CM0_H_GENERIC
  32:../../lpc11cx4-library/lpc_chip_11cxx_lib/inc/core_cm0.h **** #define __CORE_CM0_H_GENERIC
  33:../../lpc11cx4-library/lpc_chip_11cxx_lib/inc/core_cm0.h **** 
  34:../../lpc11cx4-library/lpc_chip_11cxx_lib/inc/core_cm0.h **** /** \page CMSIS_MISRA_Exceptions  MISRA-C:2004 Compliance Exceptions
  35:../../lpc11cx4-library/lpc_chip_11cxx_lib/inc/core_cm0.h ****   CMSIS violates the following MISRA-C:2004 rules:
  36:../../lpc11cx4-library/lpc_chip_11cxx_lib/inc/core_cm0.h **** 
ARM GAS  /tmp/ccZ3PTEI.s 			page 5


  37:../../lpc11cx4-library/lpc_chip_11cxx_lib/inc/core_cm0.h ****    \li Required Rule 8.5, object/function definition in header file.<br>
  38:../../lpc11cx4-library/lpc_chip_11cxx_lib/inc/core_cm0.h ****      Function definitions in header files are used to allow 'inlining'.
  39:../../lpc11cx4-library/lpc_chip_11cxx_lib/inc/core_cm0.h **** 
  40:../../lpc11cx4-library/lpc_chip_11cxx_lib/inc/core_cm0.h ****    \li Required Rule 18.4, declaration of union type or object of union type: '{...}'.<br>
  41:../../lpc11cx4-library/lpc_chip_11cxx_lib/inc/core_cm0.h ****      Unions are used for effective representation of core registers.
  42:../../lpc11cx4-library/lpc_chip_11cxx_lib/inc/core_cm0.h **** 
  43:../../lpc11cx4-library/lpc_chip_11cxx_lib/inc/core_cm0.h ****    \li Advisory Rule 19.7, Function-like macro defined.<br>
  44:../../lpc11cx4-library/lpc_chip_11cxx_lib/inc/core_cm0.h ****      Function-like macros are used to allow more efficient code.
  45:../../lpc11cx4-library/lpc_chip_11cxx_lib/inc/core_cm0.h ****  */
  46:../../lpc11cx4-library/lpc_chip_11cxx_lib/inc/core_cm0.h **** 
  47:../../lpc11cx4-library/lpc_chip_11cxx_lib/inc/core_cm0.h **** 
  48:../../lpc11cx4-library/lpc_chip_11cxx_lib/inc/core_cm0.h **** /*******************************************************************************
  49:../../lpc11cx4-library/lpc_chip_11cxx_lib/inc/core_cm0.h ****  *                 CMSIS definitions
  50:../../lpc11cx4-library/lpc_chip_11cxx_lib/inc/core_cm0.h ****  ******************************************************************************/
  51:../../lpc11cx4-library/lpc_chip_11cxx_lib/inc/core_cm0.h **** /** \ingroup Cortex_M0
  52:../../lpc11cx4-library/lpc_chip_11cxx_lib/inc/core_cm0.h ****   @{
  53:../../lpc11cx4-library/lpc_chip_11cxx_lib/inc/core_cm0.h ****  */
  54:../../lpc11cx4-library/lpc_chip_11cxx_lib/inc/core_cm0.h **** 
  55:../../lpc11cx4-library/lpc_chip_11cxx_lib/inc/core_cm0.h **** /*  CMSIS CM0 definitions */
  56:../../lpc11cx4-library/lpc_chip_11cxx_lib/inc/core_cm0.h **** #define __CM0_CMSIS_VERSION_MAIN  (0x03)                                   /*!< [31:16] CMSIS HAL m
  57:../../lpc11cx4-library/lpc_chip_11cxx_lib/inc/core_cm0.h **** #define __CM0_CMSIS_VERSION_SUB   (0x01)                                   /*!< [15:0]  CMSIS HAL s
  58:../../lpc11cx4-library/lpc_chip_11cxx_lib/inc/core_cm0.h **** #define __CM0_CMSIS_VERSION       ((__CM0_CMSIS_VERSION_MAIN << 16) | \
  59:../../lpc11cx4-library/lpc_chip_11cxx_lib/inc/core_cm0.h ****                                     __CM0_CMSIS_VERSION_SUB          )     /*!< CMSIS HAL version n
  60:../../lpc11cx4-library/lpc_chip_11cxx_lib/inc/core_cm0.h **** 
  61:../../lpc11cx4-library/lpc_chip_11cxx_lib/inc/core_cm0.h **** #define __CORTEX_M                (0x00)                                   /*!< Cortex-M Core      
  62:../../lpc11cx4-library/lpc_chip_11cxx_lib/inc/core_cm0.h **** 
  63:../../lpc11cx4-library/lpc_chip_11cxx_lib/inc/core_cm0.h **** 
  64:../../lpc11cx4-library/lpc_chip_11cxx_lib/inc/core_cm0.h **** #if   defined ( __CC_ARM )
  65:../../lpc11cx4-library/lpc_chip_11cxx_lib/inc/core_cm0.h ****   #define __ASM            __asm                                      /*!< asm keyword for ARM Comp
  66:../../lpc11cx4-library/lpc_chip_11cxx_lib/inc/core_cm0.h ****   #define __INLINE         __inline                                   /*!< inline keyword for ARM C
  67:../../lpc11cx4-library/lpc_chip_11cxx_lib/inc/core_cm0.h ****   #define __STATIC_INLINE  static __inline
  68:../../lpc11cx4-library/lpc_chip_11cxx_lib/inc/core_cm0.h **** 
  69:../../lpc11cx4-library/lpc_chip_11cxx_lib/inc/core_cm0.h **** #elif defined ( __ICCARM__ )
  70:../../lpc11cx4-library/lpc_chip_11cxx_lib/inc/core_cm0.h ****   #define __ASM            __asm                                      /*!< asm keyword for IAR Comp
  71:../../lpc11cx4-library/lpc_chip_11cxx_lib/inc/core_cm0.h ****   #define __INLINE         inline                                     /*!< inline keyword for IAR C
  72:../../lpc11cx4-library/lpc_chip_11cxx_lib/inc/core_cm0.h ****   #define __STATIC_INLINE  static inline
  73:../../lpc11cx4-library/lpc_chip_11cxx_lib/inc/core_cm0.h **** 
  74:../../lpc11cx4-library/lpc_chip_11cxx_lib/inc/core_cm0.h **** #elif defined ( __GNUC__ )
  75:../../lpc11cx4-library/lpc_chip_11cxx_lib/inc/core_cm0.h ****   #define __ASM            __asm                                      /*!< asm keyword for GNU Comp
  76:../../lpc11cx4-library/lpc_chip_11cxx_lib/inc/core_cm0.h ****   #define __INLINE         inline                                     /*!< inline keyword for GNU C
  77:../../lpc11cx4-library/lpc_chip_11cxx_lib/inc/core_cm0.h ****   #define __STATIC_INLINE  static inline
  78:../../lpc11cx4-library/lpc_chip_11cxx_lib/inc/core_cm0.h **** 
  79:../../lpc11cx4-library/lpc_chip_11cxx_lib/inc/core_cm0.h **** #elif defined ( __TASKING__ )
  80:../../lpc11cx4-library/lpc_chip_11cxx_lib/inc/core_cm0.h ****   #define __ASM            __asm                                      /*!< asm keyword for TASKING 
  81:../../lpc11cx4-library/lpc_chip_11cxx_lib/inc/core_cm0.h ****   #define __INLINE         inline                                     /*!< inline keyword for TASKI
  82:../../lpc11cx4-library/lpc_chip_11cxx_lib/inc/core_cm0.h ****   #define __STATIC_INLINE  static inline
  83:../../lpc11cx4-library/lpc_chip_11cxx_lib/inc/core_cm0.h **** 
  84:../../lpc11cx4-library/lpc_chip_11cxx_lib/inc/core_cm0.h **** #endif
  85:../../lpc11cx4-library/lpc_chip_11cxx_lib/inc/core_cm0.h **** 
  86:../../lpc11cx4-library/lpc_chip_11cxx_lib/inc/core_cm0.h **** /** __FPU_USED indicates whether an FPU is used or not. This core does not support an FPU at all
  87:../../lpc11cx4-library/lpc_chip_11cxx_lib/inc/core_cm0.h **** */
  88:../../lpc11cx4-library/lpc_chip_11cxx_lib/inc/core_cm0.h **** #define __FPU_USED       0
  89:../../lpc11cx4-library/lpc_chip_11cxx_lib/inc/core_cm0.h **** 
  90:../../lpc11cx4-library/lpc_chip_11cxx_lib/inc/core_cm0.h **** #if defined ( __CC_ARM )
  91:../../lpc11cx4-library/lpc_chip_11cxx_lib/inc/core_cm0.h ****   #if defined __TARGET_FPU_VFP
  92:../../lpc11cx4-library/lpc_chip_11cxx_lib/inc/core_cm0.h ****     #warning "Compiler generates FPU instructions for a device without an FPU (check __FPU_PRESENT)
  93:../../lpc11cx4-library/lpc_chip_11cxx_lib/inc/core_cm0.h ****   #endif
ARM GAS  /tmp/ccZ3PTEI.s 			page 6


  94:../../lpc11cx4-library/lpc_chip_11cxx_lib/inc/core_cm0.h **** 
  95:../../lpc11cx4-library/lpc_chip_11cxx_lib/inc/core_cm0.h **** #elif defined ( __ICCARM__ )
  96:../../lpc11cx4-library/lpc_chip_11cxx_lib/inc/core_cm0.h ****   #if defined __ARMVFP__
  97:../../lpc11cx4-library/lpc_chip_11cxx_lib/inc/core_cm0.h ****     #warning "Compiler generates FPU instructions for a device without an FPU (check __FPU_PRESENT)
  98:../../lpc11cx4-library/lpc_chip_11cxx_lib/inc/core_cm0.h ****   #endif
  99:../../lpc11cx4-library/lpc_chip_11cxx_lib/inc/core_cm0.h **** 
 100:../../lpc11cx4-library/lpc_chip_11cxx_lib/inc/core_cm0.h **** #elif defined ( __GNUC__ )
 101:../../lpc11cx4-library/lpc_chip_11cxx_lib/inc/core_cm0.h ****   #if defined (__VFP_FP__) && !defined(__SOFTFP__)
 102:../../lpc11cx4-library/lpc_chip_11cxx_lib/inc/core_cm0.h ****     #warning "Compiler generates FPU instructions for a device without an FPU (check __FPU_PRESENT)
 103:../../lpc11cx4-library/lpc_chip_11cxx_lib/inc/core_cm0.h ****   #endif
 104:../../lpc11cx4-library/lpc_chip_11cxx_lib/inc/core_cm0.h **** 
 105:../../lpc11cx4-library/lpc_chip_11cxx_lib/inc/core_cm0.h **** #elif defined ( __TASKING__ )
 106:../../lpc11cx4-library/lpc_chip_11cxx_lib/inc/core_cm0.h ****   #if defined __FPU_VFP__
 107:../../lpc11cx4-library/lpc_chip_11cxx_lib/inc/core_cm0.h ****     #error "Compiler generates FPU instructions for a device without an FPU (check __FPU_PRESENT)"
 108:../../lpc11cx4-library/lpc_chip_11cxx_lib/inc/core_cm0.h ****   #endif
 109:../../lpc11cx4-library/lpc_chip_11cxx_lib/inc/core_cm0.h **** #endif
 110:../../lpc11cx4-library/lpc_chip_11cxx_lib/inc/core_cm0.h **** 
 111:../../lpc11cx4-library/lpc_chip_11cxx_lib/inc/core_cm0.h **** #include <stdint.h>                      /* standard types definitions                      */
 112:../../lpc11cx4-library/lpc_chip_11cxx_lib/inc/core_cm0.h **** #include <core_cmInstr.h>                /* Core Instruction Access                         */
 113:../../lpc11cx4-library/lpc_chip_11cxx_lib/inc/core_cm0.h **** #include <core_cmFunc.h>                 /* Core Function Access                            */
 114:../../lpc11cx4-library/lpc_chip_11cxx_lib/inc/core_cm0.h **** 
 115:../../lpc11cx4-library/lpc_chip_11cxx_lib/inc/core_cm0.h **** #endif /* __CORE_CM0_H_GENERIC */
 116:../../lpc11cx4-library/lpc_chip_11cxx_lib/inc/core_cm0.h **** 
 117:../../lpc11cx4-library/lpc_chip_11cxx_lib/inc/core_cm0.h **** #ifndef __CMSIS_GENERIC
 118:../../lpc11cx4-library/lpc_chip_11cxx_lib/inc/core_cm0.h **** 
 119:../../lpc11cx4-library/lpc_chip_11cxx_lib/inc/core_cm0.h **** #ifndef __CORE_CM0_H_DEPENDANT
 120:../../lpc11cx4-library/lpc_chip_11cxx_lib/inc/core_cm0.h **** #define __CORE_CM0_H_DEPENDANT
 121:../../lpc11cx4-library/lpc_chip_11cxx_lib/inc/core_cm0.h **** 
 122:../../lpc11cx4-library/lpc_chip_11cxx_lib/inc/core_cm0.h **** /* check device defines and use defaults */
 123:../../lpc11cx4-library/lpc_chip_11cxx_lib/inc/core_cm0.h **** #if defined __CHECK_DEVICE_DEFINES
 124:../../lpc11cx4-library/lpc_chip_11cxx_lib/inc/core_cm0.h ****   #ifndef __CM0_REV
 125:../../lpc11cx4-library/lpc_chip_11cxx_lib/inc/core_cm0.h ****     #define __CM0_REV               0x0000
 126:../../lpc11cx4-library/lpc_chip_11cxx_lib/inc/core_cm0.h ****     #warning "__CM0_REV not defined in device header file; using default!"
 127:../../lpc11cx4-library/lpc_chip_11cxx_lib/inc/core_cm0.h ****   #endif
 128:../../lpc11cx4-library/lpc_chip_11cxx_lib/inc/core_cm0.h **** 
 129:../../lpc11cx4-library/lpc_chip_11cxx_lib/inc/core_cm0.h ****   #ifndef __NVIC_PRIO_BITS
 130:../../lpc11cx4-library/lpc_chip_11cxx_lib/inc/core_cm0.h ****     #define __NVIC_PRIO_BITS          2
 131:../../lpc11cx4-library/lpc_chip_11cxx_lib/inc/core_cm0.h ****     #warning "__NVIC_PRIO_BITS not defined in device header file; using default!"
 132:../../lpc11cx4-library/lpc_chip_11cxx_lib/inc/core_cm0.h ****   #endif
 133:../../lpc11cx4-library/lpc_chip_11cxx_lib/inc/core_cm0.h **** 
 134:../../lpc11cx4-library/lpc_chip_11cxx_lib/inc/core_cm0.h ****   #ifndef __Vendor_SysTickConfig
 135:../../lpc11cx4-library/lpc_chip_11cxx_lib/inc/core_cm0.h ****     #define __Vendor_SysTickConfig    0
 136:../../lpc11cx4-library/lpc_chip_11cxx_lib/inc/core_cm0.h ****     #warning "__Vendor_SysTickConfig not defined in device header file; using default!"
 137:../../lpc11cx4-library/lpc_chip_11cxx_lib/inc/core_cm0.h ****   #endif
 138:../../lpc11cx4-library/lpc_chip_11cxx_lib/inc/core_cm0.h **** #endif
 139:../../lpc11cx4-library/lpc_chip_11cxx_lib/inc/core_cm0.h **** 
 140:../../lpc11cx4-library/lpc_chip_11cxx_lib/inc/core_cm0.h **** /* IO definitions (access restrictions to peripheral registers) */
 141:../../lpc11cx4-library/lpc_chip_11cxx_lib/inc/core_cm0.h **** /**
 142:../../lpc11cx4-library/lpc_chip_11cxx_lib/inc/core_cm0.h ****     \defgroup CMSIS_glob_defs CMSIS Global Defines
 143:../../lpc11cx4-library/lpc_chip_11cxx_lib/inc/core_cm0.h **** 
 144:../../lpc11cx4-library/lpc_chip_11cxx_lib/inc/core_cm0.h ****     <strong>IO Type Qualifiers</strong> are used
 145:../../lpc11cx4-library/lpc_chip_11cxx_lib/inc/core_cm0.h ****     \li to specify the access to peripheral variables.
 146:../../lpc11cx4-library/lpc_chip_11cxx_lib/inc/core_cm0.h ****     \li for automatic generation of peripheral register debug information.
 147:../../lpc11cx4-library/lpc_chip_11cxx_lib/inc/core_cm0.h **** */
 148:../../lpc11cx4-library/lpc_chip_11cxx_lib/inc/core_cm0.h **** #ifdef __cplusplus
 149:../../lpc11cx4-library/lpc_chip_11cxx_lib/inc/core_cm0.h ****   #define   __I     volatile             /*!< Defines 'read only' permissions                 */
 150:../../lpc11cx4-library/lpc_chip_11cxx_lib/inc/core_cm0.h **** #else
ARM GAS  /tmp/ccZ3PTEI.s 			page 7


 151:../../lpc11cx4-library/lpc_chip_11cxx_lib/inc/core_cm0.h ****   #define   __I     volatile const       /*!< Defines 'read only' permissions                 */
 152:../../lpc11cx4-library/lpc_chip_11cxx_lib/inc/core_cm0.h **** #endif
 153:../../lpc11cx4-library/lpc_chip_11cxx_lib/inc/core_cm0.h **** #define     __O     volatile             /*!< Defines 'write only' permissions                */
 154:../../lpc11cx4-library/lpc_chip_11cxx_lib/inc/core_cm0.h **** #define     __IO    volatile             /*!< Defines 'read / write' permissions              */
 155:../../lpc11cx4-library/lpc_chip_11cxx_lib/inc/core_cm0.h **** 
 156:../../lpc11cx4-library/lpc_chip_11cxx_lib/inc/core_cm0.h **** /*@} end of group Cortex_M0 */
 157:../../lpc11cx4-library/lpc_chip_11cxx_lib/inc/core_cm0.h **** 
 158:../../lpc11cx4-library/lpc_chip_11cxx_lib/inc/core_cm0.h **** 
 159:../../lpc11cx4-library/lpc_chip_11cxx_lib/inc/core_cm0.h **** 
 160:../../lpc11cx4-library/lpc_chip_11cxx_lib/inc/core_cm0.h **** /*******************************************************************************
 161:../../lpc11cx4-library/lpc_chip_11cxx_lib/inc/core_cm0.h ****  *                 Register Abstraction
 162:../../lpc11cx4-library/lpc_chip_11cxx_lib/inc/core_cm0.h ****   Core Register contain:
 163:../../lpc11cx4-library/lpc_chip_11cxx_lib/inc/core_cm0.h ****   - Core Register
 164:../../lpc11cx4-library/lpc_chip_11cxx_lib/inc/core_cm0.h ****   - Core NVIC Register
 165:../../lpc11cx4-library/lpc_chip_11cxx_lib/inc/core_cm0.h ****   - Core SCB Register
 166:../../lpc11cx4-library/lpc_chip_11cxx_lib/inc/core_cm0.h ****   - Core SysTick Register
 167:../../lpc11cx4-library/lpc_chip_11cxx_lib/inc/core_cm0.h ****  ******************************************************************************/
 168:../../lpc11cx4-library/lpc_chip_11cxx_lib/inc/core_cm0.h **** /** \defgroup CMSIS_core_register Defines and Type Definitions
 169:../../lpc11cx4-library/lpc_chip_11cxx_lib/inc/core_cm0.h ****     \brief Type definitions and defines for Cortex-M processor based devices.
 170:../../lpc11cx4-library/lpc_chip_11cxx_lib/inc/core_cm0.h **** */
 171:../../lpc11cx4-library/lpc_chip_11cxx_lib/inc/core_cm0.h **** 
 172:../../lpc11cx4-library/lpc_chip_11cxx_lib/inc/core_cm0.h **** /** \ingroup    CMSIS_core_register
 173:../../lpc11cx4-library/lpc_chip_11cxx_lib/inc/core_cm0.h ****     \defgroup   CMSIS_CORE  Status and Control Registers
 174:../../lpc11cx4-library/lpc_chip_11cxx_lib/inc/core_cm0.h ****     \brief  Core Register type definitions.
 175:../../lpc11cx4-library/lpc_chip_11cxx_lib/inc/core_cm0.h ****   @{
 176:../../lpc11cx4-library/lpc_chip_11cxx_lib/inc/core_cm0.h ****  */
 177:../../lpc11cx4-library/lpc_chip_11cxx_lib/inc/core_cm0.h **** 
 178:../../lpc11cx4-library/lpc_chip_11cxx_lib/inc/core_cm0.h **** /** \brief  Union type to access the Application Program Status Register (APSR).
 179:../../lpc11cx4-library/lpc_chip_11cxx_lib/inc/core_cm0.h ****  */
 180:../../lpc11cx4-library/lpc_chip_11cxx_lib/inc/core_cm0.h **** typedef union
 181:../../lpc11cx4-library/lpc_chip_11cxx_lib/inc/core_cm0.h **** {
 182:../../lpc11cx4-library/lpc_chip_11cxx_lib/inc/core_cm0.h ****   struct
 183:../../lpc11cx4-library/lpc_chip_11cxx_lib/inc/core_cm0.h ****   {
 184:../../lpc11cx4-library/lpc_chip_11cxx_lib/inc/core_cm0.h **** #if (__CORTEX_M != 0x04)
 185:../../lpc11cx4-library/lpc_chip_11cxx_lib/inc/core_cm0.h ****     uint32_t _reserved0:27;              /*!< bit:  0..26  Reserved                           */
 186:../../lpc11cx4-library/lpc_chip_11cxx_lib/inc/core_cm0.h **** #else
 187:../../lpc11cx4-library/lpc_chip_11cxx_lib/inc/core_cm0.h ****     uint32_t _reserved0:16;              /*!< bit:  0..15  Reserved                           */
 188:../../lpc11cx4-library/lpc_chip_11cxx_lib/inc/core_cm0.h ****     uint32_t GE:4;                       /*!< bit: 16..19  Greater than or Equal flags        */
 189:../../lpc11cx4-library/lpc_chip_11cxx_lib/inc/core_cm0.h ****     uint32_t _reserved1:7;               /*!< bit: 20..26  Reserved                           */
 190:../../lpc11cx4-library/lpc_chip_11cxx_lib/inc/core_cm0.h **** #endif
 191:../../lpc11cx4-library/lpc_chip_11cxx_lib/inc/core_cm0.h ****     uint32_t Q:1;                        /*!< bit:     27  Saturation condition flag          */
 192:../../lpc11cx4-library/lpc_chip_11cxx_lib/inc/core_cm0.h ****     uint32_t V:1;                        /*!< bit:     28  Overflow condition code flag       */
 193:../../lpc11cx4-library/lpc_chip_11cxx_lib/inc/core_cm0.h ****     uint32_t C:1;                        /*!< bit:     29  Carry condition code flag          */
 194:../../lpc11cx4-library/lpc_chip_11cxx_lib/inc/core_cm0.h ****     uint32_t Z:1;                        /*!< bit:     30  Zero condition code flag           */
 195:../../lpc11cx4-library/lpc_chip_11cxx_lib/inc/core_cm0.h ****     uint32_t N:1;                        /*!< bit:     31  Negative condition code flag       */
 196:../../lpc11cx4-library/lpc_chip_11cxx_lib/inc/core_cm0.h ****   } b;                                   /*!< Structure used for bit  access                  */
 197:../../lpc11cx4-library/lpc_chip_11cxx_lib/inc/core_cm0.h ****   uint32_t w;                            /*!< Type      used for word access                  */
 198:../../lpc11cx4-library/lpc_chip_11cxx_lib/inc/core_cm0.h **** } APSR_Type;
 199:../../lpc11cx4-library/lpc_chip_11cxx_lib/inc/core_cm0.h **** 
 200:../../lpc11cx4-library/lpc_chip_11cxx_lib/inc/core_cm0.h **** 
 201:../../lpc11cx4-library/lpc_chip_11cxx_lib/inc/core_cm0.h **** /** \brief  Union type to access the Interrupt Program Status Register (IPSR).
 202:../../lpc11cx4-library/lpc_chip_11cxx_lib/inc/core_cm0.h ****  */
 203:../../lpc11cx4-library/lpc_chip_11cxx_lib/inc/core_cm0.h **** typedef union
 204:../../lpc11cx4-library/lpc_chip_11cxx_lib/inc/core_cm0.h **** {
 205:../../lpc11cx4-library/lpc_chip_11cxx_lib/inc/core_cm0.h ****   struct
 206:../../lpc11cx4-library/lpc_chip_11cxx_lib/inc/core_cm0.h ****   {
 207:../../lpc11cx4-library/lpc_chip_11cxx_lib/inc/core_cm0.h ****     uint32_t ISR:9;                      /*!< bit:  0.. 8  Exception number                   */
ARM GAS  /tmp/ccZ3PTEI.s 			page 8


 208:../../lpc11cx4-library/lpc_chip_11cxx_lib/inc/core_cm0.h ****     uint32_t _reserved0:23;              /*!< bit:  9..31  Reserved                           */
 209:../../lpc11cx4-library/lpc_chip_11cxx_lib/inc/core_cm0.h ****   } b;                                   /*!< Structure used for bit  access                  */
 210:../../lpc11cx4-library/lpc_chip_11cxx_lib/inc/core_cm0.h ****   uint32_t w;                            /*!< Type      used for word access                  */
 211:../../lpc11cx4-library/lpc_chip_11cxx_lib/inc/core_cm0.h **** } IPSR_Type;
 212:../../lpc11cx4-library/lpc_chip_11cxx_lib/inc/core_cm0.h **** 
 213:../../lpc11cx4-library/lpc_chip_11cxx_lib/inc/core_cm0.h **** 
 214:../../lpc11cx4-library/lpc_chip_11cxx_lib/inc/core_cm0.h **** /** \brief  Union type to access the Special-Purpose Program Status Registers (xPSR).
 215:../../lpc11cx4-library/lpc_chip_11cxx_lib/inc/core_cm0.h ****  */
 216:../../lpc11cx4-library/lpc_chip_11cxx_lib/inc/core_cm0.h **** typedef union
 217:../../lpc11cx4-library/lpc_chip_11cxx_lib/inc/core_cm0.h **** {
 218:../../lpc11cx4-library/lpc_chip_11cxx_lib/inc/core_cm0.h ****   struct
 219:../../lpc11cx4-library/lpc_chip_11cxx_lib/inc/core_cm0.h ****   {
 220:../../lpc11cx4-library/lpc_chip_11cxx_lib/inc/core_cm0.h ****     uint32_t ISR:9;                      /*!< bit:  0.. 8  Exception number                   */
 221:../../lpc11cx4-library/lpc_chip_11cxx_lib/inc/core_cm0.h **** #if (__CORTEX_M != 0x04)
 222:../../lpc11cx4-library/lpc_chip_11cxx_lib/inc/core_cm0.h ****     uint32_t _reserved0:15;              /*!< bit:  9..23  Reserved                           */
 223:../../lpc11cx4-library/lpc_chip_11cxx_lib/inc/core_cm0.h **** #else
 224:../../lpc11cx4-library/lpc_chip_11cxx_lib/inc/core_cm0.h ****     uint32_t _reserved0:7;               /*!< bit:  9..15  Reserved                           */
 225:../../lpc11cx4-library/lpc_chip_11cxx_lib/inc/core_cm0.h ****     uint32_t GE:4;                       /*!< bit: 16..19  Greater than or Equal flags        */
 226:../../lpc11cx4-library/lpc_chip_11cxx_lib/inc/core_cm0.h ****     uint32_t _reserved1:4;               /*!< bit: 20..23  Reserved                           */
 227:../../lpc11cx4-library/lpc_chip_11cxx_lib/inc/core_cm0.h **** #endif
 228:../../lpc11cx4-library/lpc_chip_11cxx_lib/inc/core_cm0.h ****     uint32_t T:1;                        /*!< bit:     24  Thumb bit        (read 0)          */
 229:../../lpc11cx4-library/lpc_chip_11cxx_lib/inc/core_cm0.h ****     uint32_t IT:2;                       /*!< bit: 25..26  saved IT state   (read 0)          */
 230:../../lpc11cx4-library/lpc_chip_11cxx_lib/inc/core_cm0.h ****     uint32_t Q:1;                        /*!< bit:     27  Saturation condition flag          */
 231:../../lpc11cx4-library/lpc_chip_11cxx_lib/inc/core_cm0.h ****     uint32_t V:1;                        /*!< bit:     28  Overflow condition code flag       */
 232:../../lpc11cx4-library/lpc_chip_11cxx_lib/inc/core_cm0.h ****     uint32_t C:1;                        /*!< bit:     29  Carry condition code flag          */
 233:../../lpc11cx4-library/lpc_chip_11cxx_lib/inc/core_cm0.h ****     uint32_t Z:1;                        /*!< bit:     30  Zero condition code flag           */
 234:../../lpc11cx4-library/lpc_chip_11cxx_lib/inc/core_cm0.h ****     uint32_t N:1;                        /*!< bit:     31  Negative condition code flag       */
 235:../../lpc11cx4-library/lpc_chip_11cxx_lib/inc/core_cm0.h ****   } b;                                   /*!< Structure used for bit  access                  */
 236:../../lpc11cx4-library/lpc_chip_11cxx_lib/inc/core_cm0.h ****   uint32_t w;                            /*!< Type      used for word access                  */
 237:../../lpc11cx4-library/lpc_chip_11cxx_lib/inc/core_cm0.h **** } xPSR_Type;
 238:../../lpc11cx4-library/lpc_chip_11cxx_lib/inc/core_cm0.h **** 
 239:../../lpc11cx4-library/lpc_chip_11cxx_lib/inc/core_cm0.h **** 
 240:../../lpc11cx4-library/lpc_chip_11cxx_lib/inc/core_cm0.h **** /** \brief  Union type to access the Control Registers (CONTROL).
 241:../../lpc11cx4-library/lpc_chip_11cxx_lib/inc/core_cm0.h ****  */
 242:../../lpc11cx4-library/lpc_chip_11cxx_lib/inc/core_cm0.h **** typedef union
 243:../../lpc11cx4-library/lpc_chip_11cxx_lib/inc/core_cm0.h **** {
 244:../../lpc11cx4-library/lpc_chip_11cxx_lib/inc/core_cm0.h ****   struct
 245:../../lpc11cx4-library/lpc_chip_11cxx_lib/inc/core_cm0.h ****   {
 246:../../lpc11cx4-library/lpc_chip_11cxx_lib/inc/core_cm0.h ****     uint32_t nPRIV:1;                    /*!< bit:      0  Execution privilege in Thread mode */
 247:../../lpc11cx4-library/lpc_chip_11cxx_lib/inc/core_cm0.h ****     uint32_t SPSEL:1;                    /*!< bit:      1  Stack to be used                   */
 248:../../lpc11cx4-library/lpc_chip_11cxx_lib/inc/core_cm0.h ****     uint32_t FPCA:1;                     /*!< bit:      2  FP extension active flag           */
 249:../../lpc11cx4-library/lpc_chip_11cxx_lib/inc/core_cm0.h ****     uint32_t _reserved0:29;              /*!< bit:  3..31  Reserved                           */
 250:../../lpc11cx4-library/lpc_chip_11cxx_lib/inc/core_cm0.h ****   } b;                                   /*!< Structure used for bit  access                  */
 251:../../lpc11cx4-library/lpc_chip_11cxx_lib/inc/core_cm0.h ****   uint32_t w;                            /*!< Type      used for word access                  */
 252:../../lpc11cx4-library/lpc_chip_11cxx_lib/inc/core_cm0.h **** } CONTROL_Type;
 253:../../lpc11cx4-library/lpc_chip_11cxx_lib/inc/core_cm0.h **** 
 254:../../lpc11cx4-library/lpc_chip_11cxx_lib/inc/core_cm0.h **** /*@} end of group CMSIS_CORE */
 255:../../lpc11cx4-library/lpc_chip_11cxx_lib/inc/core_cm0.h **** 
 256:../../lpc11cx4-library/lpc_chip_11cxx_lib/inc/core_cm0.h **** 
 257:../../lpc11cx4-library/lpc_chip_11cxx_lib/inc/core_cm0.h **** /** \ingroup    CMSIS_core_register
 258:../../lpc11cx4-library/lpc_chip_11cxx_lib/inc/core_cm0.h ****     \defgroup   CMSIS_NVIC  Nested Vectored Interrupt Controller (NVIC)
 259:../../lpc11cx4-library/lpc_chip_11cxx_lib/inc/core_cm0.h ****     \brief      Type definitions for the NVIC Registers
 260:../../lpc11cx4-library/lpc_chip_11cxx_lib/inc/core_cm0.h ****   @{
 261:../../lpc11cx4-library/lpc_chip_11cxx_lib/inc/core_cm0.h ****  */
 262:../../lpc11cx4-library/lpc_chip_11cxx_lib/inc/core_cm0.h **** 
 263:../../lpc11cx4-library/lpc_chip_11cxx_lib/inc/core_cm0.h **** /** \brief  Structure type to access the Nested Vectored Interrupt Controller (NVIC).
 264:../../lpc11cx4-library/lpc_chip_11cxx_lib/inc/core_cm0.h ****  */
ARM GAS  /tmp/ccZ3PTEI.s 			page 9


 265:../../lpc11cx4-library/lpc_chip_11cxx_lib/inc/core_cm0.h **** typedef struct
 266:../../lpc11cx4-library/lpc_chip_11cxx_lib/inc/core_cm0.h **** {
 267:../../lpc11cx4-library/lpc_chip_11cxx_lib/inc/core_cm0.h ****   __IO uint32_t ISER[1];                 /*!< Offset: 0x000 (R/W)  Interrupt Set Enable Register   
 268:../../lpc11cx4-library/lpc_chip_11cxx_lib/inc/core_cm0.h ****        uint32_t RESERVED0[31];
 269:../../lpc11cx4-library/lpc_chip_11cxx_lib/inc/core_cm0.h ****   __IO uint32_t ICER[1];                 /*!< Offset: 0x080 (R/W)  Interrupt Clear Enable Register 
 270:../../lpc11cx4-library/lpc_chip_11cxx_lib/inc/core_cm0.h ****        uint32_t RSERVED1[31];
 271:../../lpc11cx4-library/lpc_chip_11cxx_lib/inc/core_cm0.h ****   __IO uint32_t ISPR[1];                 /*!< Offset: 0x100 (R/W)  Interrupt Set Pending Register  
 272:../../lpc11cx4-library/lpc_chip_11cxx_lib/inc/core_cm0.h ****        uint32_t RESERVED2[31];
 273:../../lpc11cx4-library/lpc_chip_11cxx_lib/inc/core_cm0.h ****   __IO uint32_t ICPR[1];                 /*!< Offset: 0x180 (R/W)  Interrupt Clear Pending Register
 274:../../lpc11cx4-library/lpc_chip_11cxx_lib/inc/core_cm0.h ****        uint32_t RESERVED3[31];
 275:../../lpc11cx4-library/lpc_chip_11cxx_lib/inc/core_cm0.h ****        uint32_t RESERVED4[64];
 276:../../lpc11cx4-library/lpc_chip_11cxx_lib/inc/core_cm0.h ****   __IO uint32_t IP[8];                   /*!< Offset: 0x300 (R/W)  Interrupt Priority Register     
 277:../../lpc11cx4-library/lpc_chip_11cxx_lib/inc/core_cm0.h **** }  NVIC_Type;
 278:../../lpc11cx4-library/lpc_chip_11cxx_lib/inc/core_cm0.h **** 
 279:../../lpc11cx4-library/lpc_chip_11cxx_lib/inc/core_cm0.h **** /*@} end of group CMSIS_NVIC */
 280:../../lpc11cx4-library/lpc_chip_11cxx_lib/inc/core_cm0.h **** 
 281:../../lpc11cx4-library/lpc_chip_11cxx_lib/inc/core_cm0.h **** 
 282:../../lpc11cx4-library/lpc_chip_11cxx_lib/inc/core_cm0.h **** /** \ingroup  CMSIS_core_register
 283:../../lpc11cx4-library/lpc_chip_11cxx_lib/inc/core_cm0.h ****     \defgroup CMSIS_SCB     System Control Block (SCB)
 284:../../lpc11cx4-library/lpc_chip_11cxx_lib/inc/core_cm0.h ****     \brief      Type definitions for the System Control Block Registers
 285:../../lpc11cx4-library/lpc_chip_11cxx_lib/inc/core_cm0.h ****   @{
 286:../../lpc11cx4-library/lpc_chip_11cxx_lib/inc/core_cm0.h ****  */
 287:../../lpc11cx4-library/lpc_chip_11cxx_lib/inc/core_cm0.h **** 
 288:../../lpc11cx4-library/lpc_chip_11cxx_lib/inc/core_cm0.h **** /** \brief  Structure type to access the System Control Block (SCB).
 289:../../lpc11cx4-library/lpc_chip_11cxx_lib/inc/core_cm0.h ****  */
 290:../../lpc11cx4-library/lpc_chip_11cxx_lib/inc/core_cm0.h **** typedef struct
 291:../../lpc11cx4-library/lpc_chip_11cxx_lib/inc/core_cm0.h **** {
 292:../../lpc11cx4-library/lpc_chip_11cxx_lib/inc/core_cm0.h ****   __I  uint32_t CPUID;                   /*!< Offset: 0x000 (R/ )  CPUID Base Register             
 293:../../lpc11cx4-library/lpc_chip_11cxx_lib/inc/core_cm0.h ****   __IO uint32_t ICSR;                    /*!< Offset: 0x004 (R/W)  Interrupt Control and State Regi
 294:../../lpc11cx4-library/lpc_chip_11cxx_lib/inc/core_cm0.h ****        uint32_t RESERVED0;
 295:../../lpc11cx4-library/lpc_chip_11cxx_lib/inc/core_cm0.h ****   __IO uint32_t AIRCR;                   /*!< Offset: 0x00C (R/W)  Application Interrupt and Reset 
 296:../../lpc11cx4-library/lpc_chip_11cxx_lib/inc/core_cm0.h ****   __IO uint32_t SCR;                     /*!< Offset: 0x010 (R/W)  System Control Register         
 297:../../lpc11cx4-library/lpc_chip_11cxx_lib/inc/core_cm0.h ****   __IO uint32_t CCR;                     /*!< Offset: 0x014 (R/W)  Configuration Control Register  
 298:../../lpc11cx4-library/lpc_chip_11cxx_lib/inc/core_cm0.h ****        uint32_t RESERVED1;
 299:../../lpc11cx4-library/lpc_chip_11cxx_lib/inc/core_cm0.h ****   __IO uint32_t SHP[2];                  /*!< Offset: 0x01C (R/W)  System Handlers Priority Registe
 300:../../lpc11cx4-library/lpc_chip_11cxx_lib/inc/core_cm0.h ****   __IO uint32_t SHCSR;                   /*!< Offset: 0x024 (R/W)  System Handler Control and State
 301:../../lpc11cx4-library/lpc_chip_11cxx_lib/inc/core_cm0.h **** } SCB_Type;
 302:../../lpc11cx4-library/lpc_chip_11cxx_lib/inc/core_cm0.h **** 
 303:../../lpc11cx4-library/lpc_chip_11cxx_lib/inc/core_cm0.h **** /* SCB CPUID Register Definitions */
 304:../../lpc11cx4-library/lpc_chip_11cxx_lib/inc/core_cm0.h **** #define SCB_CPUID_IMPLEMENTER_Pos          24                                             /*!< SCB 
 305:../../lpc11cx4-library/lpc_chip_11cxx_lib/inc/core_cm0.h **** #define SCB_CPUID_IMPLEMENTER_Msk          (0xFFUL << SCB_CPUID_IMPLEMENTER_Pos)          /*!< SCB 
 306:../../lpc11cx4-library/lpc_chip_11cxx_lib/inc/core_cm0.h **** 
 307:../../lpc11cx4-library/lpc_chip_11cxx_lib/inc/core_cm0.h **** #define SCB_CPUID_VARIANT_Pos              20                                             /*!< SCB 
 308:../../lpc11cx4-library/lpc_chip_11cxx_lib/inc/core_cm0.h **** #define SCB_CPUID_VARIANT_Msk              (0xFUL << SCB_CPUID_VARIANT_Pos)               /*!< SCB 
 309:../../lpc11cx4-library/lpc_chip_11cxx_lib/inc/core_cm0.h **** 
 310:../../lpc11cx4-library/lpc_chip_11cxx_lib/inc/core_cm0.h **** #define SCB_CPUID_ARCHITECTURE_Pos         16                                             /*!< SCB 
 311:../../lpc11cx4-library/lpc_chip_11cxx_lib/inc/core_cm0.h **** #define SCB_CPUID_ARCHITECTURE_Msk         (0xFUL << SCB_CPUID_ARCHITECTURE_Pos)          /*!< SCB 
 312:../../lpc11cx4-library/lpc_chip_11cxx_lib/inc/core_cm0.h **** 
 313:../../lpc11cx4-library/lpc_chip_11cxx_lib/inc/core_cm0.h **** #define SCB_CPUID_PARTNO_Pos                4                                             /*!< SCB 
 314:../../lpc11cx4-library/lpc_chip_11cxx_lib/inc/core_cm0.h **** #define SCB_CPUID_PARTNO_Msk               (0xFFFUL << SCB_CPUID_PARTNO_Pos)              /*!< SCB 
 315:../../lpc11cx4-library/lpc_chip_11cxx_lib/inc/core_cm0.h **** 
 316:../../lpc11cx4-library/lpc_chip_11cxx_lib/inc/core_cm0.h **** #define SCB_CPUID_REVISION_Pos              0                                             /*!< SCB 
 317:../../lpc11cx4-library/lpc_chip_11cxx_lib/inc/core_cm0.h **** #define SCB_CPUID_REVISION_Msk             (0xFUL << SCB_CPUID_REVISION_Pos)              /*!< SCB 
 318:../../lpc11cx4-library/lpc_chip_11cxx_lib/inc/core_cm0.h **** 
 319:../../lpc11cx4-library/lpc_chip_11cxx_lib/inc/core_cm0.h **** /* SCB Interrupt Control State Register Definitions */
 320:../../lpc11cx4-library/lpc_chip_11cxx_lib/inc/core_cm0.h **** #define SCB_ICSR_NMIPENDSET_Pos            31                                             /*!< SCB 
 321:../../lpc11cx4-library/lpc_chip_11cxx_lib/inc/core_cm0.h **** #define SCB_ICSR_NMIPENDSET_Msk            (1UL << SCB_ICSR_NMIPENDSET_Pos)               /*!< SCB 
ARM GAS  /tmp/ccZ3PTEI.s 			page 10


 322:../../lpc11cx4-library/lpc_chip_11cxx_lib/inc/core_cm0.h **** 
 323:../../lpc11cx4-library/lpc_chip_11cxx_lib/inc/core_cm0.h **** #define SCB_ICSR_PENDSVSET_Pos             28                                             /*!< SCB 
 324:../../lpc11cx4-library/lpc_chip_11cxx_lib/inc/core_cm0.h **** #define SCB_ICSR_PENDSVSET_Msk             (1UL << SCB_ICSR_PENDSVSET_Pos)                /*!< SCB 
 325:../../lpc11cx4-library/lpc_chip_11cxx_lib/inc/core_cm0.h **** 
 326:../../lpc11cx4-library/lpc_chip_11cxx_lib/inc/core_cm0.h **** #define SCB_ICSR_PENDSVCLR_Pos             27                                             /*!< SCB 
 327:../../lpc11cx4-library/lpc_chip_11cxx_lib/inc/core_cm0.h **** #define SCB_ICSR_PENDSVCLR_Msk             (1UL << SCB_ICSR_PENDSVCLR_Pos)                /*!< SCB 
 328:../../lpc11cx4-library/lpc_chip_11cxx_lib/inc/core_cm0.h **** 
 329:../../lpc11cx4-library/lpc_chip_11cxx_lib/inc/core_cm0.h **** #define SCB_ICSR_PENDSTSET_Pos             26                                             /*!< SCB 
 330:../../lpc11cx4-library/lpc_chip_11cxx_lib/inc/core_cm0.h **** #define SCB_ICSR_PENDSTSET_Msk             (1UL << SCB_ICSR_PENDSTSET_Pos)                /*!< SCB 
 331:../../lpc11cx4-library/lpc_chip_11cxx_lib/inc/core_cm0.h **** 
 332:../../lpc11cx4-library/lpc_chip_11cxx_lib/inc/core_cm0.h **** #define SCB_ICSR_PENDSTCLR_Pos             25                                             /*!< SCB 
 333:../../lpc11cx4-library/lpc_chip_11cxx_lib/inc/core_cm0.h **** #define SCB_ICSR_PENDSTCLR_Msk             (1UL << SCB_ICSR_PENDSTCLR_Pos)                /*!< SCB 
 334:../../lpc11cx4-library/lpc_chip_11cxx_lib/inc/core_cm0.h **** 
 335:../../lpc11cx4-library/lpc_chip_11cxx_lib/inc/core_cm0.h **** #define SCB_ICSR_ISRPREEMPT_Pos            23                                             /*!< SCB 
 336:../../lpc11cx4-library/lpc_chip_11cxx_lib/inc/core_cm0.h **** #define SCB_ICSR_ISRPREEMPT_Msk            (1UL << SCB_ICSR_ISRPREEMPT_Pos)               /*!< SCB 
 337:../../lpc11cx4-library/lpc_chip_11cxx_lib/inc/core_cm0.h **** 
 338:../../lpc11cx4-library/lpc_chip_11cxx_lib/inc/core_cm0.h **** #define SCB_ICSR_ISRPENDING_Pos            22                                             /*!< SCB 
 339:../../lpc11cx4-library/lpc_chip_11cxx_lib/inc/core_cm0.h **** #define SCB_ICSR_ISRPENDING_Msk            (1UL << SCB_ICSR_ISRPENDING_Pos)               /*!< SCB 
 340:../../lpc11cx4-library/lpc_chip_11cxx_lib/inc/core_cm0.h **** 
 341:../../lpc11cx4-library/lpc_chip_11cxx_lib/inc/core_cm0.h **** #define SCB_ICSR_VECTPENDING_Pos           12                                             /*!< SCB 
 342:../../lpc11cx4-library/lpc_chip_11cxx_lib/inc/core_cm0.h **** #define SCB_ICSR_VECTPENDING_Msk           (0x1FFUL << SCB_ICSR_VECTPENDING_Pos)          /*!< SCB 
 343:../../lpc11cx4-library/lpc_chip_11cxx_lib/inc/core_cm0.h **** 
 344:../../lpc11cx4-library/lpc_chip_11cxx_lib/inc/core_cm0.h **** #define SCB_ICSR_VECTACTIVE_Pos             0                                             /*!< SCB 
 345:../../lpc11cx4-library/lpc_chip_11cxx_lib/inc/core_cm0.h **** #define SCB_ICSR_VECTACTIVE_Msk            (0x1FFUL << SCB_ICSR_VECTACTIVE_Pos)           /*!< SCB 
 346:../../lpc11cx4-library/lpc_chip_11cxx_lib/inc/core_cm0.h **** 
 347:../../lpc11cx4-library/lpc_chip_11cxx_lib/inc/core_cm0.h **** /* SCB Application Interrupt and Reset Control Register Definitions */
 348:../../lpc11cx4-library/lpc_chip_11cxx_lib/inc/core_cm0.h **** #define SCB_AIRCR_VECTKEY_Pos              16                                             /*!< SCB 
 349:../../lpc11cx4-library/lpc_chip_11cxx_lib/inc/core_cm0.h **** #define SCB_AIRCR_VECTKEY_Msk              (0xFFFFUL << SCB_AIRCR_VECTKEY_Pos)            /*!< SCB 
 350:../../lpc11cx4-library/lpc_chip_11cxx_lib/inc/core_cm0.h **** 
 351:../../lpc11cx4-library/lpc_chip_11cxx_lib/inc/core_cm0.h **** #define SCB_AIRCR_VECTKEYSTAT_Pos          16                                             /*!< SCB 
 352:../../lpc11cx4-library/lpc_chip_11cxx_lib/inc/core_cm0.h **** #define SCB_AIRCR_VECTKEYSTAT_Msk          (0xFFFFUL << SCB_AIRCR_VECTKEYSTAT_Pos)        /*!< SCB 
 353:../../lpc11cx4-library/lpc_chip_11cxx_lib/inc/core_cm0.h **** 
 354:../../lpc11cx4-library/lpc_chip_11cxx_lib/inc/core_cm0.h **** #define SCB_AIRCR_ENDIANESS_Pos            15                                             /*!< SCB 
 355:../../lpc11cx4-library/lpc_chip_11cxx_lib/inc/core_cm0.h **** #define SCB_AIRCR_ENDIANESS_Msk            (1UL << SCB_AIRCR_ENDIANESS_Pos)               /*!< SCB 
 356:../../lpc11cx4-library/lpc_chip_11cxx_lib/inc/core_cm0.h **** 
 357:../../lpc11cx4-library/lpc_chip_11cxx_lib/inc/core_cm0.h **** #define SCB_AIRCR_SYSRESETREQ_Pos           2                                             /*!< SCB 
 358:../../lpc11cx4-library/lpc_chip_11cxx_lib/inc/core_cm0.h **** #define SCB_AIRCR_SYSRESETREQ_Msk          (1UL << SCB_AIRCR_SYSRESETREQ_Pos)             /*!< SCB 
 359:../../lpc11cx4-library/lpc_chip_11cxx_lib/inc/core_cm0.h **** 
 360:../../lpc11cx4-library/lpc_chip_11cxx_lib/inc/core_cm0.h **** #define SCB_AIRCR_VECTCLRACTIVE_Pos         1                                             /*!< SCB 
 361:../../lpc11cx4-library/lpc_chip_11cxx_lib/inc/core_cm0.h **** #define SCB_AIRCR_VECTCLRACTIVE_Msk        (1UL << SCB_AIRCR_VECTCLRACTIVE_Pos)           /*!< SCB 
 362:../../lpc11cx4-library/lpc_chip_11cxx_lib/inc/core_cm0.h **** 
 363:../../lpc11cx4-library/lpc_chip_11cxx_lib/inc/core_cm0.h **** /* SCB System Control Register Definitions */
 364:../../lpc11cx4-library/lpc_chip_11cxx_lib/inc/core_cm0.h **** #define SCB_SCR_SEVONPEND_Pos               4                                             /*!< SCB 
 365:../../lpc11cx4-library/lpc_chip_11cxx_lib/inc/core_cm0.h **** #define SCB_SCR_SEVONPEND_Msk              (1UL << SCB_SCR_SEVONPEND_Pos)                 /*!< SCB 
 366:../../lpc11cx4-library/lpc_chip_11cxx_lib/inc/core_cm0.h **** 
 367:../../lpc11cx4-library/lpc_chip_11cxx_lib/inc/core_cm0.h **** #define SCB_SCR_SLEEPDEEP_Pos               2                                             /*!< SCB 
 368:../../lpc11cx4-library/lpc_chip_11cxx_lib/inc/core_cm0.h **** #define SCB_SCR_SLEEPDEEP_Msk              (1UL << SCB_SCR_SLEEPDEEP_Pos)                 /*!< SCB 
 369:../../lpc11cx4-library/lpc_chip_11cxx_lib/inc/core_cm0.h **** 
 370:../../lpc11cx4-library/lpc_chip_11cxx_lib/inc/core_cm0.h **** #define SCB_SCR_SLEEPONEXIT_Pos             1                                             /*!< SCB 
 371:../../lpc11cx4-library/lpc_chip_11cxx_lib/inc/core_cm0.h **** #define SCB_SCR_SLEEPONEXIT_Msk            (1UL << SCB_SCR_SLEEPONEXIT_Pos)               /*!< SCB 
 372:../../lpc11cx4-library/lpc_chip_11cxx_lib/inc/core_cm0.h **** 
 373:../../lpc11cx4-library/lpc_chip_11cxx_lib/inc/core_cm0.h **** /* SCB Configuration Control Register Definitions */
 374:../../lpc11cx4-library/lpc_chip_11cxx_lib/inc/core_cm0.h **** #define SCB_CCR_STKALIGN_Pos                9                                             /*!< SCB 
 375:../../lpc11cx4-library/lpc_chip_11cxx_lib/inc/core_cm0.h **** #define SCB_CCR_STKALIGN_Msk               (1UL << SCB_CCR_STKALIGN_Pos)                  /*!< SCB 
 376:../../lpc11cx4-library/lpc_chip_11cxx_lib/inc/core_cm0.h **** 
 377:../../lpc11cx4-library/lpc_chip_11cxx_lib/inc/core_cm0.h **** #define SCB_CCR_UNALIGN_TRP_Pos             3                                             /*!< SCB 
 378:../../lpc11cx4-library/lpc_chip_11cxx_lib/inc/core_cm0.h **** #define SCB_CCR_UNALIGN_TRP_Msk            (1UL << SCB_CCR_UNALIGN_TRP_Pos)               /*!< SCB 
ARM GAS  /tmp/ccZ3PTEI.s 			page 11


 379:../../lpc11cx4-library/lpc_chip_11cxx_lib/inc/core_cm0.h **** 
 380:../../lpc11cx4-library/lpc_chip_11cxx_lib/inc/core_cm0.h **** /* SCB System Handler Control and State Register Definitions */
 381:../../lpc11cx4-library/lpc_chip_11cxx_lib/inc/core_cm0.h **** #define SCB_SHCSR_SVCALLPENDED_Pos         15                                             /*!< SCB 
 382:../../lpc11cx4-library/lpc_chip_11cxx_lib/inc/core_cm0.h **** #define SCB_SHCSR_SVCALLPENDED_Msk         (1UL << SCB_SHCSR_SVCALLPENDED_Pos)            /*!< SCB 
 383:../../lpc11cx4-library/lpc_chip_11cxx_lib/inc/core_cm0.h **** 
 384:../../lpc11cx4-library/lpc_chip_11cxx_lib/inc/core_cm0.h **** /*@} end of group CMSIS_SCB */
 385:../../lpc11cx4-library/lpc_chip_11cxx_lib/inc/core_cm0.h **** 
 386:../../lpc11cx4-library/lpc_chip_11cxx_lib/inc/core_cm0.h **** 
 387:../../lpc11cx4-library/lpc_chip_11cxx_lib/inc/core_cm0.h **** /** \ingroup  CMSIS_core_register
 388:../../lpc11cx4-library/lpc_chip_11cxx_lib/inc/core_cm0.h ****     \defgroup CMSIS_SysTick     System Tick Timer (SysTick)
 389:../../lpc11cx4-library/lpc_chip_11cxx_lib/inc/core_cm0.h ****     \brief      Type definitions for the System Timer Registers.
 390:../../lpc11cx4-library/lpc_chip_11cxx_lib/inc/core_cm0.h ****   @{
 391:../../lpc11cx4-library/lpc_chip_11cxx_lib/inc/core_cm0.h ****  */
 392:../../lpc11cx4-library/lpc_chip_11cxx_lib/inc/core_cm0.h **** 
 393:../../lpc11cx4-library/lpc_chip_11cxx_lib/inc/core_cm0.h **** /** \brief  Structure type to access the System Timer (SysTick).
 394:../../lpc11cx4-library/lpc_chip_11cxx_lib/inc/core_cm0.h ****  */
 395:../../lpc11cx4-library/lpc_chip_11cxx_lib/inc/core_cm0.h **** typedef struct
 396:../../lpc11cx4-library/lpc_chip_11cxx_lib/inc/core_cm0.h **** {
 397:../../lpc11cx4-library/lpc_chip_11cxx_lib/inc/core_cm0.h ****   __IO uint32_t CTRL;                    /*!< Offset: 0x000 (R/W)  SysTick Control and Status Regis
 398:../../lpc11cx4-library/lpc_chip_11cxx_lib/inc/core_cm0.h ****   __IO uint32_t LOAD;                    /*!< Offset: 0x004 (R/W)  SysTick Reload Value Register   
 399:../../lpc11cx4-library/lpc_chip_11cxx_lib/inc/core_cm0.h ****   __IO uint32_t VAL;                     /*!< Offset: 0x008 (R/W)  SysTick Current Value Register  
 400:../../lpc11cx4-library/lpc_chip_11cxx_lib/inc/core_cm0.h ****   __I  uint32_t CALIB;                   /*!< Offset: 0x00C (R/ )  SysTick Calibration Register    
 401:../../lpc11cx4-library/lpc_chip_11cxx_lib/inc/core_cm0.h **** } SysTick_Type;
 402:../../lpc11cx4-library/lpc_chip_11cxx_lib/inc/core_cm0.h **** 
 403:../../lpc11cx4-library/lpc_chip_11cxx_lib/inc/core_cm0.h **** /* SysTick Control / Status Register Definitions */
 404:../../lpc11cx4-library/lpc_chip_11cxx_lib/inc/core_cm0.h **** #define SysTick_CTRL_COUNTFLAG_Pos         16                                             /*!< SysT
 405:../../lpc11cx4-library/lpc_chip_11cxx_lib/inc/core_cm0.h **** #define SysTick_CTRL_COUNTFLAG_Msk         (1UL << SysTick_CTRL_COUNTFLAG_Pos)            /*!< SysT
 406:../../lpc11cx4-library/lpc_chip_11cxx_lib/inc/core_cm0.h **** 
 407:../../lpc11cx4-library/lpc_chip_11cxx_lib/inc/core_cm0.h **** #define SysTick_CTRL_CLKSOURCE_Pos          2                                             /*!< SysT
 408:../../lpc11cx4-library/lpc_chip_11cxx_lib/inc/core_cm0.h **** #define SysTick_CTRL_CLKSOURCE_Msk         (1UL << SysTick_CTRL_CLKSOURCE_Pos)            /*!< SysT
 409:../../lpc11cx4-library/lpc_chip_11cxx_lib/inc/core_cm0.h **** 
 410:../../lpc11cx4-library/lpc_chip_11cxx_lib/inc/core_cm0.h **** #define SysTick_CTRL_TICKINT_Pos            1                                             /*!< SysT
 411:../../lpc11cx4-library/lpc_chip_11cxx_lib/inc/core_cm0.h **** #define SysTick_CTRL_TICKINT_Msk           (1UL << SysTick_CTRL_TICKINT_Pos)              /*!< SysT
 412:../../lpc11cx4-library/lpc_chip_11cxx_lib/inc/core_cm0.h **** 
 413:../../lpc11cx4-library/lpc_chip_11cxx_lib/inc/core_cm0.h **** #define SysTick_CTRL_ENABLE_Pos             0                                             /*!< SysT
 414:../../lpc11cx4-library/lpc_chip_11cxx_lib/inc/core_cm0.h **** #define SysTick_CTRL_ENABLE_Msk            (1UL << SysTick_CTRL_ENABLE_Pos)               /*!< SysT
 415:../../lpc11cx4-library/lpc_chip_11cxx_lib/inc/core_cm0.h **** 
 416:../../lpc11cx4-library/lpc_chip_11cxx_lib/inc/core_cm0.h **** /* SysTick Reload Register Definitions */
 417:../../lpc11cx4-library/lpc_chip_11cxx_lib/inc/core_cm0.h **** #define SysTick_LOAD_RELOAD_Pos             0                                             /*!< SysT
 418:../../lpc11cx4-library/lpc_chip_11cxx_lib/inc/core_cm0.h **** #define SysTick_LOAD_RELOAD_Msk            (0xFFFFFFUL << SysTick_LOAD_RELOAD_Pos)        /*!< SysT
 419:../../lpc11cx4-library/lpc_chip_11cxx_lib/inc/core_cm0.h **** 
 420:../../lpc11cx4-library/lpc_chip_11cxx_lib/inc/core_cm0.h **** /* SysTick Current Register Definitions */
 421:../../lpc11cx4-library/lpc_chip_11cxx_lib/inc/core_cm0.h **** #define SysTick_VAL_CURRENT_Pos             0                                             /*!< SysT
 422:../../lpc11cx4-library/lpc_chip_11cxx_lib/inc/core_cm0.h **** #define SysTick_VAL_CURRENT_Msk            (0xFFFFFFUL << SysTick_VAL_CURRENT_Pos)        /*!< SysT
 423:../../lpc11cx4-library/lpc_chip_11cxx_lib/inc/core_cm0.h **** 
 424:../../lpc11cx4-library/lpc_chip_11cxx_lib/inc/core_cm0.h **** /* SysTick Calibration Register Definitions */
 425:../../lpc11cx4-library/lpc_chip_11cxx_lib/inc/core_cm0.h **** #define SysTick_CALIB_NOREF_Pos            31                                             /*!< SysT
 426:../../lpc11cx4-library/lpc_chip_11cxx_lib/inc/core_cm0.h **** #define SysTick_CALIB_NOREF_Msk            (1UL << SysTick_CALIB_NOREF_Pos)               /*!< SysT
 427:../../lpc11cx4-library/lpc_chip_11cxx_lib/inc/core_cm0.h **** 
 428:../../lpc11cx4-library/lpc_chip_11cxx_lib/inc/core_cm0.h **** #define SysTick_CALIB_SKEW_Pos             30                                             /*!< SysT
 429:../../lpc11cx4-library/lpc_chip_11cxx_lib/inc/core_cm0.h **** #define SysTick_CALIB_SKEW_Msk             (1UL << SysTick_CALIB_SKEW_Pos)                /*!< SysT
 430:../../lpc11cx4-library/lpc_chip_11cxx_lib/inc/core_cm0.h **** 
 431:../../lpc11cx4-library/lpc_chip_11cxx_lib/inc/core_cm0.h **** #define SysTick_CALIB_TENMS_Pos             0                                             /*!< SysT
 432:../../lpc11cx4-library/lpc_chip_11cxx_lib/inc/core_cm0.h **** #define SysTick_CALIB_TENMS_Msk            (0xFFFFFFUL << SysTick_VAL_CURRENT_Pos)        /*!< SysT
 433:../../lpc11cx4-library/lpc_chip_11cxx_lib/inc/core_cm0.h **** 
 434:../../lpc11cx4-library/lpc_chip_11cxx_lib/inc/core_cm0.h **** /*@} end of group CMSIS_SysTick */
 435:../../lpc11cx4-library/lpc_chip_11cxx_lib/inc/core_cm0.h **** 
ARM GAS  /tmp/ccZ3PTEI.s 			page 12


 436:../../lpc11cx4-library/lpc_chip_11cxx_lib/inc/core_cm0.h **** 
 437:../../lpc11cx4-library/lpc_chip_11cxx_lib/inc/core_cm0.h **** /** \ingroup  CMSIS_core_register
 438:../../lpc11cx4-library/lpc_chip_11cxx_lib/inc/core_cm0.h ****     \defgroup CMSIS_CoreDebug       Core Debug Registers (CoreDebug)
 439:../../lpc11cx4-library/lpc_chip_11cxx_lib/inc/core_cm0.h ****     \brief      Cortex-M0 Core Debug Registers (DCB registers, SHCSR, and DFSR)
 440:../../lpc11cx4-library/lpc_chip_11cxx_lib/inc/core_cm0.h ****                 are only accessible over DAP and not via processor. Therefore
 441:../../lpc11cx4-library/lpc_chip_11cxx_lib/inc/core_cm0.h ****                 they are not covered by the Cortex-M0 header file.
 442:../../lpc11cx4-library/lpc_chip_11cxx_lib/inc/core_cm0.h ****   @{
 443:../../lpc11cx4-library/lpc_chip_11cxx_lib/inc/core_cm0.h ****  */
 444:../../lpc11cx4-library/lpc_chip_11cxx_lib/inc/core_cm0.h **** /*@} end of group CMSIS_CoreDebug */
 445:../../lpc11cx4-library/lpc_chip_11cxx_lib/inc/core_cm0.h **** 
 446:../../lpc11cx4-library/lpc_chip_11cxx_lib/inc/core_cm0.h **** 
 447:../../lpc11cx4-library/lpc_chip_11cxx_lib/inc/core_cm0.h **** /** \ingroup    CMSIS_core_register
 448:../../lpc11cx4-library/lpc_chip_11cxx_lib/inc/core_cm0.h ****     \defgroup   CMSIS_core_base     Core Definitions
 449:../../lpc11cx4-library/lpc_chip_11cxx_lib/inc/core_cm0.h ****     \brief      Definitions for base addresses, unions, and structures.
 450:../../lpc11cx4-library/lpc_chip_11cxx_lib/inc/core_cm0.h ****   @{
 451:../../lpc11cx4-library/lpc_chip_11cxx_lib/inc/core_cm0.h ****  */
 452:../../lpc11cx4-library/lpc_chip_11cxx_lib/inc/core_cm0.h **** 
 453:../../lpc11cx4-library/lpc_chip_11cxx_lib/inc/core_cm0.h **** /* Memory mapping of Cortex-M0 Hardware */
 454:../../lpc11cx4-library/lpc_chip_11cxx_lib/inc/core_cm0.h **** #define SCS_BASE            (0xE000E000UL)                            /*!< System Control Space Bas
 455:../../lpc11cx4-library/lpc_chip_11cxx_lib/inc/core_cm0.h **** #define SysTick_BASE        (SCS_BASE +  0x0010UL)                    /*!< SysTick Base Address    
 456:../../lpc11cx4-library/lpc_chip_11cxx_lib/inc/core_cm0.h **** #define NVIC_BASE           (SCS_BASE +  0x0100UL)                    /*!< NVIC Base Address       
 457:../../lpc11cx4-library/lpc_chip_11cxx_lib/inc/core_cm0.h **** #define SCB_BASE            (SCS_BASE +  0x0D00UL)                    /*!< System Control Block Bas
 458:../../lpc11cx4-library/lpc_chip_11cxx_lib/inc/core_cm0.h **** 
 459:../../lpc11cx4-library/lpc_chip_11cxx_lib/inc/core_cm0.h **** #define SCB                 ((SCB_Type       *)     SCB_BASE      )   /*!< SCB configuration struct
 460:../../lpc11cx4-library/lpc_chip_11cxx_lib/inc/core_cm0.h **** #define SysTick             ((SysTick_Type   *)     SysTick_BASE  )   /*!< SysTick configuration st
 461:../../lpc11cx4-library/lpc_chip_11cxx_lib/inc/core_cm0.h **** #define NVIC                ((NVIC_Type      *)     NVIC_BASE     )   /*!< NVIC configuration struc
 462:../../lpc11cx4-library/lpc_chip_11cxx_lib/inc/core_cm0.h **** 
 463:../../lpc11cx4-library/lpc_chip_11cxx_lib/inc/core_cm0.h **** 
 464:../../lpc11cx4-library/lpc_chip_11cxx_lib/inc/core_cm0.h **** /*@} */
 465:../../lpc11cx4-library/lpc_chip_11cxx_lib/inc/core_cm0.h **** 
 466:../../lpc11cx4-library/lpc_chip_11cxx_lib/inc/core_cm0.h **** 
 467:../../lpc11cx4-library/lpc_chip_11cxx_lib/inc/core_cm0.h **** 
 468:../../lpc11cx4-library/lpc_chip_11cxx_lib/inc/core_cm0.h **** /*******************************************************************************
 469:../../lpc11cx4-library/lpc_chip_11cxx_lib/inc/core_cm0.h ****  *                Hardware Abstraction Layer
 470:../../lpc11cx4-library/lpc_chip_11cxx_lib/inc/core_cm0.h ****   Core Function Interface contains:
 471:../../lpc11cx4-library/lpc_chip_11cxx_lib/inc/core_cm0.h ****   - Core NVIC Functions
 472:../../lpc11cx4-library/lpc_chip_11cxx_lib/inc/core_cm0.h ****   - Core SysTick Functions
 473:../../lpc11cx4-library/lpc_chip_11cxx_lib/inc/core_cm0.h ****   - Core Register Access Functions
 474:../../lpc11cx4-library/lpc_chip_11cxx_lib/inc/core_cm0.h ****  ******************************************************************************/
 475:../../lpc11cx4-library/lpc_chip_11cxx_lib/inc/core_cm0.h **** /** \defgroup CMSIS_Core_FunctionInterface Functions and Instructions Reference
 476:../../lpc11cx4-library/lpc_chip_11cxx_lib/inc/core_cm0.h **** */
 477:../../lpc11cx4-library/lpc_chip_11cxx_lib/inc/core_cm0.h **** 
 478:../../lpc11cx4-library/lpc_chip_11cxx_lib/inc/core_cm0.h **** 
 479:../../lpc11cx4-library/lpc_chip_11cxx_lib/inc/core_cm0.h **** 
 480:../../lpc11cx4-library/lpc_chip_11cxx_lib/inc/core_cm0.h **** /* ##########################   NVIC functions  #################################### */
 481:../../lpc11cx4-library/lpc_chip_11cxx_lib/inc/core_cm0.h **** /** \ingroup  CMSIS_Core_FunctionInterface
 482:../../lpc11cx4-library/lpc_chip_11cxx_lib/inc/core_cm0.h ****     \defgroup CMSIS_Core_NVICFunctions NVIC Functions
 483:../../lpc11cx4-library/lpc_chip_11cxx_lib/inc/core_cm0.h ****     \brief      Functions that manage interrupts and exceptions via the NVIC.
 484:../../lpc11cx4-library/lpc_chip_11cxx_lib/inc/core_cm0.h ****     @{
 485:../../lpc11cx4-library/lpc_chip_11cxx_lib/inc/core_cm0.h ****  */
 486:../../lpc11cx4-library/lpc_chip_11cxx_lib/inc/core_cm0.h **** 
 487:../../lpc11cx4-library/lpc_chip_11cxx_lib/inc/core_cm0.h **** /* Interrupt Priorities are WORD accessible only under ARMv6M                   */
 488:../../lpc11cx4-library/lpc_chip_11cxx_lib/inc/core_cm0.h **** /* The following MACROS handle generation of the register offset and byte masks */
 489:../../lpc11cx4-library/lpc_chip_11cxx_lib/inc/core_cm0.h **** #define _BIT_SHIFT(IRQn)         (  (((uint32_t)(IRQn)       )    &  0x03) * 8 )
 490:../../lpc11cx4-library/lpc_chip_11cxx_lib/inc/core_cm0.h **** #define _SHP_IDX(IRQn)           ( ((((uint32_t)(IRQn) & 0x0F)-8) >>    2)     )
 491:../../lpc11cx4-library/lpc_chip_11cxx_lib/inc/core_cm0.h **** #define _IP_IDX(IRQn)            (   ((uint32_t)(IRQn)            >>    2)     )
 492:../../lpc11cx4-library/lpc_chip_11cxx_lib/inc/core_cm0.h **** 
ARM GAS  /tmp/ccZ3PTEI.s 			page 13


 493:../../lpc11cx4-library/lpc_chip_11cxx_lib/inc/core_cm0.h **** 
 494:../../lpc11cx4-library/lpc_chip_11cxx_lib/inc/core_cm0.h **** /** \brief  Enable External Interrupt
 495:../../lpc11cx4-library/lpc_chip_11cxx_lib/inc/core_cm0.h **** 
 496:../../lpc11cx4-library/lpc_chip_11cxx_lib/inc/core_cm0.h ****     The function enables a device-specific interrupt in the NVIC interrupt controller.
 497:../../lpc11cx4-library/lpc_chip_11cxx_lib/inc/core_cm0.h **** 
 498:../../lpc11cx4-library/lpc_chip_11cxx_lib/inc/core_cm0.h ****     \param [in]      IRQn  External interrupt number. Value cannot be negative.
 499:../../lpc11cx4-library/lpc_chip_11cxx_lib/inc/core_cm0.h ****  */
 500:../../lpc11cx4-library/lpc_chip_11cxx_lib/inc/core_cm0.h **** __STATIC_INLINE void NVIC_EnableIRQ(IRQn_Type IRQn)
 501:../../lpc11cx4-library/lpc_chip_11cxx_lib/inc/core_cm0.h **** {
 502:../../lpc11cx4-library/lpc_chip_11cxx_lib/inc/core_cm0.h ****   NVIC->ISER[0] = (1 << ((uint32_t)(IRQn) & 0x1F));
 503:../../lpc11cx4-library/lpc_chip_11cxx_lib/inc/core_cm0.h **** }
 504:../../lpc11cx4-library/lpc_chip_11cxx_lib/inc/core_cm0.h **** 
 505:../../lpc11cx4-library/lpc_chip_11cxx_lib/inc/core_cm0.h **** 
 506:../../lpc11cx4-library/lpc_chip_11cxx_lib/inc/core_cm0.h **** /** \brief  Disable External Interrupt
 507:../../lpc11cx4-library/lpc_chip_11cxx_lib/inc/core_cm0.h **** 
 508:../../lpc11cx4-library/lpc_chip_11cxx_lib/inc/core_cm0.h ****     The function disables a device-specific interrupt in the NVIC interrupt controller.
 509:../../lpc11cx4-library/lpc_chip_11cxx_lib/inc/core_cm0.h **** 
 510:../../lpc11cx4-library/lpc_chip_11cxx_lib/inc/core_cm0.h ****     \param [in]      IRQn  External interrupt number. Value cannot be negative.
 511:../../lpc11cx4-library/lpc_chip_11cxx_lib/inc/core_cm0.h ****  */
 512:../../lpc11cx4-library/lpc_chip_11cxx_lib/inc/core_cm0.h **** __STATIC_INLINE void NVIC_DisableIRQ(IRQn_Type IRQn)
 513:../../lpc11cx4-library/lpc_chip_11cxx_lib/inc/core_cm0.h **** {
 514:../../lpc11cx4-library/lpc_chip_11cxx_lib/inc/core_cm0.h ****   NVIC->ICER[0] = (1 << ((uint32_t)(IRQn) & 0x1F));
 515:../../lpc11cx4-library/lpc_chip_11cxx_lib/inc/core_cm0.h **** }
 516:../../lpc11cx4-library/lpc_chip_11cxx_lib/inc/core_cm0.h **** 
 517:../../lpc11cx4-library/lpc_chip_11cxx_lib/inc/core_cm0.h **** 
 518:../../lpc11cx4-library/lpc_chip_11cxx_lib/inc/core_cm0.h **** /** \brief  Get Pending Interrupt
 519:../../lpc11cx4-library/lpc_chip_11cxx_lib/inc/core_cm0.h **** 
 520:../../lpc11cx4-library/lpc_chip_11cxx_lib/inc/core_cm0.h ****     The function reads the pending register in the NVIC and returns the pending bit
 521:../../lpc11cx4-library/lpc_chip_11cxx_lib/inc/core_cm0.h ****     for the specified interrupt.
 522:../../lpc11cx4-library/lpc_chip_11cxx_lib/inc/core_cm0.h **** 
 523:../../lpc11cx4-library/lpc_chip_11cxx_lib/inc/core_cm0.h ****     \param [in]      IRQn  Interrupt number.
 524:../../lpc11cx4-library/lpc_chip_11cxx_lib/inc/core_cm0.h **** 
 525:../../lpc11cx4-library/lpc_chip_11cxx_lib/inc/core_cm0.h ****     \return             0  Interrupt status is not pending.
 526:../../lpc11cx4-library/lpc_chip_11cxx_lib/inc/core_cm0.h ****     \return             1  Interrupt status is pending.
 527:../../lpc11cx4-library/lpc_chip_11cxx_lib/inc/core_cm0.h ****  */
 528:../../lpc11cx4-library/lpc_chip_11cxx_lib/inc/core_cm0.h **** __STATIC_INLINE uint32_t NVIC_GetPendingIRQ(IRQn_Type IRQn)
 529:../../lpc11cx4-library/lpc_chip_11cxx_lib/inc/core_cm0.h **** {
 530:../../lpc11cx4-library/lpc_chip_11cxx_lib/inc/core_cm0.h ****   return((uint32_t) ((NVIC->ISPR[0] & (1 << ((uint32_t)(IRQn) & 0x1F)))?1:0));
 531:../../lpc11cx4-library/lpc_chip_11cxx_lib/inc/core_cm0.h **** }
 532:../../lpc11cx4-library/lpc_chip_11cxx_lib/inc/core_cm0.h **** 
 533:../../lpc11cx4-library/lpc_chip_11cxx_lib/inc/core_cm0.h **** 
 534:../../lpc11cx4-library/lpc_chip_11cxx_lib/inc/core_cm0.h **** /** \brief  Set Pending Interrupt
 535:../../lpc11cx4-library/lpc_chip_11cxx_lib/inc/core_cm0.h **** 
 536:../../lpc11cx4-library/lpc_chip_11cxx_lib/inc/core_cm0.h ****     The function sets the pending bit of an external interrupt.
 537:../../lpc11cx4-library/lpc_chip_11cxx_lib/inc/core_cm0.h **** 
 538:../../lpc11cx4-library/lpc_chip_11cxx_lib/inc/core_cm0.h ****     \param [in]      IRQn  Interrupt number. Value cannot be negative.
 539:../../lpc11cx4-library/lpc_chip_11cxx_lib/inc/core_cm0.h ****  */
 540:../../lpc11cx4-library/lpc_chip_11cxx_lib/inc/core_cm0.h **** __STATIC_INLINE void NVIC_SetPendingIRQ(IRQn_Type IRQn)
 541:../../lpc11cx4-library/lpc_chip_11cxx_lib/inc/core_cm0.h **** {
 542:../../lpc11cx4-library/lpc_chip_11cxx_lib/inc/core_cm0.h ****   NVIC->ISPR[0] = (1 << ((uint32_t)(IRQn) & 0x1F));
 543:../../lpc11cx4-library/lpc_chip_11cxx_lib/inc/core_cm0.h **** }
 544:../../lpc11cx4-library/lpc_chip_11cxx_lib/inc/core_cm0.h **** 
 545:../../lpc11cx4-library/lpc_chip_11cxx_lib/inc/core_cm0.h **** 
 546:../../lpc11cx4-library/lpc_chip_11cxx_lib/inc/core_cm0.h **** /** \brief  Clear Pending Interrupt
 547:../../lpc11cx4-library/lpc_chip_11cxx_lib/inc/core_cm0.h **** 
 548:../../lpc11cx4-library/lpc_chip_11cxx_lib/inc/core_cm0.h ****     The function clears the pending bit of an external interrupt.
 549:../../lpc11cx4-library/lpc_chip_11cxx_lib/inc/core_cm0.h **** 
ARM GAS  /tmp/ccZ3PTEI.s 			page 14


 550:../../lpc11cx4-library/lpc_chip_11cxx_lib/inc/core_cm0.h ****     \param [in]      IRQn  External interrupt number. Value cannot be negative.
 551:../../lpc11cx4-library/lpc_chip_11cxx_lib/inc/core_cm0.h ****  */
 552:../../lpc11cx4-library/lpc_chip_11cxx_lib/inc/core_cm0.h **** __STATIC_INLINE void NVIC_ClearPendingIRQ(IRQn_Type IRQn)
 553:../../lpc11cx4-library/lpc_chip_11cxx_lib/inc/core_cm0.h **** {
 554:../../lpc11cx4-library/lpc_chip_11cxx_lib/inc/core_cm0.h ****   NVIC->ICPR[0] = (1 << ((uint32_t)(IRQn) & 0x1F)); /* Clear pending interrupt */
 555:../../lpc11cx4-library/lpc_chip_11cxx_lib/inc/core_cm0.h **** }
 556:../../lpc11cx4-library/lpc_chip_11cxx_lib/inc/core_cm0.h **** 
 557:../../lpc11cx4-library/lpc_chip_11cxx_lib/inc/core_cm0.h **** 
 558:../../lpc11cx4-library/lpc_chip_11cxx_lib/inc/core_cm0.h **** /** \brief  Set Interrupt Priority
 559:../../lpc11cx4-library/lpc_chip_11cxx_lib/inc/core_cm0.h **** 
 560:../../lpc11cx4-library/lpc_chip_11cxx_lib/inc/core_cm0.h ****     The function sets the priority of an interrupt.
 561:../../lpc11cx4-library/lpc_chip_11cxx_lib/inc/core_cm0.h **** 
 562:../../lpc11cx4-library/lpc_chip_11cxx_lib/inc/core_cm0.h ****     \note The priority cannot be set for every core interrupt.
 563:../../lpc11cx4-library/lpc_chip_11cxx_lib/inc/core_cm0.h **** 
 564:../../lpc11cx4-library/lpc_chip_11cxx_lib/inc/core_cm0.h ****     \param [in]      IRQn  Interrupt number.
 565:../../lpc11cx4-library/lpc_chip_11cxx_lib/inc/core_cm0.h ****     \param [in]  priority  Priority to set.
 566:../../lpc11cx4-library/lpc_chip_11cxx_lib/inc/core_cm0.h ****  */
 567:../../lpc11cx4-library/lpc_chip_11cxx_lib/inc/core_cm0.h **** __STATIC_INLINE void NVIC_SetPriority(IRQn_Type IRQn, uint32_t priority)
 568:../../lpc11cx4-library/lpc_chip_11cxx_lib/inc/core_cm0.h **** {
 569:../../lpc11cx4-library/lpc_chip_11cxx_lib/inc/core_cm0.h ****   if(IRQn < 0) {
 570:../../lpc11cx4-library/lpc_chip_11cxx_lib/inc/core_cm0.h ****     SCB->SHP[_SHP_IDX(IRQn)] = (SCB->SHP[_SHP_IDX(IRQn)] & ~(0xFF << _BIT_SHIFT(IRQn))) |
 148              		.loc 2 570 0
 149 0016 C021     		movs	r1, #192	@ tmp133,
 150              	.LBE45:
 151              	.LBE44:
 571:../../lpc11cx4-library/lpc_chip_11cxx_lib/inc/core_cm0.h ****         (((priority << (8 - __NVIC_PRIO_BITS)) & 0xFF) << _BIT_SHIFT(IRQn)); }
 572:../../lpc11cx4-library/lpc_chip_11cxx_lib/inc/core_cm0.h ****   else {
 573:../../lpc11cx4-library/lpc_chip_11cxx_lib/inc/core_cm0.h ****     NVIC->IP[_IP_IDX(IRQn)] = (NVIC->IP[_IP_IDX(IRQn)] & ~(0xFF << _BIT_SHIFT(IRQn))) |
 574:../../lpc11cx4-library/lpc_chip_11cxx_lib/inc/core_cm0.h ****         (((priority << (8 - __NVIC_PRIO_BITS)) & 0xFF) << _BIT_SHIFT(IRQn)); }
 575:../../lpc11cx4-library/lpc_chip_11cxx_lib/inc/core_cm0.h **** }
 576:../../lpc11cx4-library/lpc_chip_11cxx_lib/inc/core_cm0.h **** 
 577:../../lpc11cx4-library/lpc_chip_11cxx_lib/inc/core_cm0.h **** 
 578:../../lpc11cx4-library/lpc_chip_11cxx_lib/inc/core_cm0.h **** /** \brief  Get Interrupt Priority
 579:../../lpc11cx4-library/lpc_chip_11cxx_lib/inc/core_cm0.h **** 
 580:../../lpc11cx4-library/lpc_chip_11cxx_lib/inc/core_cm0.h ****     The function reads the priority of an interrupt. The interrupt
 581:../../lpc11cx4-library/lpc_chip_11cxx_lib/inc/core_cm0.h ****     number can be positive to specify an external (device specific)
 582:../../lpc11cx4-library/lpc_chip_11cxx_lib/inc/core_cm0.h ****     interrupt, or negative to specify an internal (core) interrupt.
 583:../../lpc11cx4-library/lpc_chip_11cxx_lib/inc/core_cm0.h **** 
 584:../../lpc11cx4-library/lpc_chip_11cxx_lib/inc/core_cm0.h **** 
 585:../../lpc11cx4-library/lpc_chip_11cxx_lib/inc/core_cm0.h ****     \param [in]   IRQn  Interrupt number.
 586:../../lpc11cx4-library/lpc_chip_11cxx_lib/inc/core_cm0.h ****     \return             Interrupt Priority. Value is aligned automatically to the implemented
 587:../../lpc11cx4-library/lpc_chip_11cxx_lib/inc/core_cm0.h ****                         priority bits of the microcontroller.
 588:../../lpc11cx4-library/lpc_chip_11cxx_lib/inc/core_cm0.h ****  */
 589:../../lpc11cx4-library/lpc_chip_11cxx_lib/inc/core_cm0.h **** __STATIC_INLINE uint32_t NVIC_GetPriority(IRQn_Type IRQn)
 590:../../lpc11cx4-library/lpc_chip_11cxx_lib/inc/core_cm0.h **** {
 591:../../lpc11cx4-library/lpc_chip_11cxx_lib/inc/core_cm0.h **** 
 592:../../lpc11cx4-library/lpc_chip_11cxx_lib/inc/core_cm0.h ****   if(IRQn < 0) {
 593:../../lpc11cx4-library/lpc_chip_11cxx_lib/inc/core_cm0.h ****     return((uint32_t)((SCB->SHP[_SHP_IDX(IRQn)] >> _BIT_SHIFT(IRQn) ) >> (8 - __NVIC_PRIO_BITS))); 
 594:../../lpc11cx4-library/lpc_chip_11cxx_lib/inc/core_cm0.h ****   else {
 595:../../lpc11cx4-library/lpc_chip_11cxx_lib/inc/core_cm0.h ****     return((uint32_t)((NVIC->IP[ _IP_IDX(IRQn)] >> _BIT_SHIFT(IRQn) ) >> (8 - __NVIC_PRIO_BITS))); 
 596:../../lpc11cx4-library/lpc_chip_11cxx_lib/inc/core_cm0.h **** }
 597:../../lpc11cx4-library/lpc_chip_11cxx_lib/inc/core_cm0.h **** 
 598:../../lpc11cx4-library/lpc_chip_11cxx_lib/inc/core_cm0.h **** 
 599:../../lpc11cx4-library/lpc_chip_11cxx_lib/inc/core_cm0.h **** /** \brief  System Reset
 600:../../lpc11cx4-library/lpc_chip_11cxx_lib/inc/core_cm0.h **** 
 601:../../lpc11cx4-library/lpc_chip_11cxx_lib/inc/core_cm0.h ****     The function initiates a system reset request to reset the MCU.
 602:../../lpc11cx4-library/lpc_chip_11cxx_lib/inc/core_cm0.h ****  */
ARM GAS  /tmp/ccZ3PTEI.s 			page 15


 603:../../lpc11cx4-library/lpc_chip_11cxx_lib/inc/core_cm0.h **** __STATIC_INLINE void NVIC_SystemReset(void)
 604:../../lpc11cx4-library/lpc_chip_11cxx_lib/inc/core_cm0.h **** {
 605:../../lpc11cx4-library/lpc_chip_11cxx_lib/inc/core_cm0.h ****   __DSB();                                                     /* Ensure all outstanding memory acc
 606:../../lpc11cx4-library/lpc_chip_11cxx_lib/inc/core_cm0.h ****                                                                   buffered write are completed befo
 607:../../lpc11cx4-library/lpc_chip_11cxx_lib/inc/core_cm0.h ****   SCB->AIRCR  = ((0x5FA << SCB_AIRCR_VECTKEY_Pos)      |
 608:../../lpc11cx4-library/lpc_chip_11cxx_lib/inc/core_cm0.h ****                  SCB_AIRCR_SYSRESETREQ_Msk);
 609:../../lpc11cx4-library/lpc_chip_11cxx_lib/inc/core_cm0.h ****   __DSB();                                                     /* Ensure completion of memory acces
 610:../../lpc11cx4-library/lpc_chip_11cxx_lib/inc/core_cm0.h ****   while(1);                                                    /* wait until reset */
 611:../../lpc11cx4-library/lpc_chip_11cxx_lib/inc/core_cm0.h **** }
 612:../../lpc11cx4-library/lpc_chip_11cxx_lib/inc/core_cm0.h **** 
 613:../../lpc11cx4-library/lpc_chip_11cxx_lib/inc/core_cm0.h **** /*@} end of CMSIS_Core_NVICFunctions */
 614:../../lpc11cx4-library/lpc_chip_11cxx_lib/inc/core_cm0.h **** 
 615:../../lpc11cx4-library/lpc_chip_11cxx_lib/inc/core_cm0.h **** 
 616:../../lpc11cx4-library/lpc_chip_11cxx_lib/inc/core_cm0.h **** 
 617:../../lpc11cx4-library/lpc_chip_11cxx_lib/inc/core_cm0.h **** /* ##################################    SysTick function  ########################################
 618:../../lpc11cx4-library/lpc_chip_11cxx_lib/inc/core_cm0.h **** /** \ingroup  CMSIS_Core_FunctionInterface
 619:../../lpc11cx4-library/lpc_chip_11cxx_lib/inc/core_cm0.h ****     \defgroup CMSIS_Core_SysTickFunctions SysTick Functions
 620:../../lpc11cx4-library/lpc_chip_11cxx_lib/inc/core_cm0.h ****     \brief      Functions that configure the System.
 621:../../lpc11cx4-library/lpc_chip_11cxx_lib/inc/core_cm0.h ****   @{
 622:../../lpc11cx4-library/lpc_chip_11cxx_lib/inc/core_cm0.h ****  */
 623:../../lpc11cx4-library/lpc_chip_11cxx_lib/inc/core_cm0.h **** 
 624:../../lpc11cx4-library/lpc_chip_11cxx_lib/inc/core_cm0.h **** #if (__Vendor_SysTickConfig == 0)
 625:../../lpc11cx4-library/lpc_chip_11cxx_lib/inc/core_cm0.h **** 
 626:../../lpc11cx4-library/lpc_chip_11cxx_lib/inc/core_cm0.h **** /** \brief  System Tick Configuration
 627:../../lpc11cx4-library/lpc_chip_11cxx_lib/inc/core_cm0.h **** 
 628:../../lpc11cx4-library/lpc_chip_11cxx_lib/inc/core_cm0.h ****     The function initializes the System Timer and its interrupt, and starts the System Tick Timer.
 629:../../lpc11cx4-library/lpc_chip_11cxx_lib/inc/core_cm0.h ****     Counter is in free running mode to generate periodic interrupts.
 630:../../lpc11cx4-library/lpc_chip_11cxx_lib/inc/core_cm0.h **** 
 631:../../lpc11cx4-library/lpc_chip_11cxx_lib/inc/core_cm0.h ****     \param [in]  ticks  Number of ticks between two interrupts.
 632:../../lpc11cx4-library/lpc_chip_11cxx_lib/inc/core_cm0.h **** 
 633:../../lpc11cx4-library/lpc_chip_11cxx_lib/inc/core_cm0.h ****     \return          0  Function succeeded.
 634:../../lpc11cx4-library/lpc_chip_11cxx_lib/inc/core_cm0.h ****     \return          1  Function failed.
 635:../../lpc11cx4-library/lpc_chip_11cxx_lib/inc/core_cm0.h **** 
 636:../../lpc11cx4-library/lpc_chip_11cxx_lib/inc/core_cm0.h ****     \note     When the variable <b>__Vendor_SysTickConfig</b> is set to 1, then the
 637:../../lpc11cx4-library/lpc_chip_11cxx_lib/inc/core_cm0.h ****     function <b>SysTick_Config</b> is not included. In this case, the file <b><i>device</i>.h</b>
 638:../../lpc11cx4-library/lpc_chip_11cxx_lib/inc/core_cm0.h ****     must contain a vendor-specific implementation of this function.
 639:../../lpc11cx4-library/lpc_chip_11cxx_lib/inc/core_cm0.h **** 
 640:../../lpc11cx4-library/lpc_chip_11cxx_lib/inc/core_cm0.h ****  */
 641:../../lpc11cx4-library/lpc_chip_11cxx_lib/inc/core_cm0.h **** __STATIC_INLINE uint32_t SysTick_Config(uint32_t ticks)
 642:../../lpc11cx4-library/lpc_chip_11cxx_lib/inc/core_cm0.h **** {
 643:../../lpc11cx4-library/lpc_chip_11cxx_lib/inc/core_cm0.h ****   if (ticks > SysTick_LOAD_RELOAD_Msk)  return (1);            /* Reload value impossible */
 644:../../lpc11cx4-library/lpc_chip_11cxx_lib/inc/core_cm0.h **** 
 645:../../lpc11cx4-library/lpc_chip_11cxx_lib/inc/core_cm0.h ****   SysTick->LOAD  = (ticks & SysTick_LOAD_RELOAD_Msk) - 1;      /* set reload register */
 152              		.loc 2 645 0
 153 0018 264A     		ldr	r2, .L11+4	@ tmp129,
 154 001a 0138     		subs	r0, r0, #1	@ _7,
 155 001c 5060     		str	r0, [r2, #4]	@ _7, MEM[(struct SysTick_Type *)3758153744B].LOAD
 156              	.LVL3:
 157              	.LBB49:
 158              	.LBB46:
 570:../../lpc11cx4-library/lpc_chip_11cxx_lib/inc/core_cm0.h ****         (((priority << (8 - __NVIC_PRIO_BITS)) & 0xFF) << _BIT_SHIFT(IRQn)); }
 159              		.loc 2 570 0
 160 001e 2648     		ldr	r0, .L11+8	@ tmp130,
 161 0020 0906     		lsls	r1, r1, #24	@ tmp133, tmp133,
 162 0022 036A     		ldr	r3, [r0, #32]	@ _8, MEM[(struct SCB_Type *)3758157056B].SHP
 163              	.LBE46:
 164              	.LBE49:
ARM GAS  /tmp/ccZ3PTEI.s 			page 16


 165              	.LBE43:
 166              	.LBE42:
 167              	.LBB55:
 168              	.LBB56:
  31:src/blink.c   **** 	Chip_GPIO_SetPinState(LPC_GPIO, port, pin, false);
 169              		.loc 1 31 0
 170 0024 A027     		movs	r7, #160	@ tmp139,
 171              	.LBE56:
 172              	.LBE55:
 173              	.LBB65:
 174              	.LBB52:
 175              	.LBB50:
 176              	.LBB47:
 570:../../lpc11cx4-library/lpc_chip_11cxx_lib/inc/core_cm0.h ****         (((priority << (8 - __NVIC_PRIO_BITS)) & 0xFF) << _BIT_SHIFT(IRQn)); }
 177              		.loc 2 570 0
 178 0026 1B02     		lsls	r3, r3, #8	@ tmp132, _8,
 179 0028 1B0A     		lsrs	r3, r3, #8	@ tmp131, tmp132,
 180 002a 0B43     		orrs	r3, r1	@ _10, tmp133
 181              	.LBE47:
 182              	.LBE50:
 646:../../lpc11cx4-library/lpc_chip_11cxx_lib/inc/core_cm0.h ****   NVIC_SetPriority (SysTick_IRQn, (1<<__NVIC_PRIO_BITS) - 1);  /* set Priority for Systick Interrup
 647:../../lpc11cx4-library/lpc_chip_11cxx_lib/inc/core_cm0.h ****   SysTick->VAL   = 0;                                          /* Load the SysTick Counter Value */
 183              		.loc 2 647 0
 184 002c 0024     		movs	r4, #0	@ tmp136,
 185              	.LBB51:
 186              	.LBB48:
 570:../../lpc11cx4-library/lpc_chip_11cxx_lib/inc/core_cm0.h ****         (((priority << (8 - __NVIC_PRIO_BITS)) & 0xFF) << _BIT_SHIFT(IRQn)); }
 187              		.loc 2 570 0
 188 002e 0362     		str	r3, [r0, #32]	@ _10, MEM[(struct SCB_Type *)3758157056B].SHP
 189              	.LVL4:
 190              	.LBE48:
 191              	.LBE51:
 648:../../lpc11cx4-library/lpc_chip_11cxx_lib/inc/core_cm0.h ****   SysTick->CTRL  = SysTick_CTRL_CLKSOURCE_Msk |
 192              		.loc 2 648 0
 193 0030 0723     		movs	r3, #7	@ tmp138,
 194              	.LBE52:
 195              	.LBE65:
 196              	.LBB66:
 197              	.LBB61:
 198              	.LBB57:
 199              	.LBB58:
 200              		.file 3 "../../lpc11cx4-library/lpc_chip_11cxx_lib/inc/gpio_11xx_2.h"
   1:../../lpc11cx4-library/lpc_chip_11cxx_lib/inc/gpio_11xx_2.h **** /*
   2:../../lpc11cx4-library/lpc_chip_11cxx_lib/inc/gpio_11xx_2.h ****  * @brief LPC11xx GPIO driver for CHIP_LPC11CXX, CHIP_LPC110X, CHIP_LPC11XXLV,
   3:../../lpc11cx4-library/lpc_chip_11cxx_lib/inc/gpio_11xx_2.h ****  * and CHIP_LPC1125 families only.
   4:../../lpc11cx4-library/lpc_chip_11cxx_lib/inc/gpio_11xx_2.h ****  *
   5:../../lpc11cx4-library/lpc_chip_11cxx_lib/inc/gpio_11xx_2.h ****  * @note
   6:../../lpc11cx4-library/lpc_chip_11cxx_lib/inc/gpio_11xx_2.h ****  * Copyright(C) NXP Semiconductors, 2013
   7:../../lpc11cx4-library/lpc_chip_11cxx_lib/inc/gpio_11xx_2.h ****  * All rights reserved.
   8:../../lpc11cx4-library/lpc_chip_11cxx_lib/inc/gpio_11xx_2.h ****  *
   9:../../lpc11cx4-library/lpc_chip_11cxx_lib/inc/gpio_11xx_2.h ****  * @par
  10:../../lpc11cx4-library/lpc_chip_11cxx_lib/inc/gpio_11xx_2.h ****  * Software that is described herein is for illustrative purposes only
  11:../../lpc11cx4-library/lpc_chip_11cxx_lib/inc/gpio_11xx_2.h ****  * which provides customers with programming information regarding the
  12:../../lpc11cx4-library/lpc_chip_11cxx_lib/inc/gpio_11xx_2.h ****  * LPC products.  This software is supplied "AS IS" without any warranties of
  13:../../lpc11cx4-library/lpc_chip_11cxx_lib/inc/gpio_11xx_2.h ****  * any kind, and NXP Semiconductors and its licensor disclaim any and
  14:../../lpc11cx4-library/lpc_chip_11cxx_lib/inc/gpio_11xx_2.h ****  * all warranties, express or implied, including all implied warranties of
  15:../../lpc11cx4-library/lpc_chip_11cxx_lib/inc/gpio_11xx_2.h ****  * merchantability, fitness for a particular purpose and non-infringement of
ARM GAS  /tmp/ccZ3PTEI.s 			page 17


  16:../../lpc11cx4-library/lpc_chip_11cxx_lib/inc/gpio_11xx_2.h ****  * intellectual property rights.  NXP Semiconductors assumes no responsibility
  17:../../lpc11cx4-library/lpc_chip_11cxx_lib/inc/gpio_11xx_2.h ****  * or liability for the use of the software, conveys no license or rights under any
  18:../../lpc11cx4-library/lpc_chip_11cxx_lib/inc/gpio_11xx_2.h ****  * patent, copyright, mask work right, or any other intellectual property rights in
  19:../../lpc11cx4-library/lpc_chip_11cxx_lib/inc/gpio_11xx_2.h ****  * or to any products. NXP Semiconductors reserves the right to make changes
  20:../../lpc11cx4-library/lpc_chip_11cxx_lib/inc/gpio_11xx_2.h ****  * in the software without notification. NXP Semiconductors also makes no
  21:../../lpc11cx4-library/lpc_chip_11cxx_lib/inc/gpio_11xx_2.h ****  * representation or warranty that such application will be suitable for the
  22:../../lpc11cx4-library/lpc_chip_11cxx_lib/inc/gpio_11xx_2.h ****  * specified use without further testing or modification.
  23:../../lpc11cx4-library/lpc_chip_11cxx_lib/inc/gpio_11xx_2.h ****  *
  24:../../lpc11cx4-library/lpc_chip_11cxx_lib/inc/gpio_11xx_2.h ****  * @par
  25:../../lpc11cx4-library/lpc_chip_11cxx_lib/inc/gpio_11xx_2.h ****  * Permission to use, copy, modify, and distribute this software and its
  26:../../lpc11cx4-library/lpc_chip_11cxx_lib/inc/gpio_11xx_2.h ****  * documentation is hereby granted, under NXP Semiconductors' and its
  27:../../lpc11cx4-library/lpc_chip_11cxx_lib/inc/gpio_11xx_2.h ****  * licensor's relevant copyrights in the software, without fee, provided that it
  28:../../lpc11cx4-library/lpc_chip_11cxx_lib/inc/gpio_11xx_2.h ****  * is used in conjunction with NXP Semiconductors microcontrollers.  This
  29:../../lpc11cx4-library/lpc_chip_11cxx_lib/inc/gpio_11xx_2.h ****  * copyright, permission, and disclaimer notice must appear in all copies of
  30:../../lpc11cx4-library/lpc_chip_11cxx_lib/inc/gpio_11xx_2.h ****  * this code.
  31:../../lpc11cx4-library/lpc_chip_11cxx_lib/inc/gpio_11xx_2.h ****  */
  32:../../lpc11cx4-library/lpc_chip_11cxx_lib/inc/gpio_11xx_2.h **** 
  33:../../lpc11cx4-library/lpc_chip_11cxx_lib/inc/gpio_11xx_2.h **** #ifndef __GPIO_11XX_2_H_
  34:../../lpc11cx4-library/lpc_chip_11cxx_lib/inc/gpio_11xx_2.h **** #define __GPIO_11XX_2_H_
  35:../../lpc11cx4-library/lpc_chip_11cxx_lib/inc/gpio_11xx_2.h **** 
  36:../../lpc11cx4-library/lpc_chip_11cxx_lib/inc/gpio_11xx_2.h **** #ifdef __cplusplus
  37:../../lpc11cx4-library/lpc_chip_11cxx_lib/inc/gpio_11xx_2.h **** extern "C" {
  38:../../lpc11cx4-library/lpc_chip_11cxx_lib/inc/gpio_11xx_2.h **** #endif
  39:../../lpc11cx4-library/lpc_chip_11cxx_lib/inc/gpio_11xx_2.h **** 
  40:../../lpc11cx4-library/lpc_chip_11cxx_lib/inc/gpio_11xx_2.h **** /** @defgroup GPIO_11XX_2 CHIP: LPC11xx GPIO driver for CHIP_LPC11CXX, CHIP_LPC110X, and CHIP_LPC11
  41:../../lpc11cx4-library/lpc_chip_11cxx_lib/inc/gpio_11xx_2.h ****  * @ingroup CHIP_11XX_Drivers
  42:../../lpc11cx4-library/lpc_chip_11cxx_lib/inc/gpio_11xx_2.h ****  * For device familes identified with CHIP definitions CHIP_LPC11CXX,
  43:../../lpc11cx4-library/lpc_chip_11cxx_lib/inc/gpio_11xx_2.h ****  * CHIP_LPC110X, and CHIP_LPC11XXLV only.
  44:../../lpc11cx4-library/lpc_chip_11cxx_lib/inc/gpio_11xx_2.h ****  * @{
  45:../../lpc11cx4-library/lpc_chip_11cxx_lib/inc/gpio_11xx_2.h ****  */
  46:../../lpc11cx4-library/lpc_chip_11cxx_lib/inc/gpio_11xx_2.h **** 
  47:../../lpc11cx4-library/lpc_chip_11cxx_lib/inc/gpio_11xx_2.h **** #if defined(CHIP_LPC11CXX) || defined(CHIP_LPC110X) || defined(CHIP_LPC11XXLV) || defined(CHIP_LPC1
  48:../../lpc11cx4-library/lpc_chip_11cxx_lib/inc/gpio_11xx_2.h **** 
  49:../../lpc11cx4-library/lpc_chip_11cxx_lib/inc/gpio_11xx_2.h **** /**
  50:../../lpc11cx4-library/lpc_chip_11cxx_lib/inc/gpio_11xx_2.h ****  * @brief  GPIO port register block structure
  51:../../lpc11cx4-library/lpc_chip_11cxx_lib/inc/gpio_11xx_2.h ****  */
  52:../../lpc11cx4-library/lpc_chip_11cxx_lib/inc/gpio_11xx_2.h **** typedef struct {				/*!< GPIO_PORT Structure */
  53:../../lpc11cx4-library/lpc_chip_11cxx_lib/inc/gpio_11xx_2.h **** 	__IO uint32_t DATA[4096];			/*!< Offset: 0x0000 to 0x3FFC Data address masking register (R/W) */
  54:../../lpc11cx4-library/lpc_chip_11cxx_lib/inc/gpio_11xx_2.h **** 	uint32_t RESERVED1[4096];
  55:../../lpc11cx4-library/lpc_chip_11cxx_lib/inc/gpio_11xx_2.h **** 	__IO uint32_t DIR;					/*!< Offset: 0x8000 Data direction register (R/W) */
  56:../../lpc11cx4-library/lpc_chip_11cxx_lib/inc/gpio_11xx_2.h **** 	__IO uint32_t IS;					/*!< Offset: 0x8004 Interrupt sense register (R/W) */
  57:../../lpc11cx4-library/lpc_chip_11cxx_lib/inc/gpio_11xx_2.h **** 	__IO uint32_t IBE;					/*!< Offset: 0x8008 Interrupt both edges register (R/W) */
  58:../../lpc11cx4-library/lpc_chip_11cxx_lib/inc/gpio_11xx_2.h **** 	__IO uint32_t IEV;					/*!< Offset: 0x800C Interrupt event register  (R/W) */
  59:../../lpc11cx4-library/lpc_chip_11cxx_lib/inc/gpio_11xx_2.h **** 	__IO uint32_t IE;					/*!< Offset: 0x8010 Interrupt mask register (R/W) */
  60:../../lpc11cx4-library/lpc_chip_11cxx_lib/inc/gpio_11xx_2.h **** 	__I  uint32_t RIS;					/*!< Offset: 0x8014 Raw interrupt status register (R/ ) */
  61:../../lpc11cx4-library/lpc_chip_11cxx_lib/inc/gpio_11xx_2.h **** 	__I  uint32_t MIS;					/*!< Offset: 0x8018 Masked interrupt status register (R/ ) */
  62:../../lpc11cx4-library/lpc_chip_11cxx_lib/inc/gpio_11xx_2.h **** 	__O  uint32_t IC;					/*!< Offset: 0x801C Interrupt clear register (W) */
  63:../../lpc11cx4-library/lpc_chip_11cxx_lib/inc/gpio_11xx_2.h **** 	uint32_t RESERVED2[8184];			/* Padding added for aligning contiguous GPIO blocks */
  64:../../lpc11cx4-library/lpc_chip_11cxx_lib/inc/gpio_11xx_2.h **** } LPC_GPIO_T;
  65:../../lpc11cx4-library/lpc_chip_11cxx_lib/inc/gpio_11xx_2.h **** 
  66:../../lpc11cx4-library/lpc_chip_11cxx_lib/inc/gpio_11xx_2.h **** /**
  67:../../lpc11cx4-library/lpc_chip_11cxx_lib/inc/gpio_11xx_2.h ****  * @brief	Initialize GPIO block
  68:../../lpc11cx4-library/lpc_chip_11cxx_lib/inc/gpio_11xx_2.h ****  * @param	pGPIO	: The base of GPIO peripheral on the chip
  69:../../lpc11cx4-library/lpc_chip_11cxx_lib/inc/gpio_11xx_2.h ****  * @return	Nothing
  70:../../lpc11cx4-library/lpc_chip_11cxx_lib/inc/gpio_11xx_2.h ****  */
  71:../../lpc11cx4-library/lpc_chip_11cxx_lib/inc/gpio_11xx_2.h **** void Chip_GPIO_Init(LPC_GPIO_T *pGPIO);
  72:../../lpc11cx4-library/lpc_chip_11cxx_lib/inc/gpio_11xx_2.h **** 
ARM GAS  /tmp/ccZ3PTEI.s 			page 18


  73:../../lpc11cx4-library/lpc_chip_11cxx_lib/inc/gpio_11xx_2.h **** /**
  74:../../lpc11cx4-library/lpc_chip_11cxx_lib/inc/gpio_11xx_2.h ****  * @brief	De-Initialize GPIO block
  75:../../lpc11cx4-library/lpc_chip_11cxx_lib/inc/gpio_11xx_2.h ****  * @param	pGPIO	: The base of GPIO peripheral on the chip
  76:../../lpc11cx4-library/lpc_chip_11cxx_lib/inc/gpio_11xx_2.h ****  * @return	Nothing
  77:../../lpc11cx4-library/lpc_chip_11cxx_lib/inc/gpio_11xx_2.h ****  */
  78:../../lpc11cx4-library/lpc_chip_11cxx_lib/inc/gpio_11xx_2.h **** void Chip_GPIO_DeInit(LPC_GPIO_T *pGPIO);
  79:../../lpc11cx4-library/lpc_chip_11cxx_lib/inc/gpio_11xx_2.h **** 
  80:../../lpc11cx4-library/lpc_chip_11cxx_lib/inc/gpio_11xx_2.h **** /**
  81:../../lpc11cx4-library/lpc_chip_11cxx_lib/inc/gpio_11xx_2.h ****  * @brief	Set a GPIO port/bit state
  82:../../lpc11cx4-library/lpc_chip_11cxx_lib/inc/gpio_11xx_2.h ****  * @param	pGPIO	: The base of GPIO peripheral on the chip
  83:../../lpc11cx4-library/lpc_chip_11cxx_lib/inc/gpio_11xx_2.h ****  * @param	port	: GPIO port to set
  84:../../lpc11cx4-library/lpc_chip_11cxx_lib/inc/gpio_11xx_2.h ****  * @param	bit		: GPIO bit to set
  85:../../lpc11cx4-library/lpc_chip_11cxx_lib/inc/gpio_11xx_2.h ****  * @param	setting	: true for high, false for low
  86:../../lpc11cx4-library/lpc_chip_11cxx_lib/inc/gpio_11xx_2.h ****  * @return	Nothing
  87:../../lpc11cx4-library/lpc_chip_11cxx_lib/inc/gpio_11xx_2.h ****  */
  88:../../lpc11cx4-library/lpc_chip_11cxx_lib/inc/gpio_11xx_2.h **** STATIC INLINE void Chip_GPIO_WritePortBit(LPC_GPIO_T *pGPIO, uint32_t port, uint8_t bit, bool setti
  89:../../lpc11cx4-library/lpc_chip_11cxx_lib/inc/gpio_11xx_2.h **** {
  90:../../lpc11cx4-library/lpc_chip_11cxx_lib/inc/gpio_11xx_2.h **** 	pGPIO[port].DATA[1 << bit] = setting << bit;
  91:../../lpc11cx4-library/lpc_chip_11cxx_lib/inc/gpio_11xx_2.h **** }
  92:../../lpc11cx4-library/lpc_chip_11cxx_lib/inc/gpio_11xx_2.h **** 
  93:../../lpc11cx4-library/lpc_chip_11cxx_lib/inc/gpio_11xx_2.h **** /**
  94:../../lpc11cx4-library/lpc_chip_11cxx_lib/inc/gpio_11xx_2.h ****  * @brief	Set a GPIO pin state via the GPIO byte register
  95:../../lpc11cx4-library/lpc_chip_11cxx_lib/inc/gpio_11xx_2.h ****  * @param	pGPIO	: The base of GPIO peripheral on the chip
  96:../../lpc11cx4-library/lpc_chip_11cxx_lib/inc/gpio_11xx_2.h ****  * @param	port	: Port number
  97:../../lpc11cx4-library/lpc_chip_11cxx_lib/inc/gpio_11xx_2.h ****  * @param	pin		: GPIO pin to set
  98:../../lpc11cx4-library/lpc_chip_11cxx_lib/inc/gpio_11xx_2.h ****  * @param	setting	: true for high, false for low
  99:../../lpc11cx4-library/lpc_chip_11cxx_lib/inc/gpio_11xx_2.h ****  * @return	Nothing
 100:../../lpc11cx4-library/lpc_chip_11cxx_lib/inc/gpio_11xx_2.h ****  * @note	This function replaces Chip_GPIO_WritePortBit()
 101:../../lpc11cx4-library/lpc_chip_11cxx_lib/inc/gpio_11xx_2.h ****  */
 102:../../lpc11cx4-library/lpc_chip_11cxx_lib/inc/gpio_11xx_2.h **** STATIC INLINE void Chip_GPIO_SetPinState(LPC_GPIO_T *pGPIO, uint8_t port, uint8_t pin, bool setting
 103:../../lpc11cx4-library/lpc_chip_11cxx_lib/inc/gpio_11xx_2.h **** {
 104:../../lpc11cx4-library/lpc_chip_11cxx_lib/inc/gpio_11xx_2.h **** 	pGPIO[port].DATA[1 << pin] = setting << pin;
 201              		.loc 3 104 0
 202 0032 8025     		movs	r5, #128	@ tmp141,
 203              	.LBE58:
 204              	.LBE57:
 205              	.LBE61:
 206              	.LBE66:
 207              	.LBB67:
 208              	.LBB68:
 209              	.LBB69:
 210              	.LBB70:
 211 0034 8026     		movs	r6, #128	@ tmp145,
 212              	.LBE70:
 213              	.LBE69:
 214              	.LBE68:
 215              	.LBE67:
 216              	.LBB76:
 217              	.LBB62:
  31:src/blink.c   **** 	Chip_GPIO_SetPinState(LPC_GPIO, port, pin, false);
 218              		.loc 1 31 0
 219 0036 FF05     		lsls	r7, r7, #23	@ tmp139, tmp139,
 220              	.LBE62:
 221              	.LBE76:
 222              	.LBB77:
 223              	.LBB53:
 647:../../lpc11cx4-library/lpc_chip_11cxx_lib/inc/core_cm0.h ****   SysTick->CTRL  = SysTick_CTRL_CLKSOURCE_Msk |
ARM GAS  /tmp/ccZ3PTEI.s 			page 19


 224              		.loc 2 647 0
 225 0038 9460     		str	r4, [r2, #8]	@ tmp136, MEM[(struct SysTick_Type *)3758153744B].VAL
 226              	.LBE53:
 227              	.LBE77:
 228              	.LBB78:
 229              	.LBB63:
  31:src/blink.c   **** 	Chip_GPIO_SetPinState(LPC_GPIO, port, pin, false);
 230              		.loc 1 31 0
 231 003a 3800     		movs	r0, r7	@, tmp139
 232              	.LBE63:
 233              	.LBE78:
 234              	.LBB79:
 235              	.LBB54:
 236              		.loc 2 648 0
 237 003c 1360     		str	r3, [r2]	@ tmp138, MEM[(struct SysTick_Type *)3758153744B].CTRL
 238              	.LVL5:
 239              	.LBE54:
 240              	.LBE79:
 241              	.LBB80:
 242              	.LBB64:
  31:src/blink.c   **** 	Chip_GPIO_SetPinState(LPC_GPIO, port, pin, false);
 243              		.loc 1 31 0
 244 003e 0221     		movs	r1, #2	@,
 245 0040 063B     		subs	r3, r3, #6	@,
 246 0042 0822     		movs	r2, #8	@,
 247 0044 FFF7FEFF 		bl	Chip_GPIO_WriteDirBit	@
 248              	.LVL6:
 249              	.LBB60:
 250              	.LBB59:
 251              		.loc 3 104 0
 252 0048 1C4B     		ldr	r3, .L11+12	@ tmp140,
 253 004a ED00     		lsls	r5, r5, #3	@ tmp141, tmp141,
 254 004c 9846     		mov	r8, r3	@ tmp140, tmp140
 255 004e 5C51     		str	r4, [r3, r5]	@ tmp136, MEM[(struct LPC_GPIO_T *)1342308352B].DATA
 256              	.LVL7:
 257              	.LBE59:
 258              	.LBE60:
 259              	.LBE64:
 260              	.LBE80:
 261              	.LBB81:
 262              	.LBB75:
  31:src/blink.c   **** 	Chip_GPIO_SetPinState(LPC_GPIO, port, pin, false);
 263              		.loc 1 31 0
 264 0050 3800     		movs	r0, r7	@, tmp139
 265 0052 0123     		movs	r3, #1	@,
 266 0054 0622     		movs	r2, #6	@,
 267 0056 0021     		movs	r1, #0	@,
 268              	.LBB73:
 269              	.LBB71:
 270              		.loc 3 104 0
 271 0058 7600     		lsls	r6, r6, #1	@ tmp145, tmp145,
 272              	.LBE71:
 273              	.LBE73:
  31:src/blink.c   **** 	Chip_GPIO_SetPinState(LPC_GPIO, port, pin, false);
 274              		.loc 1 31 0
 275 005a FFF7FEFF 		bl	Chip_GPIO_WriteDirBit	@
 276              	.LVL8:
ARM GAS  /tmp/ccZ3PTEI.s 			page 20


 277              	.LBB74:
 278              	.LBB72:
 279              		.loc 3 104 0
 280 005e BC51     		str	r4, [r7, r6]	@ tmp136, MEM[(struct LPC_GPIO_T *)1342177280B].DATA
 281              	.LVL9:
 282              	.LBE72:
 283              	.LBE74:
 284              	.LBE75:
 285              	.LBE81:
 286              	.LBB82:
 287              	.LBB83:
  31:src/blink.c   **** 	Chip_GPIO_SetPinState(LPC_GPIO, port, pin, false);
 288              		.loc 1 31 0
 289 0060 3800     		movs	r0, r7	@, tmp139
 290 0062 0123     		movs	r3, #1	@,
 291 0064 0722     		movs	r2, #7	@,
 292 0066 0021     		movs	r1, #0	@,
 293 0068 FFF7FEFF 		bl	Chip_GPIO_WriteDirBit	@
 294              	.LVL10:
 295              	.LBB84:
 296              	.LBB85:
 297              		.loc 3 104 0
 298 006c 8023     		movs	r3, #128	@ tmp149,
 299 006e 9B00     		lsls	r3, r3, #2	@ tmp149, tmp149,
 300 0070 FC50     		str	r4, [r7, r3]	@ tmp136, MEM[(struct LPC_GPIO_T *)1342177280B].DATA
 301              	.LVL11:
 302              	.LBE85:
 303              	.LBE84:
 304              	.LBE83:
 305              	.LBE82:
 306              	.LBB86:
 307              	.LBB87:
  31:src/blink.c   **** 	Chip_GPIO_SetPinState(LPC_GPIO, port, pin, false);
 308              		.loc 1 31 0
 309 0072 0221     		movs	r1, #2	@,
 310 0074 3800     		movs	r0, r7	@, tmp139
 311 0076 0123     		movs	r3, #1	@,
 312 0078 0922     		movs	r2, #9	@,
 313 007a FFF7FEFF 		bl	Chip_GPIO_WriteDirBit	@
 314              	.LVL12:
 315              	.LBB88:
 316              	.LBB89:
 317              		.loc 3 104 0
 318 007e 8023     		movs	r3, #128	@ tmp153,
 319 0080 4246     		mov	r2, r8	@ tmp140, tmp140
 320 0082 1B01     		lsls	r3, r3, #4	@ tmp153, tmp153,
 321 0084 D450     		str	r4, [r2, r3]	@ tmp136, MEM[(struct LPC_GPIO_T *)1342308352B].DATA
 322              	.LVL13:
 323              	.LBE89:
 324              	.LBE88:
 325              	.LBE87:
 326              	.LBE86:
 327              	.LBB90:
 328              	.LBB91:
  26:src/blink.c   **** 
 329              		.loc 1 26 0
 330 0086 3800     		movs	r0, r7	@, tmp139
ARM GAS  /tmp/ccZ3PTEI.s 			page 21


 331              	.LBE91:
 332              	.LBE90:
 333              	.LBB93:
 334              	.LBB94:
 335              	.LBB95:
 336              		.loc 3 104 0
 337 0088 4446     		mov	r4, r8	@ tmp156, tmp140
 338              	.LBE95:
 339              	.LBE94:
 340              	.LBE93:
 341              	.LBB98:
 342              	.LBB99:
 343              	.LBB100:
 344 008a 0027     		movs	r7, #0	@ tmp165,
 345              	.LBE100:
 346              	.LBE99:
 347              	.LBE98:
 348              	.LBB103:
 349              	.LBB92:
  26:src/blink.c   **** 
 350              		.loc 1 26 0
 351 008c FFF7FEFF 		bl	Chip_GPIO_Init	@
 352              	.LVL14:
 353 0090 0B4A     		ldr	r2, .L11+16	@ tmp170,
 354              	.LBE92:
 355              	.LBE103:
 356              	.LBB104:
 357              	.LBB105:
  20:src/blink.c   ****         diff = msTicks - startTime;
 358              		.loc 1 20 0
 359 0092 0C49     		ldr	r1, .L11+20	@ tmp162,
 360              	.L7:
 361              	.LVL15:
 362              	.LBE105:
 363              	.LBE104:
 364              	.LBB107:
 365              	.LBB97:
 366              	.LBB96:
 367              		.loc 3 104 0 discriminator 1
 368 0094 6651     		str	r6, [r4, r5]	@ MEM[(struct LPC_GPIO_T *)1342308352B].DATA, MEM[(struct LPC_GPIO_T *)1342308352
 369              	.LVL16:
 370              	.LBE96:
 371              	.LBE97:
 372              	.LBE107:
 373              	.LBB108:
 374              	.LBB106:
  18:src/blink.c   ****     uint32_t diff = 0;
 375              		.loc 1 18 0 discriminator 1
 376 0096 1068     		ldr	r0, [r2]	@ startTime, msTicks
 377              	.LVL17:
 378              	.L5:
  21:src/blink.c   ****     }
 379              		.loc 1 21 0
 380 0098 1368     		ldr	r3, [r2]	@ msTicks.3_16, msTicks
 381              	.LVL18:
 382 009a 1B1A     		subs	r3, r3, r0	@ diff, msTicks.3_16, startTime
 383              	.LVL19:
ARM GAS  /tmp/ccZ3PTEI.s 			page 22


  20:src/blink.c   ****         diff = msTicks - startTime;
 384              		.loc 1 20 0
 385 009c 8B42     		cmp	r3, r1	@ diff, tmp162
 386 009e FBD9     		bls	.L5	@,
 387              	.LVL20:
 388              	.LBE106:
 389              	.LBE108:
 390              	.LBB109:
 391              	.LBB102:
 392              	.LBB101:
 393              		.loc 3 104 0
 394 00a0 6751     		str	r7, [r4, r5]	@ tmp165, MEM[(struct LPC_GPIO_T *)1342308352B].DATA
 395              	.LVL21:
 396              	.LBE101:
 397              	.LBE102:
 398              	.LBE109:
 399              	.LBB110:
 400              	.LBB111:
  18:src/blink.c   ****     uint32_t diff = 0;
 401              		.loc 1 18 0
 402 00a2 1068     		ldr	r0, [r2]	@ startTime, msTicks
 403              	.LVL22:
 404              	.L6:
  21:src/blink.c   ****     }
 405              		.loc 1 21 0
 406 00a4 1368     		ldr	r3, [r2]	@ msTicks.3_12, msTicks
 407              	.LVL23:
 408 00a6 1B1A     		subs	r3, r3, r0	@ diff, msTicks.3_12, startTime
 409              	.LVL24:
  20:src/blink.c   ****         diff = msTicks - startTime;
 410              		.loc 1 20 0
 411 00a8 8B42     		cmp	r3, r1	@ diff, tmp162
 412 00aa FBD9     		bls	.L6	@,
 413 00ac F2E7     		b	.L7	@
 414              	.L12:
 415 00ae C046     		.align	2
 416              	.L11:
 417 00b0 00000000 		.word	SystemCoreClock
 418 00b4 10E000E0 		.word	-536813552
 419 00b8 00ED00E0 		.word	-536810240
 420 00bc 00000250 		.word	1342308352
 421 00c0 00000000 		.word	msTicks
 422 00c4 E7030000 		.word	999
 423              	.LBE111:
 424              	.LBE110:
 425              		.cfi_endproc
 426              	.LFE203:
 427              		.size	main, .-main
 428              		.comm	msTicks,4,4
 429              		.global	OscRateIn
 430              		.section	.rodata.OscRateIn,"a",%progbits
 431              		.align	2
 432              		.type	OscRateIn, %object
 433              		.size	OscRateIn, 4
 434              	OscRateIn:
 435 0000 001BB700 		.word	12000000
 436              		.text
ARM GAS  /tmp/ccZ3PTEI.s 			page 23


 437              	.Letext0:
 438              		.file 4 "/usr/arm-none-eabi/include/machine/_default_types.h"
 439              		.file 5 "/usr/arm-none-eabi/include/sys/_stdint.h"
 440              		.file 6 "../../lpc11cx4-library/lpc_chip_11cxx_lib/inc/cmsis_11cxx.h"
 441              		.file 7 "../../lpc11cx4-library/lpc_chip_11cxx_lib/inc/cmsis.h"
 442              		.file 8 "../../lpc11cx4-library/lpc_chip_11cxx_lib/inc/chip.h"