ARM GAS  /tmp/ccWjBr6x.s 			page 1


   1              		.cpu cortex-m0
   2              		.eabi_attribute 20, 1	@ Tag_ABI_FP_denormal
   3              		.eabi_attribute 21, 1	@ Tag_ABI_FP_exceptions
   4              		.eabi_attribute 23, 3	@ Tag_ABI_FP_number_model
   5              		.eabi_attribute 24, 1	@ Tag_ABI_align8_needed
   6              		.eabi_attribute 25, 1	@ Tag_ABI_align8_preserved
   7              		.eabi_attribute 26, 1	@ Tag_ABI_enum_size
   8              		.eabi_attribute 30, 2	@ Tag_ABI_optimization_goals
   9              		.eabi_attribute 34, 0	@ Tag_CPU_unaligned_access
  10              		.eabi_attribute 18, 4	@ Tag_ABI_PCS_wchar_t
  11              		.file	"clock_11xx.c"
  12              	@ GNU C89 (GNU Tools for ARM Embedded Processors) version 6.2.1 20161205 (release) [ARM/embedded-6-
  13              	@	compiled by GNU C version 5.4.0 20160609, GMP version 6.1.0, MPFR version 3.1.4, MPC version 1.0.
  14              	@ GGC heuristics: --param ggc-min-expand=100 --param ggc-min-heapsize=131072
  15              	@ options passed:  -I . -I ../../lpc11cx4-library/lpc_chip_11cxx_lib/inc
  16              	@ -imultilib thumb/v6-m -iprefix /usr/bin/../lib/gcc/arm-none-eabi/6.2.1/
  17              	@ -isysroot /usr/bin/../arm-none-eabi -MD bin/clock_11xx.d
  18              	@ -MF bin/clock_11xx.d -MP -MQ bin/clock_11xx.o -D__USES_INITFINI__
  19              	@ -D CORE_M0 ../../lpc11cx4-library/lpc_chip_11cxx_lib/src/clock_11xx.c
  20              	@ -mcpu=cortex-m0 -mthumb -auxbase-strip bin/clock_11xx.o -g -ggdb3 -O2
  21              	@ -Wall -Wstrict-prototypes -Wextra -std=gnu90 -ffunction-sections
  22              	@ -fdata-sections -fverbose-asm
  23              	@ options enabled:  -faggressive-loop-optimizations -falign-jumps
  24              	@ -falign-labels -falign-loops -fauto-inc-dec -fbranch-count-reg
  25              	@ -fcaller-saves -fchkp-check-incomplete-type -fchkp-check-read
  26              	@ -fchkp-check-write -fchkp-instrument-calls -fchkp-narrow-bounds
  27              	@ -fchkp-optimize -fchkp-store-bounds -fchkp-use-static-bounds
  28              	@ -fchkp-use-static-const-bounds -fchkp-use-wrappers
  29              	@ -fcombine-stack-adjustments -fcommon -fcompare-elim -fcprop-registers
  30              	@ -fcrossjumping -fcse-follow-jumps -fdata-sections -fdefer-pop
  31              	@ -fdelete-null-pointer-checks -fdevirtualize -fdevirtualize-speculatively
  32              	@ -fdwarf2-cfi-asm -fearly-inlining -feliminate-unused-debug-types
  33              	@ -fexpensive-optimizations -fforward-propagate -ffunction-cse
  34              	@ -ffunction-sections -fgcse -fgcse-lm -fgnu-runtime -fgnu-unique
  35              	@ -fguess-branch-probability -fhoist-adjacent-loads -fident -fif-conversion
  36              	@ -fif-conversion2 -findirect-inlining -finline -finline-atomics
  37              	@ -finline-functions-called-once -finline-small-functions -fipa-cp
  38              	@ -fipa-cp-alignment -fipa-icf -fipa-icf-functions -fipa-icf-variables
  39              	@ -fipa-profile -fipa-pure-const -fipa-reference -fipa-sra
  40              	@ -fira-hoist-pressure -fira-share-save-slots -fira-share-spill-slots
  41              	@ -fisolate-erroneous-paths-dereference -fivopts -fkeep-static-consts
  42              	@ -fleading-underscore -flifetime-dse -flra-remat -flto-odr-type-merging
  43              	@ -fmath-errno -fmerge-constants -fmerge-debug-strings
  44              	@ -fmove-loop-invariants -fomit-frame-pointer -foptimize-sibling-calls
  45              	@ -foptimize-strlen -fpartial-inlining -fpeephole -fpeephole2 -fplt
  46              	@ -fprefetch-loop-arrays -freg-struct-return -freorder-blocks
  47              	@ -freorder-functions -frerun-cse-after-loop
  48              	@ -fsched-critical-path-heuristic -fsched-dep-count-heuristic
  49              	@ -fsched-group-heuristic -fsched-interblock -fsched-last-insn-heuristic
  50              	@ -fsched-pressure -fsched-rank-heuristic -fsched-spec
  51              	@ -fsched-spec-insn-heuristic -fsched-stalled-insns-dep -fschedule-insns2
  52              	@ -fsection-anchors -fsemantic-interposition -fshow-column -fshrink-wrap
  53              	@ -fsigned-zeros -fsplit-ivs-in-unroller -fsplit-wide-types -fssa-backprop
  54              	@ -fssa-phiopt -fstdarg-opt -fstrict-aliasing -fstrict-overflow
  55              	@ -fstrict-volatile-bitfields -fsync-libcalls -fthread-jumps
  56              	@ -ftoplevel-reorder -ftrapping-math -ftree-bit-ccp -ftree-builtin-call-dce
  57              	@ -ftree-ccp -ftree-ch -ftree-coalesce-vars -ftree-copy-prop -ftree-cselim
ARM GAS  /tmp/ccWjBr6x.s 			page 2


  58              	@ -ftree-dce -ftree-dominator-opts -ftree-dse -ftree-forwprop -ftree-fre
  59              	@ -ftree-loop-if-convert -ftree-loop-im -ftree-loop-ivcanon
  60              	@ -ftree-loop-optimize -ftree-parallelize-loops= -ftree-phiprop -ftree-pre
  61              	@ -ftree-pta -ftree-reassoc -ftree-scev-cprop -ftree-sink -ftree-slsr
  62              	@ -ftree-sra -ftree-switch-conversion -ftree-tail-merge -ftree-ter
  63              	@ -ftree-vrp -funit-at-a-time -fvar-tracking -fvar-tracking-assignments
  64              	@ -fverbose-asm -fzero-initialized-in-bss -mlittle-endian
  65              	@ -mpic-data-is-text-relative -msched-prolog -mthumb
  66              	@ -mvectorize-with-neon-quad
  67              	
  68              		.text
  69              	.Ltext0:
  70              		.cfi_sections	.debug_frame
  71              		.section	.text.Chip_Clock_SetSystemPLLSource,"ax",%progbits
  72              		.align	1
  73              		.p2align 2,,3
  74              		.global	Chip_Clock_SetSystemPLLSource
  75              		.syntax unified
  76              		.code	16
  77              		.thumb_func
  78              		.fpu softvfp
  79              		.type	Chip_Clock_SetSystemPLLSource, %function
  80              	Chip_Clock_SetSystemPLLSource:
  81              	.LFB200:
  82              		.file 1 "../../lpc11cx4-library/lpc_chip_11cxx_lib/src/clock_11xx.c"
   1:../../lpc11cx4-library/lpc_chip_11cxx_lib/src/clock_11xx.c **** /*
   2:../../lpc11cx4-library/lpc_chip_11cxx_lib/src/clock_11xx.c ****  * @brief LPC11XX System clock control functions
   3:../../lpc11cx4-library/lpc_chip_11cxx_lib/src/clock_11xx.c ****  *
   4:../../lpc11cx4-library/lpc_chip_11cxx_lib/src/clock_11xx.c ****  * Copyright(C) NXP Semiconductors, 2012
   5:../../lpc11cx4-library/lpc_chip_11cxx_lib/src/clock_11xx.c ****  * All rights reserved.
   6:../../lpc11cx4-library/lpc_chip_11cxx_lib/src/clock_11xx.c ****  *
   7:../../lpc11cx4-library/lpc_chip_11cxx_lib/src/clock_11xx.c ****  * Software that is described herein is for illustrative purposes only
   8:../../lpc11cx4-library/lpc_chip_11cxx_lib/src/clock_11xx.c ****  * which provides customers with programming information regarding the
   9:../../lpc11cx4-library/lpc_chip_11cxx_lib/src/clock_11xx.c ****  * LPC products.  This software is supplied "AS IS" without any warranties of
  10:../../lpc11cx4-library/lpc_chip_11cxx_lib/src/clock_11xx.c ****  * any kind, and NXP Semiconductors and its licensor disclaim any and
  11:../../lpc11cx4-library/lpc_chip_11cxx_lib/src/clock_11xx.c ****  * all warranties, express or implied, including all implied warranties of
  12:../../lpc11cx4-library/lpc_chip_11cxx_lib/src/clock_11xx.c ****  * merchantability, fitness for a particular purpose and non-infringement of
  13:../../lpc11cx4-library/lpc_chip_11cxx_lib/src/clock_11xx.c ****  * intellectual property rights.  NXP Semiconductors assumes no responsibility
  14:../../lpc11cx4-library/lpc_chip_11cxx_lib/src/clock_11xx.c ****  * or liability for the use of the software, conveys no license or rights under any
  15:../../lpc11cx4-library/lpc_chip_11cxx_lib/src/clock_11xx.c ****  * patent, copyright, mask work right, or any other intellectual property rights in
  16:../../lpc11cx4-library/lpc_chip_11cxx_lib/src/clock_11xx.c ****  * or to any products. NXP Semiconductors reserves the right to make changes
  17:../../lpc11cx4-library/lpc_chip_11cxx_lib/src/clock_11xx.c ****  * in the software without notification. NXP Semiconductors also makes no
  18:../../lpc11cx4-library/lpc_chip_11cxx_lib/src/clock_11xx.c ****  * representation or warranty that such application will be suitable for the
  19:../../lpc11cx4-library/lpc_chip_11cxx_lib/src/clock_11xx.c ****  * specified use without further testing or modification.
  20:../../lpc11cx4-library/lpc_chip_11cxx_lib/src/clock_11xx.c ****  *
  21:../../lpc11cx4-library/lpc_chip_11cxx_lib/src/clock_11xx.c ****  * Permission to use, copy, modify, and distribute this software and its
  22:../../lpc11cx4-library/lpc_chip_11cxx_lib/src/clock_11xx.c ****  * documentation is hereby granted, under NXP Semiconductors' and its
  23:../../lpc11cx4-library/lpc_chip_11cxx_lib/src/clock_11xx.c ****  * licensor's relevant copyrights in the software, without fee, provided that it
  24:../../lpc11cx4-library/lpc_chip_11cxx_lib/src/clock_11xx.c ****  * is used in conjunction with NXP Semiconductors microcontrollers.  This
  25:../../lpc11cx4-library/lpc_chip_11cxx_lib/src/clock_11xx.c ****  * copyright, permission, and disclaimer notice must appear in all copies of
  26:../../lpc11cx4-library/lpc_chip_11cxx_lib/src/clock_11xx.c ****  * this code.
  27:../../lpc11cx4-library/lpc_chip_11cxx_lib/src/clock_11xx.c ****  */
  28:../../lpc11cx4-library/lpc_chip_11cxx_lib/src/clock_11xx.c **** 
  29:../../lpc11cx4-library/lpc_chip_11cxx_lib/src/clock_11xx.c **** #include "chip.h"
  30:../../lpc11cx4-library/lpc_chip_11cxx_lib/src/clock_11xx.c **** 
  31:../../lpc11cx4-library/lpc_chip_11cxx_lib/src/clock_11xx.c **** /*****************************************************************************
  32:../../lpc11cx4-library/lpc_chip_11cxx_lib/src/clock_11xx.c ****  * Private types/enumerations/variables
ARM GAS  /tmp/ccWjBr6x.s 			page 3


  33:../../lpc11cx4-library/lpc_chip_11cxx_lib/src/clock_11xx.c ****  ****************************************************************************/
  34:../../lpc11cx4-library/lpc_chip_11cxx_lib/src/clock_11xx.c **** 
  35:../../lpc11cx4-library/lpc_chip_11cxx_lib/src/clock_11xx.c **** /* Inprecise clock rates for the watchdog oscillator */
  36:../../lpc11cx4-library/lpc_chip_11cxx_lib/src/clock_11xx.c **** STATIC const uint32_t wdtOSCRate[WDTLFO_OSC_4_60 + 1] = {
  37:../../lpc11cx4-library/lpc_chip_11cxx_lib/src/clock_11xx.c **** 	0,					/* WDT_OSC_ILLEGAL */
  38:../../lpc11cx4-library/lpc_chip_11cxx_lib/src/clock_11xx.c **** 	600000,				/* WDT_OSC_0_60 */
  39:../../lpc11cx4-library/lpc_chip_11cxx_lib/src/clock_11xx.c **** 	1050000,			/* WDT_OSC_1_05 */
  40:../../lpc11cx4-library/lpc_chip_11cxx_lib/src/clock_11xx.c **** 	1400000,			/* WDT_OSC_1_40 */
  41:../../lpc11cx4-library/lpc_chip_11cxx_lib/src/clock_11xx.c **** 	1750000,			/* WDT_OSC_1_75 */
  42:../../lpc11cx4-library/lpc_chip_11cxx_lib/src/clock_11xx.c **** 	2100000,			/* WDT_OSC_2_10 */
  43:../../lpc11cx4-library/lpc_chip_11cxx_lib/src/clock_11xx.c **** 	2400000,			/* WDT_OSC_2_40 */
  44:../../lpc11cx4-library/lpc_chip_11cxx_lib/src/clock_11xx.c **** 	2700000,			/* WDT_OSC_2_70 */
  45:../../lpc11cx4-library/lpc_chip_11cxx_lib/src/clock_11xx.c **** 	3000000,			/* WDT_OSC_3_00 */
  46:../../lpc11cx4-library/lpc_chip_11cxx_lib/src/clock_11xx.c **** 	3250000,			/* WDT_OSC_3_25 */
  47:../../lpc11cx4-library/lpc_chip_11cxx_lib/src/clock_11xx.c **** 	3500000,			/* WDT_OSC_3_50 */
  48:../../lpc11cx4-library/lpc_chip_11cxx_lib/src/clock_11xx.c **** 	3750000,			/* WDT_OSC_3_75 */
  49:../../lpc11cx4-library/lpc_chip_11cxx_lib/src/clock_11xx.c **** 	4000000,			/* WDT_OSC_4_00 */
  50:../../lpc11cx4-library/lpc_chip_11cxx_lib/src/clock_11xx.c **** 	4200000,			/* WDT_OSC_4_20 */
  51:../../lpc11cx4-library/lpc_chip_11cxx_lib/src/clock_11xx.c **** 	4400000,			/* WDT_OSC_4_40 */
  52:../../lpc11cx4-library/lpc_chip_11cxx_lib/src/clock_11xx.c **** 	4600000				/* WDT_OSC_4_60 */
  53:../../lpc11cx4-library/lpc_chip_11cxx_lib/src/clock_11xx.c **** };
  54:../../lpc11cx4-library/lpc_chip_11cxx_lib/src/clock_11xx.c **** 
  55:../../lpc11cx4-library/lpc_chip_11cxx_lib/src/clock_11xx.c **** /*****************************************************************************
  56:../../lpc11cx4-library/lpc_chip_11cxx_lib/src/clock_11xx.c ****  * Public types/enumerations/variables
  57:../../lpc11cx4-library/lpc_chip_11cxx_lib/src/clock_11xx.c ****  ****************************************************************************/
  58:../../lpc11cx4-library/lpc_chip_11cxx_lib/src/clock_11xx.c **** 
  59:../../lpc11cx4-library/lpc_chip_11cxx_lib/src/clock_11xx.c **** /*****************************************************************************
  60:../../lpc11cx4-library/lpc_chip_11cxx_lib/src/clock_11xx.c ****  * Private functions
  61:../../lpc11cx4-library/lpc_chip_11cxx_lib/src/clock_11xx.c ****  ****************************************************************************/
  62:../../lpc11cx4-library/lpc_chip_11cxx_lib/src/clock_11xx.c **** 
  63:../../lpc11cx4-library/lpc_chip_11cxx_lib/src/clock_11xx.c **** /* Compute a WDT or LFO rate */
  64:../../lpc11cx4-library/lpc_chip_11cxx_lib/src/clock_11xx.c **** STATIC uint32_t Chip_Clock_GetWDTLFORate(uint32_t reg)
  65:../../lpc11cx4-library/lpc_chip_11cxx_lib/src/clock_11xx.c **** {
  66:../../lpc11cx4-library/lpc_chip_11cxx_lib/src/clock_11xx.c **** 	uint32_t div;
  67:../../lpc11cx4-library/lpc_chip_11cxx_lib/src/clock_11xx.c **** 	CHIP_WDTLFO_OSC_T clk;
  68:../../lpc11cx4-library/lpc_chip_11cxx_lib/src/clock_11xx.c **** 
  69:../../lpc11cx4-library/lpc_chip_11cxx_lib/src/clock_11xx.c **** 	/* Get WDT oscillator settings */
  70:../../lpc11cx4-library/lpc_chip_11cxx_lib/src/clock_11xx.c **** 	clk = (CHIP_WDTLFO_OSC_T) ((reg >> 5) & 0xF);
  71:../../lpc11cx4-library/lpc_chip_11cxx_lib/src/clock_11xx.c **** 	div = reg & 0x1F;
  72:../../lpc11cx4-library/lpc_chip_11cxx_lib/src/clock_11xx.c **** 
  73:../../lpc11cx4-library/lpc_chip_11cxx_lib/src/clock_11xx.c **** 	/* Compute clock rate and divided by divde value */
  74:../../lpc11cx4-library/lpc_chip_11cxx_lib/src/clock_11xx.c **** 	return wdtOSCRate[clk] / ((div + 1) << 1);
  75:../../lpc11cx4-library/lpc_chip_11cxx_lib/src/clock_11xx.c **** }
  76:../../lpc11cx4-library/lpc_chip_11cxx_lib/src/clock_11xx.c **** 
  77:../../lpc11cx4-library/lpc_chip_11cxx_lib/src/clock_11xx.c **** /* Compute a PLL frequency */
  78:../../lpc11cx4-library/lpc_chip_11cxx_lib/src/clock_11xx.c **** STATIC uint32_t Chip_Clock_GetPLLFreq(uint32_t PLLReg, uint32_t inputRate)
  79:../../lpc11cx4-library/lpc_chip_11cxx_lib/src/clock_11xx.c **** {
  80:../../lpc11cx4-library/lpc_chip_11cxx_lib/src/clock_11xx.c **** 	uint32_t msel = ((PLLReg & 0x1F) + 1);
  81:../../lpc11cx4-library/lpc_chip_11cxx_lib/src/clock_11xx.c **** 
  82:../../lpc11cx4-library/lpc_chip_11cxx_lib/src/clock_11xx.c **** 	return inputRate * msel;
  83:../../lpc11cx4-library/lpc_chip_11cxx_lib/src/clock_11xx.c **** }
  84:../../lpc11cx4-library/lpc_chip_11cxx_lib/src/clock_11xx.c **** 
  85:../../lpc11cx4-library/lpc_chip_11cxx_lib/src/clock_11xx.c **** /*****************************************************************************
  86:../../lpc11cx4-library/lpc_chip_11cxx_lib/src/clock_11xx.c ****  * Public functions
  87:../../lpc11cx4-library/lpc_chip_11cxx_lib/src/clock_11xx.c ****  ****************************************************************************/
  88:../../lpc11cx4-library/lpc_chip_11cxx_lib/src/clock_11xx.c **** 
  89:../../lpc11cx4-library/lpc_chip_11cxx_lib/src/clock_11xx.c **** /* Set System PLL clock source */
ARM GAS  /tmp/ccWjBr6x.s 			page 4


  90:../../lpc11cx4-library/lpc_chip_11cxx_lib/src/clock_11xx.c **** void Chip_Clock_SetSystemPLLSource(CHIP_SYSCTL_PLLCLKSRC_T src)
  91:../../lpc11cx4-library/lpc_chip_11cxx_lib/src/clock_11xx.c **** {
  83              		.loc 1 91 0
  84              		.cfi_startproc
  85              		@ args = 0, pretend = 0, frame = 0
  86              		@ frame_needed = 0, uses_anonymous_args = 0
  87              		@ link register save eliminated.
  88              	.LVL0:
  92:../../lpc11cx4-library/lpc_chip_11cxx_lib/src/clock_11xx.c **** 	LPC_SYSCTL->SYSPLLCLKSEL  = (uint32_t) src;
  93:../../lpc11cx4-library/lpc_chip_11cxx_lib/src/clock_11xx.c **** 	LPC_SYSCTL->SYSPLLCLKUEN  = 0;
  89              		.loc 1 93 0
  90 0000 0022     		movs	r2, #0	@ tmp114,
  92:../../lpc11cx4-library/lpc_chip_11cxx_lib/src/clock_11xx.c **** 	LPC_SYSCTL->SYSPLLCLKSEL  = (uint32_t) src;
  91              		.loc 1 92 0
  92 0002 034B     		ldr	r3, .L2	@ tmp112,
  94:../../lpc11cx4-library/lpc_chip_11cxx_lib/src/clock_11xx.c **** 	LPC_SYSCTL->SYSPLLCLKUEN  = 1;
  95:../../lpc11cx4-library/lpc_chip_11cxx_lib/src/clock_11xx.c **** }
  93              		.loc 1 95 0
  94              		@ sp needed	@
  92:../../lpc11cx4-library/lpc_chip_11cxx_lib/src/clock_11xx.c **** 	LPC_SYSCTL->SYSPLLCLKSEL  = (uint32_t) src;
  95              		.loc 1 92 0
  96 0004 1864     		str	r0, [r3, #64]	@ src, MEM[(struct LPC_SYSCTL_T *)1074036736B].SYSPLLCLKSEL
  93:../../lpc11cx4-library/lpc_chip_11cxx_lib/src/clock_11xx.c **** 	LPC_SYSCTL->SYSPLLCLKUEN  = 1;
  97              		.loc 1 93 0
  98 0006 5A64     		str	r2, [r3, #68]	@ tmp114, MEM[(struct LPC_SYSCTL_T *)1074036736B].SYSPLLCLKUEN
  94:../../lpc11cx4-library/lpc_chip_11cxx_lib/src/clock_11xx.c **** 	LPC_SYSCTL->SYSPLLCLKUEN  = 1;
  99              		.loc 1 94 0
 100 0008 0132     		adds	r2, r2, #1	@ tmp116,
 101 000a 5A64     		str	r2, [r3, #68]	@ tmp116, MEM[(struct LPC_SYSCTL_T *)1074036736B].SYSPLLCLKUEN
 102              		.loc 1 95 0
 103 000c 7047     		bx	lr
 104              	.L3:
 105 000e C046     		.align	2
 106              	.L2:
 107 0010 00800440 		.word	1074036736
 108              		.cfi_endproc
 109              	.LFE200:
 110              		.size	Chip_Clock_SetSystemPLLSource, .-Chip_Clock_SetSystemPLLSource
 111              		.section	.text.Chip_Clock_SetPLLBypass,"ax",%progbits
 112              		.align	1
 113              		.p2align 2,,3
 114              		.global	Chip_Clock_SetPLLBypass
 115              		.syntax unified
 116              		.code	16
 117              		.thumb_func
 118              		.fpu softvfp
 119              		.type	Chip_Clock_SetPLLBypass, %function
 120              	Chip_Clock_SetPLLBypass:
 121              	.LFB201:
  96:../../lpc11cx4-library/lpc_chip_11cxx_lib/src/clock_11xx.c **** 
  97:../../lpc11cx4-library/lpc_chip_11cxx_lib/src/clock_11xx.c **** /* Bypass System Oscillator and set oscillator frequency range */
  98:../../lpc11cx4-library/lpc_chip_11cxx_lib/src/clock_11xx.c **** void Chip_Clock_SetPLLBypass(bool bypass, bool highfr)
  99:../../lpc11cx4-library/lpc_chip_11cxx_lib/src/clock_11xx.c **** {
 122              		.loc 1 99 0
 123              		.cfi_startproc
 124              		@ args = 0, pretend = 0, frame = 0
 125              		@ frame_needed = 0, uses_anonymous_args = 0
ARM GAS  /tmp/ccWjBr6x.s 			page 5


 126              		@ link register save eliminated.
 127              	.LVL1:
 100:../../lpc11cx4-library/lpc_chip_11cxx_lib/src/clock_11xx.c **** 	uint32_t ctrl = 0;
 101:../../lpc11cx4-library/lpc_chip_11cxx_lib/src/clock_11xx.c **** 
 102:../../lpc11cx4-library/lpc_chip_11cxx_lib/src/clock_11xx.c **** 	if (bypass) {
 103:../../lpc11cx4-library/lpc_chip_11cxx_lib/src/clock_11xx.c **** 		ctrl |= (1 << 0);
 104:../../lpc11cx4-library/lpc_chip_11cxx_lib/src/clock_11xx.c **** 	}
 105:../../lpc11cx4-library/lpc_chip_11cxx_lib/src/clock_11xx.c **** 	if (highfr) {
 128              		.loc 1 105 0
 129 0000 0029     		cmp	r1, #0	@ highfr,
 130 0002 01D0     		beq	.L5	@,
 106:../../lpc11cx4-library/lpc_chip_11cxx_lib/src/clock_11xx.c **** 		ctrl |= (1 << 1);
 131              		.loc 1 106 0
 132 0004 0223     		movs	r3, #2	@ tmp113,
 133 0006 1843     		orrs	r0, r3	@ ctrl, tmp113
 134              	.LVL2:
 135              	.L5:
 107:../../lpc11cx4-library/lpc_chip_11cxx_lib/src/clock_11xx.c **** 	}
 108:../../lpc11cx4-library/lpc_chip_11cxx_lib/src/clock_11xx.c **** 
 109:../../lpc11cx4-library/lpc_chip_11cxx_lib/src/clock_11xx.c **** 	LPC_SYSCTL->SYSOSCCTRL = ctrl;
 136              		.loc 1 109 0
 137 0008 014B     		ldr	r3, .L10	@ tmp114,
 110:../../lpc11cx4-library/lpc_chip_11cxx_lib/src/clock_11xx.c **** }
 138              		.loc 1 110 0
 139              		@ sp needed	@
 109:../../lpc11cx4-library/lpc_chip_11cxx_lib/src/clock_11xx.c **** }
 140              		.loc 1 109 0
 141 000a 1862     		str	r0, [r3, #32]	@ ctrl, MEM[(struct LPC_SYSCTL_T *)1074036736B].SYSOSCCTRL
 142              		.loc 1 110 0
 143 000c 7047     		bx	lr
 144              	.L11:
 145 000e C046     		.align	2
 146              	.L10:
 147 0010 00800440 		.word	1074036736
 148              		.cfi_endproc
 149              	.LFE201:
 150              		.size	Chip_Clock_SetPLLBypass, .-Chip_Clock_SetPLLBypass
 151              		.section	.text.Chip_Clock_SetMainClockSource,"ax",%progbits
 152              		.align	1
 153              		.p2align 2,,3
 154              		.global	Chip_Clock_SetMainClockSource
 155              		.syntax unified
 156              		.code	16
 157              		.thumb_func
 158              		.fpu softvfp
 159              		.type	Chip_Clock_SetMainClockSource, %function
 160              	Chip_Clock_SetMainClockSource:
 161              	.LFB202:
 111:../../lpc11cx4-library/lpc_chip_11cxx_lib/src/clock_11xx.c **** 
 112:../../lpc11cx4-library/lpc_chip_11cxx_lib/src/clock_11xx.c **** #if defined(CHIP_LPC11UXX)
 113:../../lpc11cx4-library/lpc_chip_11cxx_lib/src/clock_11xx.c **** /* Set USB PLL clock source */
 114:../../lpc11cx4-library/lpc_chip_11cxx_lib/src/clock_11xx.c **** void Chip_Clock_SetUSBPLLSource(CHIP_SYSCTL_PLLCLKSRC_T src)
 115:../../lpc11cx4-library/lpc_chip_11cxx_lib/src/clock_11xx.c **** {
 116:../../lpc11cx4-library/lpc_chip_11cxx_lib/src/clock_11xx.c **** 	LPC_SYSCTL->USBPLLCLKSEL  = (uint32_t) src;
 117:../../lpc11cx4-library/lpc_chip_11cxx_lib/src/clock_11xx.c **** 	LPC_SYSCTL->USBPLLCLKUEN  = 0;
 118:../../lpc11cx4-library/lpc_chip_11cxx_lib/src/clock_11xx.c **** 	LPC_SYSCTL->USBPLLCLKUEN  = 1;
 119:../../lpc11cx4-library/lpc_chip_11cxx_lib/src/clock_11xx.c **** }
ARM GAS  /tmp/ccWjBr6x.s 			page 6


 120:../../lpc11cx4-library/lpc_chip_11cxx_lib/src/clock_11xx.c **** 
 121:../../lpc11cx4-library/lpc_chip_11cxx_lib/src/clock_11xx.c **** #endif
 122:../../lpc11cx4-library/lpc_chip_11cxx_lib/src/clock_11xx.c **** 
 123:../../lpc11cx4-library/lpc_chip_11cxx_lib/src/clock_11xx.c **** /* Set main system clock source */
 124:../../lpc11cx4-library/lpc_chip_11cxx_lib/src/clock_11xx.c **** void Chip_Clock_SetMainClockSource(CHIP_SYSCTL_MAINCLKSRC_T src)
 125:../../lpc11cx4-library/lpc_chip_11cxx_lib/src/clock_11xx.c **** {
 162              		.loc 1 125 0
 163              		.cfi_startproc
 164              		@ args = 0, pretend = 0, frame = 0
 165              		@ frame_needed = 0, uses_anonymous_args = 0
 166              		@ link register save eliminated.
 167              	.LVL3:
 126:../../lpc11cx4-library/lpc_chip_11cxx_lib/src/clock_11xx.c **** 	LPC_SYSCTL->MAINCLKSEL  = (uint32_t) src;
 127:../../lpc11cx4-library/lpc_chip_11cxx_lib/src/clock_11xx.c **** 	LPC_SYSCTL->MAINCLKUEN  = 0;
 168              		.loc 1 127 0
 169 0000 0022     		movs	r2, #0	@ tmp114,
 126:../../lpc11cx4-library/lpc_chip_11cxx_lib/src/clock_11xx.c **** 	LPC_SYSCTL->MAINCLKSEL  = (uint32_t) src;
 170              		.loc 1 126 0
 171 0002 034B     		ldr	r3, .L13	@ tmp112,
 128:../../lpc11cx4-library/lpc_chip_11cxx_lib/src/clock_11xx.c **** 	LPC_SYSCTL->MAINCLKUEN  = 1;
 129:../../lpc11cx4-library/lpc_chip_11cxx_lib/src/clock_11xx.c **** }
 172              		.loc 1 129 0
 173              		@ sp needed	@
 126:../../lpc11cx4-library/lpc_chip_11cxx_lib/src/clock_11xx.c **** 	LPC_SYSCTL->MAINCLKSEL  = (uint32_t) src;
 174              		.loc 1 126 0
 175 0004 1867     		str	r0, [r3, #112]	@ src, MEM[(struct LPC_SYSCTL_T *)1074036736B].MAINCLKSEL
 127:../../lpc11cx4-library/lpc_chip_11cxx_lib/src/clock_11xx.c **** 	LPC_SYSCTL->MAINCLKUEN  = 1;
 176              		.loc 1 127 0
 177 0006 5A67     		str	r2, [r3, #116]	@ tmp114, MEM[(struct LPC_SYSCTL_T *)1074036736B].MAINCLKUEN
 128:../../lpc11cx4-library/lpc_chip_11cxx_lib/src/clock_11xx.c **** 	LPC_SYSCTL->MAINCLKUEN  = 1;
 178              		.loc 1 128 0
 179 0008 0132     		adds	r2, r2, #1	@ tmp116,
 180 000a 5A67     		str	r2, [r3, #116]	@ tmp116, MEM[(struct LPC_SYSCTL_T *)1074036736B].MAINCLKUEN
 181              		.loc 1 129 0
 182 000c 7047     		bx	lr
 183              	.L14:
 184 000e C046     		.align	2
 185              	.L13:
 186 0010 00800440 		.word	1074036736
 187              		.cfi_endproc
 188              	.LFE202:
 189              		.size	Chip_Clock_SetMainClockSource, .-Chip_Clock_SetMainClockSource
 190              		.section	.text.Chip_Clock_SetWDTClockSource,"ax",%progbits
 191              		.align	1
 192              		.p2align 2,,3
 193              		.global	Chip_Clock_SetWDTClockSource
 194              		.syntax unified
 195              		.code	16
 196              		.thumb_func
 197              		.fpu softvfp
 198              		.type	Chip_Clock_SetWDTClockSource, %function
 199              	Chip_Clock_SetWDTClockSource:
 200              	.LFB203:
 130:../../lpc11cx4-library/lpc_chip_11cxx_lib/src/clock_11xx.c **** 
 131:../../lpc11cx4-library/lpc_chip_11cxx_lib/src/clock_11xx.c **** #if defined(CHIP_LPC11UXX)
 132:../../lpc11cx4-library/lpc_chip_11cxx_lib/src/clock_11xx.c **** /* Set USB clock source and divider */
 133:../../lpc11cx4-library/lpc_chip_11cxx_lib/src/clock_11xx.c **** void Chip_Clock_SetUSBClockSource(CHIP_SYSCTL_USBCLKSRC_T src, uint32_t div)
ARM GAS  /tmp/ccWjBr6x.s 			page 7


 134:../../lpc11cx4-library/lpc_chip_11cxx_lib/src/clock_11xx.c **** {
 135:../../lpc11cx4-library/lpc_chip_11cxx_lib/src/clock_11xx.c **** 	LPC_SYSCTL->USBCLKSEL = (uint32_t) src;
 136:../../lpc11cx4-library/lpc_chip_11cxx_lib/src/clock_11xx.c **** 	LPC_SYSCTL->USBCLKUEN = 0;
 137:../../lpc11cx4-library/lpc_chip_11cxx_lib/src/clock_11xx.c **** 	LPC_SYSCTL->USBCLKUEN = 1;
 138:../../lpc11cx4-library/lpc_chip_11cxx_lib/src/clock_11xx.c **** 	LPC_SYSCTL->USBCLKDIV = div;
 139:../../lpc11cx4-library/lpc_chip_11cxx_lib/src/clock_11xx.c **** }
 140:../../lpc11cx4-library/lpc_chip_11cxx_lib/src/clock_11xx.c **** 
 141:../../lpc11cx4-library/lpc_chip_11cxx_lib/src/clock_11xx.c **** #endif /*CHIP_LPC11UXX*/
 142:../../lpc11cx4-library/lpc_chip_11cxx_lib/src/clock_11xx.c **** 
 143:../../lpc11cx4-library/lpc_chip_11cxx_lib/src/clock_11xx.c **** #if defined(CHIP_LPC110X) || defined(CHIP_LPC11XXLV) || defined(CHIP_LPC11CXX) || defined(CHIP_LPC1
 144:../../lpc11cx4-library/lpc_chip_11cxx_lib/src/clock_11xx.c **** /* Set WDT clock source and divider */
 145:../../lpc11cx4-library/lpc_chip_11cxx_lib/src/clock_11xx.c **** void Chip_Clock_SetWDTClockSource(CHIP_SYSCTL_WDTCLKSRC_T src, uint32_t div)
 146:../../lpc11cx4-library/lpc_chip_11cxx_lib/src/clock_11xx.c **** {
 201              		.loc 1 146 0
 202              		.cfi_startproc
 203              		@ args = 0, pretend = 0, frame = 0
 204              		@ frame_needed = 0, uses_anonymous_args = 0
 205              		@ link register save eliminated.
 206              	.LVL4:
 147:../../lpc11cx4-library/lpc_chip_11cxx_lib/src/clock_11xx.c **** 	LPC_SYSCTL->WDTCLKSEL = (uint32_t) src;
 207              		.loc 1 147 0
 208 0000 D022     		movs	r2, #208	@ tmp114,
 209 0002 054B     		ldr	r3, .L16	@ tmp113,
 148:../../lpc11cx4-library/lpc_chip_11cxx_lib/src/clock_11xx.c **** 	LPC_SYSCTL->WDTCLKUEN = 0;
 149:../../lpc11cx4-library/lpc_chip_11cxx_lib/src/clock_11xx.c **** 	LPC_SYSCTL->WDTCLKUEN = 1;
 150:../../lpc11cx4-library/lpc_chip_11cxx_lib/src/clock_11xx.c **** 	LPC_SYSCTL->WDTCLKDIV = div;
 151:../../lpc11cx4-library/lpc_chip_11cxx_lib/src/clock_11xx.c **** }
 210              		.loc 1 151 0
 211              		@ sp needed	@
 147:../../lpc11cx4-library/lpc_chip_11cxx_lib/src/clock_11xx.c **** 	LPC_SYSCTL->WDTCLKSEL = (uint32_t) src;
 212              		.loc 1 147 0
 213 0004 9850     		str	r0, [r3, r2]	@ src, MEM[(struct LPC_SYSCTL_T *)1074036736B].WDTCLKSEL
 148:../../lpc11cx4-library/lpc_chip_11cxx_lib/src/clock_11xx.c **** 	LPC_SYSCTL->WDTCLKUEN = 0;
 214              		.loc 1 148 0
 215 0006 0020     		movs	r0, #0	@ tmp117,
 216              	.LVL5:
 217 0008 0432     		adds	r2, r2, #4	@ tmp116,
 218 000a 9850     		str	r0, [r3, r2]	@ tmp117, MEM[(struct LPC_SYSCTL_T *)1074036736B].WDTCLKUEN
 149:../../lpc11cx4-library/lpc_chip_11cxx_lib/src/clock_11xx.c **** 	LPC_SYSCTL->WDTCLKDIV = div;
 219              		.loc 1 149 0
 220 000c 0130     		adds	r0, r0, #1	@ tmp120,
 221 000e 9850     		str	r0, [r3, r2]	@ tmp120, MEM[(struct LPC_SYSCTL_T *)1074036736B].WDTCLKUEN
 150:../../lpc11cx4-library/lpc_chip_11cxx_lib/src/clock_11xx.c **** }
 222              		.loc 1 150 0
 223 0010 0432     		adds	r2, r2, #4	@ tmp122,
 224 0012 9950     		str	r1, [r3, r2]	@ div, MEM[(struct LPC_SYSCTL_T *)1074036736B].WDTCLKDIV
 225              		.loc 1 151 0
 226 0014 7047     		bx	lr
 227              	.L17:
 228 0016 C046     		.align	2
 229              	.L16:
 230 0018 00800440 		.word	1074036736
 231              		.cfi_endproc
 232              	.LFE203:
 233              		.size	Chip_Clock_SetWDTClockSource, .-Chip_Clock_SetWDTClockSource
 234              		.section	.text.Chip_Clock_SetCLKOUTSource,"ax",%progbits
 235              		.align	1
ARM GAS  /tmp/ccWjBr6x.s 			page 8


 236              		.p2align 2,,3
 237              		.global	Chip_Clock_SetCLKOUTSource
 238              		.syntax unified
 239              		.code	16
 240              		.thumb_func
 241              		.fpu softvfp
 242              		.type	Chip_Clock_SetCLKOUTSource, %function
 243              	Chip_Clock_SetCLKOUTSource:
 244              	.LFB204:
 152:../../lpc11cx4-library/lpc_chip_11cxx_lib/src/clock_11xx.c **** 
 153:../../lpc11cx4-library/lpc_chip_11cxx_lib/src/clock_11xx.c **** #endif
 154:../../lpc11cx4-library/lpc_chip_11cxx_lib/src/clock_11xx.c **** 
 155:../../lpc11cx4-library/lpc_chip_11cxx_lib/src/clock_11xx.c **** #if !defined(CHIP_LPC110X)
 156:../../lpc11cx4-library/lpc_chip_11cxx_lib/src/clock_11xx.c **** /* Set CLKOUT clock source and divider */
 157:../../lpc11cx4-library/lpc_chip_11cxx_lib/src/clock_11xx.c **** void Chip_Clock_SetCLKOUTSource(CHIP_SYSCTL_CLKOUTSRC_T src, uint32_t div)
 158:../../lpc11cx4-library/lpc_chip_11cxx_lib/src/clock_11xx.c **** {
 245              		.loc 1 158 0
 246              		.cfi_startproc
 247              		@ args = 0, pretend = 0, frame = 0
 248              		@ frame_needed = 0, uses_anonymous_args = 0
 249              		@ link register save eliminated.
 250              	.LVL6:
 159:../../lpc11cx4-library/lpc_chip_11cxx_lib/src/clock_11xx.c **** 	LPC_SYSCTL->CLKOUTSEL = (uint32_t) src;
 251              		.loc 1 159 0
 252 0000 E022     		movs	r2, #224	@ tmp114,
 253 0002 054B     		ldr	r3, .L19	@ tmp113,
 160:../../lpc11cx4-library/lpc_chip_11cxx_lib/src/clock_11xx.c **** 	LPC_SYSCTL->CLKOUTUEN = 0;
 161:../../lpc11cx4-library/lpc_chip_11cxx_lib/src/clock_11xx.c **** 	LPC_SYSCTL->CLKOUTUEN = 1;
 162:../../lpc11cx4-library/lpc_chip_11cxx_lib/src/clock_11xx.c **** 	LPC_SYSCTL->CLKOUTDIV = div;
 163:../../lpc11cx4-library/lpc_chip_11cxx_lib/src/clock_11xx.c **** }
 254              		.loc 1 163 0
 255              		@ sp needed	@
 159:../../lpc11cx4-library/lpc_chip_11cxx_lib/src/clock_11xx.c **** 	LPC_SYSCTL->CLKOUTSEL = (uint32_t) src;
 256              		.loc 1 159 0
 257 0004 9850     		str	r0, [r3, r2]	@ src, MEM[(struct LPC_SYSCTL_T *)1074036736B].CLKOUTSEL
 160:../../lpc11cx4-library/lpc_chip_11cxx_lib/src/clock_11xx.c **** 	LPC_SYSCTL->CLKOUTUEN = 0;
 258              		.loc 1 160 0
 259 0006 0020     		movs	r0, #0	@ tmp117,
 260              	.LVL7:
 261 0008 0432     		adds	r2, r2, #4	@ tmp116,
 262 000a 9850     		str	r0, [r3, r2]	@ tmp117, MEM[(struct LPC_SYSCTL_T *)1074036736B].CLKOUTUEN
 161:../../lpc11cx4-library/lpc_chip_11cxx_lib/src/clock_11xx.c **** 	LPC_SYSCTL->CLKOUTDIV = div;
 263              		.loc 1 161 0
 264 000c 0130     		adds	r0, r0, #1	@ tmp120,
 265 000e 9850     		str	r0, [r3, r2]	@ tmp120, MEM[(struct LPC_SYSCTL_T *)1074036736B].CLKOUTUEN
 162:../../lpc11cx4-library/lpc_chip_11cxx_lib/src/clock_11xx.c **** }
 266              		.loc 1 162 0
 267 0010 0432     		adds	r2, r2, #4	@ tmp122,
 268 0012 9950     		str	r1, [r3, r2]	@ div, MEM[(struct LPC_SYSCTL_T *)1074036736B].CLKOUTDIV
 269              		.loc 1 163 0
 270 0014 7047     		bx	lr
 271              	.L20:
 272 0016 C046     		.align	2
 273              	.L19:
 274 0018 00800440 		.word	1074036736
 275              		.cfi_endproc
 276              	.LFE204:
ARM GAS  /tmp/ccWjBr6x.s 			page 9


 277              		.size	Chip_Clock_SetCLKOUTSource, .-Chip_Clock_SetCLKOUTSource
 278              		.global	__aeabi_uidiv
 279              		.section	.text.Chip_Clock_GetWDTOSCRate,"ax",%progbits
 280              		.align	1
 281              		.p2align 2,,3
 282              		.global	Chip_Clock_GetWDTOSCRate
 283              		.syntax unified
 284              		.code	16
 285              		.thumb_func
 286              		.fpu softvfp
 287              		.type	Chip_Clock_GetWDTOSCRate, %function
 288              	Chip_Clock_GetWDTOSCRate:
 289              	.LFB205:
 164:../../lpc11cx4-library/lpc_chip_11cxx_lib/src/clock_11xx.c **** 
 165:../../lpc11cx4-library/lpc_chip_11cxx_lib/src/clock_11xx.c **** #endif
 166:../../lpc11cx4-library/lpc_chip_11cxx_lib/src/clock_11xx.c **** 
 167:../../lpc11cx4-library/lpc_chip_11cxx_lib/src/clock_11xx.c **** /* Return estimated watchdog oscillator rate */
 168:../../lpc11cx4-library/lpc_chip_11cxx_lib/src/clock_11xx.c **** uint32_t Chip_Clock_GetWDTOSCRate(void)
 169:../../lpc11cx4-library/lpc_chip_11cxx_lib/src/clock_11xx.c **** {
 290              		.loc 1 169 0
 291              		.cfi_startproc
 292              		@ args = 0, pretend = 0, frame = 0
 293              		@ frame_needed = 0, uses_anonymous_args = 0
 294              	.LBB48:
 295              	.LBB49:
  71:../../lpc11cx4-library/lpc_chip_11cxx_lib/src/clock_11xx.c **** 
 296              		.loc 1 71 0
 297 0000 1F21     		movs	r1, #31	@ tmp131,
 298              	.LBE49:
 299              	.LBE48:
 170:../../lpc11cx4-library/lpc_chip_11cxx_lib/src/clock_11xx.c **** 	return Chip_Clock_GetWDTLFORate(LPC_SYSCTL->WDTOSCCTRL);
 300              		.loc 1 170 0
 301 0002 074B     		ldr	r3, .L22	@ tmp120,
 169:../../lpc11cx4-library/lpc_chip_11cxx_lib/src/clock_11xx.c **** 	return Chip_Clock_GetWDTLFORate(LPC_SYSCTL->WDTOSCCTRL);
 302              		.loc 1 169 0
 303 0004 10B5     		push	{r4, lr}	@
 304              		.cfi_def_cfa_offset 8
 305              		.cfi_offset 4, -8
 306              		.cfi_offset 14, -4
 307              		.loc 1 170 0
 308 0006 5A6A     		ldr	r2, [r3, #36]	@ _2, MEM[(struct LPC_SYSCTL_T *)1074036736B].WDTOSCCTRL
 171:../../lpc11cx4-library/lpc_chip_11cxx_lib/src/clock_11xx.c **** }
 309              		.loc 1 171 0
 310              		@ sp needed	@
 311              	.LBB51:
 312              	.LBB50:
  70:../../lpc11cx4-library/lpc_chip_11cxx_lib/src/clock_11xx.c **** 	div = reg & 0x1F;
 313              		.loc 1 70 0
 314 0008 D305     		lsls	r3, r2, #23	@ tmp128, _2,
  71:../../lpc11cx4-library/lpc_chip_11cxx_lib/src/clock_11xx.c **** 
 315              		.loc 1 71 0
 316 000a 1140     		ands	r1, r2	@ div, _2
  74:../../lpc11cx4-library/lpc_chip_11cxx_lib/src/clock_11xx.c **** }
 317              		.loc 1 74 0
 318 000c 1B0F     		lsrs	r3, r3, #28	@ tmp129, tmp128,
 319 000e 054A     		ldr	r2, .L22+4	@ tmp122,
 320 0010 9B00     		lsls	r3, r3, #2	@ tmp130, tmp129,
ARM GAS  /tmp/ccWjBr6x.s 			page 10


 321 0012 0131     		adds	r1, r1, #1	@ tmp133,
 322 0014 4900     		lsls	r1, r1, #1	@ tmp134, tmp133,
 323 0016 9858     		ldr	r0, [r3, r2]	@, wdtOSCRate
 324 0018 FFF7FEFF 		bl	__aeabi_uidiv	@
 325              	.LVL8:
 326              	.LBE50:
 327              	.LBE51:
 328              		.loc 1 171 0
 329 001c 10BD     		pop	{r4, pc}
 330              	.L23:
 331 001e C046     		.align	2
 332              	.L22:
 333 0020 00800440 		.word	1074036736
 334 0024 00000000 		.word	.LANCHOR0
 335              		.cfi_endproc
 336              	.LFE205:
 337              		.size	Chip_Clock_GetWDTOSCRate, .-Chip_Clock_GetWDTOSCRate
 338              		.section	.text.Chip_Clock_GetSystemPLLInClockRate,"ax",%progbits
 339              		.align	1
 340              		.p2align 2,,3
 341              		.global	Chip_Clock_GetSystemPLLInClockRate
 342              		.syntax unified
 343              		.code	16
 344              		.thumb_func
 345              		.fpu softvfp
 346              		.type	Chip_Clock_GetSystemPLLInClockRate, %function
 347              	Chip_Clock_GetSystemPLLInClockRate:
 348              	.LFB206:
 172:../../lpc11cx4-library/lpc_chip_11cxx_lib/src/clock_11xx.c **** 
 173:../../lpc11cx4-library/lpc_chip_11cxx_lib/src/clock_11xx.c **** #if defined(CHIP_LPC11AXX)
 174:../../lpc11cx4-library/lpc_chip_11cxx_lib/src/clock_11xx.c **** /* Return estimated low frequency oscillator rate */
 175:../../lpc11cx4-library/lpc_chip_11cxx_lib/src/clock_11xx.c **** uint32_t Chip_Clock_GetLFOOSCRate(void)
 176:../../lpc11cx4-library/lpc_chip_11cxx_lib/src/clock_11xx.c **** {
 177:../../lpc11cx4-library/lpc_chip_11cxx_lib/src/clock_11xx.c **** 	return Chip_Clock_GetWDTLFORate(LPC_SYSCTL->LFOSCCTRL);
 178:../../lpc11cx4-library/lpc_chip_11cxx_lib/src/clock_11xx.c **** }
 179:../../lpc11cx4-library/lpc_chip_11cxx_lib/src/clock_11xx.c **** 
 180:../../lpc11cx4-library/lpc_chip_11cxx_lib/src/clock_11xx.c **** #endif
 181:../../lpc11cx4-library/lpc_chip_11cxx_lib/src/clock_11xx.c **** 
 182:../../lpc11cx4-library/lpc_chip_11cxx_lib/src/clock_11xx.c **** /* Return System PLL input clock rate */
 183:../../lpc11cx4-library/lpc_chip_11cxx_lib/src/clock_11xx.c **** uint32_t Chip_Clock_GetSystemPLLInClockRate(void)
 184:../../lpc11cx4-library/lpc_chip_11cxx_lib/src/clock_11xx.c **** {
 349              		.loc 1 184 0
 350              		.cfi_startproc
 351              		@ args = 0, pretend = 0, frame = 0
 352              		@ frame_needed = 0, uses_anonymous_args = 0
 353              		@ link register save eliminated.
 185:../../lpc11cx4-library/lpc_chip_11cxx_lib/src/clock_11xx.c **** 	uint32_t clkRate;
 186:../../lpc11cx4-library/lpc_chip_11cxx_lib/src/clock_11xx.c **** 
 187:../../lpc11cx4-library/lpc_chip_11cxx_lib/src/clock_11xx.c **** 	switch ((CHIP_SYSCTL_PLLCLKSRC_T) (LPC_SYSCTL->SYSPLLCLKSEL & 0x3)) {
 354              		.loc 1 187 0
 355 0000 0322     		movs	r2, #3	@ tmp118,
 356 0002 064B     		ldr	r3, .L30	@ tmp115,
 357 0004 1B6C     		ldr	r3, [r3, #64]	@ _4, MEM[(struct LPC_SYSCTL_T *)1074036736B].SYSPLLCLKSEL
 358 0006 1340     		ands	r3, r2	@ tmp119, tmp118
 359 0008 06D0     		beq	.L28	@,
 188:../../lpc11cx4-library/lpc_chip_11cxx_lib/src/clock_11xx.c **** 	case SYSCTL_PLLCLKSRC_IRC:
 189:../../lpc11cx4-library/lpc_chip_11cxx_lib/src/clock_11xx.c **** 		clkRate = Chip_Clock_GetIntOscRate();
ARM GAS  /tmp/ccWjBr6x.s 			page 11


 190:../../lpc11cx4-library/lpc_chip_11cxx_lib/src/clock_11xx.c **** 		break;
 191:../../lpc11cx4-library/lpc_chip_11cxx_lib/src/clock_11xx.c **** 
 192:../../lpc11cx4-library/lpc_chip_11cxx_lib/src/clock_11xx.c **** 	case SYSCTL_PLLCLKSRC_MAINOSC:
 193:../../lpc11cx4-library/lpc_chip_11cxx_lib/src/clock_11xx.c **** 		clkRate = Chip_Clock_GetMainOscRate();
 194:../../lpc11cx4-library/lpc_chip_11cxx_lib/src/clock_11xx.c **** 		break;
 195:../../lpc11cx4-library/lpc_chip_11cxx_lib/src/clock_11xx.c **** 
 196:../../lpc11cx4-library/lpc_chip_11cxx_lib/src/clock_11xx.c **** #if defined(CHIP_LPC11AXX)
 197:../../lpc11cx4-library/lpc_chip_11cxx_lib/src/clock_11xx.c **** 	case SYSCTL_PLLCLKSRC_EXT_CLKIN:
 198:../../lpc11cx4-library/lpc_chip_11cxx_lib/src/clock_11xx.c **** 		clkRate = Chip_Clock_GetExtClockInRate();
 199:../../lpc11cx4-library/lpc_chip_11cxx_lib/src/clock_11xx.c **** 		break;
 200:../../lpc11cx4-library/lpc_chip_11cxx_lib/src/clock_11xx.c **** #endif
 201:../../lpc11cx4-library/lpc_chip_11cxx_lib/src/clock_11xx.c **** 
 202:../../lpc11cx4-library/lpc_chip_11cxx_lib/src/clock_11xx.c **** 	default:
 203:../../lpc11cx4-library/lpc_chip_11cxx_lib/src/clock_11xx.c **** 		clkRate = 0;
 360              		.loc 1 203 0
 361 000a 0020     		movs	r0, #0	@ <retval>,
 187:../../lpc11cx4-library/lpc_chip_11cxx_lib/src/clock_11xx.c **** 	case SYSCTL_PLLCLKSRC_IRC:
 362              		.loc 1 187 0
 363 000c 012B     		cmp	r3, #1	@ tmp119,
 364 000e 00D0     		beq	.L29	@,
 365              	.L24:
 204:../../lpc11cx4-library/lpc_chip_11cxx_lib/src/clock_11xx.c **** 	}
 205:../../lpc11cx4-library/lpc_chip_11cxx_lib/src/clock_11xx.c **** 
 206:../../lpc11cx4-library/lpc_chip_11cxx_lib/src/clock_11xx.c **** 	return clkRate;
 207:../../lpc11cx4-library/lpc_chip_11cxx_lib/src/clock_11xx.c **** }
 366              		.loc 1 207 0
 367              		@ sp needed	@
 368 0010 7047     		bx	lr
 369              	.L29:
 370              	.LBB52:
 371              	.LBB53:
 372              		.file 2 "../../lpc11cx4-library/lpc_chip_11cxx_lib/inc/clock_11xx.h"
   1:../../lpc11cx4-library/lpc_chip_11cxx_lib/inc/clock_11xx.h **** /*
   2:../../lpc11cx4-library/lpc_chip_11cxx_lib/inc/clock_11xx.h ****  * @brief LPC11XX Clock control functions
   3:../../lpc11cx4-library/lpc_chip_11cxx_lib/inc/clock_11xx.h ****  *
   4:../../lpc11cx4-library/lpc_chip_11cxx_lib/inc/clock_11xx.h ****  * @note
   5:../../lpc11cx4-library/lpc_chip_11cxx_lib/inc/clock_11xx.h ****  * Copyright(C) NXP Semiconductors, 2012
   6:../../lpc11cx4-library/lpc_chip_11cxx_lib/inc/clock_11xx.h ****  * All rights reserved.
   7:../../lpc11cx4-library/lpc_chip_11cxx_lib/inc/clock_11xx.h ****  *
   8:../../lpc11cx4-library/lpc_chip_11cxx_lib/inc/clock_11xx.h ****  * @par
   9:../../lpc11cx4-library/lpc_chip_11cxx_lib/inc/clock_11xx.h ****  * Software that is described herein is for illustrative purposes only
  10:../../lpc11cx4-library/lpc_chip_11cxx_lib/inc/clock_11xx.h ****  * which provides customers with programming information regarding the
  11:../../lpc11cx4-library/lpc_chip_11cxx_lib/inc/clock_11xx.h ****  * LPC products.  This software is supplied "AS IS" without any warranties of
  12:../../lpc11cx4-library/lpc_chip_11cxx_lib/inc/clock_11xx.h ****  * any kind, and NXP Semiconductors and its licensor disclaim any and
  13:../../lpc11cx4-library/lpc_chip_11cxx_lib/inc/clock_11xx.h ****  * all warranties, express or implied, including all implied warranties of
  14:../../lpc11cx4-library/lpc_chip_11cxx_lib/inc/clock_11xx.h ****  * merchantability, fitness for a particular purpose and non-infringement of
  15:../../lpc11cx4-library/lpc_chip_11cxx_lib/inc/clock_11xx.h ****  * intellectual property rights.  NXP Semiconductors assumes no responsibility
  16:../../lpc11cx4-library/lpc_chip_11cxx_lib/inc/clock_11xx.h ****  * or liability for the use of the software, conveys no license or rights under any
  17:../../lpc11cx4-library/lpc_chip_11cxx_lib/inc/clock_11xx.h ****  * patent, copyright, mask work right, or any other intellectual property rights in
  18:../../lpc11cx4-library/lpc_chip_11cxx_lib/inc/clock_11xx.h ****  * or to any products. NXP Semiconductors reserves the right to make changes
  19:../../lpc11cx4-library/lpc_chip_11cxx_lib/inc/clock_11xx.h ****  * in the software without notification. NXP Semiconductors also makes no
  20:../../lpc11cx4-library/lpc_chip_11cxx_lib/inc/clock_11xx.h ****  * representation or warranty that such application will be suitable for the
  21:../../lpc11cx4-library/lpc_chip_11cxx_lib/inc/clock_11xx.h ****  * specified use without further testing or modification.
  22:../../lpc11cx4-library/lpc_chip_11cxx_lib/inc/clock_11xx.h ****  *
  23:../../lpc11cx4-library/lpc_chip_11cxx_lib/inc/clock_11xx.h ****  * @par
  24:../../lpc11cx4-library/lpc_chip_11cxx_lib/inc/clock_11xx.h ****  * Permission to use, copy, modify, and distribute this software and its
  25:../../lpc11cx4-library/lpc_chip_11cxx_lib/inc/clock_11xx.h ****  * documentation is hereby granted, under NXP Semiconductors' and its
ARM GAS  /tmp/ccWjBr6x.s 			page 12


  26:../../lpc11cx4-library/lpc_chip_11cxx_lib/inc/clock_11xx.h ****  * licensor's relevant copyrights in the software, without fee, provided that it
  27:../../lpc11cx4-library/lpc_chip_11cxx_lib/inc/clock_11xx.h ****  * is used in conjunction with NXP Semiconductors microcontrollers.  This
  28:../../lpc11cx4-library/lpc_chip_11cxx_lib/inc/clock_11xx.h ****  * copyright, permission, and disclaimer notice must appear in all copies of
  29:../../lpc11cx4-library/lpc_chip_11cxx_lib/inc/clock_11xx.h ****  * this code.
  30:../../lpc11cx4-library/lpc_chip_11cxx_lib/inc/clock_11xx.h ****  */
  31:../../lpc11cx4-library/lpc_chip_11cxx_lib/inc/clock_11xx.h **** 
  32:../../lpc11cx4-library/lpc_chip_11cxx_lib/inc/clock_11xx.h **** #ifndef __CLOCK_11XX_H_
  33:../../lpc11cx4-library/lpc_chip_11cxx_lib/inc/clock_11xx.h **** #define __CLOCK_11XX_H_
  34:../../lpc11cx4-library/lpc_chip_11cxx_lib/inc/clock_11xx.h **** 
  35:../../lpc11cx4-library/lpc_chip_11cxx_lib/inc/clock_11xx.h **** #ifdef __cplusplus
  36:../../lpc11cx4-library/lpc_chip_11cxx_lib/inc/clock_11xx.h **** extern "C" {
  37:../../lpc11cx4-library/lpc_chip_11cxx_lib/inc/clock_11xx.h **** #endif
  38:../../lpc11cx4-library/lpc_chip_11cxx_lib/inc/clock_11xx.h **** 
  39:../../lpc11cx4-library/lpc_chip_11cxx_lib/inc/clock_11xx.h **** /** @defgroup CLOCK_11XX CHIP: LPC11xx Clock Control block driver
  40:../../lpc11cx4-library/lpc_chip_11cxx_lib/inc/clock_11xx.h ****  * @ingroup CHIP_11XX_Drivers
  41:../../lpc11cx4-library/lpc_chip_11cxx_lib/inc/clock_11xx.h ****  * @{
  42:../../lpc11cx4-library/lpc_chip_11cxx_lib/inc/clock_11xx.h ****  */
  43:../../lpc11cx4-library/lpc_chip_11cxx_lib/inc/clock_11xx.h **** 
  44:../../lpc11cx4-library/lpc_chip_11cxx_lib/inc/clock_11xx.h **** /** Internal oscillator frequency */
  45:../../lpc11cx4-library/lpc_chip_11cxx_lib/inc/clock_11xx.h **** #define SYSCTL_IRC_FREQ (12000000)
  46:../../lpc11cx4-library/lpc_chip_11cxx_lib/inc/clock_11xx.h **** 
  47:../../lpc11cx4-library/lpc_chip_11cxx_lib/inc/clock_11xx.h **** /**
  48:../../lpc11cx4-library/lpc_chip_11cxx_lib/inc/clock_11xx.h ****  * @brief	Set System PLL divider values
  49:../../lpc11cx4-library/lpc_chip_11cxx_lib/inc/clock_11xx.h ****  * @param	msel    : PLL feedback divider value. M = msel + 1.
  50:../../lpc11cx4-library/lpc_chip_11cxx_lib/inc/clock_11xx.h ****  * @param	psel    : PLL post divider value. P =  (1<<psel).
  51:../../lpc11cx4-library/lpc_chip_11cxx_lib/inc/clock_11xx.h ****  * @return	Nothing
  52:../../lpc11cx4-library/lpc_chip_11cxx_lib/inc/clock_11xx.h ****  * @note	See the user manual for how to setup the PLL.
  53:../../lpc11cx4-library/lpc_chip_11cxx_lib/inc/clock_11xx.h ****  */
  54:../../lpc11cx4-library/lpc_chip_11cxx_lib/inc/clock_11xx.h **** STATIC INLINE void Chip_Clock_SetupSystemPLL(uint8_t msel, uint8_t psel)
  55:../../lpc11cx4-library/lpc_chip_11cxx_lib/inc/clock_11xx.h **** {
  56:../../lpc11cx4-library/lpc_chip_11cxx_lib/inc/clock_11xx.h **** 	LPC_SYSCTL->SYSPLLCTRL = (msel & 0x1F) | ((psel & 0x3) << 5);
  57:../../lpc11cx4-library/lpc_chip_11cxx_lib/inc/clock_11xx.h **** }
  58:../../lpc11cx4-library/lpc_chip_11cxx_lib/inc/clock_11xx.h **** 
  59:../../lpc11cx4-library/lpc_chip_11cxx_lib/inc/clock_11xx.h **** /**
  60:../../lpc11cx4-library/lpc_chip_11cxx_lib/inc/clock_11xx.h ****  * @brief	Read System PLL lock status
  61:../../lpc11cx4-library/lpc_chip_11cxx_lib/inc/clock_11xx.h ****  * @return	true of the PLL is locked. false if not locked
  62:../../lpc11cx4-library/lpc_chip_11cxx_lib/inc/clock_11xx.h ****  */
  63:../../lpc11cx4-library/lpc_chip_11cxx_lib/inc/clock_11xx.h **** STATIC INLINE bool Chip_Clock_IsSystemPLLLocked(void)
  64:../../lpc11cx4-library/lpc_chip_11cxx_lib/inc/clock_11xx.h **** {
  65:../../lpc11cx4-library/lpc_chip_11cxx_lib/inc/clock_11xx.h **** 	return (bool) ((LPC_SYSCTL->SYSPLLSTAT & 1) != 0);
  66:../../lpc11cx4-library/lpc_chip_11cxx_lib/inc/clock_11xx.h **** }
  67:../../lpc11cx4-library/lpc_chip_11cxx_lib/inc/clock_11xx.h **** 
  68:../../lpc11cx4-library/lpc_chip_11cxx_lib/inc/clock_11xx.h **** /**
  69:../../lpc11cx4-library/lpc_chip_11cxx_lib/inc/clock_11xx.h ****  * Clock sources for system and USB PLLs
  70:../../lpc11cx4-library/lpc_chip_11cxx_lib/inc/clock_11xx.h ****  */
  71:../../lpc11cx4-library/lpc_chip_11cxx_lib/inc/clock_11xx.h **** typedef enum CHIP_SYSCTL_PLLCLKSRC {
  72:../../lpc11cx4-library/lpc_chip_11cxx_lib/inc/clock_11xx.h **** 	SYSCTL_PLLCLKSRC_IRC = 0,		/*!< Internal oscillator in */
  73:../../lpc11cx4-library/lpc_chip_11cxx_lib/inc/clock_11xx.h **** 	SYSCTL_PLLCLKSRC_MAINOSC,		/*!< Crystal (main) oscillator in */
  74:../../lpc11cx4-library/lpc_chip_11cxx_lib/inc/clock_11xx.h **** #if defined(CHIP_LPC11AXX)
  75:../../lpc11cx4-library/lpc_chip_11cxx_lib/inc/clock_11xx.h **** 	SYSCTL_PLLCLKSRC_EXT_CLKIN,	/*!< External clock in (11Axx only) */
  76:../../lpc11cx4-library/lpc_chip_11cxx_lib/inc/clock_11xx.h **** #else
  77:../../lpc11cx4-library/lpc_chip_11cxx_lib/inc/clock_11xx.h **** 	SYSCTL_PLLCLKSRC_RESERVED1,	/*!< Reserved */
  78:../../lpc11cx4-library/lpc_chip_11cxx_lib/inc/clock_11xx.h **** #endif
  79:../../lpc11cx4-library/lpc_chip_11cxx_lib/inc/clock_11xx.h **** 	SYSCTL_PLLCLKSRC_RESERVED2,	/*!< Reserved */
  80:../../lpc11cx4-library/lpc_chip_11cxx_lib/inc/clock_11xx.h **** } CHIP_SYSCTL_PLLCLKSRC_T;
  81:../../lpc11cx4-library/lpc_chip_11cxx_lib/inc/clock_11xx.h **** 
  82:../../lpc11cx4-library/lpc_chip_11cxx_lib/inc/clock_11xx.h **** /**
ARM GAS  /tmp/ccWjBr6x.s 			page 13


  83:../../lpc11cx4-library/lpc_chip_11cxx_lib/inc/clock_11xx.h ****  * @brief	Set System PLL clock source
  84:../../lpc11cx4-library/lpc_chip_11cxx_lib/inc/clock_11xx.h ****  * @param	src	: Clock source for system PLL
  85:../../lpc11cx4-library/lpc_chip_11cxx_lib/inc/clock_11xx.h ****  * @return	Nothing
  86:../../lpc11cx4-library/lpc_chip_11cxx_lib/inc/clock_11xx.h ****  * @note	This function will also toggle the clock source update register
  87:../../lpc11cx4-library/lpc_chip_11cxx_lib/inc/clock_11xx.h ****  * to update the clock source.
  88:../../lpc11cx4-library/lpc_chip_11cxx_lib/inc/clock_11xx.h ****  */
  89:../../lpc11cx4-library/lpc_chip_11cxx_lib/inc/clock_11xx.h **** void Chip_Clock_SetSystemPLLSource(CHIP_SYSCTL_PLLCLKSRC_T src);
  90:../../lpc11cx4-library/lpc_chip_11cxx_lib/inc/clock_11xx.h **** 
  91:../../lpc11cx4-library/lpc_chip_11cxx_lib/inc/clock_11xx.h **** #if defined(CHIP_LPC11UXX)
  92:../../lpc11cx4-library/lpc_chip_11cxx_lib/inc/clock_11xx.h **** /**
  93:../../lpc11cx4-library/lpc_chip_11cxx_lib/inc/clock_11xx.h ****  * @brief	Set USB PLL divider values
  94:../../lpc11cx4-library/lpc_chip_11cxx_lib/inc/clock_11xx.h ****  * @param	msel    : PLL feedback divider value. M = msel + 1.
  95:../../lpc11cx4-library/lpc_chip_11cxx_lib/inc/clock_11xx.h ****  * @param	psel    : PLL post divider value. P = (1<<psel).
  96:../../lpc11cx4-library/lpc_chip_11cxx_lib/inc/clock_11xx.h ****  * @return	Nothing
  97:../../lpc11cx4-library/lpc_chip_11cxx_lib/inc/clock_11xx.h ****  * @note	See the user manual for how to setup the PLL.
  98:../../lpc11cx4-library/lpc_chip_11cxx_lib/inc/clock_11xx.h ****  */
  99:../../lpc11cx4-library/lpc_chip_11cxx_lib/inc/clock_11xx.h **** STATIC INLINE void Chip_Clock_SetupUSBPLL(uint8_t msel, uint8_t psel)
 100:../../lpc11cx4-library/lpc_chip_11cxx_lib/inc/clock_11xx.h **** {
 101:../../lpc11cx4-library/lpc_chip_11cxx_lib/inc/clock_11xx.h **** 	LPC_SYSCTL->USBPLLCTRL = (msel & 0x1F) | ((psel & 0x3) << 5);
 102:../../lpc11cx4-library/lpc_chip_11cxx_lib/inc/clock_11xx.h **** }
 103:../../lpc11cx4-library/lpc_chip_11cxx_lib/inc/clock_11xx.h **** 
 104:../../lpc11cx4-library/lpc_chip_11cxx_lib/inc/clock_11xx.h **** /**
 105:../../lpc11cx4-library/lpc_chip_11cxx_lib/inc/clock_11xx.h ****  * @brief	Read USB PLL lock status
 106:../../lpc11cx4-library/lpc_chip_11cxx_lib/inc/clock_11xx.h ****  * @return	true of the PLL is locked. false if not locked
 107:../../lpc11cx4-library/lpc_chip_11cxx_lib/inc/clock_11xx.h ****  */
 108:../../lpc11cx4-library/lpc_chip_11cxx_lib/inc/clock_11xx.h **** STATIC INLINE bool Chip_Clock_IsUSBPLLLocked(void)
 109:../../lpc11cx4-library/lpc_chip_11cxx_lib/inc/clock_11xx.h **** {
 110:../../lpc11cx4-library/lpc_chip_11cxx_lib/inc/clock_11xx.h **** 	return (bool) ((LPC_SYSCTL->USBPLLSTAT & 1) != 0);
 111:../../lpc11cx4-library/lpc_chip_11cxx_lib/inc/clock_11xx.h **** }
 112:../../lpc11cx4-library/lpc_chip_11cxx_lib/inc/clock_11xx.h **** 
 113:../../lpc11cx4-library/lpc_chip_11cxx_lib/inc/clock_11xx.h **** /**
 114:../../lpc11cx4-library/lpc_chip_11cxx_lib/inc/clock_11xx.h ****  * @brief	Set USB PLL clock source
 115:../../lpc11cx4-library/lpc_chip_11cxx_lib/inc/clock_11xx.h ****  * @param	src	: Clock source for USB PLL
 116:../../lpc11cx4-library/lpc_chip_11cxx_lib/inc/clock_11xx.h ****  * @return	Nothing
 117:../../lpc11cx4-library/lpc_chip_11cxx_lib/inc/clock_11xx.h ****  * @note	This function will also toggle the clock source update register
 118:../../lpc11cx4-library/lpc_chip_11cxx_lib/inc/clock_11xx.h ****  * to update the clock source.
 119:../../lpc11cx4-library/lpc_chip_11cxx_lib/inc/clock_11xx.h ****  */
 120:../../lpc11cx4-library/lpc_chip_11cxx_lib/inc/clock_11xx.h **** void Chip_Clock_SetUSBPLLSource(CHIP_SYSCTL_PLLCLKSRC_T src);
 121:../../lpc11cx4-library/lpc_chip_11cxx_lib/inc/clock_11xx.h **** 
 122:../../lpc11cx4-library/lpc_chip_11cxx_lib/inc/clock_11xx.h **** #endif /*defined(CHIP_LPC11UXX)*/
 123:../../lpc11cx4-library/lpc_chip_11cxx_lib/inc/clock_11xx.h **** 
 124:../../lpc11cx4-library/lpc_chip_11cxx_lib/inc/clock_11xx.h **** /**
 125:../../lpc11cx4-library/lpc_chip_11cxx_lib/inc/clock_11xx.h ****  * @brief	Bypass System Oscillator and set oscillator frequency range
 126:../../lpc11cx4-library/lpc_chip_11cxx_lib/inc/clock_11xx.h ****  * @param	bypass	: Flag to bypass oscillator
 127:../../lpc11cx4-library/lpc_chip_11cxx_lib/inc/clock_11xx.h ****  * @param	highfr	: Flag to set oscillator range from 15-25 MHz
 128:../../lpc11cx4-library/lpc_chip_11cxx_lib/inc/clock_11xx.h ****  * @return	Nothing
 129:../../lpc11cx4-library/lpc_chip_11cxx_lib/inc/clock_11xx.h ****  * @note	Sets the PLL input to bypass the oscillator. This would be
 130:../../lpc11cx4-library/lpc_chip_11cxx_lib/inc/clock_11xx.h ****  * used if an external clock that is not an oscillator is attached
 131:../../lpc11cx4-library/lpc_chip_11cxx_lib/inc/clock_11xx.h ****  * to the XTALIN pin.
 132:../../lpc11cx4-library/lpc_chip_11cxx_lib/inc/clock_11xx.h ****  */
 133:../../lpc11cx4-library/lpc_chip_11cxx_lib/inc/clock_11xx.h **** void Chip_Clock_SetPLLBypass(bool bypass, bool highfr);
 134:../../lpc11cx4-library/lpc_chip_11cxx_lib/inc/clock_11xx.h **** 
 135:../../lpc11cx4-library/lpc_chip_11cxx_lib/inc/clock_11xx.h **** /**
 136:../../lpc11cx4-library/lpc_chip_11cxx_lib/inc/clock_11xx.h ****  * Watchdog and low frequency oscillator frequencies plus or minus 40%
 137:../../lpc11cx4-library/lpc_chip_11cxx_lib/inc/clock_11xx.h ****  */
 138:../../lpc11cx4-library/lpc_chip_11cxx_lib/inc/clock_11xx.h **** typedef enum CHIP_WDTLFO_OSC {
 139:../../lpc11cx4-library/lpc_chip_11cxx_lib/inc/clock_11xx.h **** 	WDTLFO_OSC_ILLEGAL,
ARM GAS  /tmp/ccWjBr6x.s 			page 14


 140:../../lpc11cx4-library/lpc_chip_11cxx_lib/inc/clock_11xx.h **** 	WDTLFO_OSC_0_60,	/*!< 0.6 MHz watchdog/LFO rate */
 141:../../lpc11cx4-library/lpc_chip_11cxx_lib/inc/clock_11xx.h **** 	WDTLFO_OSC_1_05,	/*!< 1.05 MHz watchdog/LFO rate */
 142:../../lpc11cx4-library/lpc_chip_11cxx_lib/inc/clock_11xx.h **** 	WDTLFO_OSC_1_40,	/*!< 1.4 MHz watchdog/LFO rate */
 143:../../lpc11cx4-library/lpc_chip_11cxx_lib/inc/clock_11xx.h **** 	WDTLFO_OSC_1_75,	/*!< 1.75 MHz watchdog/LFO rate */
 144:../../lpc11cx4-library/lpc_chip_11cxx_lib/inc/clock_11xx.h **** 	WDTLFO_OSC_2_10,	/*!< 2.1 MHz watchdog/LFO rate */
 145:../../lpc11cx4-library/lpc_chip_11cxx_lib/inc/clock_11xx.h **** 	WDTLFO_OSC_2_40,	/*!< 2.4 MHz watchdog/LFO rate */
 146:../../lpc11cx4-library/lpc_chip_11cxx_lib/inc/clock_11xx.h **** 	WDTLFO_OSC_2_70,	/*!< 2.7 MHz watchdog/LFO rate */
 147:../../lpc11cx4-library/lpc_chip_11cxx_lib/inc/clock_11xx.h **** 	WDTLFO_OSC_3_00,	/*!< 3.0 MHz watchdog/LFO rate */
 148:../../lpc11cx4-library/lpc_chip_11cxx_lib/inc/clock_11xx.h **** 	WDTLFO_OSC_3_25,	/*!< 3.25 MHz watchdog/LFO rate */
 149:../../lpc11cx4-library/lpc_chip_11cxx_lib/inc/clock_11xx.h **** 	WDTLFO_OSC_3_50,	/*!< 3.5 MHz watchdog/LFO rate */
 150:../../lpc11cx4-library/lpc_chip_11cxx_lib/inc/clock_11xx.h **** 	WDTLFO_OSC_3_75,	/*!< 3.75 MHz watchdog/LFO rate */
 151:../../lpc11cx4-library/lpc_chip_11cxx_lib/inc/clock_11xx.h **** 	WDTLFO_OSC_4_00,	/*!< 4.0 MHz watchdog/LFO rate */
 152:../../lpc11cx4-library/lpc_chip_11cxx_lib/inc/clock_11xx.h **** 	WDTLFO_OSC_4_20,	/*!< 4.2 MHz watchdog/LFO rate */
 153:../../lpc11cx4-library/lpc_chip_11cxx_lib/inc/clock_11xx.h **** 	WDTLFO_OSC_4_40,	/*!< 4.4 MHz watchdog/LFO rate */
 154:../../lpc11cx4-library/lpc_chip_11cxx_lib/inc/clock_11xx.h **** 	WDTLFO_OSC_4_60		/*!< 4.6 MHz watchdog/LFO rate */
 155:../../lpc11cx4-library/lpc_chip_11cxx_lib/inc/clock_11xx.h **** } CHIP_WDTLFO_OSC_T;
 156:../../lpc11cx4-library/lpc_chip_11cxx_lib/inc/clock_11xx.h **** 
 157:../../lpc11cx4-library/lpc_chip_11cxx_lib/inc/clock_11xx.h **** /**
 158:../../lpc11cx4-library/lpc_chip_11cxx_lib/inc/clock_11xx.h ****  * @brief	Setup Watchdog oscillator rate and divider
 159:../../lpc11cx4-library/lpc_chip_11cxx_lib/inc/clock_11xx.h ****  * @param	wdtclk	: Selected watchdog clock rate
 160:../../lpc11cx4-library/lpc_chip_11cxx_lib/inc/clock_11xx.h ****  * @param	div		: Watchdog divider value, even value between 2 and 64
 161:../../lpc11cx4-library/lpc_chip_11cxx_lib/inc/clock_11xx.h ****  * @return	Nothing
 162:../../lpc11cx4-library/lpc_chip_11cxx_lib/inc/clock_11xx.h ****  * @note	Watchdog rate = selected rate divided by divider rate
 163:../../lpc11cx4-library/lpc_chip_11cxx_lib/inc/clock_11xx.h ****  */
 164:../../lpc11cx4-library/lpc_chip_11cxx_lib/inc/clock_11xx.h **** STATIC INLINE void Chip_Clock_SetWDTOSC(CHIP_WDTLFO_OSC_T wdtclk, uint8_t div)
 165:../../lpc11cx4-library/lpc_chip_11cxx_lib/inc/clock_11xx.h **** {
 166:../../lpc11cx4-library/lpc_chip_11cxx_lib/inc/clock_11xx.h **** 	LPC_SYSCTL->WDTOSCCTRL  = (((uint32_t) wdtclk) << 5) | ((div >> 1) - 1);
 167:../../lpc11cx4-library/lpc_chip_11cxx_lib/inc/clock_11xx.h **** }
 168:../../lpc11cx4-library/lpc_chip_11cxx_lib/inc/clock_11xx.h **** 
 169:../../lpc11cx4-library/lpc_chip_11cxx_lib/inc/clock_11xx.h **** #if defined(CHIP_LPC11AXX)
 170:../../lpc11cx4-library/lpc_chip_11cxx_lib/inc/clock_11xx.h **** /**
 171:../../lpc11cx4-library/lpc_chip_11cxx_lib/inc/clock_11xx.h ****  * @brief	Setup low frequency oscillator rate and divider
 172:../../lpc11cx4-library/lpc_chip_11cxx_lib/inc/clock_11xx.h ****  * @param	lfoclk	: Selected low frequency clock rate
 173:../../lpc11cx4-library/lpc_chip_11cxx_lib/inc/clock_11xx.h ****  * @param	div		: Low frequency divider value, even value between 2 and 64
 174:../../lpc11cx4-library/lpc_chip_11cxx_lib/inc/clock_11xx.h ****  * @return	Nothing
 175:../../lpc11cx4-library/lpc_chip_11cxx_lib/inc/clock_11xx.h ****  * @note	Low frequency oscillator rate = selected rate divided by divider rate
 176:../../lpc11cx4-library/lpc_chip_11cxx_lib/inc/clock_11xx.h ****  */
 177:../../lpc11cx4-library/lpc_chip_11cxx_lib/inc/clock_11xx.h **** STATIC INLINE void Chip_Clock_SetLFOSC(CHIP_WDTLFO_OSC_T lfoclk, uint8_t div)
 178:../../lpc11cx4-library/lpc_chip_11cxx_lib/inc/clock_11xx.h **** {
 179:../../lpc11cx4-library/lpc_chip_11cxx_lib/inc/clock_11xx.h **** 	LPC_SYSCTL->LFOSCCTRL  = (((uint32_t) lfoclk) << 5) | ((div >> 1) - 1);
 180:../../lpc11cx4-library/lpc_chip_11cxx_lib/inc/clock_11xx.h **** }
 181:../../lpc11cx4-library/lpc_chip_11cxx_lib/inc/clock_11xx.h **** 
 182:../../lpc11cx4-library/lpc_chip_11cxx_lib/inc/clock_11xx.h **** #endif /*CHIP_LPC11AXX*/
 183:../../lpc11cx4-library/lpc_chip_11cxx_lib/inc/clock_11xx.h **** 
 184:../../lpc11cx4-library/lpc_chip_11cxx_lib/inc/clock_11xx.h **** /**
 185:../../lpc11cx4-library/lpc_chip_11cxx_lib/inc/clock_11xx.h ****  * Clock sources for main system clock
 186:../../lpc11cx4-library/lpc_chip_11cxx_lib/inc/clock_11xx.h ****  */
 187:../../lpc11cx4-library/lpc_chip_11cxx_lib/inc/clock_11xx.h **** typedef enum CHIP_SYSCTL_MAINCLKSRC {
 188:../../lpc11cx4-library/lpc_chip_11cxx_lib/inc/clock_11xx.h **** 	SYSCTL_MAINCLKSRC_IRC = 0,		/*!< Internal oscillator */
 189:../../lpc11cx4-library/lpc_chip_11cxx_lib/inc/clock_11xx.h **** 	SYSCTL_MAINCLKSRC_PLLIN,		/*!< System PLL input */
 190:../../lpc11cx4-library/lpc_chip_11cxx_lib/inc/clock_11xx.h **** 	SYSCTL_MAINCLKSRC_LFOSC,		/*!< LF oscillator rate (11Axx only) */
 191:../../lpc11cx4-library/lpc_chip_11cxx_lib/inc/clock_11xx.h **** 	SYSCTL_MAINCLKSRC_WDTOSC = SYSCTL_MAINCLKSRC_LFOSC,	/*!< Watchdog oscillator rate */
 192:../../lpc11cx4-library/lpc_chip_11cxx_lib/inc/clock_11xx.h **** 	SYSCTL_MAINCLKSRC_PLLOUT,		/*!< System PLL output */
 193:../../lpc11cx4-library/lpc_chip_11cxx_lib/inc/clock_11xx.h **** } CHIP_SYSCTL_MAINCLKSRC_T;
 194:../../lpc11cx4-library/lpc_chip_11cxx_lib/inc/clock_11xx.h **** 
 195:../../lpc11cx4-library/lpc_chip_11cxx_lib/inc/clock_11xx.h **** /**
 196:../../lpc11cx4-library/lpc_chip_11cxx_lib/inc/clock_11xx.h ****  * @brief	Set main system clock source
ARM GAS  /tmp/ccWjBr6x.s 			page 15


 197:../../lpc11cx4-library/lpc_chip_11cxx_lib/inc/clock_11xx.h ****  * @param	src	: Clock source for main system
 198:../../lpc11cx4-library/lpc_chip_11cxx_lib/inc/clock_11xx.h ****  * @return	Nothing
 199:../../lpc11cx4-library/lpc_chip_11cxx_lib/inc/clock_11xx.h ****  * @note	This function will also toggle the clock source update register
 200:../../lpc11cx4-library/lpc_chip_11cxx_lib/inc/clock_11xx.h ****  * to update the clock source.
 201:../../lpc11cx4-library/lpc_chip_11cxx_lib/inc/clock_11xx.h ****  */
 202:../../lpc11cx4-library/lpc_chip_11cxx_lib/inc/clock_11xx.h **** void Chip_Clock_SetMainClockSource(CHIP_SYSCTL_MAINCLKSRC_T src);
 203:../../lpc11cx4-library/lpc_chip_11cxx_lib/inc/clock_11xx.h **** 
 204:../../lpc11cx4-library/lpc_chip_11cxx_lib/inc/clock_11xx.h **** /**
 205:../../lpc11cx4-library/lpc_chip_11cxx_lib/inc/clock_11xx.h ****  * @brief   Returns the main clock source
 206:../../lpc11cx4-library/lpc_chip_11cxx_lib/inc/clock_11xx.h ****  * @return	Which clock is used for the core clock source?
 207:../../lpc11cx4-library/lpc_chip_11cxx_lib/inc/clock_11xx.h ****  */
 208:../../lpc11cx4-library/lpc_chip_11cxx_lib/inc/clock_11xx.h **** STATIC INLINE CHIP_SYSCTL_MAINCLKSRC_T Chip_Clock_GetMainClockSource(void)
 209:../../lpc11cx4-library/lpc_chip_11cxx_lib/inc/clock_11xx.h **** {
 210:../../lpc11cx4-library/lpc_chip_11cxx_lib/inc/clock_11xx.h **** 	return (CHIP_SYSCTL_MAINCLKSRC_T) (LPC_SYSCTL->MAINCLKSEL);
 211:../../lpc11cx4-library/lpc_chip_11cxx_lib/inc/clock_11xx.h **** }
 212:../../lpc11cx4-library/lpc_chip_11cxx_lib/inc/clock_11xx.h **** 
 213:../../lpc11cx4-library/lpc_chip_11cxx_lib/inc/clock_11xx.h **** /**
 214:../../lpc11cx4-library/lpc_chip_11cxx_lib/inc/clock_11xx.h ****  * @brief	Set system clock divider
 215:../../lpc11cx4-library/lpc_chip_11cxx_lib/inc/clock_11xx.h ****  * @param	div	: divider for system clock
 216:../../lpc11cx4-library/lpc_chip_11cxx_lib/inc/clock_11xx.h ****  * @return	Nothing
 217:../../lpc11cx4-library/lpc_chip_11cxx_lib/inc/clock_11xx.h ****  * @note	Use 0 to disable, or a divider value of 1 to 255. The system clock
 218:../../lpc11cx4-library/lpc_chip_11cxx_lib/inc/clock_11xx.h ****  * rate is the main system clock divided by this value.
 219:../../lpc11cx4-library/lpc_chip_11cxx_lib/inc/clock_11xx.h ****  */
 220:../../lpc11cx4-library/lpc_chip_11cxx_lib/inc/clock_11xx.h **** STATIC INLINE void Chip_Clock_SetSysClockDiv(uint32_t div)
 221:../../lpc11cx4-library/lpc_chip_11cxx_lib/inc/clock_11xx.h **** {
 222:../../lpc11cx4-library/lpc_chip_11cxx_lib/inc/clock_11xx.h **** 	LPC_SYSCTL->SYSAHBCLKDIV  = div;
 223:../../lpc11cx4-library/lpc_chip_11cxx_lib/inc/clock_11xx.h **** }
 224:../../lpc11cx4-library/lpc_chip_11cxx_lib/inc/clock_11xx.h **** 
 225:../../lpc11cx4-library/lpc_chip_11cxx_lib/inc/clock_11xx.h **** /**
 226:../../lpc11cx4-library/lpc_chip_11cxx_lib/inc/clock_11xx.h ****  * System and peripheral clocks
 227:../../lpc11cx4-library/lpc_chip_11cxx_lib/inc/clock_11xx.h ****  */
 228:../../lpc11cx4-library/lpc_chip_11cxx_lib/inc/clock_11xx.h **** typedef enum CHIP_SYSCTL_CLOCK {
 229:../../lpc11cx4-library/lpc_chip_11cxx_lib/inc/clock_11xx.h **** 	SYSCTL_CLOCK_SYS = 0,				/*!< 0: System clock */
 230:../../lpc11cx4-library/lpc_chip_11cxx_lib/inc/clock_11xx.h **** 	SYSCTL_CLOCK_ROM,					/*!<1:  ROM clock */
 231:../../lpc11cx4-library/lpc_chip_11cxx_lib/inc/clock_11xx.h **** 	SYSCTL_CLOCK_RAM,					/*!< 2: RAM clock */
 232:../../lpc11cx4-library/lpc_chip_11cxx_lib/inc/clock_11xx.h **** 	SYSCTL_CLOCK_FLASHREG,				/*!< 3: FLASH register interface clock */
 233:../../lpc11cx4-library/lpc_chip_11cxx_lib/inc/clock_11xx.h **** 	SYSCTL_CLOCK_FLASHARRAY,			/*!< 4: FLASH array access clock */
 234:../../lpc11cx4-library/lpc_chip_11cxx_lib/inc/clock_11xx.h **** #if defined(CHIP_LPC110X)
 235:../../lpc11cx4-library/lpc_chip_11cxx_lib/inc/clock_11xx.h **** 	SYSCTL_CLOCK_RESERVED5,				/*!< 5: Reserved */
 236:../../lpc11cx4-library/lpc_chip_11cxx_lib/inc/clock_11xx.h **** #else
 237:../../lpc11cx4-library/lpc_chip_11cxx_lib/inc/clock_11xx.h **** 	SYSCTL_CLOCK_I2C,					/*!< 5: I2C clock, not on LPC110x */
 238:../../lpc11cx4-library/lpc_chip_11cxx_lib/inc/clock_11xx.h **** #endif
 239:../../lpc11cx4-library/lpc_chip_11cxx_lib/inc/clock_11xx.h **** 	SYSCTL_CLOCK_GPIO,					/*!< 6: GPIO clock */
 240:../../lpc11cx4-library/lpc_chip_11cxx_lib/inc/clock_11xx.h **** 	SYSCTL_CLOCK_CT16B0,				/*!< 7: 16-bit Counter/timer 0 clock */
 241:../../lpc11cx4-library/lpc_chip_11cxx_lib/inc/clock_11xx.h **** 	SYSCTL_CLOCK_CT16B1,				/*!< 8: 16-bit Counter/timer 1 clock */
 242:../../lpc11cx4-library/lpc_chip_11cxx_lib/inc/clock_11xx.h **** 	SYSCTL_CLOCK_CT32B0,				/*!< 9: 32-bit Counter/timer 0 clock */
 243:../../lpc11cx4-library/lpc_chip_11cxx_lib/inc/clock_11xx.h **** 	SYSCTL_CLOCK_CT32B1,				/*!< 10: 32-bit Counter/timer 1 clock */
 244:../../lpc11cx4-library/lpc_chip_11cxx_lib/inc/clock_11xx.h **** 	SYSCTL_CLOCK_SSP0,					/*!< 11: SSP0 clock */
 245:../../lpc11cx4-library/lpc_chip_11cxx_lib/inc/clock_11xx.h **** 	SYSCTL_CLOCK_UART0,					/*!< 12: UART0 clock */
 246:../../lpc11cx4-library/lpc_chip_11cxx_lib/inc/clock_11xx.h **** 	SYSCTL_CLOCK_ADC,					/*!< 13: ADC clock */
 247:../../lpc11cx4-library/lpc_chip_11cxx_lib/inc/clock_11xx.h **** #if defined(CHIP_LPC11UXX)
 248:../../lpc11cx4-library/lpc_chip_11cxx_lib/inc/clock_11xx.h **** 	SYSCTL_CLOCK_USB,					/*!< 14: USB clock, LPC11Uxx only */
 249:../../lpc11cx4-library/lpc_chip_11cxx_lib/inc/clock_11xx.h **** #else
 250:../../lpc11cx4-library/lpc_chip_11cxx_lib/inc/clock_11xx.h **** 	SYSCTL_CLOCK_RESERVED14,			/*!< 14: Reserved */
 251:../../lpc11cx4-library/lpc_chip_11cxx_lib/inc/clock_11xx.h **** #endif
 252:../../lpc11cx4-library/lpc_chip_11cxx_lib/inc/clock_11xx.h **** 	SYSCTL_CLOCK_WDT,					/*!< 15: Watchdog timer clock */
 253:../../lpc11cx4-library/lpc_chip_11cxx_lib/inc/clock_11xx.h **** 	SYSCTL_CLOCK_IOCON,					/*!< 16: IOCON block clock */
ARM GAS  /tmp/ccWjBr6x.s 			page 16


 254:../../lpc11cx4-library/lpc_chip_11cxx_lib/inc/clock_11xx.h **** #if defined(CHIP_LPC11CXX)
 255:../../lpc11cx4-library/lpc_chip_11cxx_lib/inc/clock_11xx.h **** 	SYSCTL_CLOCK_CAN,					/*!< 17: CAN clock, LPC11Cxx only */
 256:../../lpc11cx4-library/lpc_chip_11cxx_lib/inc/clock_11xx.h **** #else
 257:../../lpc11cx4-library/lpc_chip_11cxx_lib/inc/clock_11xx.h **** 	SYSCTL_CLOCK_RESERVED17,			/*!< 17: Reserved */
 258:../../lpc11cx4-library/lpc_chip_11cxx_lib/inc/clock_11xx.h **** #endif
 259:../../lpc11cx4-library/lpc_chip_11cxx_lib/inc/clock_11xx.h **** #if !(defined(CHIP_LPC110X) || defined(CHIP_LPC11XXLV))  
 260:../../lpc11cx4-library/lpc_chip_11cxx_lib/inc/clock_11xx.h **** 	SYSCTL_CLOCK_SSP1,					/*!< 18: SSP1 clock, LPC11A/C/E/Uxx//1125 only */
 261:../../lpc11cx4-library/lpc_chip_11cxx_lib/inc/clock_11xx.h **** #if !defined(CHIP_LPC11CXX)
 262:../../lpc11cx4-library/lpc_chip_11cxx_lib/inc/clock_11xx.h **** 	SYSCTL_CLOCK_PINT,					/*!< 19: GPIO Pin int register interface clock, LPC11A/E/Uxx only */
 263:../../lpc11cx4-library/lpc_chip_11cxx_lib/inc/clock_11xx.h **** #if defined(CHIP_LPC11AXX)
 264:../../lpc11cx4-library/lpc_chip_11cxx_lib/inc/clock_11xx.h **** 	SYSCTL_CLOCK_ACOMP,					/*!< 20: Analog comparator clock, LPC11Axx only */
 265:../../lpc11cx4-library/lpc_chip_11cxx_lib/inc/clock_11xx.h **** 	SYSCTL_CLOCK_DAC,					/*!< 21: DAC clock, LPC11Axx only */
 266:../../lpc11cx4-library/lpc_chip_11cxx_lib/inc/clock_11xx.h **** #else
 267:../../lpc11cx4-library/lpc_chip_11cxx_lib/inc/clock_11xx.h **** 	SYSCTL_CLOCK_RESERVED20,			/*!< 20: Reserved */
 268:../../lpc11cx4-library/lpc_chip_11cxx_lib/inc/clock_11xx.h **** 	SYSCTL_CLOCK_RESERVED21,			/*!< 21: Reserved */
 269:../../lpc11cx4-library/lpc_chip_11cxx_lib/inc/clock_11xx.h **** #endif
 270:../../lpc11cx4-library/lpc_chip_11cxx_lib/inc/clock_11xx.h **** 	SYSCTL_CLOCK_RESERVED22,			/*!< 22: Reserved */
 271:../../lpc11cx4-library/lpc_chip_11cxx_lib/inc/clock_11xx.h **** 	SYSCTL_CLOCK_P0INT,					/*!< 23: GPIO GROUP1 interrupt register clock, LPC11Axx only */
 272:../../lpc11cx4-library/lpc_chip_11cxx_lib/inc/clock_11xx.h **** 	SYSCTL_CLOCK_GROUP0INT = SYSCTL_CLOCK_P0INT,/*!< 23: GPIO GROUP0 interrupt register interface cloc
 273:../../lpc11cx4-library/lpc_chip_11cxx_lib/inc/clock_11xx.h **** 	SYSCTL_CLOCK_P1INT,					/*!< 24: GPIO GROUP1 interrupt register clock, LPC11Axx only */
 274:../../lpc11cx4-library/lpc_chip_11cxx_lib/inc/clock_11xx.h **** 	SYSCTL_CLOCK_GROUP1INT = SYSCTL_CLOCK_P1INT,/*!< 24: GPIO GROUP1 interrupt register interface cloc
 275:../../lpc11cx4-library/lpc_chip_11cxx_lib/inc/clock_11xx.h **** 	SYSCTL_CLOCK_RESERVED25,			/*!< 25: Reserved */
 276:../../lpc11cx4-library/lpc_chip_11cxx_lib/inc/clock_11xx.h **** #if defined(CHIP_LPC11EXX)  || defined(CHIP_LPC11UXX)
 277:../../lpc11cx4-library/lpc_chip_11cxx_lib/inc/clock_11xx.h **** 	SYSCTL_CLOCK_RAM1,					/*!< 26: SRAM block (0x20000000) clock, LPC11E/Uxx only */
 278:../../lpc11cx4-library/lpc_chip_11cxx_lib/inc/clock_11xx.h **** #else
 279:../../lpc11cx4-library/lpc_chip_11cxx_lib/inc/clock_11xx.h **** 	SYSCTL_CLOCK_RESERVED26,			/*!< 26: Reserved */
 280:../../lpc11cx4-library/lpc_chip_11cxx_lib/inc/clock_11xx.h **** #endif
 281:../../lpc11cx4-library/lpc_chip_11cxx_lib/inc/clock_11xx.h **** #if defined(CHIP_LPC11UXX)
 282:../../lpc11cx4-library/lpc_chip_11cxx_lib/inc/clock_11xx.h **** 	SYSCTL_CLOCK_USBRAM,				/*!< 27: USB SRAM block clock, LPC11Uxx only */
 283:../../lpc11cx4-library/lpc_chip_11cxx_lib/inc/clock_11xx.h **** #else
 284:../../lpc11cx4-library/lpc_chip_11cxx_lib/inc/clock_11xx.h **** 	SYSCTL_CLOCK_RESERVED27,			/*!< 27: Reserved */
 285:../../lpc11cx4-library/lpc_chip_11cxx_lib/inc/clock_11xx.h **** #endif
 286:../../lpc11cx4-library/lpc_chip_11cxx_lib/inc/clock_11xx.h **** #endif /* !defined(CHIP_LPC11CXX) */
 287:../../lpc11cx4-library/lpc_chip_11cxx_lib/inc/clock_11xx.h **** #endif /* !(defined(CHIP_LPC110X) || defined(CHIP_LPC11XXLV)) */
 288:../../lpc11cx4-library/lpc_chip_11cxx_lib/inc/clock_11xx.h **** } CHIP_SYSCTL_CLOCK_T;
 289:../../lpc11cx4-library/lpc_chip_11cxx_lib/inc/clock_11xx.h **** 
 290:../../lpc11cx4-library/lpc_chip_11cxx_lib/inc/clock_11xx.h **** /**
 291:../../lpc11cx4-library/lpc_chip_11cxx_lib/inc/clock_11xx.h ****  * @brief	Enable a system or peripheral clock
 292:../../lpc11cx4-library/lpc_chip_11cxx_lib/inc/clock_11xx.h ****  * @param	clk	: Clock to enable
 293:../../lpc11cx4-library/lpc_chip_11cxx_lib/inc/clock_11xx.h ****  * @return	Nothing
 294:../../lpc11cx4-library/lpc_chip_11cxx_lib/inc/clock_11xx.h ****  */
 295:../../lpc11cx4-library/lpc_chip_11cxx_lib/inc/clock_11xx.h **** STATIC INLINE void Chip_Clock_EnablePeriphClock(CHIP_SYSCTL_CLOCK_T clk)
 296:../../lpc11cx4-library/lpc_chip_11cxx_lib/inc/clock_11xx.h **** {
 297:../../lpc11cx4-library/lpc_chip_11cxx_lib/inc/clock_11xx.h **** 	LPC_SYSCTL->SYSAHBCLKCTRL |= (1 << clk);
 298:../../lpc11cx4-library/lpc_chip_11cxx_lib/inc/clock_11xx.h **** }
 299:../../lpc11cx4-library/lpc_chip_11cxx_lib/inc/clock_11xx.h **** 
 300:../../lpc11cx4-library/lpc_chip_11cxx_lib/inc/clock_11xx.h **** /**
 301:../../lpc11cx4-library/lpc_chip_11cxx_lib/inc/clock_11xx.h ****  * @brief	Disable a system or peripheral clock
 302:../../lpc11cx4-library/lpc_chip_11cxx_lib/inc/clock_11xx.h ****  * @param	clk	: Clock to disable
 303:../../lpc11cx4-library/lpc_chip_11cxx_lib/inc/clock_11xx.h ****  * @return	Nothing
 304:../../lpc11cx4-library/lpc_chip_11cxx_lib/inc/clock_11xx.h ****  */
 305:../../lpc11cx4-library/lpc_chip_11cxx_lib/inc/clock_11xx.h **** STATIC INLINE void Chip_Clock_DisablePeriphClock(CHIP_SYSCTL_CLOCK_T clk)
 306:../../lpc11cx4-library/lpc_chip_11cxx_lib/inc/clock_11xx.h **** {
 307:../../lpc11cx4-library/lpc_chip_11cxx_lib/inc/clock_11xx.h **** 	LPC_SYSCTL->SYSAHBCLKCTRL &= ~(1 << clk);
 308:../../lpc11cx4-library/lpc_chip_11cxx_lib/inc/clock_11xx.h **** }
 309:../../lpc11cx4-library/lpc_chip_11cxx_lib/inc/clock_11xx.h **** 
 310:../../lpc11cx4-library/lpc_chip_11cxx_lib/inc/clock_11xx.h **** /**
ARM GAS  /tmp/ccWjBr6x.s 			page 17


 311:../../lpc11cx4-library/lpc_chip_11cxx_lib/inc/clock_11xx.h ****  * @brief	Set SSP0 divider
 312:../../lpc11cx4-library/lpc_chip_11cxx_lib/inc/clock_11xx.h ****  * @param	div	: divider for SSP0 clock
 313:../../lpc11cx4-library/lpc_chip_11cxx_lib/inc/clock_11xx.h ****  * @return	Nothing
 314:../../lpc11cx4-library/lpc_chip_11cxx_lib/inc/clock_11xx.h ****  * @note	Use 0 to disable, or a divider value of 1 to 255. The SSP0 clock
 315:../../lpc11cx4-library/lpc_chip_11cxx_lib/inc/clock_11xx.h ****  * rate is the main system clock divided by this value.
 316:../../lpc11cx4-library/lpc_chip_11cxx_lib/inc/clock_11xx.h ****  */
 317:../../lpc11cx4-library/lpc_chip_11cxx_lib/inc/clock_11xx.h **** STATIC INLINE void Chip_Clock_SetSSP0ClockDiv(uint32_t div)
 318:../../lpc11cx4-library/lpc_chip_11cxx_lib/inc/clock_11xx.h **** {
 319:../../lpc11cx4-library/lpc_chip_11cxx_lib/inc/clock_11xx.h **** 	LPC_SYSCTL->SSP0CLKDIV  = div;
 320:../../lpc11cx4-library/lpc_chip_11cxx_lib/inc/clock_11xx.h **** }
 321:../../lpc11cx4-library/lpc_chip_11cxx_lib/inc/clock_11xx.h **** 
 322:../../lpc11cx4-library/lpc_chip_11cxx_lib/inc/clock_11xx.h **** /**
 323:../../lpc11cx4-library/lpc_chip_11cxx_lib/inc/clock_11xx.h ****  * @brief	Return SSP0 divider
 324:../../lpc11cx4-library/lpc_chip_11cxx_lib/inc/clock_11xx.h ****  * @return	divider for SSP0 clock
 325:../../lpc11cx4-library/lpc_chip_11cxx_lib/inc/clock_11xx.h ****  * @note	A value of 0 means the clock is disabled.
 326:../../lpc11cx4-library/lpc_chip_11cxx_lib/inc/clock_11xx.h ****  */
 327:../../lpc11cx4-library/lpc_chip_11cxx_lib/inc/clock_11xx.h **** STATIC INLINE uint32_t Chip_Clock_GetSSP0ClockDiv(void)
 328:../../lpc11cx4-library/lpc_chip_11cxx_lib/inc/clock_11xx.h **** {
 329:../../lpc11cx4-library/lpc_chip_11cxx_lib/inc/clock_11xx.h **** 	return LPC_SYSCTL->SSP0CLKDIV;
 330:../../lpc11cx4-library/lpc_chip_11cxx_lib/inc/clock_11xx.h **** }
 331:../../lpc11cx4-library/lpc_chip_11cxx_lib/inc/clock_11xx.h **** 
 332:../../lpc11cx4-library/lpc_chip_11cxx_lib/inc/clock_11xx.h **** /**
 333:../../lpc11cx4-library/lpc_chip_11cxx_lib/inc/clock_11xx.h ****  * @brief	Set UART divider clock
 334:../../lpc11cx4-library/lpc_chip_11cxx_lib/inc/clock_11xx.h ****  * @param	div	: divider for UART clock
 335:../../lpc11cx4-library/lpc_chip_11cxx_lib/inc/clock_11xx.h ****  * @return	Nothing
 336:../../lpc11cx4-library/lpc_chip_11cxx_lib/inc/clock_11xx.h ****  * @note	Use 0 to disable, or a divider value of 1 to 255. The UART clock
 337:../../lpc11cx4-library/lpc_chip_11cxx_lib/inc/clock_11xx.h ****  * rate is the main system clock divided by this value.
 338:../../lpc11cx4-library/lpc_chip_11cxx_lib/inc/clock_11xx.h ****  */
 339:../../lpc11cx4-library/lpc_chip_11cxx_lib/inc/clock_11xx.h **** STATIC INLINE void Chip_Clock_SetUARTClockDiv(uint32_t div)
 340:../../lpc11cx4-library/lpc_chip_11cxx_lib/inc/clock_11xx.h **** {
 341:../../lpc11cx4-library/lpc_chip_11cxx_lib/inc/clock_11xx.h **** 	LPC_SYSCTL->USARTCLKDIV  = div;
 342:../../lpc11cx4-library/lpc_chip_11cxx_lib/inc/clock_11xx.h **** }
 343:../../lpc11cx4-library/lpc_chip_11cxx_lib/inc/clock_11xx.h **** 
 344:../../lpc11cx4-library/lpc_chip_11cxx_lib/inc/clock_11xx.h **** /**
 345:../../lpc11cx4-library/lpc_chip_11cxx_lib/inc/clock_11xx.h ****  * @brief	Return UART divider
 346:../../lpc11cx4-library/lpc_chip_11cxx_lib/inc/clock_11xx.h ****  * @return	divider for UART clock
 347:../../lpc11cx4-library/lpc_chip_11cxx_lib/inc/clock_11xx.h ****  * @note	A value of 0 means the clock is disabled.
 348:../../lpc11cx4-library/lpc_chip_11cxx_lib/inc/clock_11xx.h ****  */
 349:../../lpc11cx4-library/lpc_chip_11cxx_lib/inc/clock_11xx.h **** STATIC INLINE uint32_t Chip_Clock_GetUARTClockDiv(void)
 350:../../lpc11cx4-library/lpc_chip_11cxx_lib/inc/clock_11xx.h **** {
 351:../../lpc11cx4-library/lpc_chip_11cxx_lib/inc/clock_11xx.h **** 	return LPC_SYSCTL->USARTCLKDIV;
 352:../../lpc11cx4-library/lpc_chip_11cxx_lib/inc/clock_11xx.h **** }
 353:../../lpc11cx4-library/lpc_chip_11cxx_lib/inc/clock_11xx.h **** 
 354:../../lpc11cx4-library/lpc_chip_11cxx_lib/inc/clock_11xx.h **** #if defined(CHIP_LPC11CXX) || defined(CHIP_LPC11EXX) || defined(CHIP_LPC11AXX) || defined(CHIP_LPC1
 355:../../lpc11cx4-library/lpc_chip_11cxx_lib/inc/clock_11xx.h **** /**
 356:../../lpc11cx4-library/lpc_chip_11cxx_lib/inc/clock_11xx.h ****  * @brief	Set SSP1 divider clock
 357:../../lpc11cx4-library/lpc_chip_11cxx_lib/inc/clock_11xx.h ****  * @param	div	: divider for SSP1 clock
 358:../../lpc11cx4-library/lpc_chip_11cxx_lib/inc/clock_11xx.h ****  * @return	Nothing
 359:../../lpc11cx4-library/lpc_chip_11cxx_lib/inc/clock_11xx.h ****  * @note	Use 0 to disable, or a divider value of 1 to 255. The SSP1 clock
 360:../../lpc11cx4-library/lpc_chip_11cxx_lib/inc/clock_11xx.h ****  * rate is the main system clock divided by this value.
 361:../../lpc11cx4-library/lpc_chip_11cxx_lib/inc/clock_11xx.h ****  */
 362:../../lpc11cx4-library/lpc_chip_11cxx_lib/inc/clock_11xx.h **** STATIC INLINE void Chip_Clock_SetSSP1ClockDiv(uint32_t div)
 363:../../lpc11cx4-library/lpc_chip_11cxx_lib/inc/clock_11xx.h **** {
 364:../../lpc11cx4-library/lpc_chip_11cxx_lib/inc/clock_11xx.h **** 	LPC_SYSCTL->SSP1CLKDIV  = div;
 365:../../lpc11cx4-library/lpc_chip_11cxx_lib/inc/clock_11xx.h **** }
 366:../../lpc11cx4-library/lpc_chip_11cxx_lib/inc/clock_11xx.h **** 
 367:../../lpc11cx4-library/lpc_chip_11cxx_lib/inc/clock_11xx.h **** /**
ARM GAS  /tmp/ccWjBr6x.s 			page 18


 368:../../lpc11cx4-library/lpc_chip_11cxx_lib/inc/clock_11xx.h ****  * @brief	Return SSP1 divider
 369:../../lpc11cx4-library/lpc_chip_11cxx_lib/inc/clock_11xx.h ****  * @return	divider for SSP1 clock
 370:../../lpc11cx4-library/lpc_chip_11cxx_lib/inc/clock_11xx.h ****  * @note	A value of 0 means the clock is disabled.
 371:../../lpc11cx4-library/lpc_chip_11cxx_lib/inc/clock_11xx.h ****  */
 372:../../lpc11cx4-library/lpc_chip_11cxx_lib/inc/clock_11xx.h **** STATIC INLINE uint32_t Chip_Clock_GetSSP1ClockDiv(void)
 373:../../lpc11cx4-library/lpc_chip_11cxx_lib/inc/clock_11xx.h **** {
 374:../../lpc11cx4-library/lpc_chip_11cxx_lib/inc/clock_11xx.h **** 	return LPC_SYSCTL->SSP1CLKDIV;
 375:../../lpc11cx4-library/lpc_chip_11cxx_lib/inc/clock_11xx.h **** }
 376:../../lpc11cx4-library/lpc_chip_11cxx_lib/inc/clock_11xx.h **** 
 377:../../lpc11cx4-library/lpc_chip_11cxx_lib/inc/clock_11xx.h **** #endif /*defined(CHIP_LPC11CXX) || defined(CHIP_LPC11EXX) || defined(CHIP_LPC11AXX) || defined(CHIP
 378:../../lpc11cx4-library/lpc_chip_11cxx_lib/inc/clock_11xx.h **** 
 379:../../lpc11cx4-library/lpc_chip_11cxx_lib/inc/clock_11xx.h **** #if defined(CHIP_LPC11UXX)
 380:../../lpc11cx4-library/lpc_chip_11cxx_lib/inc/clock_11xx.h **** /**
 381:../../lpc11cx4-library/lpc_chip_11cxx_lib/inc/clock_11xx.h ****  * Clock sources for USB
 382:../../lpc11cx4-library/lpc_chip_11cxx_lib/inc/clock_11xx.h ****  */
 383:../../lpc11cx4-library/lpc_chip_11cxx_lib/inc/clock_11xx.h **** typedef enum CHIP_SYSCTL_USBCLKSRC {
 384:../../lpc11cx4-library/lpc_chip_11cxx_lib/inc/clock_11xx.h **** 	SYSCTL_USBCLKSRC_PLLOUT = 0,	/*!< USB PLL out */
 385:../../lpc11cx4-library/lpc_chip_11cxx_lib/inc/clock_11xx.h **** 	SYSCTL_USBCLKSRC_MAINSYSCLK,	/*!< Main system clock */
 386:../../lpc11cx4-library/lpc_chip_11cxx_lib/inc/clock_11xx.h **** } CHIP_SYSCTL_USBCLKSRC_T;
 387:../../lpc11cx4-library/lpc_chip_11cxx_lib/inc/clock_11xx.h **** 
 388:../../lpc11cx4-library/lpc_chip_11cxx_lib/inc/clock_11xx.h **** /**
 389:../../lpc11cx4-library/lpc_chip_11cxx_lib/inc/clock_11xx.h ****  * @brief	Set USB clock source and divider
 390:../../lpc11cx4-library/lpc_chip_11cxx_lib/inc/clock_11xx.h ****  * @param	src	: Clock source for USB
 391:../../lpc11cx4-library/lpc_chip_11cxx_lib/inc/clock_11xx.h ****  * @param	div	: divider for USB clock
 392:../../lpc11cx4-library/lpc_chip_11cxx_lib/inc/clock_11xx.h ****  * @return	Nothing
 393:../../lpc11cx4-library/lpc_chip_11cxx_lib/inc/clock_11xx.h ****  * @note	Use 0 to disable, or a divider value of 1 to 255. The USB clock
 394:../../lpc11cx4-library/lpc_chip_11cxx_lib/inc/clock_11xx.h ****  * rate is either the main system clock or USB PLL output clock divided
 395:../../lpc11cx4-library/lpc_chip_11cxx_lib/inc/clock_11xx.h ****  * by this value. This function will also toggle the clock source
 396:../../lpc11cx4-library/lpc_chip_11cxx_lib/inc/clock_11xx.h ****  * update register to update the clock source.
 397:../../lpc11cx4-library/lpc_chip_11cxx_lib/inc/clock_11xx.h ****  */
 398:../../lpc11cx4-library/lpc_chip_11cxx_lib/inc/clock_11xx.h **** void Chip_Clock_SetUSBClockSource(CHIP_SYSCTL_USBCLKSRC_T src, uint32_t div);
 399:../../lpc11cx4-library/lpc_chip_11cxx_lib/inc/clock_11xx.h **** 
 400:../../lpc11cx4-library/lpc_chip_11cxx_lib/inc/clock_11xx.h **** #endif /*CHIP_LPC11UXX*/
 401:../../lpc11cx4-library/lpc_chip_11cxx_lib/inc/clock_11xx.h **** 
 402:../../lpc11cx4-library/lpc_chip_11cxx_lib/inc/clock_11xx.h **** #if defined(CHIP_LPC110X) || defined(CHIP_LPC11XXLV) || defined(CHIP_LPC11CXX) || defined(CHIP_LPC1
 403:../../lpc11cx4-library/lpc_chip_11cxx_lib/inc/clock_11xx.h **** /**
 404:../../lpc11cx4-library/lpc_chip_11cxx_lib/inc/clock_11xx.h ****  * Clock sources for WDT
 405:../../lpc11cx4-library/lpc_chip_11cxx_lib/inc/clock_11xx.h ****  */
 406:../../lpc11cx4-library/lpc_chip_11cxx_lib/inc/clock_11xx.h **** typedef enum CHIP_SYSCTL_WDTCLKSRC {
 407:../../lpc11cx4-library/lpc_chip_11cxx_lib/inc/clock_11xx.h **** 	SYSCTL_WDTCLKSRC_IRC = 0,		/*!< Internal oscillator for watchdog clock */
 408:../../lpc11cx4-library/lpc_chip_11cxx_lib/inc/clock_11xx.h **** 	SYSCTL_WDTCLKSRC_MAINSYSCLK,	/*!< Main system clock for watchdog clock */
 409:../../lpc11cx4-library/lpc_chip_11cxx_lib/inc/clock_11xx.h **** 	SYSCTL_WDTCLKSRC_WDTOSC,		/*!< Watchdog oscillator for watchdog clock */
 410:../../lpc11cx4-library/lpc_chip_11cxx_lib/inc/clock_11xx.h **** } CHIP_SYSCTL_WDTCLKSRC_T;
 411:../../lpc11cx4-library/lpc_chip_11cxx_lib/inc/clock_11xx.h **** 
 412:../../lpc11cx4-library/lpc_chip_11cxx_lib/inc/clock_11xx.h **** /**
 413:../../lpc11cx4-library/lpc_chip_11cxx_lib/inc/clock_11xx.h ****  * @brief	Set WDT clock source and divider
 414:../../lpc11cx4-library/lpc_chip_11cxx_lib/inc/clock_11xx.h ****  * @param	src	: Clock source for WDT
 415:../../lpc11cx4-library/lpc_chip_11cxx_lib/inc/clock_11xx.h ****  * @param	div	: divider for WDT clock
 416:../../lpc11cx4-library/lpc_chip_11cxx_lib/inc/clock_11xx.h ****  * @return	Nothing
 417:../../lpc11cx4-library/lpc_chip_11cxx_lib/inc/clock_11xx.h ****  * @note	Use 0 to disable, or a divider value of 1 to 255. The WDT clock
 418:../../lpc11cx4-library/lpc_chip_11cxx_lib/inc/clock_11xx.h ****  * rate is the clock source divided by the divider. This function will
 419:../../lpc11cx4-library/lpc_chip_11cxx_lib/inc/clock_11xx.h ****  * also toggle the clock source update register to update the clock
 420:../../lpc11cx4-library/lpc_chip_11cxx_lib/inc/clock_11xx.h ****  * source.
 421:../../lpc11cx4-library/lpc_chip_11cxx_lib/inc/clock_11xx.h ****  */
 422:../../lpc11cx4-library/lpc_chip_11cxx_lib/inc/clock_11xx.h **** void Chip_Clock_SetWDTClockSource(CHIP_SYSCTL_WDTCLKSRC_T src, uint32_t div);
 423:../../lpc11cx4-library/lpc_chip_11cxx_lib/inc/clock_11xx.h **** 
 424:../../lpc11cx4-library/lpc_chip_11cxx_lib/inc/clock_11xx.h **** #endif
ARM GAS  /tmp/ccWjBr6x.s 			page 19


 425:../../lpc11cx4-library/lpc_chip_11cxx_lib/inc/clock_11xx.h **** 
 426:../../lpc11cx4-library/lpc_chip_11cxx_lib/inc/clock_11xx.h **** #if !defined(CHIP_LPC110X)
 427:../../lpc11cx4-library/lpc_chip_11cxx_lib/inc/clock_11xx.h **** /**
 428:../../lpc11cx4-library/lpc_chip_11cxx_lib/inc/clock_11xx.h ****  * Clock sources for CLKOUT
 429:../../lpc11cx4-library/lpc_chip_11cxx_lib/inc/clock_11xx.h ****  */
 430:../../lpc11cx4-library/lpc_chip_11cxx_lib/inc/clock_11xx.h **** typedef enum CHIP_SYSCTL_CLKOUTSRC {
 431:../../lpc11cx4-library/lpc_chip_11cxx_lib/inc/clock_11xx.h **** 	SYSCTL_CLKOUTSRC_IRC = 0,		/*!< Internal oscillator for CLKOUT */
 432:../../lpc11cx4-library/lpc_chip_11cxx_lib/inc/clock_11xx.h **** 	SYSCTL_CLKOUTSRC_MAINOSC,		/*!< Main oscillator for CLKOUT */
 433:../../lpc11cx4-library/lpc_chip_11cxx_lib/inc/clock_11xx.h **** 	SYSCTL_CLKOUTSRC_WDTOSC,		/*!< Watchdog oscillator for CLKOUT */
 434:../../lpc11cx4-library/lpc_chip_11cxx_lib/inc/clock_11xx.h **** 	SYSCTL_CLKOUTSRC_LFOSC = SYSCTL_CLKOUTSRC_WDTOSC,	/*!< LF oscillator rate (LPC11A/Exx only) for CL
 435:../../lpc11cx4-library/lpc_chip_11cxx_lib/inc/clock_11xx.h **** 	SYSCTL_CLKOUTSRC_MAINSYSCLK,	/*!< Main system clock for CLKOUT */
 436:../../lpc11cx4-library/lpc_chip_11cxx_lib/inc/clock_11xx.h **** } CHIP_SYSCTL_CLKOUTSRC_T;
 437:../../lpc11cx4-library/lpc_chip_11cxx_lib/inc/clock_11xx.h **** 
 438:../../lpc11cx4-library/lpc_chip_11cxx_lib/inc/clock_11xx.h **** /**
 439:../../lpc11cx4-library/lpc_chip_11cxx_lib/inc/clock_11xx.h ****  * @brief	Set CLKOUT clock source and divider
 440:../../lpc11cx4-library/lpc_chip_11cxx_lib/inc/clock_11xx.h ****  * @param	src	: Clock source for CLKOUT
 441:../../lpc11cx4-library/lpc_chip_11cxx_lib/inc/clock_11xx.h ****  * @param	div	: divider for CLKOUT clock
 442:../../lpc11cx4-library/lpc_chip_11cxx_lib/inc/clock_11xx.h ****  * @return	Nothing
 443:../../lpc11cx4-library/lpc_chip_11cxx_lib/inc/clock_11xx.h ****  * @note	Use 0 to disable, or a divider value of 1 to 255. The CLKOUT clock
 444:../../lpc11cx4-library/lpc_chip_11cxx_lib/inc/clock_11xx.h ****  * rate is the clock source divided by the divider. This function will
 445:../../lpc11cx4-library/lpc_chip_11cxx_lib/inc/clock_11xx.h ****  * also toggle the clock source update register to update the clock
 446:../../lpc11cx4-library/lpc_chip_11cxx_lib/inc/clock_11xx.h ****  * source.
 447:../../lpc11cx4-library/lpc_chip_11cxx_lib/inc/clock_11xx.h ****  */
 448:../../lpc11cx4-library/lpc_chip_11cxx_lib/inc/clock_11xx.h **** void Chip_Clock_SetCLKOUTSource(CHIP_SYSCTL_CLKOUTSRC_T src, uint32_t div);
 449:../../lpc11cx4-library/lpc_chip_11cxx_lib/inc/clock_11xx.h **** 
 450:../../lpc11cx4-library/lpc_chip_11cxx_lib/inc/clock_11xx.h **** #endif
 451:../../lpc11cx4-library/lpc_chip_11cxx_lib/inc/clock_11xx.h **** 
 452:../../lpc11cx4-library/lpc_chip_11cxx_lib/inc/clock_11xx.h **** /**
 453:../../lpc11cx4-library/lpc_chip_11cxx_lib/inc/clock_11xx.h ****  * @brief	Returns the main oscillator clock rate
 454:../../lpc11cx4-library/lpc_chip_11cxx_lib/inc/clock_11xx.h ****  * @return	main oscillator clock rate
 455:../../lpc11cx4-library/lpc_chip_11cxx_lib/inc/clock_11xx.h ****  */
 456:../../lpc11cx4-library/lpc_chip_11cxx_lib/inc/clock_11xx.h **** STATIC INLINE uint32_t Chip_Clock_GetMainOscRate(void)
 457:../../lpc11cx4-library/lpc_chip_11cxx_lib/inc/clock_11xx.h **** {
 458:../../lpc11cx4-library/lpc_chip_11cxx_lib/inc/clock_11xx.h **** 	return OscRateIn;
 373              		.loc 2 458 0
 374 0012 034B     		ldr	r3, .L30+4	@ tmp120,
 375 0014 1868     		ldr	r0, [r3]	@ <retval>, OscRateIn
 376              	.LBE53:
 377              	.LBE52:
 194:../../lpc11cx4-library/lpc_chip_11cxx_lib/src/clock_11xx.c **** 
 378              		.loc 1 194 0
 379 0016 FBE7     		b	.L24	@
 380              	.L28:
 189:../../lpc11cx4-library/lpc_chip_11cxx_lib/src/clock_11xx.c **** 		break;
 381              		.loc 1 189 0
 382 0018 0248     		ldr	r0, .L30+8	@ <retval>,
 383              	.LVL9:
 206:../../lpc11cx4-library/lpc_chip_11cxx_lib/src/clock_11xx.c **** }
 384              		.loc 1 206 0
 385 001a F9E7     		b	.L24	@
 386              	.L31:
 387              		.align	2
 388              	.L30:
 389 001c 00800440 		.word	1074036736
 390 0020 00000000 		.word	OscRateIn
 391 0024 001BB700 		.word	12000000
 392              		.cfi_endproc
ARM GAS  /tmp/ccWjBr6x.s 			page 20


 393              	.LFE206:
 394              		.size	Chip_Clock_GetSystemPLLInClockRate, .-Chip_Clock_GetSystemPLLInClockRate
 395              		.section	.text.Chip_Clock_GetSystemPLLOutClockRate,"ax",%progbits
 396              		.align	1
 397              		.p2align 2,,3
 398              		.global	Chip_Clock_GetSystemPLLOutClockRate
 399              		.syntax unified
 400              		.code	16
 401              		.thumb_func
 402              		.fpu softvfp
 403              		.type	Chip_Clock_GetSystemPLLOutClockRate, %function
 404              	Chip_Clock_GetSystemPLLOutClockRate:
 405              	.LFB207:
 208:../../lpc11cx4-library/lpc_chip_11cxx_lib/src/clock_11xx.c **** 
 209:../../lpc11cx4-library/lpc_chip_11cxx_lib/src/clock_11xx.c **** /* Return System PLL output clock rate */
 210:../../lpc11cx4-library/lpc_chip_11cxx_lib/src/clock_11xx.c **** uint32_t Chip_Clock_GetSystemPLLOutClockRate(void)
 211:../../lpc11cx4-library/lpc_chip_11cxx_lib/src/clock_11xx.c **** {
 406              		.loc 1 211 0
 407              		.cfi_startproc
 408              		@ args = 0, pretend = 0, frame = 8
 409              		@ frame_needed = 0, uses_anonymous_args = 0
 410              		@ link register save eliminated.
 411              	.LBB54:
 412              	.LBB55:
 187:../../lpc11cx4-library/lpc_chip_11cxx_lib/src/clock_11xx.c **** 	case SYSCTL_PLLCLKSRC_IRC:
 413              		.loc 1 187 0
 414 0000 0322     		movs	r2, #3	@ tmp125,
 415              	.LBE55:
 416              	.LBE54:
 212:../../lpc11cx4-library/lpc_chip_11cxx_lib/src/clock_11xx.c **** 	return Chip_Clock_GetPLLFreq(LPC_SYSCTL->SYSPLLCTRL,
 417              		.loc 1 212 0
 418 0002 0C4B     		ldr	r3, .L39	@ tmp121,
 211:../../lpc11cx4-library/lpc_chip_11cxx_lib/src/clock_11xx.c **** 	return Chip_Clock_GetPLLFreq(LPC_SYSCTL->SYSPLLCTRL,
 419              		.loc 1 211 0
 420 0004 82B0     		sub	sp, sp, #8	@,,
 421              		.cfi_def_cfa_offset 8
 422              		.loc 1 212 0
 423 0006 9968     		ldr	r1, [r3, #8]	@ _2, MEM[(struct LPC_SYSCTL_T *)1074036736B].SYSPLLCTRL
 424              	.LBB60:
 425              	.LBB58:
 187:../../lpc11cx4-library/lpc_chip_11cxx_lib/src/clock_11xx.c **** 	case SYSCTL_PLLCLKSRC_IRC:
 426              		.loc 1 187 0
 427 0008 1B6C     		ldr	r3, [r3, #64]	@ _6, MEM[(struct LPC_SYSCTL_T *)1074036736B].SYSPLLCLKSEL
 428 000a 1340     		ands	r3, r2	@ tmp126, tmp125
 429 000c 0CD0     		beq	.L34	@,
 430 000e 012B     		cmp	r3, #1	@ tmp126,
 431 0010 02D0     		beq	.L35	@,
 432 0012 0020     		movs	r0, #0	@ <retval>,
 433              	.L32:
 434              	.LBE58:
 435              	.LBE60:
 213:../../lpc11cx4-library/lpc_chip_11cxx_lib/src/clock_11xx.c **** 								 Chip_Clock_GetSystemPLLInClockRate());
 214:../../lpc11cx4-library/lpc_chip_11cxx_lib/src/clock_11xx.c **** }
 436              		.loc 1 214 0
 437 0014 02B0     		add	sp, sp, #8	@,,
 438              		@ sp needed	@
 439 0016 7047     		bx	lr
ARM GAS  /tmp/ccWjBr6x.s 			page 21


 440              	.L35:
 441 0018 1F20     		movs	r0, #31	@ tmp131,
 442              	.LBB61:
 443              	.LBB59:
 444              	.LBB56:
 445              	.LBB57:
 446              		.loc 2 458 0
 447 001a 074B     		ldr	r3, .L39+4	@ tmp134,
 448 001c 0840     		ands	r0, r1	@ tmp132, _2
 449 001e 1B68     		ldr	r3, [r3]	@ OscRateIn, OscRateIn
 450 0020 0130     		adds	r0, r0, #1	@ tmp133,
 451 0022 0193     		str	r3, [sp, #4]	@ OscRateIn, %sfp
 452 0024 5843     		muls	r0, r3	@ <retval>, OscRateIn
 453 0026 F5E7     		b	.L32	@
 454              	.L34:
 455 0028 1F23     		movs	r3, #31	@ tmp127,
 456 002a 0448     		ldr	r0, .L39+8	@ tmp130,
 457 002c 0B40     		ands	r3, r1	@ tmp128, _2
 458 002e 0133     		adds	r3, r3, #1	@ tmp129,
 459 0030 5843     		muls	r0, r3	@ <retval>, tmp129
 460 0032 EFE7     		b	.L32	@
 461              	.L40:
 462              		.align	2
 463              	.L39:
 464 0034 00800440 		.word	1074036736
 465 0038 00000000 		.word	OscRateIn
 466 003c 001BB700 		.word	12000000
 467              	.LBE57:
 468              	.LBE56:
 469              	.LBE59:
 470              	.LBE61:
 471              		.cfi_endproc
 472              	.LFE207:
 473              		.size	Chip_Clock_GetSystemPLLOutClockRate, .-Chip_Clock_GetSystemPLLOutClockRate
 474              		.section	.text.Chip_Clock_GetMainClockRate,"ax",%progbits
 475              		.align	1
 476              		.p2align 2,,3
 477              		.global	Chip_Clock_GetMainClockRate
 478              		.syntax unified
 479              		.code	16
 480              		.thumb_func
 481              		.fpu softvfp
 482              		.type	Chip_Clock_GetMainClockRate, %function
 483              	Chip_Clock_GetMainClockRate:
 484              	.LFB208:
 215:../../lpc11cx4-library/lpc_chip_11cxx_lib/src/clock_11xx.c **** 
 216:../../lpc11cx4-library/lpc_chip_11cxx_lib/src/clock_11xx.c **** #if defined(CHIP_LPC11UXX)
 217:../../lpc11cx4-library/lpc_chip_11cxx_lib/src/clock_11xx.c **** /* Return USB PLL input clock rate */
 218:../../lpc11cx4-library/lpc_chip_11cxx_lib/src/clock_11xx.c **** uint32_t Chip_Clock_GetUSBPLLInClockRate(void)
 219:../../lpc11cx4-library/lpc_chip_11cxx_lib/src/clock_11xx.c **** {
 220:../../lpc11cx4-library/lpc_chip_11cxx_lib/src/clock_11xx.c **** 	uint32_t clkRate;
 221:../../lpc11cx4-library/lpc_chip_11cxx_lib/src/clock_11xx.c **** 
 222:../../lpc11cx4-library/lpc_chip_11cxx_lib/src/clock_11xx.c **** 	switch ((CHIP_SYSCTL_PLLCLKSRC_T) (LPC_SYSCTL->USBPLLCLKSEL & 0x3)) {
 223:../../lpc11cx4-library/lpc_chip_11cxx_lib/src/clock_11xx.c **** 	case SYSCTL_PLLCLKSRC_IRC:
 224:../../lpc11cx4-library/lpc_chip_11cxx_lib/src/clock_11xx.c **** 		clkRate = Chip_Clock_GetIntOscRate();
 225:../../lpc11cx4-library/lpc_chip_11cxx_lib/src/clock_11xx.c **** 		break;
 226:../../lpc11cx4-library/lpc_chip_11cxx_lib/src/clock_11xx.c **** 
ARM GAS  /tmp/ccWjBr6x.s 			page 22


 227:../../lpc11cx4-library/lpc_chip_11cxx_lib/src/clock_11xx.c **** 	case SYSCTL_PLLCLKSRC_MAINOSC:
 228:../../lpc11cx4-library/lpc_chip_11cxx_lib/src/clock_11xx.c **** 		clkRate = Chip_Clock_GetMainOscRate();
 229:../../lpc11cx4-library/lpc_chip_11cxx_lib/src/clock_11xx.c **** 		break;
 230:../../lpc11cx4-library/lpc_chip_11cxx_lib/src/clock_11xx.c **** 
 231:../../lpc11cx4-library/lpc_chip_11cxx_lib/src/clock_11xx.c **** 	default:
 232:../../lpc11cx4-library/lpc_chip_11cxx_lib/src/clock_11xx.c **** 		clkRate = 0;
 233:../../lpc11cx4-library/lpc_chip_11cxx_lib/src/clock_11xx.c **** 	}
 234:../../lpc11cx4-library/lpc_chip_11cxx_lib/src/clock_11xx.c **** 
 235:../../lpc11cx4-library/lpc_chip_11cxx_lib/src/clock_11xx.c **** 	return clkRate;
 236:../../lpc11cx4-library/lpc_chip_11cxx_lib/src/clock_11xx.c **** }
 237:../../lpc11cx4-library/lpc_chip_11cxx_lib/src/clock_11xx.c **** 
 238:../../lpc11cx4-library/lpc_chip_11cxx_lib/src/clock_11xx.c **** /* Return USB PLL output clock rate */
 239:../../lpc11cx4-library/lpc_chip_11cxx_lib/src/clock_11xx.c **** uint32_t Chip_Clock_GetUSBPLLOutClockRate(void)
 240:../../lpc11cx4-library/lpc_chip_11cxx_lib/src/clock_11xx.c **** {
 241:../../lpc11cx4-library/lpc_chip_11cxx_lib/src/clock_11xx.c **** 	return Chip_Clock_GetPLLFreq(LPC_SYSCTL->USBPLLCTRL,
 242:../../lpc11cx4-library/lpc_chip_11cxx_lib/src/clock_11xx.c **** 								 Chip_Clock_GetUSBPLLInClockRate());
 243:../../lpc11cx4-library/lpc_chip_11cxx_lib/src/clock_11xx.c **** }
 244:../../lpc11cx4-library/lpc_chip_11cxx_lib/src/clock_11xx.c **** 
 245:../../lpc11cx4-library/lpc_chip_11cxx_lib/src/clock_11xx.c **** #endif
 246:../../lpc11cx4-library/lpc_chip_11cxx_lib/src/clock_11xx.c **** 
 247:../../lpc11cx4-library/lpc_chip_11cxx_lib/src/clock_11xx.c **** /* Return main clock rate */
 248:../../lpc11cx4-library/lpc_chip_11cxx_lib/src/clock_11xx.c **** uint32_t Chip_Clock_GetMainClockRate(void)
 249:../../lpc11cx4-library/lpc_chip_11cxx_lib/src/clock_11xx.c **** {
 485              		.loc 1 249 0
 486              		.cfi_startproc
 487              		@ args = 0, pretend = 0, frame = 8
 488              		@ frame_needed = 0, uses_anonymous_args = 0
 489              	.LVL10:
 250:../../lpc11cx4-library/lpc_chip_11cxx_lib/src/clock_11xx.c **** 	uint32_t clkRate = 0;
 251:../../lpc11cx4-library/lpc_chip_11cxx_lib/src/clock_11xx.c **** 
 252:../../lpc11cx4-library/lpc_chip_11cxx_lib/src/clock_11xx.c **** 	switch ((CHIP_SYSCTL_MAINCLKSRC_T) (LPC_SYSCTL->MAINCLKSEL & 0x3)) {
 490              		.loc 1 252 0
 491 0000 0321     		movs	r1, #3	@ tmp141,
 249:../../lpc11cx4-library/lpc_chip_11cxx_lib/src/clock_11xx.c **** 	uint32_t clkRate = 0;
 492              		.loc 1 249 0
 493 0002 00B5     		push	{lr}	@
 494              		.cfi_def_cfa_offset 4
 495              		.cfi_offset 14, -4
 496              		.loc 1 252 0
 497 0004 1B4A     		ldr	r2, .L58	@ tmp138,
 249:../../lpc11cx4-library/lpc_chip_11cxx_lib/src/clock_11xx.c **** 	uint32_t clkRate = 0;
 498              		.loc 1 249 0
 499 0006 83B0     		sub	sp, sp, #12	@,,
 500              		.cfi_def_cfa_offset 16
 501              		.loc 1 252 0
 502 0008 136F     		ldr	r3, [r2, #112]	@ _5, MEM[(struct LPC_SYSCTL_T *)1074036736B].MAINCLKSEL
 503 000a 0B40     		ands	r3, r1	@ tmp142, tmp141
 504 000c 022B     		cmp	r3, #2	@ tmp142,
 505 000e 1CD0     		beq	.L43	@,
 506 0010 032B     		cmp	r3, #3	@ tmp142,
 507 0012 0CD0     		beq	.L44	@,
 508 0014 012B     		cmp	r3, #1	@ tmp142,
 509 0016 02D0     		beq	.L57	@,
 510              	.L54:
 253:../../lpc11cx4-library/lpc_chip_11cxx_lib/src/clock_11xx.c **** 	case SYSCTL_MAINCLKSRC_IRC:
 254:../../lpc11cx4-library/lpc_chip_11cxx_lib/src/clock_11xx.c **** 		clkRate = Chip_Clock_GetIntOscRate();
 511              		.loc 1 254 0
ARM GAS  /tmp/ccWjBr6x.s 			page 23


 512 0018 1748     		ldr	r0, .L58+4	@ <retval>,
 513              	.LVL11:
 514              	.L41:
 255:../../lpc11cx4-library/lpc_chip_11cxx_lib/src/clock_11xx.c **** 		break;
 256:../../lpc11cx4-library/lpc_chip_11cxx_lib/src/clock_11xx.c **** 
 257:../../lpc11cx4-library/lpc_chip_11cxx_lib/src/clock_11xx.c **** 	case SYSCTL_MAINCLKSRC_PLLIN:
 258:../../lpc11cx4-library/lpc_chip_11cxx_lib/src/clock_11xx.c **** 		clkRate = Chip_Clock_GetSystemPLLInClockRate();
 259:../../lpc11cx4-library/lpc_chip_11cxx_lib/src/clock_11xx.c **** 		break;
 260:../../lpc11cx4-library/lpc_chip_11cxx_lib/src/clock_11xx.c **** 
 261:../../lpc11cx4-library/lpc_chip_11cxx_lib/src/clock_11xx.c **** #if defined(CHIP_LPC11AXX)
 262:../../lpc11cx4-library/lpc_chip_11cxx_lib/src/clock_11xx.c **** 	case SYSCTL_MAINCLKSRC_LFOSC:
 263:../../lpc11cx4-library/lpc_chip_11cxx_lib/src/clock_11xx.c **** 		clkRate = Chip_Clock_GetLFOOSCRate();
 264:../../lpc11cx4-library/lpc_chip_11cxx_lib/src/clock_11xx.c **** 		break;
 265:../../lpc11cx4-library/lpc_chip_11cxx_lib/src/clock_11xx.c **** 
 266:../../lpc11cx4-library/lpc_chip_11cxx_lib/src/clock_11xx.c **** #else
 267:../../lpc11cx4-library/lpc_chip_11cxx_lib/src/clock_11xx.c **** 	case SYSCTL_MAINCLKSRC_WDTOSC:
 268:../../lpc11cx4-library/lpc_chip_11cxx_lib/src/clock_11xx.c **** 		clkRate = Chip_Clock_GetWDTOSCRate();
 269:../../lpc11cx4-library/lpc_chip_11cxx_lib/src/clock_11xx.c **** 		break;
 270:../../lpc11cx4-library/lpc_chip_11cxx_lib/src/clock_11xx.c **** #endif
 271:../../lpc11cx4-library/lpc_chip_11cxx_lib/src/clock_11xx.c **** 
 272:../../lpc11cx4-library/lpc_chip_11cxx_lib/src/clock_11xx.c **** 	case SYSCTL_MAINCLKSRC_PLLOUT:
 273:../../lpc11cx4-library/lpc_chip_11cxx_lib/src/clock_11xx.c **** 		clkRate = Chip_Clock_GetSystemPLLOutClockRate();
 274:../../lpc11cx4-library/lpc_chip_11cxx_lib/src/clock_11xx.c **** 		break;
 275:../../lpc11cx4-library/lpc_chip_11cxx_lib/src/clock_11xx.c **** 	}
 276:../../lpc11cx4-library/lpc_chip_11cxx_lib/src/clock_11xx.c **** 
 277:../../lpc11cx4-library/lpc_chip_11cxx_lib/src/clock_11xx.c **** 	return clkRate;
 278:../../lpc11cx4-library/lpc_chip_11cxx_lib/src/clock_11xx.c **** }
 515              		.loc 1 278 0
 516 001a 03B0     		add	sp, sp, #12	@,,
 517              		@ sp needed	@
 518 001c 00BD     		pop	{pc}
 519              	.LVL12:
 520              	.L57:
 521              	.LBB88:
 522              	.LBB89:
 187:../../lpc11cx4-library/lpc_chip_11cxx_lib/src/clock_11xx.c **** 	case SYSCTL_PLLCLKSRC_IRC:
 523              		.loc 1 187 0
 524 001e 136C     		ldr	r3, [r2, #64]	@ _9, MEM[(struct LPC_SYSCTL_T *)1074036736B].SYSPLLCLKSEL
 525 0020 1940     		ands	r1, r3	@ tmp147, _9
 526 0022 F9D0     		beq	.L54	@,
 527 0024 0129     		cmp	r1, #1	@ tmp147,
 528 0026 23D1     		bne	.L55	@,
 529              	.LBB90:
 530              	.LBB91:
 531              		.loc 2 458 0
 532 0028 144B     		ldr	r3, .L58+8	@ tmp148,
 533 002a 1868     		ldr	r0, [r3]	@ <retval>, OscRateIn
 534 002c F5E7     		b	.L41	@
 535              	.L44:
 536              	.LBE91:
 537              	.LBE90:
 538              	.LBE89:
 539              	.LBE88:
 540              	.LBB93:
 541              	.LBB94:
 542              	.LBB95:
 212:../../lpc11cx4-library/lpc_chip_11cxx_lib/src/clock_11xx.c **** 								 Chip_Clock_GetSystemPLLInClockRate());
ARM GAS  /tmp/ccWjBr6x.s 			page 24


 543              		.loc 1 212 0
 544 002e 9168     		ldr	r1, [r2, #8]	@ _25, MEM[(struct LPC_SYSCTL_T *)1074036736B].SYSPLLCTRL
 545              	.LBB96:
 546              	.LBB97:
 187:../../lpc11cx4-library/lpc_chip_11cxx_lib/src/clock_11xx.c **** 	case SYSCTL_PLLCLKSRC_IRC:
 547              		.loc 1 187 0
 548 0030 126C     		ldr	r2, [r2, #64]	@ _26, MEM[(struct LPC_SYSCTL_T *)1074036736B].SYSPLLCLKSEL
 549 0032 1340     		ands	r3, r2	@ tmp171, _26
 550 0034 16D0     		beq	.L49	@,
 551 0036 012B     		cmp	r3, #1	@ tmp171,
 552 0038 1AD1     		bne	.L55	@,
 553 003a 1F20     		movs	r0, #31	@ tmp176,
 554              	.LBB98:
 555              	.LBB99:
 556              		.loc 2 458 0
 557 003c 0F4B     		ldr	r3, .L58+8	@ tmp179,
 558 003e 0840     		ands	r0, r1	@ tmp177, _25
 559 0040 1B68     		ldr	r3, [r3]	@ OscRateIn, OscRateIn
 560 0042 0130     		adds	r0, r0, #1	@ tmp178,
 561 0044 0193     		str	r3, [sp, #4]	@ OscRateIn, %sfp
 562 0046 5843     		muls	r0, r3	@ <retval>, OscRateIn
 563 0048 E7E7     		b	.L41	@
 564              	.L43:
 565              	.LBE99:
 566              	.LBE98:
 567              	.LBE97:
 568              	.LBE96:
 569              	.LBE95:
 570              	.LBE94:
 571              	.LBE93:
 572              	.LBB100:
 573              	.LBB101:
 574              	.LBB102:
 575              	.LBB103:
  71:../../lpc11cx4-library/lpc_chip_11cxx_lib/src/clock_11xx.c **** 
 576              		.loc 1 71 0
 577 004a 1F21     		movs	r1, #31	@ tmp159,
 578              	.LBE103:
 579              	.LBE102:
 170:../../lpc11cx4-library/lpc_chip_11cxx_lib/src/clock_11xx.c **** }
 580              		.loc 1 170 0
 581 004c 526A     		ldr	r2, [r2, #36]	@ _15, MEM[(struct LPC_SYSCTL_T *)1074036736B].WDTOSCCTRL
 582              	.LVL13:
 583              	.LBB105:
 584              	.LBB104:
  70:../../lpc11cx4-library/lpc_chip_11cxx_lib/src/clock_11xx.c **** 	div = reg & 0x1F;
 585              		.loc 1 70 0
 586 004e D305     		lsls	r3, r2, #23	@ tmp156, _15,
  71:../../lpc11cx4-library/lpc_chip_11cxx_lib/src/clock_11xx.c **** 
 587              		.loc 1 71 0
 588 0050 1140     		ands	r1, r2	@ div, _15
 589              	.LVL14:
  74:../../lpc11cx4-library/lpc_chip_11cxx_lib/src/clock_11xx.c **** }
 590              		.loc 1 74 0
 591 0052 1B0F     		lsrs	r3, r3, #28	@ tmp157, tmp156,
 592 0054 0A4A     		ldr	r2, .L58+12	@ tmp150,
 593              	.LVL15:
ARM GAS  /tmp/ccWjBr6x.s 			page 25


 594 0056 9B00     		lsls	r3, r3, #2	@ tmp158, tmp157,
 595 0058 0131     		adds	r1, r1, #1	@ tmp161,
 596              	.LVL16:
 597 005a 4900     		lsls	r1, r1, #1	@ tmp162, tmp161,
 598              	.LVL17:
 599 005c 9858     		ldr	r0, [r3, r2]	@, wdtOSCRate
 600 005e FFF7FEFF 		bl	__aeabi_uidiv	@
 601              	.LVL18:
 602              	.LBE104:
 603              	.LBE105:
 604              	.LBE101:
 605              	.LBE100:
 269:../../lpc11cx4-library/lpc_chip_11cxx_lib/src/clock_11xx.c **** #endif
 606              		.loc 1 269 0
 607 0062 DAE7     		b	.L41	@
 608              	.LVL19:
 609              	.L49:
 610 0064 1F23     		movs	r3, #31	@ tmp172,
 611 0066 0448     		ldr	r0, .L58+4	@ tmp175,
 612 0068 0B40     		ands	r3, r1	@ tmp173, _25
 613 006a 0133     		adds	r3, r3, #1	@ tmp174,
 614 006c 5843     		muls	r0, r3	@ <retval>, tmp174
 615 006e D4E7     		b	.L41	@
 616              	.L55:
 617              	.LBB106:
 618              	.LBB92:
 203:../../lpc11cx4-library/lpc_chip_11cxx_lib/src/clock_11xx.c **** 	}
 619              		.loc 1 203 0
 620 0070 0020     		movs	r0, #0	@ <retval>,
 621              	.LBE92:
 622              	.LBE106:
 277:../../lpc11cx4-library/lpc_chip_11cxx_lib/src/clock_11xx.c **** }
 623              		.loc 1 277 0
 624 0072 D2E7     		b	.L41	@
 625              	.L59:
 626              		.align	2
 627              	.L58:
 628 0074 00800440 		.word	1074036736
 629 0078 001BB700 		.word	12000000
 630 007c 00000000 		.word	OscRateIn
 631 0080 00000000 		.word	.LANCHOR0
 632              		.cfi_endproc
 633              	.LFE208:
 634              		.size	Chip_Clock_GetMainClockRate, .-Chip_Clock_GetMainClockRate
 635              		.section	.text.Chip_Clock_GetSystemClockRate,"ax",%progbits
 636              		.align	1
 637              		.p2align 2,,3
 638              		.global	Chip_Clock_GetSystemClockRate
 639              		.syntax unified
 640              		.code	16
 641              		.thumb_func
 642              		.fpu softvfp
 643              		.type	Chip_Clock_GetSystemClockRate, %function
 644              	Chip_Clock_GetSystemClockRate:
 645              	.LFB209:
 279:../../lpc11cx4-library/lpc_chip_11cxx_lib/src/clock_11xx.c **** 
 280:../../lpc11cx4-library/lpc_chip_11cxx_lib/src/clock_11xx.c **** /* Return system clock rate */
ARM GAS  /tmp/ccWjBr6x.s 			page 26


 281:../../lpc11cx4-library/lpc_chip_11cxx_lib/src/clock_11xx.c **** uint32_t Chip_Clock_GetSystemClockRate(void)
 282:../../lpc11cx4-library/lpc_chip_11cxx_lib/src/clock_11xx.c **** {
 646              		.loc 1 282 0
 647              		.cfi_startproc
 648              		@ args = 0, pretend = 0, frame = 0
 649              		@ frame_needed = 0, uses_anonymous_args = 0
 650 0000 10B5     		push	{r4, lr}	@
 651              		.cfi_def_cfa_offset 8
 652              		.cfi_offset 4, -8
 653              		.cfi_offset 14, -4
 283:../../lpc11cx4-library/lpc_chip_11cxx_lib/src/clock_11xx.c **** 	/* No point in checking for divide by 0 */
 284:../../lpc11cx4-library/lpc_chip_11cxx_lib/src/clock_11xx.c **** 	return Chip_Clock_GetMainClockRate() / LPC_SYSCTL->SYSAHBCLKDIV;
 654              		.loc 1 284 0
 655 0002 FFF7FEFF 		bl	Chip_Clock_GetMainClockRate	@
 656              	.LVL20:
 657 0006 024B     		ldr	r3, .L61	@ tmp113,
 285:../../lpc11cx4-library/lpc_chip_11cxx_lib/src/clock_11xx.c **** }
 658              		.loc 1 285 0
 659              		@ sp needed	@
 284:../../lpc11cx4-library/lpc_chip_11cxx_lib/src/clock_11xx.c **** }
 660              		.loc 1 284 0
 661 0008 996F     		ldr	r1, [r3, #120]	@ _4, MEM[(struct LPC_SYSCTL_T *)1074036736B].SYSAHBCLKDIV
 662 000a FFF7FEFF 		bl	__aeabi_uidiv	@
 663              	.LVL21:
 664              		.loc 1 285 0
 665 000e 10BD     		pop	{r4, pc}
 666              	.L62:
 667              		.align	2
 668              	.L61:
 669 0010 00800440 		.word	1074036736
 670              		.cfi_endproc
 671              	.LFE209:
 672              		.size	Chip_Clock_GetSystemClockRate, .-Chip_Clock_GetSystemClockRate
 673              		.section	.rodata.wdtOSCRate,"a",%progbits
 674              		.align	2
 675              		.set	.LANCHOR0,. + 0
 676              		.type	wdtOSCRate, %object
 677              		.size	wdtOSCRate, 64
 678              	wdtOSCRate:
 679 0000 00000000 		.word	0
 680 0004 C0270900 		.word	600000
 681 0008 90051000 		.word	1050000
 682 000c C05C1500 		.word	1400000
 683 0010 F0B31A00 		.word	1750000
 684 0014 200B2000 		.word	2100000
 685 0018 009F2400 		.word	2400000
 686 001c E0322900 		.word	2700000
 687 0020 C0C62D00 		.word	3000000
 688 0024 50973100 		.word	3250000
 689 0028 E0673500 		.word	3500000
 690 002c 70383900 		.word	3750000
 691 0030 00093D00 		.word	4000000
 692 0034 40164000 		.word	4200000
 693 0038 80234300 		.word	4400000
 694 003c C0304600 		.word	4600000
 695              		.text
 696              	.Letext0:
ARM GAS  /tmp/ccWjBr6x.s 			page 27


 697              		.file 3 "/usr/arm-none-eabi/include/machine/_default_types.h"
 698              		.file 4 "/usr/arm-none-eabi/include/sys/_stdint.h"
 699              		.file 5 "../../lpc11cx4-library/lpc_chip_11cxx_lib/inc/chip.h"
 700              		.file 6 "../../lpc11cx4-library/lpc_chip_11cxx_lib/inc/sysctl_11xx.h"