ARM GAS  /tmp/ccOmSU1l.s 			page 1


   1              		.cpu cortex-m0
   2              		.eabi_attribute 20, 1	@ Tag_ABI_FP_denormal
   3              		.eabi_attribute 21, 1	@ Tag_ABI_FP_exceptions
   4              		.eabi_attribute 23, 3	@ Tag_ABI_FP_number_model
   5              		.eabi_attribute 24, 1	@ Tag_ABI_align8_needed
   6              		.eabi_attribute 25, 1	@ Tag_ABI_align8_preserved
   7              		.eabi_attribute 26, 1	@ Tag_ABI_enum_size
   8              		.eabi_attribute 30, 2	@ Tag_ABI_optimization_goals
   9              		.eabi_attribute 34, 0	@ Tag_CPU_unaligned_access
  10              		.eabi_attribute 18, 4	@ Tag_ABI_PCS_wchar_t
  11              		.file	"gpio_11xx_2.c"
  12              	@ GNU C89 (GNU Tools for ARM Embedded Processors) version 6.2.1 20161205 (release) [ARM/embedded-6-
  13              	@	compiled by GNU C version 5.4.0 20160609, GMP version 6.1.0, MPFR version 3.1.4, MPC version 1.0.
  14              	@ GGC heuristics: --param ggc-min-expand=100 --param ggc-min-heapsize=131072
  15              	@ options passed:  -I . -I ../../lpc11cx4-library/lpc_chip_11cxx_lib/inc
  16              	@ -imultilib thumb/v6-m -iprefix /usr/bin/../lib/gcc/arm-none-eabi/6.2.1/
  17              	@ -isysroot /usr/bin/../arm-none-eabi -MD bin/gpio_11xx_2.d
  18              	@ -MF bin/gpio_11xx_2.d -MP -MQ bin/gpio_11xx_2.o -D__USES_INITFINI__
  19              	@ -D CORE_M0 ../../lpc11cx4-library/lpc_chip_11cxx_lib/src/gpio_11xx_2.c
  20              	@ -mcpu=cortex-m0 -mthumb -auxbase-strip bin/gpio_11xx_2.o -g -ggdb3 -O2
  21              	@ -Wall -Wstrict-prototypes -Wextra -std=gnu90 -ffunction-sections
  22              	@ -fdata-sections -fverbose-asm
  23              	@ options enabled:  -faggressive-loop-optimizations -falign-jumps
  24              	@ -falign-labels -falign-loops -fauto-inc-dec -fbranch-count-reg
  25              	@ -fcaller-saves -fchkp-check-incomplete-type -fchkp-check-read
  26              	@ -fchkp-check-write -fchkp-instrument-calls -fchkp-narrow-bounds
  27              	@ -fchkp-optimize -fchkp-store-bounds -fchkp-use-static-bounds
  28              	@ -fchkp-use-static-const-bounds -fchkp-use-wrappers
  29              	@ -fcombine-stack-adjustments -fcommon -fcompare-elim -fcprop-registers
  30              	@ -fcrossjumping -fcse-follow-jumps -fdata-sections -fdefer-pop
  31              	@ -fdelete-null-pointer-checks -fdevirtualize -fdevirtualize-speculatively
  32              	@ -fdwarf2-cfi-asm -fearly-inlining -feliminate-unused-debug-types
  33              	@ -fexpensive-optimizations -fforward-propagate -ffunction-cse
  34              	@ -ffunction-sections -fgcse -fgcse-lm -fgnu-runtime -fgnu-unique
  35              	@ -fguess-branch-probability -fhoist-adjacent-loads -fident -fif-conversion
  36              	@ -fif-conversion2 -findirect-inlining -finline -finline-atomics
  37              	@ -finline-functions-called-once -finline-small-functions -fipa-cp
  38              	@ -fipa-cp-alignment -fipa-icf -fipa-icf-functions -fipa-icf-variables
  39              	@ -fipa-profile -fipa-pure-const -fipa-reference -fipa-sra
  40              	@ -fira-hoist-pressure -fira-share-save-slots -fira-share-spill-slots
  41              	@ -fisolate-erroneous-paths-dereference -fivopts -fkeep-static-consts
  42              	@ -fleading-underscore -flifetime-dse -flra-remat -flto-odr-type-merging
  43              	@ -fmath-errno -fmerge-constants -fmerge-debug-strings
  44              	@ -fmove-loop-invariants -fomit-frame-pointer -foptimize-sibling-calls
  45              	@ -foptimize-strlen -fpartial-inlining -fpeephole -fpeephole2 -fplt
  46              	@ -fprefetch-loop-arrays -freg-struct-return -freorder-blocks
  47              	@ -freorder-functions -frerun-cse-after-loop
  48              	@ -fsched-critical-path-heuristic -fsched-dep-count-heuristic
  49              	@ -fsched-group-heuristic -fsched-interblock -fsched-last-insn-heuristic
  50              	@ -fsched-pressure -fsched-rank-heuristic -fsched-spec
  51              	@ -fsched-spec-insn-heuristic -fsched-stalled-insns-dep -fschedule-insns2
  52              	@ -fsection-anchors -fsemantic-interposition -fshow-column -fshrink-wrap
  53              	@ -fsigned-zeros -fsplit-ivs-in-unroller -fsplit-wide-types -fssa-backprop
  54              	@ -fssa-phiopt -fstdarg-opt -fstrict-aliasing -fstrict-overflow
  55              	@ -fstrict-volatile-bitfields -fsync-libcalls -fthread-jumps
  56              	@ -ftoplevel-reorder -ftrapping-math -ftree-bit-ccp -ftree-builtin-call-dce
  57              	@ -ftree-ccp -ftree-ch -ftree-coalesce-vars -ftree-copy-prop -ftree-cselim
ARM GAS  /tmp/ccOmSU1l.s 			page 2


  58              	@ -ftree-dce -ftree-dominator-opts -ftree-dse -ftree-forwprop -ftree-fre
  59              	@ -ftree-loop-if-convert -ftree-loop-im -ftree-loop-ivcanon
  60              	@ -ftree-loop-optimize -ftree-parallelize-loops= -ftree-phiprop -ftree-pre
  61              	@ -ftree-pta -ftree-reassoc -ftree-scev-cprop -ftree-sink -ftree-slsr
  62              	@ -ftree-sra -ftree-switch-conversion -ftree-tail-merge -ftree-ter
  63              	@ -ftree-vrp -funit-at-a-time -fvar-tracking -fvar-tracking-assignments
  64              	@ -fverbose-asm -fzero-initialized-in-bss -mlittle-endian
  65              	@ -mpic-data-is-text-relative -msched-prolog -mthumb
  66              	@ -mvectorize-with-neon-quad
  67              	
  68              		.text
  69              	.Ltext0:
  70              		.cfi_sections	.debug_frame
  71              		.section	.text.Chip_GPIO_Init,"ax",%progbits
  72              		.align	1
  73              		.p2align 2,,3
  74              		.global	Chip_GPIO_Init
  75              		.syntax unified
  76              		.code	16
  77              		.thumb_func
  78              		.fpu softvfp
  79              		.type	Chip_GPIO_Init, %function
  80              	Chip_GPIO_Init:
  81              	.LFB198:
  82              		.file 1 "../../lpc11cx4-library/lpc_chip_11cxx_lib/src/gpio_11xx_2.c"
   1:../../lpc11cx4-library/lpc_chip_11cxx_lib/src/gpio_11xx_2.c **** /*
   2:../../lpc11cx4-library/lpc_chip_11cxx_lib/src/gpio_11xx_2.c ****  * @brief LPC11xx GPIO driver for CHIP_LPC11CXX, CHIP_LPC110X, CHIP_LPC11XXLV,
   3:../../lpc11cx4-library/lpc_chip_11cxx_lib/src/gpio_11xx_2.c ****  * and CHIP_LPC1125 families only.
   4:../../lpc11cx4-library/lpc_chip_11cxx_lib/src/gpio_11xx_2.c ****  *
   5:../../lpc11cx4-library/lpc_chip_11cxx_lib/src/gpio_11xx_2.c ****  * @note
   6:../../lpc11cx4-library/lpc_chip_11cxx_lib/src/gpio_11xx_2.c ****  * Copyright(C) NXP Semiconductors, 2013
   7:../../lpc11cx4-library/lpc_chip_11cxx_lib/src/gpio_11xx_2.c ****  * All rights reserved.
   8:../../lpc11cx4-library/lpc_chip_11cxx_lib/src/gpio_11xx_2.c ****  *
   9:../../lpc11cx4-library/lpc_chip_11cxx_lib/src/gpio_11xx_2.c ****  * @par
  10:../../lpc11cx4-library/lpc_chip_11cxx_lib/src/gpio_11xx_2.c ****  * Software that is described herein is for illustrative purposes only
  11:../../lpc11cx4-library/lpc_chip_11cxx_lib/src/gpio_11xx_2.c ****  * which provides customers with programming information regarding the
  12:../../lpc11cx4-library/lpc_chip_11cxx_lib/src/gpio_11xx_2.c ****  * LPC products.  This software is supplied "AS IS" without any warranties of
  13:../../lpc11cx4-library/lpc_chip_11cxx_lib/src/gpio_11xx_2.c ****  * any kind, and NXP Semiconductors and its licensor disclaim any and
  14:../../lpc11cx4-library/lpc_chip_11cxx_lib/src/gpio_11xx_2.c ****  * all warranties, express or implied, including all implied warranties of
  15:../../lpc11cx4-library/lpc_chip_11cxx_lib/src/gpio_11xx_2.c ****  * merchantability, fitness for a particular purpose and non-infringement of
  16:../../lpc11cx4-library/lpc_chip_11cxx_lib/src/gpio_11xx_2.c ****  * intellectual property rights.  NXP Semiconductors assumes no responsibility
  17:../../lpc11cx4-library/lpc_chip_11cxx_lib/src/gpio_11xx_2.c ****  * or liability for the use of the software, conveys no license or rights under any
  18:../../lpc11cx4-library/lpc_chip_11cxx_lib/src/gpio_11xx_2.c ****  * patent, copyright, mask work right, or any other intellectual property rights in
  19:../../lpc11cx4-library/lpc_chip_11cxx_lib/src/gpio_11xx_2.c ****  * or to any products. NXP Semiconductors reserves the right to make changes
  20:../../lpc11cx4-library/lpc_chip_11cxx_lib/src/gpio_11xx_2.c ****  * in the software without notification. NXP Semiconductors also makes no
  21:../../lpc11cx4-library/lpc_chip_11cxx_lib/src/gpio_11xx_2.c ****  * representation or warranty that such application will be suitable for the
  22:../../lpc11cx4-library/lpc_chip_11cxx_lib/src/gpio_11xx_2.c ****  * specified use without further testing or modification.
  23:../../lpc11cx4-library/lpc_chip_11cxx_lib/src/gpio_11xx_2.c ****  *
  24:../../lpc11cx4-library/lpc_chip_11cxx_lib/src/gpio_11xx_2.c ****  * @par
  25:../../lpc11cx4-library/lpc_chip_11cxx_lib/src/gpio_11xx_2.c ****  * Permission to use, copy, modify, and distribute this software and its
  26:../../lpc11cx4-library/lpc_chip_11cxx_lib/src/gpio_11xx_2.c ****  * documentation is hereby granted, under NXP Semiconductors' and its
  27:../../lpc11cx4-library/lpc_chip_11cxx_lib/src/gpio_11xx_2.c ****  * licensor's relevant copyrights in the software, without fee, provided that it
  28:../../lpc11cx4-library/lpc_chip_11cxx_lib/src/gpio_11xx_2.c ****  * is used in conjunction with NXP Semiconductors microcontrollers.  This
  29:../../lpc11cx4-library/lpc_chip_11cxx_lib/src/gpio_11xx_2.c ****  * copyright, permission, and disclaimer notice must appear in all copies of
  30:../../lpc11cx4-library/lpc_chip_11cxx_lib/src/gpio_11xx_2.c ****  * this code.
  31:../../lpc11cx4-library/lpc_chip_11cxx_lib/src/gpio_11xx_2.c ****  */
  32:../../lpc11cx4-library/lpc_chip_11cxx_lib/src/gpio_11xx_2.c **** 
ARM GAS  /tmp/ccOmSU1l.s 			page 3


  33:../../lpc11cx4-library/lpc_chip_11cxx_lib/src/gpio_11xx_2.c **** #include "chip.h"
  34:../../lpc11cx4-library/lpc_chip_11cxx_lib/src/gpio_11xx_2.c **** 
  35:../../lpc11cx4-library/lpc_chip_11cxx_lib/src/gpio_11xx_2.c **** #if defined(CHIP_LPC11CXX) || defined(CHIP_LPC110X) || defined(CHIP_LPC11XXLV) || defined(CHIP_LPC1
  36:../../lpc11cx4-library/lpc_chip_11cxx_lib/src/gpio_11xx_2.c **** 
  37:../../lpc11cx4-library/lpc_chip_11cxx_lib/src/gpio_11xx_2.c **** /*****************************************************************************
  38:../../lpc11cx4-library/lpc_chip_11cxx_lib/src/gpio_11xx_2.c ****  * Private types/enumerations/variables
  39:../../lpc11cx4-library/lpc_chip_11cxx_lib/src/gpio_11xx_2.c ****  ****************************************************************************/
  40:../../lpc11cx4-library/lpc_chip_11cxx_lib/src/gpio_11xx_2.c **** 
  41:../../lpc11cx4-library/lpc_chip_11cxx_lib/src/gpio_11xx_2.c **** /*****************************************************************************
  42:../../lpc11cx4-library/lpc_chip_11cxx_lib/src/gpio_11xx_2.c ****  * Public types/enumerations/variables
  43:../../lpc11cx4-library/lpc_chip_11cxx_lib/src/gpio_11xx_2.c ****  ****************************************************************************/
  44:../../lpc11cx4-library/lpc_chip_11cxx_lib/src/gpio_11xx_2.c **** 
  45:../../lpc11cx4-library/lpc_chip_11cxx_lib/src/gpio_11xx_2.c **** /*****************************************************************************
  46:../../lpc11cx4-library/lpc_chip_11cxx_lib/src/gpio_11xx_2.c ****  * Private functions
  47:../../lpc11cx4-library/lpc_chip_11cxx_lib/src/gpio_11xx_2.c ****  ****************************************************************************/
  48:../../lpc11cx4-library/lpc_chip_11cxx_lib/src/gpio_11xx_2.c **** 
  49:../../lpc11cx4-library/lpc_chip_11cxx_lib/src/gpio_11xx_2.c **** /*****************************************************************************
  50:../../lpc11cx4-library/lpc_chip_11cxx_lib/src/gpio_11xx_2.c ****  * Public functions
  51:../../lpc11cx4-library/lpc_chip_11cxx_lib/src/gpio_11xx_2.c ****  ****************************************************************************/
  52:../../lpc11cx4-library/lpc_chip_11cxx_lib/src/gpio_11xx_2.c **** 
  53:../../lpc11cx4-library/lpc_chip_11cxx_lib/src/gpio_11xx_2.c **** /* Initialize GPIO block */
  54:../../lpc11cx4-library/lpc_chip_11cxx_lib/src/gpio_11xx_2.c **** void Chip_GPIO_Init(LPC_GPIO_T *pGPIO)
  55:../../lpc11cx4-library/lpc_chip_11cxx_lib/src/gpio_11xx_2.c **** {
  83              		.loc 1 55 0
  84              		.cfi_startproc
  85              		@ args = 0, pretend = 0, frame = 0
  86              		@ frame_needed = 0, uses_anonymous_args = 0
  87              		@ link register save eliminated.
  88              	.LVL0:
  89              	.LBB26:
  90              	.LBB27:
  91              		.file 2 "../../lpc11cx4-library/lpc_chip_11cxx_lib/inc/clock_11xx.h"
   1:../../lpc11cx4-library/lpc_chip_11cxx_lib/inc/clock_11xx.h **** /*
   2:../../lpc11cx4-library/lpc_chip_11cxx_lib/inc/clock_11xx.h ****  * @brief LPC11XX Clock control functions
   3:../../lpc11cx4-library/lpc_chip_11cxx_lib/inc/clock_11xx.h ****  *
   4:../../lpc11cx4-library/lpc_chip_11cxx_lib/inc/clock_11xx.h ****  * @note
   5:../../lpc11cx4-library/lpc_chip_11cxx_lib/inc/clock_11xx.h ****  * Copyright(C) NXP Semiconductors, 2012
   6:../../lpc11cx4-library/lpc_chip_11cxx_lib/inc/clock_11xx.h ****  * All rights reserved.
   7:../../lpc11cx4-library/lpc_chip_11cxx_lib/inc/clock_11xx.h ****  *
   8:../../lpc11cx4-library/lpc_chip_11cxx_lib/inc/clock_11xx.h ****  * @par
   9:../../lpc11cx4-library/lpc_chip_11cxx_lib/inc/clock_11xx.h ****  * Software that is described herein is for illustrative purposes only
  10:../../lpc11cx4-library/lpc_chip_11cxx_lib/inc/clock_11xx.h ****  * which provides customers with programming information regarding the
  11:../../lpc11cx4-library/lpc_chip_11cxx_lib/inc/clock_11xx.h ****  * LPC products.  This software is supplied "AS IS" without any warranties of
  12:../../lpc11cx4-library/lpc_chip_11cxx_lib/inc/clock_11xx.h ****  * any kind, and NXP Semiconductors and its licensor disclaim any and
  13:../../lpc11cx4-library/lpc_chip_11cxx_lib/inc/clock_11xx.h ****  * all warranties, express or implied, including all implied warranties of
  14:../../lpc11cx4-library/lpc_chip_11cxx_lib/inc/clock_11xx.h ****  * merchantability, fitness for a particular purpose and non-infringement of
  15:../../lpc11cx4-library/lpc_chip_11cxx_lib/inc/clock_11xx.h ****  * intellectual property rights.  NXP Semiconductors assumes no responsibility
  16:../../lpc11cx4-library/lpc_chip_11cxx_lib/inc/clock_11xx.h ****  * or liability for the use of the software, conveys no license or rights under any
  17:../../lpc11cx4-library/lpc_chip_11cxx_lib/inc/clock_11xx.h ****  * patent, copyright, mask work right, or any other intellectual property rights in
  18:../../lpc11cx4-library/lpc_chip_11cxx_lib/inc/clock_11xx.h ****  * or to any products. NXP Semiconductors reserves the right to make changes
  19:../../lpc11cx4-library/lpc_chip_11cxx_lib/inc/clock_11xx.h ****  * in the software without notification. NXP Semiconductors also makes no
  20:../../lpc11cx4-library/lpc_chip_11cxx_lib/inc/clock_11xx.h ****  * representation or warranty that such application will be suitable for the
  21:../../lpc11cx4-library/lpc_chip_11cxx_lib/inc/clock_11xx.h ****  * specified use without further testing or modification.
  22:../../lpc11cx4-library/lpc_chip_11cxx_lib/inc/clock_11xx.h ****  *
  23:../../lpc11cx4-library/lpc_chip_11cxx_lib/inc/clock_11xx.h ****  * @par
  24:../../lpc11cx4-library/lpc_chip_11cxx_lib/inc/clock_11xx.h ****  * Permission to use, copy, modify, and distribute this software and its
  25:../../lpc11cx4-library/lpc_chip_11cxx_lib/inc/clock_11xx.h ****  * documentation is hereby granted, under NXP Semiconductors' and its
ARM GAS  /tmp/ccOmSU1l.s 			page 4


  26:../../lpc11cx4-library/lpc_chip_11cxx_lib/inc/clock_11xx.h ****  * licensor's relevant copyrights in the software, without fee, provided that it
  27:../../lpc11cx4-library/lpc_chip_11cxx_lib/inc/clock_11xx.h ****  * is used in conjunction with NXP Semiconductors microcontrollers.  This
  28:../../lpc11cx4-library/lpc_chip_11cxx_lib/inc/clock_11xx.h ****  * copyright, permission, and disclaimer notice must appear in all copies of
  29:../../lpc11cx4-library/lpc_chip_11cxx_lib/inc/clock_11xx.h ****  * this code.
  30:../../lpc11cx4-library/lpc_chip_11cxx_lib/inc/clock_11xx.h ****  */
  31:../../lpc11cx4-library/lpc_chip_11cxx_lib/inc/clock_11xx.h **** 
  32:../../lpc11cx4-library/lpc_chip_11cxx_lib/inc/clock_11xx.h **** #ifndef __CLOCK_11XX_H_
  33:../../lpc11cx4-library/lpc_chip_11cxx_lib/inc/clock_11xx.h **** #define __CLOCK_11XX_H_
  34:../../lpc11cx4-library/lpc_chip_11cxx_lib/inc/clock_11xx.h **** 
  35:../../lpc11cx4-library/lpc_chip_11cxx_lib/inc/clock_11xx.h **** #ifdef __cplusplus
  36:../../lpc11cx4-library/lpc_chip_11cxx_lib/inc/clock_11xx.h **** extern "C" {
  37:../../lpc11cx4-library/lpc_chip_11cxx_lib/inc/clock_11xx.h **** #endif
  38:../../lpc11cx4-library/lpc_chip_11cxx_lib/inc/clock_11xx.h **** 
  39:../../lpc11cx4-library/lpc_chip_11cxx_lib/inc/clock_11xx.h **** /** @defgroup CLOCK_11XX CHIP: LPC11xx Clock Control block driver
  40:../../lpc11cx4-library/lpc_chip_11cxx_lib/inc/clock_11xx.h ****  * @ingroup CHIP_11XX_Drivers
  41:../../lpc11cx4-library/lpc_chip_11cxx_lib/inc/clock_11xx.h ****  * @{
  42:../../lpc11cx4-library/lpc_chip_11cxx_lib/inc/clock_11xx.h ****  */
  43:../../lpc11cx4-library/lpc_chip_11cxx_lib/inc/clock_11xx.h **** 
  44:../../lpc11cx4-library/lpc_chip_11cxx_lib/inc/clock_11xx.h **** /** Internal oscillator frequency */
  45:../../lpc11cx4-library/lpc_chip_11cxx_lib/inc/clock_11xx.h **** #define SYSCTL_IRC_FREQ (12000000)
  46:../../lpc11cx4-library/lpc_chip_11cxx_lib/inc/clock_11xx.h **** 
  47:../../lpc11cx4-library/lpc_chip_11cxx_lib/inc/clock_11xx.h **** /**
  48:../../lpc11cx4-library/lpc_chip_11cxx_lib/inc/clock_11xx.h ****  * @brief	Set System PLL divider values
  49:../../lpc11cx4-library/lpc_chip_11cxx_lib/inc/clock_11xx.h ****  * @param	msel    : PLL feedback divider value. M = msel + 1.
  50:../../lpc11cx4-library/lpc_chip_11cxx_lib/inc/clock_11xx.h ****  * @param	psel    : PLL post divider value. P =  (1<<psel).
  51:../../lpc11cx4-library/lpc_chip_11cxx_lib/inc/clock_11xx.h ****  * @return	Nothing
  52:../../lpc11cx4-library/lpc_chip_11cxx_lib/inc/clock_11xx.h ****  * @note	See the user manual for how to setup the PLL.
  53:../../lpc11cx4-library/lpc_chip_11cxx_lib/inc/clock_11xx.h ****  */
  54:../../lpc11cx4-library/lpc_chip_11cxx_lib/inc/clock_11xx.h **** STATIC INLINE void Chip_Clock_SetupSystemPLL(uint8_t msel, uint8_t psel)
  55:../../lpc11cx4-library/lpc_chip_11cxx_lib/inc/clock_11xx.h **** {
  56:../../lpc11cx4-library/lpc_chip_11cxx_lib/inc/clock_11xx.h **** 	LPC_SYSCTL->SYSPLLCTRL = (msel & 0x1F) | ((psel & 0x3) << 5);
  57:../../lpc11cx4-library/lpc_chip_11cxx_lib/inc/clock_11xx.h **** }
  58:../../lpc11cx4-library/lpc_chip_11cxx_lib/inc/clock_11xx.h **** 
  59:../../lpc11cx4-library/lpc_chip_11cxx_lib/inc/clock_11xx.h **** /**
  60:../../lpc11cx4-library/lpc_chip_11cxx_lib/inc/clock_11xx.h ****  * @brief	Read System PLL lock status
  61:../../lpc11cx4-library/lpc_chip_11cxx_lib/inc/clock_11xx.h ****  * @return	true of the PLL is locked. false if not locked
  62:../../lpc11cx4-library/lpc_chip_11cxx_lib/inc/clock_11xx.h ****  */
  63:../../lpc11cx4-library/lpc_chip_11cxx_lib/inc/clock_11xx.h **** STATIC INLINE bool Chip_Clock_IsSystemPLLLocked(void)
  64:../../lpc11cx4-library/lpc_chip_11cxx_lib/inc/clock_11xx.h **** {
  65:../../lpc11cx4-library/lpc_chip_11cxx_lib/inc/clock_11xx.h **** 	return (bool) ((LPC_SYSCTL->SYSPLLSTAT & 1) != 0);
  66:../../lpc11cx4-library/lpc_chip_11cxx_lib/inc/clock_11xx.h **** }
  67:../../lpc11cx4-library/lpc_chip_11cxx_lib/inc/clock_11xx.h **** 
  68:../../lpc11cx4-library/lpc_chip_11cxx_lib/inc/clock_11xx.h **** /**
  69:../../lpc11cx4-library/lpc_chip_11cxx_lib/inc/clock_11xx.h ****  * Clock sources for system and USB PLLs
  70:../../lpc11cx4-library/lpc_chip_11cxx_lib/inc/clock_11xx.h ****  */
  71:../../lpc11cx4-library/lpc_chip_11cxx_lib/inc/clock_11xx.h **** typedef enum CHIP_SYSCTL_PLLCLKSRC {
  72:../../lpc11cx4-library/lpc_chip_11cxx_lib/inc/clock_11xx.h **** 	SYSCTL_PLLCLKSRC_IRC = 0,		/*!< Internal oscillator in */
  73:../../lpc11cx4-library/lpc_chip_11cxx_lib/inc/clock_11xx.h **** 	SYSCTL_PLLCLKSRC_MAINOSC,		/*!< Crystal (main) oscillator in */
  74:../../lpc11cx4-library/lpc_chip_11cxx_lib/inc/clock_11xx.h **** #if defined(CHIP_LPC11AXX)
  75:../../lpc11cx4-library/lpc_chip_11cxx_lib/inc/clock_11xx.h **** 	SYSCTL_PLLCLKSRC_EXT_CLKIN,	/*!< External clock in (11Axx only) */
  76:../../lpc11cx4-library/lpc_chip_11cxx_lib/inc/clock_11xx.h **** #else
  77:../../lpc11cx4-library/lpc_chip_11cxx_lib/inc/clock_11xx.h **** 	SYSCTL_PLLCLKSRC_RESERVED1,	/*!< Reserved */
  78:../../lpc11cx4-library/lpc_chip_11cxx_lib/inc/clock_11xx.h **** #endif
  79:../../lpc11cx4-library/lpc_chip_11cxx_lib/inc/clock_11xx.h **** 	SYSCTL_PLLCLKSRC_RESERVED2,	/*!< Reserved */
  80:../../lpc11cx4-library/lpc_chip_11cxx_lib/inc/clock_11xx.h **** } CHIP_SYSCTL_PLLCLKSRC_T;
  81:../../lpc11cx4-library/lpc_chip_11cxx_lib/inc/clock_11xx.h **** 
  82:../../lpc11cx4-library/lpc_chip_11cxx_lib/inc/clock_11xx.h **** /**
ARM GAS  /tmp/ccOmSU1l.s 			page 5


  83:../../lpc11cx4-library/lpc_chip_11cxx_lib/inc/clock_11xx.h ****  * @brief	Set System PLL clock source
  84:../../lpc11cx4-library/lpc_chip_11cxx_lib/inc/clock_11xx.h ****  * @param	src	: Clock source for system PLL
  85:../../lpc11cx4-library/lpc_chip_11cxx_lib/inc/clock_11xx.h ****  * @return	Nothing
  86:../../lpc11cx4-library/lpc_chip_11cxx_lib/inc/clock_11xx.h ****  * @note	This function will also toggle the clock source update register
  87:../../lpc11cx4-library/lpc_chip_11cxx_lib/inc/clock_11xx.h ****  * to update the clock source.
  88:../../lpc11cx4-library/lpc_chip_11cxx_lib/inc/clock_11xx.h ****  */
  89:../../lpc11cx4-library/lpc_chip_11cxx_lib/inc/clock_11xx.h **** void Chip_Clock_SetSystemPLLSource(CHIP_SYSCTL_PLLCLKSRC_T src);
  90:../../lpc11cx4-library/lpc_chip_11cxx_lib/inc/clock_11xx.h **** 
  91:../../lpc11cx4-library/lpc_chip_11cxx_lib/inc/clock_11xx.h **** #if defined(CHIP_LPC11UXX)
  92:../../lpc11cx4-library/lpc_chip_11cxx_lib/inc/clock_11xx.h **** /**
  93:../../lpc11cx4-library/lpc_chip_11cxx_lib/inc/clock_11xx.h ****  * @brief	Set USB PLL divider values
  94:../../lpc11cx4-library/lpc_chip_11cxx_lib/inc/clock_11xx.h ****  * @param	msel    : PLL feedback divider value. M = msel + 1.
  95:../../lpc11cx4-library/lpc_chip_11cxx_lib/inc/clock_11xx.h ****  * @param	psel    : PLL post divider value. P = (1<<psel).
  96:../../lpc11cx4-library/lpc_chip_11cxx_lib/inc/clock_11xx.h ****  * @return	Nothing
  97:../../lpc11cx4-library/lpc_chip_11cxx_lib/inc/clock_11xx.h ****  * @note	See the user manual for how to setup the PLL.
  98:../../lpc11cx4-library/lpc_chip_11cxx_lib/inc/clock_11xx.h ****  */
  99:../../lpc11cx4-library/lpc_chip_11cxx_lib/inc/clock_11xx.h **** STATIC INLINE void Chip_Clock_SetupUSBPLL(uint8_t msel, uint8_t psel)
 100:../../lpc11cx4-library/lpc_chip_11cxx_lib/inc/clock_11xx.h **** {
 101:../../lpc11cx4-library/lpc_chip_11cxx_lib/inc/clock_11xx.h **** 	LPC_SYSCTL->USBPLLCTRL = (msel & 0x1F) | ((psel & 0x3) << 5);
 102:../../lpc11cx4-library/lpc_chip_11cxx_lib/inc/clock_11xx.h **** }
 103:../../lpc11cx4-library/lpc_chip_11cxx_lib/inc/clock_11xx.h **** 
 104:../../lpc11cx4-library/lpc_chip_11cxx_lib/inc/clock_11xx.h **** /**
 105:../../lpc11cx4-library/lpc_chip_11cxx_lib/inc/clock_11xx.h ****  * @brief	Read USB PLL lock status
 106:../../lpc11cx4-library/lpc_chip_11cxx_lib/inc/clock_11xx.h ****  * @return	true of the PLL is locked. false if not locked
 107:../../lpc11cx4-library/lpc_chip_11cxx_lib/inc/clock_11xx.h ****  */
 108:../../lpc11cx4-library/lpc_chip_11cxx_lib/inc/clock_11xx.h **** STATIC INLINE bool Chip_Clock_IsUSBPLLLocked(void)
 109:../../lpc11cx4-library/lpc_chip_11cxx_lib/inc/clock_11xx.h **** {
 110:../../lpc11cx4-library/lpc_chip_11cxx_lib/inc/clock_11xx.h **** 	return (bool) ((LPC_SYSCTL->USBPLLSTAT & 1) != 0);
 111:../../lpc11cx4-library/lpc_chip_11cxx_lib/inc/clock_11xx.h **** }
 112:../../lpc11cx4-library/lpc_chip_11cxx_lib/inc/clock_11xx.h **** 
 113:../../lpc11cx4-library/lpc_chip_11cxx_lib/inc/clock_11xx.h **** /**
 114:../../lpc11cx4-library/lpc_chip_11cxx_lib/inc/clock_11xx.h ****  * @brief	Set USB PLL clock source
 115:../../lpc11cx4-library/lpc_chip_11cxx_lib/inc/clock_11xx.h ****  * @param	src	: Clock source for USB PLL
 116:../../lpc11cx4-library/lpc_chip_11cxx_lib/inc/clock_11xx.h ****  * @return	Nothing
 117:../../lpc11cx4-library/lpc_chip_11cxx_lib/inc/clock_11xx.h ****  * @note	This function will also toggle the clock source update register
 118:../../lpc11cx4-library/lpc_chip_11cxx_lib/inc/clock_11xx.h ****  * to update the clock source.
 119:../../lpc11cx4-library/lpc_chip_11cxx_lib/inc/clock_11xx.h ****  */
 120:../../lpc11cx4-library/lpc_chip_11cxx_lib/inc/clock_11xx.h **** void Chip_Clock_SetUSBPLLSource(CHIP_SYSCTL_PLLCLKSRC_T src);
 121:../../lpc11cx4-library/lpc_chip_11cxx_lib/inc/clock_11xx.h **** 
 122:../../lpc11cx4-library/lpc_chip_11cxx_lib/inc/clock_11xx.h **** #endif /*defined(CHIP_LPC11UXX)*/
 123:../../lpc11cx4-library/lpc_chip_11cxx_lib/inc/clock_11xx.h **** 
 124:../../lpc11cx4-library/lpc_chip_11cxx_lib/inc/clock_11xx.h **** /**
 125:../../lpc11cx4-library/lpc_chip_11cxx_lib/inc/clock_11xx.h ****  * @brief	Bypass System Oscillator and set oscillator frequency range
 126:../../lpc11cx4-library/lpc_chip_11cxx_lib/inc/clock_11xx.h ****  * @param	bypass	: Flag to bypass oscillator
 127:../../lpc11cx4-library/lpc_chip_11cxx_lib/inc/clock_11xx.h ****  * @param	highfr	: Flag to set oscillator range from 15-25 MHz
 128:../../lpc11cx4-library/lpc_chip_11cxx_lib/inc/clock_11xx.h ****  * @return	Nothing
 129:../../lpc11cx4-library/lpc_chip_11cxx_lib/inc/clock_11xx.h ****  * @note	Sets the PLL input to bypass the oscillator. This would be
 130:../../lpc11cx4-library/lpc_chip_11cxx_lib/inc/clock_11xx.h ****  * used if an external clock that is not an oscillator is attached
 131:../../lpc11cx4-library/lpc_chip_11cxx_lib/inc/clock_11xx.h ****  * to the XTALIN pin.
 132:../../lpc11cx4-library/lpc_chip_11cxx_lib/inc/clock_11xx.h ****  */
 133:../../lpc11cx4-library/lpc_chip_11cxx_lib/inc/clock_11xx.h **** void Chip_Clock_SetPLLBypass(bool bypass, bool highfr);
 134:../../lpc11cx4-library/lpc_chip_11cxx_lib/inc/clock_11xx.h **** 
 135:../../lpc11cx4-library/lpc_chip_11cxx_lib/inc/clock_11xx.h **** /**
 136:../../lpc11cx4-library/lpc_chip_11cxx_lib/inc/clock_11xx.h ****  * Watchdog and low frequency oscillator frequencies plus or minus 40%
 137:../../lpc11cx4-library/lpc_chip_11cxx_lib/inc/clock_11xx.h ****  */
 138:../../lpc11cx4-library/lpc_chip_11cxx_lib/inc/clock_11xx.h **** typedef enum CHIP_WDTLFO_OSC {
 139:../../lpc11cx4-library/lpc_chip_11cxx_lib/inc/clock_11xx.h **** 	WDTLFO_OSC_ILLEGAL,
ARM GAS  /tmp/ccOmSU1l.s 			page 6


 140:../../lpc11cx4-library/lpc_chip_11cxx_lib/inc/clock_11xx.h **** 	WDTLFO_OSC_0_60,	/*!< 0.6 MHz watchdog/LFO rate */
 141:../../lpc11cx4-library/lpc_chip_11cxx_lib/inc/clock_11xx.h **** 	WDTLFO_OSC_1_05,	/*!< 1.05 MHz watchdog/LFO rate */
 142:../../lpc11cx4-library/lpc_chip_11cxx_lib/inc/clock_11xx.h **** 	WDTLFO_OSC_1_40,	/*!< 1.4 MHz watchdog/LFO rate */
 143:../../lpc11cx4-library/lpc_chip_11cxx_lib/inc/clock_11xx.h **** 	WDTLFO_OSC_1_75,	/*!< 1.75 MHz watchdog/LFO rate */
 144:../../lpc11cx4-library/lpc_chip_11cxx_lib/inc/clock_11xx.h **** 	WDTLFO_OSC_2_10,	/*!< 2.1 MHz watchdog/LFO rate */
 145:../../lpc11cx4-library/lpc_chip_11cxx_lib/inc/clock_11xx.h **** 	WDTLFO_OSC_2_40,	/*!< 2.4 MHz watchdog/LFO rate */
 146:../../lpc11cx4-library/lpc_chip_11cxx_lib/inc/clock_11xx.h **** 	WDTLFO_OSC_2_70,	/*!< 2.7 MHz watchdog/LFO rate */
 147:../../lpc11cx4-library/lpc_chip_11cxx_lib/inc/clock_11xx.h **** 	WDTLFO_OSC_3_00,	/*!< 3.0 MHz watchdog/LFO rate */
 148:../../lpc11cx4-library/lpc_chip_11cxx_lib/inc/clock_11xx.h **** 	WDTLFO_OSC_3_25,	/*!< 3.25 MHz watchdog/LFO rate */
 149:../../lpc11cx4-library/lpc_chip_11cxx_lib/inc/clock_11xx.h **** 	WDTLFO_OSC_3_50,	/*!< 3.5 MHz watchdog/LFO rate */
 150:../../lpc11cx4-library/lpc_chip_11cxx_lib/inc/clock_11xx.h **** 	WDTLFO_OSC_3_75,	/*!< 3.75 MHz watchdog/LFO rate */
 151:../../lpc11cx4-library/lpc_chip_11cxx_lib/inc/clock_11xx.h **** 	WDTLFO_OSC_4_00,	/*!< 4.0 MHz watchdog/LFO rate */
 152:../../lpc11cx4-library/lpc_chip_11cxx_lib/inc/clock_11xx.h **** 	WDTLFO_OSC_4_20,	/*!< 4.2 MHz watchdog/LFO rate */
 153:../../lpc11cx4-library/lpc_chip_11cxx_lib/inc/clock_11xx.h **** 	WDTLFO_OSC_4_40,	/*!< 4.4 MHz watchdog/LFO rate */
 154:../../lpc11cx4-library/lpc_chip_11cxx_lib/inc/clock_11xx.h **** 	WDTLFO_OSC_4_60		/*!< 4.6 MHz watchdog/LFO rate */
 155:../../lpc11cx4-library/lpc_chip_11cxx_lib/inc/clock_11xx.h **** } CHIP_WDTLFO_OSC_T;
 156:../../lpc11cx4-library/lpc_chip_11cxx_lib/inc/clock_11xx.h **** 
 157:../../lpc11cx4-library/lpc_chip_11cxx_lib/inc/clock_11xx.h **** /**
 158:../../lpc11cx4-library/lpc_chip_11cxx_lib/inc/clock_11xx.h ****  * @brief	Setup Watchdog oscillator rate and divider
 159:../../lpc11cx4-library/lpc_chip_11cxx_lib/inc/clock_11xx.h ****  * @param	wdtclk	: Selected watchdog clock rate
 160:../../lpc11cx4-library/lpc_chip_11cxx_lib/inc/clock_11xx.h ****  * @param	div		: Watchdog divider value, even value between 2 and 64
 161:../../lpc11cx4-library/lpc_chip_11cxx_lib/inc/clock_11xx.h ****  * @return	Nothing
 162:../../lpc11cx4-library/lpc_chip_11cxx_lib/inc/clock_11xx.h ****  * @note	Watchdog rate = selected rate divided by divider rate
 163:../../lpc11cx4-library/lpc_chip_11cxx_lib/inc/clock_11xx.h ****  */
 164:../../lpc11cx4-library/lpc_chip_11cxx_lib/inc/clock_11xx.h **** STATIC INLINE void Chip_Clock_SetWDTOSC(CHIP_WDTLFO_OSC_T wdtclk, uint8_t div)
 165:../../lpc11cx4-library/lpc_chip_11cxx_lib/inc/clock_11xx.h **** {
 166:../../lpc11cx4-library/lpc_chip_11cxx_lib/inc/clock_11xx.h **** 	LPC_SYSCTL->WDTOSCCTRL  = (((uint32_t) wdtclk) << 5) | ((div >> 1) - 1);
 167:../../lpc11cx4-library/lpc_chip_11cxx_lib/inc/clock_11xx.h **** }
 168:../../lpc11cx4-library/lpc_chip_11cxx_lib/inc/clock_11xx.h **** 
 169:../../lpc11cx4-library/lpc_chip_11cxx_lib/inc/clock_11xx.h **** #if defined(CHIP_LPC11AXX)
 170:../../lpc11cx4-library/lpc_chip_11cxx_lib/inc/clock_11xx.h **** /**
 171:../../lpc11cx4-library/lpc_chip_11cxx_lib/inc/clock_11xx.h ****  * @brief	Setup low frequency oscillator rate and divider
 172:../../lpc11cx4-library/lpc_chip_11cxx_lib/inc/clock_11xx.h ****  * @param	lfoclk	: Selected low frequency clock rate
 173:../../lpc11cx4-library/lpc_chip_11cxx_lib/inc/clock_11xx.h ****  * @param	div		: Low frequency divider value, even value between 2 and 64
 174:../../lpc11cx4-library/lpc_chip_11cxx_lib/inc/clock_11xx.h ****  * @return	Nothing
 175:../../lpc11cx4-library/lpc_chip_11cxx_lib/inc/clock_11xx.h ****  * @note	Low frequency oscillator rate = selected rate divided by divider rate
 176:../../lpc11cx4-library/lpc_chip_11cxx_lib/inc/clock_11xx.h ****  */
 177:../../lpc11cx4-library/lpc_chip_11cxx_lib/inc/clock_11xx.h **** STATIC INLINE void Chip_Clock_SetLFOSC(CHIP_WDTLFO_OSC_T lfoclk, uint8_t div)
 178:../../lpc11cx4-library/lpc_chip_11cxx_lib/inc/clock_11xx.h **** {
 179:../../lpc11cx4-library/lpc_chip_11cxx_lib/inc/clock_11xx.h **** 	LPC_SYSCTL->LFOSCCTRL  = (((uint32_t) lfoclk) << 5) | ((div >> 1) - 1);
 180:../../lpc11cx4-library/lpc_chip_11cxx_lib/inc/clock_11xx.h **** }
 181:../../lpc11cx4-library/lpc_chip_11cxx_lib/inc/clock_11xx.h **** 
 182:../../lpc11cx4-library/lpc_chip_11cxx_lib/inc/clock_11xx.h **** #endif /*CHIP_LPC11AXX*/
 183:../../lpc11cx4-library/lpc_chip_11cxx_lib/inc/clock_11xx.h **** 
 184:../../lpc11cx4-library/lpc_chip_11cxx_lib/inc/clock_11xx.h **** /**
 185:../../lpc11cx4-library/lpc_chip_11cxx_lib/inc/clock_11xx.h ****  * Clock sources for main system clock
 186:../../lpc11cx4-library/lpc_chip_11cxx_lib/inc/clock_11xx.h ****  */
 187:../../lpc11cx4-library/lpc_chip_11cxx_lib/inc/clock_11xx.h **** typedef enum CHIP_SYSCTL_MAINCLKSRC {
 188:../../lpc11cx4-library/lpc_chip_11cxx_lib/inc/clock_11xx.h **** 	SYSCTL_MAINCLKSRC_IRC = 0,		/*!< Internal oscillator */
 189:../../lpc11cx4-library/lpc_chip_11cxx_lib/inc/clock_11xx.h **** 	SYSCTL_MAINCLKSRC_PLLIN,		/*!< System PLL input */
 190:../../lpc11cx4-library/lpc_chip_11cxx_lib/inc/clock_11xx.h **** 	SYSCTL_MAINCLKSRC_LFOSC,		/*!< LF oscillator rate (11Axx only) */
 191:../../lpc11cx4-library/lpc_chip_11cxx_lib/inc/clock_11xx.h **** 	SYSCTL_MAINCLKSRC_WDTOSC = SYSCTL_MAINCLKSRC_LFOSC,	/*!< Watchdog oscillator rate */
 192:../../lpc11cx4-library/lpc_chip_11cxx_lib/inc/clock_11xx.h **** 	SYSCTL_MAINCLKSRC_PLLOUT,		/*!< System PLL output */
 193:../../lpc11cx4-library/lpc_chip_11cxx_lib/inc/clock_11xx.h **** } CHIP_SYSCTL_MAINCLKSRC_T;
 194:../../lpc11cx4-library/lpc_chip_11cxx_lib/inc/clock_11xx.h **** 
 195:../../lpc11cx4-library/lpc_chip_11cxx_lib/inc/clock_11xx.h **** /**
 196:../../lpc11cx4-library/lpc_chip_11cxx_lib/inc/clock_11xx.h ****  * @brief	Set main system clock source
ARM GAS  /tmp/ccOmSU1l.s 			page 7


 197:../../lpc11cx4-library/lpc_chip_11cxx_lib/inc/clock_11xx.h ****  * @param	src	: Clock source for main system
 198:../../lpc11cx4-library/lpc_chip_11cxx_lib/inc/clock_11xx.h ****  * @return	Nothing
 199:../../lpc11cx4-library/lpc_chip_11cxx_lib/inc/clock_11xx.h ****  * @note	This function will also toggle the clock source update register
 200:../../lpc11cx4-library/lpc_chip_11cxx_lib/inc/clock_11xx.h ****  * to update the clock source.
 201:../../lpc11cx4-library/lpc_chip_11cxx_lib/inc/clock_11xx.h ****  */
 202:../../lpc11cx4-library/lpc_chip_11cxx_lib/inc/clock_11xx.h **** void Chip_Clock_SetMainClockSource(CHIP_SYSCTL_MAINCLKSRC_T src);
 203:../../lpc11cx4-library/lpc_chip_11cxx_lib/inc/clock_11xx.h **** 
 204:../../lpc11cx4-library/lpc_chip_11cxx_lib/inc/clock_11xx.h **** /**
 205:../../lpc11cx4-library/lpc_chip_11cxx_lib/inc/clock_11xx.h ****  * @brief   Returns the main clock source
 206:../../lpc11cx4-library/lpc_chip_11cxx_lib/inc/clock_11xx.h ****  * @return	Which clock is used for the core clock source?
 207:../../lpc11cx4-library/lpc_chip_11cxx_lib/inc/clock_11xx.h ****  */
 208:../../lpc11cx4-library/lpc_chip_11cxx_lib/inc/clock_11xx.h **** STATIC INLINE CHIP_SYSCTL_MAINCLKSRC_T Chip_Clock_GetMainClockSource(void)
 209:../../lpc11cx4-library/lpc_chip_11cxx_lib/inc/clock_11xx.h **** {
 210:../../lpc11cx4-library/lpc_chip_11cxx_lib/inc/clock_11xx.h **** 	return (CHIP_SYSCTL_MAINCLKSRC_T) (LPC_SYSCTL->MAINCLKSEL);
 211:../../lpc11cx4-library/lpc_chip_11cxx_lib/inc/clock_11xx.h **** }
 212:../../lpc11cx4-library/lpc_chip_11cxx_lib/inc/clock_11xx.h **** 
 213:../../lpc11cx4-library/lpc_chip_11cxx_lib/inc/clock_11xx.h **** /**
 214:../../lpc11cx4-library/lpc_chip_11cxx_lib/inc/clock_11xx.h ****  * @brief	Set system clock divider
 215:../../lpc11cx4-library/lpc_chip_11cxx_lib/inc/clock_11xx.h ****  * @param	div	: divider for system clock
 216:../../lpc11cx4-library/lpc_chip_11cxx_lib/inc/clock_11xx.h ****  * @return	Nothing
 217:../../lpc11cx4-library/lpc_chip_11cxx_lib/inc/clock_11xx.h ****  * @note	Use 0 to disable, or a divider value of 1 to 255. The system clock
 218:../../lpc11cx4-library/lpc_chip_11cxx_lib/inc/clock_11xx.h ****  * rate is the main system clock divided by this value.
 219:../../lpc11cx4-library/lpc_chip_11cxx_lib/inc/clock_11xx.h ****  */
 220:../../lpc11cx4-library/lpc_chip_11cxx_lib/inc/clock_11xx.h **** STATIC INLINE void Chip_Clock_SetSysClockDiv(uint32_t div)
 221:../../lpc11cx4-library/lpc_chip_11cxx_lib/inc/clock_11xx.h **** {
 222:../../lpc11cx4-library/lpc_chip_11cxx_lib/inc/clock_11xx.h **** 	LPC_SYSCTL->SYSAHBCLKDIV  = div;
 223:../../lpc11cx4-library/lpc_chip_11cxx_lib/inc/clock_11xx.h **** }
 224:../../lpc11cx4-library/lpc_chip_11cxx_lib/inc/clock_11xx.h **** 
 225:../../lpc11cx4-library/lpc_chip_11cxx_lib/inc/clock_11xx.h **** /**
 226:../../lpc11cx4-library/lpc_chip_11cxx_lib/inc/clock_11xx.h ****  * System and peripheral clocks
 227:../../lpc11cx4-library/lpc_chip_11cxx_lib/inc/clock_11xx.h ****  */
 228:../../lpc11cx4-library/lpc_chip_11cxx_lib/inc/clock_11xx.h **** typedef enum CHIP_SYSCTL_CLOCK {
 229:../../lpc11cx4-library/lpc_chip_11cxx_lib/inc/clock_11xx.h **** 	SYSCTL_CLOCK_SYS = 0,				/*!< 0: System clock */
 230:../../lpc11cx4-library/lpc_chip_11cxx_lib/inc/clock_11xx.h **** 	SYSCTL_CLOCK_ROM,					/*!<1:  ROM clock */
 231:../../lpc11cx4-library/lpc_chip_11cxx_lib/inc/clock_11xx.h **** 	SYSCTL_CLOCK_RAM,					/*!< 2: RAM clock */
 232:../../lpc11cx4-library/lpc_chip_11cxx_lib/inc/clock_11xx.h **** 	SYSCTL_CLOCK_FLASHREG,				/*!< 3: FLASH register interface clock */
 233:../../lpc11cx4-library/lpc_chip_11cxx_lib/inc/clock_11xx.h **** 	SYSCTL_CLOCK_FLASHARRAY,			/*!< 4: FLASH array access clock */
 234:../../lpc11cx4-library/lpc_chip_11cxx_lib/inc/clock_11xx.h **** #if defined(CHIP_LPC110X)
 235:../../lpc11cx4-library/lpc_chip_11cxx_lib/inc/clock_11xx.h **** 	SYSCTL_CLOCK_RESERVED5,				/*!< 5: Reserved */
 236:../../lpc11cx4-library/lpc_chip_11cxx_lib/inc/clock_11xx.h **** #else
 237:../../lpc11cx4-library/lpc_chip_11cxx_lib/inc/clock_11xx.h **** 	SYSCTL_CLOCK_I2C,					/*!< 5: I2C clock, not on LPC110x */
 238:../../lpc11cx4-library/lpc_chip_11cxx_lib/inc/clock_11xx.h **** #endif
 239:../../lpc11cx4-library/lpc_chip_11cxx_lib/inc/clock_11xx.h **** 	SYSCTL_CLOCK_GPIO,					/*!< 6: GPIO clock */
 240:../../lpc11cx4-library/lpc_chip_11cxx_lib/inc/clock_11xx.h **** 	SYSCTL_CLOCK_CT16B0,				/*!< 7: 16-bit Counter/timer 0 clock */
 241:../../lpc11cx4-library/lpc_chip_11cxx_lib/inc/clock_11xx.h **** 	SYSCTL_CLOCK_CT16B1,				/*!< 8: 16-bit Counter/timer 1 clock */
 242:../../lpc11cx4-library/lpc_chip_11cxx_lib/inc/clock_11xx.h **** 	SYSCTL_CLOCK_CT32B0,				/*!< 9: 32-bit Counter/timer 0 clock */
 243:../../lpc11cx4-library/lpc_chip_11cxx_lib/inc/clock_11xx.h **** 	SYSCTL_CLOCK_CT32B1,				/*!< 10: 32-bit Counter/timer 1 clock */
 244:../../lpc11cx4-library/lpc_chip_11cxx_lib/inc/clock_11xx.h **** 	SYSCTL_CLOCK_SSP0,					/*!< 11: SSP0 clock */
 245:../../lpc11cx4-library/lpc_chip_11cxx_lib/inc/clock_11xx.h **** 	SYSCTL_CLOCK_UART0,					/*!< 12: UART0 clock */
 246:../../lpc11cx4-library/lpc_chip_11cxx_lib/inc/clock_11xx.h **** 	SYSCTL_CLOCK_ADC,					/*!< 13: ADC clock */
 247:../../lpc11cx4-library/lpc_chip_11cxx_lib/inc/clock_11xx.h **** #if defined(CHIP_LPC11UXX)
 248:../../lpc11cx4-library/lpc_chip_11cxx_lib/inc/clock_11xx.h **** 	SYSCTL_CLOCK_USB,					/*!< 14: USB clock, LPC11Uxx only */
 249:../../lpc11cx4-library/lpc_chip_11cxx_lib/inc/clock_11xx.h **** #else
 250:../../lpc11cx4-library/lpc_chip_11cxx_lib/inc/clock_11xx.h **** 	SYSCTL_CLOCK_RESERVED14,			/*!< 14: Reserved */
 251:../../lpc11cx4-library/lpc_chip_11cxx_lib/inc/clock_11xx.h **** #endif
 252:../../lpc11cx4-library/lpc_chip_11cxx_lib/inc/clock_11xx.h **** 	SYSCTL_CLOCK_WDT,					/*!< 15: Watchdog timer clock */
 253:../../lpc11cx4-library/lpc_chip_11cxx_lib/inc/clock_11xx.h **** 	SYSCTL_CLOCK_IOCON,					/*!< 16: IOCON block clock */
ARM GAS  /tmp/ccOmSU1l.s 			page 8


 254:../../lpc11cx4-library/lpc_chip_11cxx_lib/inc/clock_11xx.h **** #if defined(CHIP_LPC11CXX)
 255:../../lpc11cx4-library/lpc_chip_11cxx_lib/inc/clock_11xx.h **** 	SYSCTL_CLOCK_CAN,					/*!< 17: CAN clock, LPC11Cxx only */
 256:../../lpc11cx4-library/lpc_chip_11cxx_lib/inc/clock_11xx.h **** #else
 257:../../lpc11cx4-library/lpc_chip_11cxx_lib/inc/clock_11xx.h **** 	SYSCTL_CLOCK_RESERVED17,			/*!< 17: Reserved */
 258:../../lpc11cx4-library/lpc_chip_11cxx_lib/inc/clock_11xx.h **** #endif
 259:../../lpc11cx4-library/lpc_chip_11cxx_lib/inc/clock_11xx.h **** #if !(defined(CHIP_LPC110X) || defined(CHIP_LPC11XXLV))  
 260:../../lpc11cx4-library/lpc_chip_11cxx_lib/inc/clock_11xx.h **** 	SYSCTL_CLOCK_SSP1,					/*!< 18: SSP1 clock, LPC11A/C/E/Uxx//1125 only */
 261:../../lpc11cx4-library/lpc_chip_11cxx_lib/inc/clock_11xx.h **** #if !defined(CHIP_LPC11CXX)
 262:../../lpc11cx4-library/lpc_chip_11cxx_lib/inc/clock_11xx.h **** 	SYSCTL_CLOCK_PINT,					/*!< 19: GPIO Pin int register interface clock, LPC11A/E/Uxx only */
 263:../../lpc11cx4-library/lpc_chip_11cxx_lib/inc/clock_11xx.h **** #if defined(CHIP_LPC11AXX)
 264:../../lpc11cx4-library/lpc_chip_11cxx_lib/inc/clock_11xx.h **** 	SYSCTL_CLOCK_ACOMP,					/*!< 20: Analog comparator clock, LPC11Axx only */
 265:../../lpc11cx4-library/lpc_chip_11cxx_lib/inc/clock_11xx.h **** 	SYSCTL_CLOCK_DAC,					/*!< 21: DAC clock, LPC11Axx only */
 266:../../lpc11cx4-library/lpc_chip_11cxx_lib/inc/clock_11xx.h **** #else
 267:../../lpc11cx4-library/lpc_chip_11cxx_lib/inc/clock_11xx.h **** 	SYSCTL_CLOCK_RESERVED20,			/*!< 20: Reserved */
 268:../../lpc11cx4-library/lpc_chip_11cxx_lib/inc/clock_11xx.h **** 	SYSCTL_CLOCK_RESERVED21,			/*!< 21: Reserved */
 269:../../lpc11cx4-library/lpc_chip_11cxx_lib/inc/clock_11xx.h **** #endif
 270:../../lpc11cx4-library/lpc_chip_11cxx_lib/inc/clock_11xx.h **** 	SYSCTL_CLOCK_RESERVED22,			/*!< 22: Reserved */
 271:../../lpc11cx4-library/lpc_chip_11cxx_lib/inc/clock_11xx.h **** 	SYSCTL_CLOCK_P0INT,					/*!< 23: GPIO GROUP1 interrupt register clock, LPC11Axx only */
 272:../../lpc11cx4-library/lpc_chip_11cxx_lib/inc/clock_11xx.h **** 	SYSCTL_CLOCK_GROUP0INT = SYSCTL_CLOCK_P0INT,/*!< 23: GPIO GROUP0 interrupt register interface cloc
 273:../../lpc11cx4-library/lpc_chip_11cxx_lib/inc/clock_11xx.h **** 	SYSCTL_CLOCK_P1INT,					/*!< 24: GPIO GROUP1 interrupt register clock, LPC11Axx only */
 274:../../lpc11cx4-library/lpc_chip_11cxx_lib/inc/clock_11xx.h **** 	SYSCTL_CLOCK_GROUP1INT = SYSCTL_CLOCK_P1INT,/*!< 24: GPIO GROUP1 interrupt register interface cloc
 275:../../lpc11cx4-library/lpc_chip_11cxx_lib/inc/clock_11xx.h **** 	SYSCTL_CLOCK_RESERVED25,			/*!< 25: Reserved */
 276:../../lpc11cx4-library/lpc_chip_11cxx_lib/inc/clock_11xx.h **** #if defined(CHIP_LPC11EXX)  || defined(CHIP_LPC11UXX)
 277:../../lpc11cx4-library/lpc_chip_11cxx_lib/inc/clock_11xx.h **** 	SYSCTL_CLOCK_RAM1,					/*!< 26: SRAM block (0x20000000) clock, LPC11E/Uxx only */
 278:../../lpc11cx4-library/lpc_chip_11cxx_lib/inc/clock_11xx.h **** #else
 279:../../lpc11cx4-library/lpc_chip_11cxx_lib/inc/clock_11xx.h **** 	SYSCTL_CLOCK_RESERVED26,			/*!< 26: Reserved */
 280:../../lpc11cx4-library/lpc_chip_11cxx_lib/inc/clock_11xx.h **** #endif
 281:../../lpc11cx4-library/lpc_chip_11cxx_lib/inc/clock_11xx.h **** #if defined(CHIP_LPC11UXX)
 282:../../lpc11cx4-library/lpc_chip_11cxx_lib/inc/clock_11xx.h **** 	SYSCTL_CLOCK_USBRAM,				/*!< 27: USB SRAM block clock, LPC11Uxx only */
 283:../../lpc11cx4-library/lpc_chip_11cxx_lib/inc/clock_11xx.h **** #else
 284:../../lpc11cx4-library/lpc_chip_11cxx_lib/inc/clock_11xx.h **** 	SYSCTL_CLOCK_RESERVED27,			/*!< 27: Reserved */
 285:../../lpc11cx4-library/lpc_chip_11cxx_lib/inc/clock_11xx.h **** #endif
 286:../../lpc11cx4-library/lpc_chip_11cxx_lib/inc/clock_11xx.h **** #endif /* !defined(CHIP_LPC11CXX) */
 287:../../lpc11cx4-library/lpc_chip_11cxx_lib/inc/clock_11xx.h **** #endif /* !(defined(CHIP_LPC110X) || defined(CHIP_LPC11XXLV)) */
 288:../../lpc11cx4-library/lpc_chip_11cxx_lib/inc/clock_11xx.h **** } CHIP_SYSCTL_CLOCK_T;
 289:../../lpc11cx4-library/lpc_chip_11cxx_lib/inc/clock_11xx.h **** 
 290:../../lpc11cx4-library/lpc_chip_11cxx_lib/inc/clock_11xx.h **** /**
 291:../../lpc11cx4-library/lpc_chip_11cxx_lib/inc/clock_11xx.h ****  * @brief	Enable a system or peripheral clock
 292:../../lpc11cx4-library/lpc_chip_11cxx_lib/inc/clock_11xx.h ****  * @param	clk	: Clock to enable
 293:../../lpc11cx4-library/lpc_chip_11cxx_lib/inc/clock_11xx.h ****  * @return	Nothing
 294:../../lpc11cx4-library/lpc_chip_11cxx_lib/inc/clock_11xx.h ****  */
 295:../../lpc11cx4-library/lpc_chip_11cxx_lib/inc/clock_11xx.h **** STATIC INLINE void Chip_Clock_EnablePeriphClock(CHIP_SYSCTL_CLOCK_T clk)
 296:../../lpc11cx4-library/lpc_chip_11cxx_lib/inc/clock_11xx.h **** {
 297:../../lpc11cx4-library/lpc_chip_11cxx_lib/inc/clock_11xx.h **** 	LPC_SYSCTL->SYSAHBCLKCTRL |= (1 << clk);
  92              		.loc 2 297 0
  93 0000 8022     		movs	r2, #128	@ tmp114,
  94 0002 4020     		movs	r0, #64	@ tmp115,
  95              	.LVL1:
  96 0004 0249     		ldr	r1, .L2	@ tmp113,
  97              	.LBE27:
  98              	.LBE26:
  56:../../lpc11cx4-library/lpc_chip_11cxx_lib/src/gpio_11xx_2.c **** 	UNUSED(pGPIO);
  57:../../lpc11cx4-library/lpc_chip_11cxx_lib/src/gpio_11xx_2.c **** 	Chip_Clock_EnablePeriphClock(SYSCTL_CLOCK_GPIO);
  58:../../lpc11cx4-library/lpc_chip_11cxx_lib/src/gpio_11xx_2.c **** }
  99              		.loc 1 58 0
 100              		@ sp needed	@
 101              	.LBB29:
ARM GAS  /tmp/ccOmSU1l.s 			page 9


 102              	.LBB28:
 103              		.loc 2 297 0
 104 0006 8B58     		ldr	r3, [r1, r2]	@ _2, MEM[(struct LPC_SYSCTL_T *)1074036736B].SYSAHBCLKCTRL
 105 0008 0343     		orrs	r3, r0	@ _3, tmp115
 106 000a 8B50     		str	r3, [r1, r2]	@ _3, MEM[(struct LPC_SYSCTL_T *)1074036736B].SYSAHBCLKCTRL
 107              	.LVL2:
 108              	.LBE28:
 109              	.LBE29:
 110              		.loc 1 58 0
 111 000c 7047     		bx	lr
 112              	.L3:
 113 000e C046     		.align	2
 114              	.L2:
 115 0010 00800440 		.word	1074036736
 116              		.cfi_endproc
 117              	.LFE198:
 118              		.size	Chip_GPIO_Init, .-Chip_GPIO_Init
 119              		.section	.text.Chip_GPIO_DeInit,"ax",%progbits
 120              		.align	1
 121              		.p2align 2,,3
 122              		.global	Chip_GPIO_DeInit
 123              		.syntax unified
 124              		.code	16
 125              		.thumb_func
 126              		.fpu softvfp
 127              		.type	Chip_GPIO_DeInit, %function
 128              	Chip_GPIO_DeInit:
 129              	.LFB199:
  59:../../lpc11cx4-library/lpc_chip_11cxx_lib/src/gpio_11xx_2.c **** 
  60:../../lpc11cx4-library/lpc_chip_11cxx_lib/src/gpio_11xx_2.c **** /* De-Initialize GPIO block */
  61:../../lpc11cx4-library/lpc_chip_11cxx_lib/src/gpio_11xx_2.c **** void Chip_GPIO_DeInit(LPC_GPIO_T *pGPIO)
  62:../../lpc11cx4-library/lpc_chip_11cxx_lib/src/gpio_11xx_2.c **** {
 130              		.loc 1 62 0
 131              		.cfi_startproc
 132              		@ args = 0, pretend = 0, frame = 0
 133              		@ frame_needed = 0, uses_anonymous_args = 0
 134              		@ link register save eliminated.
 135              	.LVL3:
 136              	.LBB30:
 137              	.LBB31:
 298:../../lpc11cx4-library/lpc_chip_11cxx_lib/inc/clock_11xx.h **** }
 299:../../lpc11cx4-library/lpc_chip_11cxx_lib/inc/clock_11xx.h **** 
 300:../../lpc11cx4-library/lpc_chip_11cxx_lib/inc/clock_11xx.h **** /**
 301:../../lpc11cx4-library/lpc_chip_11cxx_lib/inc/clock_11xx.h ****  * @brief	Disable a system or peripheral clock
 302:../../lpc11cx4-library/lpc_chip_11cxx_lib/inc/clock_11xx.h ****  * @param	clk	: Clock to disable
 303:../../lpc11cx4-library/lpc_chip_11cxx_lib/inc/clock_11xx.h ****  * @return	Nothing
 304:../../lpc11cx4-library/lpc_chip_11cxx_lib/inc/clock_11xx.h ****  */
 305:../../lpc11cx4-library/lpc_chip_11cxx_lib/inc/clock_11xx.h **** STATIC INLINE void Chip_Clock_DisablePeriphClock(CHIP_SYSCTL_CLOCK_T clk)
 306:../../lpc11cx4-library/lpc_chip_11cxx_lib/inc/clock_11xx.h **** {
 307:../../lpc11cx4-library/lpc_chip_11cxx_lib/inc/clock_11xx.h **** 	LPC_SYSCTL->SYSAHBCLKCTRL &= ~(1 << clk);
 138              		.loc 2 307 0
 139 0000 8022     		movs	r2, #128	@ tmp114,
 140 0002 4020     		movs	r0, #64	@ tmp115,
 141              	.LVL4:
 142 0004 0249     		ldr	r1, .L5	@ tmp113,
 143              	.LBE31:
 144              	.LBE30:
ARM GAS  /tmp/ccOmSU1l.s 			page 10


  63:../../lpc11cx4-library/lpc_chip_11cxx_lib/src/gpio_11xx_2.c **** 	UNUSED(pGPIO);
  64:../../lpc11cx4-library/lpc_chip_11cxx_lib/src/gpio_11xx_2.c **** 	Chip_Clock_DisablePeriphClock(SYSCTL_CLOCK_GPIO);
  65:../../lpc11cx4-library/lpc_chip_11cxx_lib/src/gpio_11xx_2.c **** }
 145              		.loc 1 65 0
 146              		@ sp needed	@
 147              	.LBB33:
 148              	.LBB32:
 149              		.loc 2 307 0
 150 0006 8B58     		ldr	r3, [r1, r2]	@ _2, MEM[(struct LPC_SYSCTL_T *)1074036736B].SYSAHBCLKCTRL
 151 0008 8343     		bics	r3, r0	@ _3, tmp115
 152 000a 8B50     		str	r3, [r1, r2]	@ _3, MEM[(struct LPC_SYSCTL_T *)1074036736B].SYSAHBCLKCTRL
 153              	.LVL5:
 154              	.LBE32:
 155              	.LBE33:
 156              		.loc 1 65 0
 157 000c 7047     		bx	lr
 158              	.L6:
 159 000e C046     		.align	2
 160              	.L5:
 161 0010 00800440 		.word	1074036736
 162              		.cfi_endproc
 163              	.LFE199:
 164              		.size	Chip_GPIO_DeInit, .-Chip_GPIO_DeInit
 165              		.section	.text.Chip_GPIO_WriteDirBit,"ax",%progbits
 166              		.align	1
 167              		.p2align 2,,3
 168              		.global	Chip_GPIO_WriteDirBit
 169              		.syntax unified
 170              		.code	16
 171              		.thumb_func
 172              		.fpu softvfp
 173              		.type	Chip_GPIO_WriteDirBit, %function
 174              	Chip_GPIO_WriteDirBit:
 175              	.LFB200:
  66:../../lpc11cx4-library/lpc_chip_11cxx_lib/src/gpio_11xx_2.c **** 
  67:../../lpc11cx4-library/lpc_chip_11cxx_lib/src/gpio_11xx_2.c **** /* Set GPIO direction */
  68:../../lpc11cx4-library/lpc_chip_11cxx_lib/src/gpio_11xx_2.c **** void Chip_GPIO_WriteDirBit(LPC_GPIO_T *pGPIO, uint32_t port, uint8_t bit, bool setting)
  69:../../lpc11cx4-library/lpc_chip_11cxx_lib/src/gpio_11xx_2.c **** {
 176              		.loc 1 69 0
 177              		.cfi_startproc
 178              		@ args = 0, pretend = 0, frame = 0
 179              		@ frame_needed = 0, uses_anonymous_args = 0
 180              	.LVL6:
  70:../../lpc11cx4-library/lpc_chip_11cxx_lib/src/gpio_11xx_2.c **** 	if (setting) {
  71:../../lpc11cx4-library/lpc_chip_11cxx_lib/src/gpio_11xx_2.c **** 		pGPIO[port].DIR |= 1UL << bit;
 181              		.loc 1 71 0
 182 0000 0904     		lsls	r1, r1, #16	@ tmp127, port,
 183              	.LVL7:
  69:../../lpc11cx4-library/lpc_chip_11cxx_lib/src/gpio_11xx_2.c **** 	if (setting) {
 184              		.loc 1 69 0
 185 0002 10B5     		push	{r4, lr}	@
 186              		.cfi_def_cfa_offset 8
 187              		.cfi_offset 4, -8
 188              		.cfi_offset 14, -4
 189              		.loc 1 71 0
 190 0004 4018     		adds	r0, r0, r1	@ _6, pGPIO, tmp127
 191              	.LVL8:
ARM GAS  /tmp/ccOmSU1l.s 			page 11


  70:../../lpc11cx4-library/lpc_chip_11cxx_lib/src/gpio_11xx_2.c **** 	if (setting) {
 192              		.loc 1 70 0
 193 0006 002B     		cmp	r3, #0	@ setting,
 194 0008 07D1     		bne	.L11	@,
  72:../../lpc11cx4-library/lpc_chip_11cxx_lib/src/gpio_11xx_2.c **** 	}
  73:../../lpc11cx4-library/lpc_chip_11cxx_lib/src/gpio_11xx_2.c **** 	else {
  74:../../lpc11cx4-library/lpc_chip_11cxx_lib/src/gpio_11xx_2.c **** 		pGPIO[port].DIR &= ~(1UL << bit);
 195              		.loc 1 74 0
 196 000a 0121     		movs	r1, #1	@ tmp135,
 197 000c 8024     		movs	r4, #128	@ tmp133,
 198 000e 9140     		lsls	r1, r1, r2	@ tmp134, tmp135, bit
 199 0010 2402     		lsls	r4, r4, #8	@ tmp133, tmp133,
 200 0012 0359     		ldr	r3, [r0, r4]	@ _16, _15->DIR
 201              	.LVL9:
 202 0014 8B43     		bics	r3, r1	@ _20, tmp134
 203 0016 0351     		str	r3, [r0, r4]	@ _20, _15->DIR
 204              	.L7:
  75:../../lpc11cx4-library/lpc_chip_11cxx_lib/src/gpio_11xx_2.c **** 	}
  76:../../lpc11cx4-library/lpc_chip_11cxx_lib/src/gpio_11xx_2.c **** }
 205              		.loc 1 76 0
 206              		@ sp needed	@
 207 0018 10BD     		pop	{r4, pc}
 208              	.LVL10:
 209              	.L11:
  71:../../lpc11cx4-library/lpc_chip_11cxx_lib/src/gpio_11xx_2.c **** 	}
 210              		.loc 1 71 0
 211 001a 0123     		movs	r3, #1	@ tmp130,
 212              	.LVL11:
 213 001c 8021     		movs	r1, #128	@ tmp128,
 214 001e 9340     		lsls	r3, r3, r2	@ tmp129, tmp130, bit
 215 0020 0902     		lsls	r1, r1, #8	@ tmp128, tmp128,
 216 0022 4458     		ldr	r4, [r0, r1]	@ _8, _6->DIR
 217 0024 2343     		orrs	r3, r4	@ _12, _8
 218 0026 4350     		str	r3, [r0, r1]	@ _12, _6->DIR
 219 0028 F6E7     		b	.L7	@
 220              		.cfi_endproc
 221              	.LFE200:
 222              		.size	Chip_GPIO_WriteDirBit, .-Chip_GPIO_WriteDirBit
 223 002a C046     		.section	.text.Chip_GPIO_SetDir,"ax",%progbits
 224              		.align	1
 225              		.p2align 2,,3
 226              		.global	Chip_GPIO_SetDir
 227              		.syntax unified
 228              		.code	16
 229              		.thumb_func
 230              		.fpu softvfp
 231              		.type	Chip_GPIO_SetDir, %function
 232              	Chip_GPIO_SetDir:
 233              	.LFB201:
  77:../../lpc11cx4-library/lpc_chip_11cxx_lib/src/gpio_11xx_2.c **** 
  78:../../lpc11cx4-library/lpc_chip_11cxx_lib/src/gpio_11xx_2.c **** /* Set Direction for a GPIO port */
  79:../../lpc11cx4-library/lpc_chip_11cxx_lib/src/gpio_11xx_2.c **** void Chip_GPIO_SetDir(LPC_GPIO_T *pGPIO, uint8_t port, uint32_t bit, uint8_t out)
  80:../../lpc11cx4-library/lpc_chip_11cxx_lib/src/gpio_11xx_2.c **** {
 234              		.loc 1 80 0
 235              		.cfi_startproc
 236              		@ args = 0, pretend = 0, frame = 0
 237              		@ frame_needed = 0, uses_anonymous_args = 0
ARM GAS  /tmp/ccOmSU1l.s 			page 12


 238              		@ link register save eliminated.
 239              	.LVL12:
  81:../../lpc11cx4-library/lpc_chip_11cxx_lib/src/gpio_11xx_2.c **** 	if (out) {
  82:../../lpc11cx4-library/lpc_chip_11cxx_lib/src/gpio_11xx_2.c **** 		pGPIO[port].DIR |= bit;
 240              		.loc 1 82 0
 241 0000 0904     		lsls	r1, r1, #16	@ tmp125, port,
 242              	.LVL13:
 243 0002 4018     		adds	r0, r0, r1	@ _7, pGPIO, tmp125
 244              	.LVL14:
 245 0004 8021     		movs	r1, #128	@ tmp126,
 246 0006 0902     		lsls	r1, r1, #8	@ tmp126, tmp126,
  81:../../lpc11cx4-library/lpc_chip_11cxx_lib/src/gpio_11xx_2.c **** 	if (out) {
 247              		.loc 1 81 0
 248 0008 002B     		cmp	r3, #0	@ out,
 249 000a 03D1     		bne	.L15	@,
  83:../../lpc11cx4-library/lpc_chip_11cxx_lib/src/gpio_11xx_2.c **** 	}
  84:../../lpc11cx4-library/lpc_chip_11cxx_lib/src/gpio_11xx_2.c **** 	else {
  85:../../lpc11cx4-library/lpc_chip_11cxx_lib/src/gpio_11xx_2.c **** 		pGPIO[port].DIR &= ~bit;
 250              		.loc 1 85 0
 251 000c 4358     		ldr	r3, [r0, r1]	@ _16,
 252              	.LVL15:
 253 000e 9343     		bics	r3, r2	@ _18, bit
 254 0010 4350     		str	r3, [r0, r1]	@ _18, _15->DIR
 255              	.LVL16:
 256              	.L12:
  86:../../lpc11cx4-library/lpc_chip_11cxx_lib/src/gpio_11xx_2.c **** 	}
  87:../../lpc11cx4-library/lpc_chip_11cxx_lib/src/gpio_11xx_2.c **** }
 257              		.loc 1 87 0
 258              		@ sp needed	@
 259 0012 7047     		bx	lr
 260              	.LVL17:
 261              	.L15:
  82:../../lpc11cx4-library/lpc_chip_11cxx_lib/src/gpio_11xx_2.c **** 	}
 262              		.loc 1 82 0
 263 0014 4358     		ldr	r3, [r0, r1]	@ _9,
 264              	.LVL18:
 265 0016 1A43     		orrs	r2, r3	@ _11, _9
 266              	.LVL19:
 267 0018 4250     		str	r2, [r0, r1]	@ _11, _7->DIR
 268 001a FAE7     		b	.L12	@
 269              		.cfi_endproc
 270              	.LFE201:
 271              		.size	Chip_GPIO_SetDir, .-Chip_GPIO_SetDir
 272              		.section	.text.Chip_GPIO_SetPinDIR,"ax",%progbits
 273              		.align	1
 274              		.p2align 2,,3
 275              		.global	Chip_GPIO_SetPinDIR
 276              		.syntax unified
 277              		.code	16
 278              		.thumb_func
 279              		.fpu softvfp
 280              		.type	Chip_GPIO_SetPinDIR, %function
 281              	Chip_GPIO_SetPinDIR:
 282              	.LFB202:
  88:../../lpc11cx4-library/lpc_chip_11cxx_lib/src/gpio_11xx_2.c **** 
  89:../../lpc11cx4-library/lpc_chip_11cxx_lib/src/gpio_11xx_2.c **** /* Set GPIO direction for a single GPIO pin */
  90:../../lpc11cx4-library/lpc_chip_11cxx_lib/src/gpio_11xx_2.c **** void Chip_GPIO_SetPinDIR(LPC_GPIO_T *pGPIO, uint8_t port, uint8_t pin, bool output)
ARM GAS  /tmp/ccOmSU1l.s 			page 13


  91:../../lpc11cx4-library/lpc_chip_11cxx_lib/src/gpio_11xx_2.c **** {
 283              		.loc 1 91 0
 284              		.cfi_startproc
 285              		@ args = 0, pretend = 0, frame = 0
 286              		@ frame_needed = 0, uses_anonymous_args = 0
 287              	.LVL20:
 288              	.LBB34:
 289              	.LBB35:
 290              		.file 3 "../../lpc11cx4-library/lpc_chip_11cxx_lib/inc/gpio_11xx_2.h"
   1:../../lpc11cx4-library/lpc_chip_11cxx_lib/inc/gpio_11xx_2.h **** /*
   2:../../lpc11cx4-library/lpc_chip_11cxx_lib/inc/gpio_11xx_2.h ****  * @brief LPC11xx GPIO driver for CHIP_LPC11CXX, CHIP_LPC110X, CHIP_LPC11XXLV,
   3:../../lpc11cx4-library/lpc_chip_11cxx_lib/inc/gpio_11xx_2.h ****  * and CHIP_LPC1125 families only.
   4:../../lpc11cx4-library/lpc_chip_11cxx_lib/inc/gpio_11xx_2.h ****  *
   5:../../lpc11cx4-library/lpc_chip_11cxx_lib/inc/gpio_11xx_2.h ****  * @note
   6:../../lpc11cx4-library/lpc_chip_11cxx_lib/inc/gpio_11xx_2.h ****  * Copyright(C) NXP Semiconductors, 2013
   7:../../lpc11cx4-library/lpc_chip_11cxx_lib/inc/gpio_11xx_2.h ****  * All rights reserved.
   8:../../lpc11cx4-library/lpc_chip_11cxx_lib/inc/gpio_11xx_2.h ****  *
   9:../../lpc11cx4-library/lpc_chip_11cxx_lib/inc/gpio_11xx_2.h ****  * @par
  10:../../lpc11cx4-library/lpc_chip_11cxx_lib/inc/gpio_11xx_2.h ****  * Software that is described herein is for illustrative purposes only
  11:../../lpc11cx4-library/lpc_chip_11cxx_lib/inc/gpio_11xx_2.h ****  * which provides customers with programming information regarding the
  12:../../lpc11cx4-library/lpc_chip_11cxx_lib/inc/gpio_11xx_2.h ****  * LPC products.  This software is supplied "AS IS" without any warranties of
  13:../../lpc11cx4-library/lpc_chip_11cxx_lib/inc/gpio_11xx_2.h ****  * any kind, and NXP Semiconductors and its licensor disclaim any and
  14:../../lpc11cx4-library/lpc_chip_11cxx_lib/inc/gpio_11xx_2.h ****  * all warranties, express or implied, including all implied warranties of
  15:../../lpc11cx4-library/lpc_chip_11cxx_lib/inc/gpio_11xx_2.h ****  * merchantability, fitness for a particular purpose and non-infringement of
  16:../../lpc11cx4-library/lpc_chip_11cxx_lib/inc/gpio_11xx_2.h ****  * intellectual property rights.  NXP Semiconductors assumes no responsibility
  17:../../lpc11cx4-library/lpc_chip_11cxx_lib/inc/gpio_11xx_2.h ****  * or liability for the use of the software, conveys no license or rights under any
  18:../../lpc11cx4-library/lpc_chip_11cxx_lib/inc/gpio_11xx_2.h ****  * patent, copyright, mask work right, or any other intellectual property rights in
  19:../../lpc11cx4-library/lpc_chip_11cxx_lib/inc/gpio_11xx_2.h ****  * or to any products. NXP Semiconductors reserves the right to make changes
  20:../../lpc11cx4-library/lpc_chip_11cxx_lib/inc/gpio_11xx_2.h ****  * in the software without notification. NXP Semiconductors also makes no
  21:../../lpc11cx4-library/lpc_chip_11cxx_lib/inc/gpio_11xx_2.h ****  * representation or warranty that such application will be suitable for the
  22:../../lpc11cx4-library/lpc_chip_11cxx_lib/inc/gpio_11xx_2.h ****  * specified use without further testing or modification.
  23:../../lpc11cx4-library/lpc_chip_11cxx_lib/inc/gpio_11xx_2.h ****  *
  24:../../lpc11cx4-library/lpc_chip_11cxx_lib/inc/gpio_11xx_2.h ****  * @par
  25:../../lpc11cx4-library/lpc_chip_11cxx_lib/inc/gpio_11xx_2.h ****  * Permission to use, copy, modify, and distribute this software and its
  26:../../lpc11cx4-library/lpc_chip_11cxx_lib/inc/gpio_11xx_2.h ****  * documentation is hereby granted, under NXP Semiconductors' and its
  27:../../lpc11cx4-library/lpc_chip_11cxx_lib/inc/gpio_11xx_2.h ****  * licensor's relevant copyrights in the software, without fee, provided that it
  28:../../lpc11cx4-library/lpc_chip_11cxx_lib/inc/gpio_11xx_2.h ****  * is used in conjunction with NXP Semiconductors microcontrollers.  This
  29:../../lpc11cx4-library/lpc_chip_11cxx_lib/inc/gpio_11xx_2.h ****  * copyright, permission, and disclaimer notice must appear in all copies of
  30:../../lpc11cx4-library/lpc_chip_11cxx_lib/inc/gpio_11xx_2.h ****  * this code.
  31:../../lpc11cx4-library/lpc_chip_11cxx_lib/inc/gpio_11xx_2.h ****  */
  32:../../lpc11cx4-library/lpc_chip_11cxx_lib/inc/gpio_11xx_2.h **** 
  33:../../lpc11cx4-library/lpc_chip_11cxx_lib/inc/gpio_11xx_2.h **** #ifndef __GPIO_11XX_2_H_
  34:../../lpc11cx4-library/lpc_chip_11cxx_lib/inc/gpio_11xx_2.h **** #define __GPIO_11XX_2_H_
  35:../../lpc11cx4-library/lpc_chip_11cxx_lib/inc/gpio_11xx_2.h **** 
  36:../../lpc11cx4-library/lpc_chip_11cxx_lib/inc/gpio_11xx_2.h **** #ifdef __cplusplus
  37:../../lpc11cx4-library/lpc_chip_11cxx_lib/inc/gpio_11xx_2.h **** extern "C" {
  38:../../lpc11cx4-library/lpc_chip_11cxx_lib/inc/gpio_11xx_2.h **** #endif
  39:../../lpc11cx4-library/lpc_chip_11cxx_lib/inc/gpio_11xx_2.h **** 
  40:../../lpc11cx4-library/lpc_chip_11cxx_lib/inc/gpio_11xx_2.h **** /** @defgroup GPIO_11XX_2 CHIP: LPC11xx GPIO driver for CHIP_LPC11CXX, CHIP_LPC110X, and CHIP_LPC11
  41:../../lpc11cx4-library/lpc_chip_11cxx_lib/inc/gpio_11xx_2.h ****  * @ingroup CHIP_11XX_Drivers
  42:../../lpc11cx4-library/lpc_chip_11cxx_lib/inc/gpio_11xx_2.h ****  * For device familes identified with CHIP definitions CHIP_LPC11CXX,
  43:../../lpc11cx4-library/lpc_chip_11cxx_lib/inc/gpio_11xx_2.h ****  * CHIP_LPC110X, and CHIP_LPC11XXLV only.
  44:../../lpc11cx4-library/lpc_chip_11cxx_lib/inc/gpio_11xx_2.h ****  * @{
  45:../../lpc11cx4-library/lpc_chip_11cxx_lib/inc/gpio_11xx_2.h ****  */
  46:../../lpc11cx4-library/lpc_chip_11cxx_lib/inc/gpio_11xx_2.h **** 
  47:../../lpc11cx4-library/lpc_chip_11cxx_lib/inc/gpio_11xx_2.h **** #if defined(CHIP_LPC11CXX) || defined(CHIP_LPC110X) || defined(CHIP_LPC11XXLV) || defined(CHIP_LPC1
  48:../../lpc11cx4-library/lpc_chip_11cxx_lib/inc/gpio_11xx_2.h **** 
ARM GAS  /tmp/ccOmSU1l.s 			page 14


  49:../../lpc11cx4-library/lpc_chip_11cxx_lib/inc/gpio_11xx_2.h **** /**
  50:../../lpc11cx4-library/lpc_chip_11cxx_lib/inc/gpio_11xx_2.h ****  * @brief  GPIO port register block structure
  51:../../lpc11cx4-library/lpc_chip_11cxx_lib/inc/gpio_11xx_2.h ****  */
  52:../../lpc11cx4-library/lpc_chip_11cxx_lib/inc/gpio_11xx_2.h **** typedef struct {				/*!< GPIO_PORT Structure */
  53:../../lpc11cx4-library/lpc_chip_11cxx_lib/inc/gpio_11xx_2.h **** 	__IO uint32_t DATA[4096];			/*!< Offset: 0x0000 to 0x3FFC Data address masking register (R/W) */
  54:../../lpc11cx4-library/lpc_chip_11cxx_lib/inc/gpio_11xx_2.h **** 	uint32_t RESERVED1[4096];
  55:../../lpc11cx4-library/lpc_chip_11cxx_lib/inc/gpio_11xx_2.h **** 	__IO uint32_t DIR;					/*!< Offset: 0x8000 Data direction register (R/W) */
  56:../../lpc11cx4-library/lpc_chip_11cxx_lib/inc/gpio_11xx_2.h **** 	__IO uint32_t IS;					/*!< Offset: 0x8004 Interrupt sense register (R/W) */
  57:../../lpc11cx4-library/lpc_chip_11cxx_lib/inc/gpio_11xx_2.h **** 	__IO uint32_t IBE;					/*!< Offset: 0x8008 Interrupt both edges register (R/W) */
  58:../../lpc11cx4-library/lpc_chip_11cxx_lib/inc/gpio_11xx_2.h **** 	__IO uint32_t IEV;					/*!< Offset: 0x800C Interrupt event register  (R/W) */
  59:../../lpc11cx4-library/lpc_chip_11cxx_lib/inc/gpio_11xx_2.h **** 	__IO uint32_t IE;					/*!< Offset: 0x8010 Interrupt mask register (R/W) */
  60:../../lpc11cx4-library/lpc_chip_11cxx_lib/inc/gpio_11xx_2.h **** 	__I  uint32_t RIS;					/*!< Offset: 0x8014 Raw interrupt status register (R/ ) */
  61:../../lpc11cx4-library/lpc_chip_11cxx_lib/inc/gpio_11xx_2.h **** 	__I  uint32_t MIS;					/*!< Offset: 0x8018 Masked interrupt status register (R/ ) */
  62:../../lpc11cx4-library/lpc_chip_11cxx_lib/inc/gpio_11xx_2.h **** 	__O  uint32_t IC;					/*!< Offset: 0x801C Interrupt clear register (W) */
  63:../../lpc11cx4-library/lpc_chip_11cxx_lib/inc/gpio_11xx_2.h **** 	uint32_t RESERVED2[8184];			/* Padding added for aligning contiguous GPIO blocks */
  64:../../lpc11cx4-library/lpc_chip_11cxx_lib/inc/gpio_11xx_2.h **** } LPC_GPIO_T;
  65:../../lpc11cx4-library/lpc_chip_11cxx_lib/inc/gpio_11xx_2.h **** 
  66:../../lpc11cx4-library/lpc_chip_11cxx_lib/inc/gpio_11xx_2.h **** /**
  67:../../lpc11cx4-library/lpc_chip_11cxx_lib/inc/gpio_11xx_2.h ****  * @brief	Initialize GPIO block
  68:../../lpc11cx4-library/lpc_chip_11cxx_lib/inc/gpio_11xx_2.h ****  * @param	pGPIO	: The base of GPIO peripheral on the chip
  69:../../lpc11cx4-library/lpc_chip_11cxx_lib/inc/gpio_11xx_2.h ****  * @return	Nothing
  70:../../lpc11cx4-library/lpc_chip_11cxx_lib/inc/gpio_11xx_2.h ****  */
  71:../../lpc11cx4-library/lpc_chip_11cxx_lib/inc/gpio_11xx_2.h **** void Chip_GPIO_Init(LPC_GPIO_T *pGPIO);
  72:../../lpc11cx4-library/lpc_chip_11cxx_lib/inc/gpio_11xx_2.h **** 
  73:../../lpc11cx4-library/lpc_chip_11cxx_lib/inc/gpio_11xx_2.h **** /**
  74:../../lpc11cx4-library/lpc_chip_11cxx_lib/inc/gpio_11xx_2.h ****  * @brief	De-Initialize GPIO block
  75:../../lpc11cx4-library/lpc_chip_11cxx_lib/inc/gpio_11xx_2.h ****  * @param	pGPIO	: The base of GPIO peripheral on the chip
  76:../../lpc11cx4-library/lpc_chip_11cxx_lib/inc/gpio_11xx_2.h ****  * @return	Nothing
  77:../../lpc11cx4-library/lpc_chip_11cxx_lib/inc/gpio_11xx_2.h ****  */
  78:../../lpc11cx4-library/lpc_chip_11cxx_lib/inc/gpio_11xx_2.h **** void Chip_GPIO_DeInit(LPC_GPIO_T *pGPIO);
  79:../../lpc11cx4-library/lpc_chip_11cxx_lib/inc/gpio_11xx_2.h **** 
  80:../../lpc11cx4-library/lpc_chip_11cxx_lib/inc/gpio_11xx_2.h **** /**
  81:../../lpc11cx4-library/lpc_chip_11cxx_lib/inc/gpio_11xx_2.h ****  * @brief	Set a GPIO port/bit state
  82:../../lpc11cx4-library/lpc_chip_11cxx_lib/inc/gpio_11xx_2.h ****  * @param	pGPIO	: The base of GPIO peripheral on the chip
  83:../../lpc11cx4-library/lpc_chip_11cxx_lib/inc/gpio_11xx_2.h ****  * @param	port	: GPIO port to set
  84:../../lpc11cx4-library/lpc_chip_11cxx_lib/inc/gpio_11xx_2.h ****  * @param	bit		: GPIO bit to set
  85:../../lpc11cx4-library/lpc_chip_11cxx_lib/inc/gpio_11xx_2.h ****  * @param	setting	: true for high, false for low
  86:../../lpc11cx4-library/lpc_chip_11cxx_lib/inc/gpio_11xx_2.h ****  * @return	Nothing
  87:../../lpc11cx4-library/lpc_chip_11cxx_lib/inc/gpio_11xx_2.h ****  */
  88:../../lpc11cx4-library/lpc_chip_11cxx_lib/inc/gpio_11xx_2.h **** STATIC INLINE void Chip_GPIO_WritePortBit(LPC_GPIO_T *pGPIO, uint32_t port, uint8_t bit, bool setti
  89:../../lpc11cx4-library/lpc_chip_11cxx_lib/inc/gpio_11xx_2.h **** {
  90:../../lpc11cx4-library/lpc_chip_11cxx_lib/inc/gpio_11xx_2.h **** 	pGPIO[port].DATA[1 << bit] = setting << bit;
  91:../../lpc11cx4-library/lpc_chip_11cxx_lib/inc/gpio_11xx_2.h **** }
  92:../../lpc11cx4-library/lpc_chip_11cxx_lib/inc/gpio_11xx_2.h **** 
  93:../../lpc11cx4-library/lpc_chip_11cxx_lib/inc/gpio_11xx_2.h **** /**
  94:../../lpc11cx4-library/lpc_chip_11cxx_lib/inc/gpio_11xx_2.h ****  * @brief	Set a GPIO pin state via the GPIO byte register
  95:../../lpc11cx4-library/lpc_chip_11cxx_lib/inc/gpio_11xx_2.h ****  * @param	pGPIO	: The base of GPIO peripheral on the chip
  96:../../lpc11cx4-library/lpc_chip_11cxx_lib/inc/gpio_11xx_2.h ****  * @param	port	: Port number
  97:../../lpc11cx4-library/lpc_chip_11cxx_lib/inc/gpio_11xx_2.h ****  * @param	pin		: GPIO pin to set
  98:../../lpc11cx4-library/lpc_chip_11cxx_lib/inc/gpio_11xx_2.h ****  * @param	setting	: true for high, false for low
  99:../../lpc11cx4-library/lpc_chip_11cxx_lib/inc/gpio_11xx_2.h ****  * @return	Nothing
 100:../../lpc11cx4-library/lpc_chip_11cxx_lib/inc/gpio_11xx_2.h ****  * @note	This function replaces Chip_GPIO_WritePortBit()
 101:../../lpc11cx4-library/lpc_chip_11cxx_lib/inc/gpio_11xx_2.h ****  */
 102:../../lpc11cx4-library/lpc_chip_11cxx_lib/inc/gpio_11xx_2.h **** STATIC INLINE void Chip_GPIO_SetPinState(LPC_GPIO_T *pGPIO, uint8_t port, uint8_t pin, bool setting
 103:../../lpc11cx4-library/lpc_chip_11cxx_lib/inc/gpio_11xx_2.h **** {
 104:../../lpc11cx4-library/lpc_chip_11cxx_lib/inc/gpio_11xx_2.h **** 	pGPIO[port].DATA[1 << pin] = setting << pin;
 105:../../lpc11cx4-library/lpc_chip_11cxx_lib/inc/gpio_11xx_2.h **** }
ARM GAS  /tmp/ccOmSU1l.s 			page 15


 106:../../lpc11cx4-library/lpc_chip_11cxx_lib/inc/gpio_11xx_2.h **** 
 107:../../lpc11cx4-library/lpc_chip_11cxx_lib/inc/gpio_11xx_2.h **** /**
 108:../../lpc11cx4-library/lpc_chip_11cxx_lib/inc/gpio_11xx_2.h ****  * @brief	Read a GPIO state
 109:../../lpc11cx4-library/lpc_chip_11cxx_lib/inc/gpio_11xx_2.h ****  * @param	pGPIO	: The base of GPIO peripheral on the chip
 110:../../lpc11cx4-library/lpc_chip_11cxx_lib/inc/gpio_11xx_2.h ****  * @param	port	: GPIO port to read
 111:../../lpc11cx4-library/lpc_chip_11cxx_lib/inc/gpio_11xx_2.h ****  * @param	bit		: GPIO bit to read
 112:../../lpc11cx4-library/lpc_chip_11cxx_lib/inc/gpio_11xx_2.h ****  * @return	true of the GPIO is high, false if low
 113:../../lpc11cx4-library/lpc_chip_11cxx_lib/inc/gpio_11xx_2.h ****  * @note	It is recommended to use the Chip_GPIO_GetPinState() function instead.
 114:../../lpc11cx4-library/lpc_chip_11cxx_lib/inc/gpio_11xx_2.h ****  */
 115:../../lpc11cx4-library/lpc_chip_11cxx_lib/inc/gpio_11xx_2.h **** STATIC INLINE bool Chip_GPIO_ReadPortBit(LPC_GPIO_T *pGPIO, uint32_t port, uint8_t bit)
 116:../../lpc11cx4-library/lpc_chip_11cxx_lib/inc/gpio_11xx_2.h **** {
 117:../../lpc11cx4-library/lpc_chip_11cxx_lib/inc/gpio_11xx_2.h **** 	return (bool) ((pGPIO[port].DATA[1 << bit] >> bit) & 1);
 118:../../lpc11cx4-library/lpc_chip_11cxx_lib/inc/gpio_11xx_2.h **** }
 119:../../lpc11cx4-library/lpc_chip_11cxx_lib/inc/gpio_11xx_2.h **** 
 120:../../lpc11cx4-library/lpc_chip_11cxx_lib/inc/gpio_11xx_2.h **** /**
 121:../../lpc11cx4-library/lpc_chip_11cxx_lib/inc/gpio_11xx_2.h ****  * @brief	Get a GPIO pin state via the GPIO byte register
 122:../../lpc11cx4-library/lpc_chip_11cxx_lib/inc/gpio_11xx_2.h ****  * @param	pGPIO	: The base of GPIO peripheral on the chip
 123:../../lpc11cx4-library/lpc_chip_11cxx_lib/inc/gpio_11xx_2.h ****  * @param	port	: Port number
 124:../../lpc11cx4-library/lpc_chip_11cxx_lib/inc/gpio_11xx_2.h ****  * @param	pin		: GPIO pin to get state for
 125:../../lpc11cx4-library/lpc_chip_11cxx_lib/inc/gpio_11xx_2.h ****  * @return	true if the GPIO is high, false if low
 126:../../lpc11cx4-library/lpc_chip_11cxx_lib/inc/gpio_11xx_2.h ****  * @note	This function replaces Chip_GPIO_ReadPortBit()
 127:../../lpc11cx4-library/lpc_chip_11cxx_lib/inc/gpio_11xx_2.h ****  */
 128:../../lpc11cx4-library/lpc_chip_11cxx_lib/inc/gpio_11xx_2.h **** STATIC INLINE bool Chip_GPIO_GetPinState(LPC_GPIO_T *pGPIO, uint8_t port, uint8_t pin)
 129:../../lpc11cx4-library/lpc_chip_11cxx_lib/inc/gpio_11xx_2.h **** {
 130:../../lpc11cx4-library/lpc_chip_11cxx_lib/inc/gpio_11xx_2.h **** 	return (pGPIO[port].DATA[1 << pin]) != 0;
 131:../../lpc11cx4-library/lpc_chip_11cxx_lib/inc/gpio_11xx_2.h **** }
 132:../../lpc11cx4-library/lpc_chip_11cxx_lib/inc/gpio_11xx_2.h **** 
 133:../../lpc11cx4-library/lpc_chip_11cxx_lib/inc/gpio_11xx_2.h **** /**
 134:../../lpc11cx4-library/lpc_chip_11cxx_lib/inc/gpio_11xx_2.h ****  * @brief	Seta GPIO direction
 135:../../lpc11cx4-library/lpc_chip_11cxx_lib/inc/gpio_11xx_2.h ****  * @param	pGPIO	: The base of GPIO peripheral on the chip
 136:../../lpc11cx4-library/lpc_chip_11cxx_lib/inc/gpio_11xx_2.h ****  * @param	port	: GPIO port to set
 137:../../lpc11cx4-library/lpc_chip_11cxx_lib/inc/gpio_11xx_2.h ****  * @param	bit		: GPIO bit to set
 138:../../lpc11cx4-library/lpc_chip_11cxx_lib/inc/gpio_11xx_2.h ****  * @param	setting	: true for output, false for input
 139:../../lpc11cx4-library/lpc_chip_11cxx_lib/inc/gpio_11xx_2.h ****  * @return	Nothing
 140:../../lpc11cx4-library/lpc_chip_11cxx_lib/inc/gpio_11xx_2.h ****  * @note	It is recommended to use the Chip_GPIO_SetPinDIROutput(), 
 141:../../lpc11cx4-library/lpc_chip_11cxx_lib/inc/gpio_11xx_2.h ****  * Chip_GPIO_SetPinDIRInput() or Chip_GPIO_SetPinDIR() functions instead
 142:../../lpc11cx4-library/lpc_chip_11cxx_lib/inc/gpio_11xx_2.h ****  * of this function.
 143:../../lpc11cx4-library/lpc_chip_11cxx_lib/inc/gpio_11xx_2.h ****  */
 144:../../lpc11cx4-library/lpc_chip_11cxx_lib/inc/gpio_11xx_2.h **** void Chip_GPIO_WriteDirBit(LPC_GPIO_T *pGPIO, uint32_t port, uint8_t bit, bool setting);
 145:../../lpc11cx4-library/lpc_chip_11cxx_lib/inc/gpio_11xx_2.h **** 
 146:../../lpc11cx4-library/lpc_chip_11cxx_lib/inc/gpio_11xx_2.h **** /**
 147:../../lpc11cx4-library/lpc_chip_11cxx_lib/inc/gpio_11xx_2.h ****  * @brief	Set GPIO direction for a single GPIO pin to an output
 148:../../lpc11cx4-library/lpc_chip_11cxx_lib/inc/gpio_11xx_2.h ****  * @param	pGPIO	: The base of GPIO peripheral on the chip
 149:../../lpc11cx4-library/lpc_chip_11cxx_lib/inc/gpio_11xx_2.h ****  * @param	port	: Port number
 150:../../lpc11cx4-library/lpc_chip_11cxx_lib/inc/gpio_11xx_2.h ****  * @param	pin		: GPIO pin to set direction on as output
 151:../../lpc11cx4-library/lpc_chip_11cxx_lib/inc/gpio_11xx_2.h ****  * @return	Nothing
 152:../../lpc11cx4-library/lpc_chip_11cxx_lib/inc/gpio_11xx_2.h ****  */
 153:../../lpc11cx4-library/lpc_chip_11cxx_lib/inc/gpio_11xx_2.h **** STATIC INLINE void Chip_GPIO_SetPinDIROutput(LPC_GPIO_T *pGPIO, uint8_t port, uint8_t pin)
 154:../../lpc11cx4-library/lpc_chip_11cxx_lib/inc/gpio_11xx_2.h **** {
 155:../../lpc11cx4-library/lpc_chip_11cxx_lib/inc/gpio_11xx_2.h **** 	pGPIO[port].DIR |= (1UL << pin);
 291              		.loc 3 155 0
 292 0000 0904     		lsls	r1, r1, #16	@ tmp129, port,
 293              	.LVL21:
 294              	.LBE35:
 295              	.LBE34:
 296              		.loc 1 91 0
 297 0002 10B5     		push	{r4, lr}	@
ARM GAS  /tmp/ccOmSU1l.s 			page 16


 298              		.cfi_def_cfa_offset 8
 299              		.cfi_offset 4, -8
 300              		.cfi_offset 14, -4
 301              	.LBB38:
 302              	.LBB36:
 303              		.loc 3 155 0
 304 0004 4018     		adds	r0, r0, r1	@ _9, pGPIO, tmp129
 305              	.LVL22:
 306              	.LBE36:
 307              	.LBE38:
  92:../../lpc11cx4-library/lpc_chip_11cxx_lib/src/gpio_11xx_2.c **** 	if (output) {
 308              		.loc 1 92 0
 309 0006 002B     		cmp	r3, #0	@ output,
 310 0008 07D1     		bne	.L19	@,
 311              	.LVL23:
 312              	.LBB39:
 313              	.LBB40:
 156:../../lpc11cx4-library/lpc_chip_11cxx_lib/inc/gpio_11xx_2.h **** }
 157:../../lpc11cx4-library/lpc_chip_11cxx_lib/inc/gpio_11xx_2.h **** 
 158:../../lpc11cx4-library/lpc_chip_11cxx_lib/inc/gpio_11xx_2.h **** /**
 159:../../lpc11cx4-library/lpc_chip_11cxx_lib/inc/gpio_11xx_2.h ****  * @brief	Set GPIO direction for a single GPIO pin to an input
 160:../../lpc11cx4-library/lpc_chip_11cxx_lib/inc/gpio_11xx_2.h ****  * @param	pGPIO	: The base of GPIO peripheral on the chip
 161:../../lpc11cx4-library/lpc_chip_11cxx_lib/inc/gpio_11xx_2.h ****  * @param	port	: Port number
 162:../../lpc11cx4-library/lpc_chip_11cxx_lib/inc/gpio_11xx_2.h ****  * @param	pin		: GPIO pin to set direction on as input
 163:../../lpc11cx4-library/lpc_chip_11cxx_lib/inc/gpio_11xx_2.h ****  * @return	Nothing
 164:../../lpc11cx4-library/lpc_chip_11cxx_lib/inc/gpio_11xx_2.h ****  */
 165:../../lpc11cx4-library/lpc_chip_11cxx_lib/inc/gpio_11xx_2.h **** STATIC INLINE void Chip_GPIO_SetPinDIRInput(LPC_GPIO_T *pGPIO, uint8_t port, uint8_t pin)
 166:../../lpc11cx4-library/lpc_chip_11cxx_lib/inc/gpio_11xx_2.h **** {
 167:../../lpc11cx4-library/lpc_chip_11cxx_lib/inc/gpio_11xx_2.h **** 	pGPIO[port].DIR &= ~(1UL << pin);
 314              		.loc 3 167 0
 315 000a 0121     		movs	r1, #1	@ tmp137,
 316 000c 8024     		movs	r4, #128	@ tmp135,
 317 000e 9140     		lsls	r1, r1, r2	@ tmp136, tmp137, pin
 318 0010 2402     		lsls	r4, r4, #8	@ tmp135, tmp135,
 319 0012 0359     		ldr	r3, [r0, r4]	@ _17, _16->DIR
 320              	.LVL24:
 321 0014 8B43     		bics	r3, r1	@ _21, tmp136
 322 0016 0351     		str	r3, [r0, r4]	@ _21, _16->DIR
 323              	.LVL25:
 324              	.L16:
 325              	.LBE40:
 326              	.LBE39:
  93:../../lpc11cx4-library/lpc_chip_11cxx_lib/src/gpio_11xx_2.c **** 		Chip_GPIO_SetPinDIROutput(pGPIO, port, pin);
  94:../../lpc11cx4-library/lpc_chip_11cxx_lib/src/gpio_11xx_2.c **** 	}
  95:../../lpc11cx4-library/lpc_chip_11cxx_lib/src/gpio_11xx_2.c **** 	else {
  96:../../lpc11cx4-library/lpc_chip_11cxx_lib/src/gpio_11xx_2.c **** 		Chip_GPIO_SetPinDIRInput(pGPIO, port, pin);
  97:../../lpc11cx4-library/lpc_chip_11cxx_lib/src/gpio_11xx_2.c **** 	}
  98:../../lpc11cx4-library/lpc_chip_11cxx_lib/src/gpio_11xx_2.c **** }
 327              		.loc 1 98 0
 328              		@ sp needed	@
 329 0018 10BD     		pop	{r4, pc}
 330              	.LVL26:
 331              	.L19:
 332              	.LBB41:
 333              	.LBB37:
 155:../../lpc11cx4-library/lpc_chip_11cxx_lib/inc/gpio_11xx_2.h **** }
 334              		.loc 3 155 0
ARM GAS  /tmp/ccOmSU1l.s 			page 17


 335 001a 0123     		movs	r3, #1	@ tmp132,
 336              	.LVL27:
 337 001c 8021     		movs	r1, #128	@ tmp130,
 338 001e 9340     		lsls	r3, r3, r2	@ tmp131, tmp132, pin
 339 0020 0902     		lsls	r1, r1, #8	@ tmp130, tmp130,
 340 0022 4458     		ldr	r4, [r0, r1]	@ _10, _9->DIR
 341 0024 2343     		orrs	r3, r4	@ _13, _10
 342 0026 4350     		str	r3, [r0, r1]	@ _13, _9->DIR
 343 0028 F6E7     		b	.L16	@
 344              	.LBE37:
 345              	.LBE41:
 346              		.cfi_endproc
 347              	.LFE202:
 348              		.size	Chip_GPIO_SetPinDIR, .-Chip_GPIO_SetPinDIR
 349 002a C046     		.section	.text.Chip_GPIO_SetPortDIR,"ax",%progbits
 350              		.align	1
 351              		.p2align 2,,3
 352              		.global	Chip_GPIO_SetPortDIR
 353              		.syntax unified
 354              		.code	16
 355              		.thumb_func
 356              		.fpu softvfp
 357              		.type	Chip_GPIO_SetPortDIR, %function
 358              	Chip_GPIO_SetPortDIR:
 359              	.LFB203:
  99:../../lpc11cx4-library/lpc_chip_11cxx_lib/src/gpio_11xx_2.c **** 
 100:../../lpc11cx4-library/lpc_chip_11cxx_lib/src/gpio_11xx_2.c **** 
 101:../../lpc11cx4-library/lpc_chip_11cxx_lib/src/gpio_11xx_2.c **** /* Set GPIO direction for a all selected GPIO pins to an input or output */
 102:../../lpc11cx4-library/lpc_chip_11cxx_lib/src/gpio_11xx_2.c **** void Chip_GPIO_SetPortDIR(LPC_GPIO_T *pGPIO, uint8_t port, uint32_t pinMask, bool outSet)
 103:../../lpc11cx4-library/lpc_chip_11cxx_lib/src/gpio_11xx_2.c **** {
 360              		.loc 1 103 0
 361              		.cfi_startproc
 362              		@ args = 0, pretend = 0, frame = 0
 363              		@ frame_needed = 0, uses_anonymous_args = 0
 364              		@ link register save eliminated.
 365              	.LVL28:
 366              	.LBB42:
 367              	.LBB43:
 168:../../lpc11cx4-library/lpc_chip_11cxx_lib/inc/gpio_11xx_2.h **** }
 169:../../lpc11cx4-library/lpc_chip_11cxx_lib/inc/gpio_11xx_2.h **** 
 170:../../lpc11cx4-library/lpc_chip_11cxx_lib/inc/gpio_11xx_2.h **** /**
 171:../../lpc11cx4-library/lpc_chip_11cxx_lib/inc/gpio_11xx_2.h ****  * @brief	Set GPIO direction for a single GPIO pin
 172:../../lpc11cx4-library/lpc_chip_11cxx_lib/inc/gpio_11xx_2.h ****  * @param	pGPIO	: The base of GPIO peripheral on the chip
 173:../../lpc11cx4-library/lpc_chip_11cxx_lib/inc/gpio_11xx_2.h ****  * @param	port	: Port number
 174:../../lpc11cx4-library/lpc_chip_11cxx_lib/inc/gpio_11xx_2.h ****  * @param	pin		: GPIO pin to set direction for
 175:../../lpc11cx4-library/lpc_chip_11cxx_lib/inc/gpio_11xx_2.h ****  * @param	output	: true for output, false for input
 176:../../lpc11cx4-library/lpc_chip_11cxx_lib/inc/gpio_11xx_2.h ****  * @return	Nothing
 177:../../lpc11cx4-library/lpc_chip_11cxx_lib/inc/gpio_11xx_2.h ****  */
 178:../../lpc11cx4-library/lpc_chip_11cxx_lib/inc/gpio_11xx_2.h **** void Chip_GPIO_SetPinDIR(LPC_GPIO_T *pGPIO, uint8_t port, uint8_t pin, bool output);
 179:../../lpc11cx4-library/lpc_chip_11cxx_lib/inc/gpio_11xx_2.h **** 
 180:../../lpc11cx4-library/lpc_chip_11cxx_lib/inc/gpio_11xx_2.h **** /**
 181:../../lpc11cx4-library/lpc_chip_11cxx_lib/inc/gpio_11xx_2.h ****  * @brief	Read a GPIO direction (out or in)
 182:../../lpc11cx4-library/lpc_chip_11cxx_lib/inc/gpio_11xx_2.h ****  * @param	pGPIO	: The base of GPIO peripheral on the chip
 183:../../lpc11cx4-library/lpc_chip_11cxx_lib/inc/gpio_11xx_2.h ****  * @param	port	: GPIO port to read
 184:../../lpc11cx4-library/lpc_chip_11cxx_lib/inc/gpio_11xx_2.h ****  * @param	bit		: GPIO bit to read
 185:../../lpc11cx4-library/lpc_chip_11cxx_lib/inc/gpio_11xx_2.h ****  * @return	true of the GPIO is an output, false if input
 186:../../lpc11cx4-library/lpc_chip_11cxx_lib/inc/gpio_11xx_2.h ****  * @note	It is recommended to use the Chip_GPIO_GetPinDIR() function instead.
ARM GAS  /tmp/ccOmSU1l.s 			page 18


 187:../../lpc11cx4-library/lpc_chip_11cxx_lib/inc/gpio_11xx_2.h ****  */
 188:../../lpc11cx4-library/lpc_chip_11cxx_lib/inc/gpio_11xx_2.h **** STATIC INLINE bool Chip_GPIO_ReadDirBit(LPC_GPIO_T *pGPIO, uint32_t port, uint8_t bit)
 189:../../lpc11cx4-library/lpc_chip_11cxx_lib/inc/gpio_11xx_2.h **** {
 190:../../lpc11cx4-library/lpc_chip_11cxx_lib/inc/gpio_11xx_2.h **** 	return (bool) (((pGPIO[port].DIR) >> bit) & 1);
 191:../../lpc11cx4-library/lpc_chip_11cxx_lib/inc/gpio_11xx_2.h **** }
 192:../../lpc11cx4-library/lpc_chip_11cxx_lib/inc/gpio_11xx_2.h **** 
 193:../../lpc11cx4-library/lpc_chip_11cxx_lib/inc/gpio_11xx_2.h **** /**
 194:../../lpc11cx4-library/lpc_chip_11cxx_lib/inc/gpio_11xx_2.h ****  * @brief	Get GPIO direction for a single GPIO pin
 195:../../lpc11cx4-library/lpc_chip_11cxx_lib/inc/gpio_11xx_2.h ****  * @param	pGPIO	: The base of GPIO peripheral on the chip
 196:../../lpc11cx4-library/lpc_chip_11cxx_lib/inc/gpio_11xx_2.h ****  * @param	port	: Port number
 197:../../lpc11cx4-library/lpc_chip_11cxx_lib/inc/gpio_11xx_2.h ****  * @param	pin		: GPIO pin to get direction for
 198:../../lpc11cx4-library/lpc_chip_11cxx_lib/inc/gpio_11xx_2.h ****  * @return	true if the GPIO is an output, false if input
 199:../../lpc11cx4-library/lpc_chip_11cxx_lib/inc/gpio_11xx_2.h ****  */
 200:../../lpc11cx4-library/lpc_chip_11cxx_lib/inc/gpio_11xx_2.h **** STATIC INLINE bool Chip_GPIO_GetPinDIR(LPC_GPIO_T *pGPIO, uint8_t port, uint8_t pin)
 201:../../lpc11cx4-library/lpc_chip_11cxx_lib/inc/gpio_11xx_2.h **** {
 202:../../lpc11cx4-library/lpc_chip_11cxx_lib/inc/gpio_11xx_2.h **** 	return (bool) (pGPIO[port].DIR >> pin) & 1;
 203:../../lpc11cx4-library/lpc_chip_11cxx_lib/inc/gpio_11xx_2.h **** }
 204:../../lpc11cx4-library/lpc_chip_11cxx_lib/inc/gpio_11xx_2.h **** 
 205:../../lpc11cx4-library/lpc_chip_11cxx_lib/inc/gpio_11xx_2.h **** /**
 206:../../lpc11cx4-library/lpc_chip_11cxx_lib/inc/gpio_11xx_2.h ****  * @brief	Set Direction for a GPIO port
 207:../../lpc11cx4-library/lpc_chip_11cxx_lib/inc/gpio_11xx_2.h ****  * @param	pGPIO	: The base of GPIO peripheral on the chip
 208:../../lpc11cx4-library/lpc_chip_11cxx_lib/inc/gpio_11xx_2.h ****  * @param	port	: Port Number
 209:../../lpc11cx4-library/lpc_chip_11cxx_lib/inc/gpio_11xx_2.h ****  * @param	bit		: GPIO bit to set
 210:../../lpc11cx4-library/lpc_chip_11cxx_lib/inc/gpio_11xx_2.h ****  * @param	out		: Direction value, 0 = input, !0 = output
 211:../../lpc11cx4-library/lpc_chip_11cxx_lib/inc/gpio_11xx_2.h ****  * @return	None
 212:../../lpc11cx4-library/lpc_chip_11cxx_lib/inc/gpio_11xx_2.h ****  * @note	Bits set to '0' are not altered. It is recommended to use the
 213:../../lpc11cx4-library/lpc_chip_11cxx_lib/inc/gpio_11xx_2.h ****  * Chip_GPIO_SetPortDIR() function instead.
 214:../../lpc11cx4-library/lpc_chip_11cxx_lib/inc/gpio_11xx_2.h ****  */
 215:../../lpc11cx4-library/lpc_chip_11cxx_lib/inc/gpio_11xx_2.h **** void Chip_GPIO_SetDir(LPC_GPIO_T *pGPIO, uint8_t port, uint32_t bit, uint8_t out);
 216:../../lpc11cx4-library/lpc_chip_11cxx_lib/inc/gpio_11xx_2.h **** 
 217:../../lpc11cx4-library/lpc_chip_11cxx_lib/inc/gpio_11xx_2.h **** /**
 218:../../lpc11cx4-library/lpc_chip_11cxx_lib/inc/gpio_11xx_2.h ****  * @brief	Set GPIO direction for a all selected GPIO pins to an output
 219:../../lpc11cx4-library/lpc_chip_11cxx_lib/inc/gpio_11xx_2.h ****  * @param	pGPIO	: The base of GPIO peripheral on the chip
 220:../../lpc11cx4-library/lpc_chip_11cxx_lib/inc/gpio_11xx_2.h ****  * @param	port	: Port number
 221:../../lpc11cx4-library/lpc_chip_11cxx_lib/inc/gpio_11xx_2.h ****  * @param	pinMask	: GPIO pin mask to set direction on as output (bits 0..n for pins 0..n)
 222:../../lpc11cx4-library/lpc_chip_11cxx_lib/inc/gpio_11xx_2.h ****  * @return	Nothing
 223:../../lpc11cx4-library/lpc_chip_11cxx_lib/inc/gpio_11xx_2.h ****  * @note	Sets multiple GPIO pins to the output direction, each bit's position that is
 224:../../lpc11cx4-library/lpc_chip_11cxx_lib/inc/gpio_11xx_2.h ****  * high sets the corresponding pin number for that bit to an output.
 225:../../lpc11cx4-library/lpc_chip_11cxx_lib/inc/gpio_11xx_2.h ****  */
 226:../../lpc11cx4-library/lpc_chip_11cxx_lib/inc/gpio_11xx_2.h **** STATIC INLINE void Chip_GPIO_SetPortDIROutput(LPC_GPIO_T *pGPIO, uint8_t port, uint32_t pinMask)
 227:../../lpc11cx4-library/lpc_chip_11cxx_lib/inc/gpio_11xx_2.h **** {
 228:../../lpc11cx4-library/lpc_chip_11cxx_lib/inc/gpio_11xx_2.h **** 	pGPIO[port].DIR |= pinMask;
 368              		.loc 3 228 0
 369 0000 0904     		lsls	r1, r1, #16	@ tmp125, port,
 370              	.LVL29:
 371 0002 4018     		adds	r0, r0, r1	@ _9, pGPIO, tmp125
 372              	.LVL30:
 373              	.LBE43:
 374              	.LBE42:
 104:../../lpc11cx4-library/lpc_chip_11cxx_lib/src/gpio_11xx_2.c **** 	if (outSet) {
 375              		.loc 1 104 0
 376 0004 002B     		cmp	r3, #0	@ outSet,
 377 0006 05D1     		bne	.L23	@,
 378              	.LVL31:
 379              	.LBB45:
 380              	.LBB46:
 229:../../lpc11cx4-library/lpc_chip_11cxx_lib/inc/gpio_11xx_2.h **** }
ARM GAS  /tmp/ccOmSU1l.s 			page 19


 230:../../lpc11cx4-library/lpc_chip_11cxx_lib/inc/gpio_11xx_2.h **** 
 231:../../lpc11cx4-library/lpc_chip_11cxx_lib/inc/gpio_11xx_2.h **** /**
 232:../../lpc11cx4-library/lpc_chip_11cxx_lib/inc/gpio_11xx_2.h ****  * @brief	Set GPIO direction for a all selected GPIO pins to an input
 233:../../lpc11cx4-library/lpc_chip_11cxx_lib/inc/gpio_11xx_2.h ****  * @param	pGPIO	: The base of GPIO peripheral on the chip
 234:../../lpc11cx4-library/lpc_chip_11cxx_lib/inc/gpio_11xx_2.h ****  * @param	port	: Port number
 235:../../lpc11cx4-library/lpc_chip_11cxx_lib/inc/gpio_11xx_2.h ****  * @param	pinMask	: GPIO pin mask to set direction on as input (bits 0..b for pins 0..n)
 236:../../lpc11cx4-library/lpc_chip_11cxx_lib/inc/gpio_11xx_2.h ****  * @return	Nothing
 237:../../lpc11cx4-library/lpc_chip_11cxx_lib/inc/gpio_11xx_2.h ****  * @note	Sets multiple GPIO pins to the input direction, each bit's position that is
 238:../../lpc11cx4-library/lpc_chip_11cxx_lib/inc/gpio_11xx_2.h ****  * high sets the corresponding pin number for that bit to an input.
 239:../../lpc11cx4-library/lpc_chip_11cxx_lib/inc/gpio_11xx_2.h ****  */
 240:../../lpc11cx4-library/lpc_chip_11cxx_lib/inc/gpio_11xx_2.h **** STATIC INLINE void Chip_GPIO_SetPortDIRInput(LPC_GPIO_T *pGPIO, uint8_t port, uint32_t pinMask)
 241:../../lpc11cx4-library/lpc_chip_11cxx_lib/inc/gpio_11xx_2.h **** {
 242:../../lpc11cx4-library/lpc_chip_11cxx_lib/inc/gpio_11xx_2.h **** 	pGPIO[port].DIR &= ~pinMask;
 381              		.loc 3 242 0
 382 0008 8021     		movs	r1, #128	@ tmp129,
 383 000a 0902     		lsls	r1, r1, #8	@ tmp129, tmp129,
 384 000c 4358     		ldr	r3, [r0, r1]	@ _15, _14->DIR
 385              	.LVL32:
 386 000e 9343     		bics	r3, r2	@ _17, pinMask
 387 0010 4350     		str	r3, [r0, r1]	@ _17, _14->DIR
 388              	.LVL33:
 389              	.L20:
 390              	.LBE46:
 391              	.LBE45:
 105:../../lpc11cx4-library/lpc_chip_11cxx_lib/src/gpio_11xx_2.c **** 		Chip_GPIO_SetPortDIROutput(pGPIO, port, pinMask);
 106:../../lpc11cx4-library/lpc_chip_11cxx_lib/src/gpio_11xx_2.c **** 	}
 107:../../lpc11cx4-library/lpc_chip_11cxx_lib/src/gpio_11xx_2.c **** 	else {
 108:../../lpc11cx4-library/lpc_chip_11cxx_lib/src/gpio_11xx_2.c **** 		Chip_GPIO_SetPortDIRInput(pGPIO, port, pinMask);
 109:../../lpc11cx4-library/lpc_chip_11cxx_lib/src/gpio_11xx_2.c **** 	}
 110:../../lpc11cx4-library/lpc_chip_11cxx_lib/src/gpio_11xx_2.c **** }
 392              		.loc 1 110 0
 393              		@ sp needed	@
 394 0012 7047     		bx	lr
 395              	.LVL34:
 396              	.L23:
 397              	.LBB47:
 398              	.LBB44:
 228:../../lpc11cx4-library/lpc_chip_11cxx_lib/inc/gpio_11xx_2.h **** }
 399              		.loc 3 228 0
 400 0014 8023     		movs	r3, #128	@ tmp126,
 401              	.LVL35:
 402 0016 1B02     		lsls	r3, r3, #8	@ tmp126, tmp126,
 403 0018 C158     		ldr	r1, [r0, r3]	@ _10, _9->DIR
 404 001a 0A43     		orrs	r2, r1	@ _11, _10
 405              	.LVL36:
 406 001c C250     		str	r2, [r0, r3]	@ _11, _9->DIR
 407 001e F8E7     		b	.L20	@
 408              	.LBE44:
 409              	.LBE47:
 410              		.cfi_endproc
 411              	.LFE203:
 412              		.size	Chip_GPIO_SetPortDIR, .-Chip_GPIO_SetPortDIR
 413              		.section	.text.Chip_GPIO_SetupPinInt,"ax",%progbits
 414              		.align	1
 415              		.p2align 2,,3
 416              		.global	Chip_GPIO_SetupPinInt
 417              		.syntax unified
ARM GAS  /tmp/ccOmSU1l.s 			page 20


 418              		.code	16
 419              		.thumb_func
 420              		.fpu softvfp
 421              		.type	Chip_GPIO_SetupPinInt, %function
 422              	Chip_GPIO_SetupPinInt:
 423              	.LFB204:
 111:../../lpc11cx4-library/lpc_chip_11cxx_lib/src/gpio_11xx_2.c **** 
 112:../../lpc11cx4-library/lpc_chip_11cxx_lib/src/gpio_11xx_2.c **** /* Composite function for setting up a full interrupt configuration for a single pin */
 113:../../lpc11cx4-library/lpc_chip_11cxx_lib/src/gpio_11xx_2.c **** void Chip_GPIO_SetupPinInt(LPC_GPIO_T *pGPIO, uint8_t port, uint8_t pin, GPIO_INT_MODE_T mode)
 114:../../lpc11cx4-library/lpc_chip_11cxx_lib/src/gpio_11xx_2.c **** {
 424              		.loc 1 114 0
 425              		.cfi_startproc
 426              		@ args = 0, pretend = 0, frame = 0
 427              		@ frame_needed = 0, uses_anonymous_args = 0
 428              	.LVL37:
 429 0000 30B5     		push	{r4, r5, lr}	@
 430              		.cfi_def_cfa_offset 12
 431              		.cfi_offset 4, -12
 432              		.cfi_offset 5, -8
 433              		.cfi_offset 14, -4
 115:../../lpc11cx4-library/lpc_chip_11cxx_lib/src/gpio_11xx_2.c **** 	uint32_t pinMask = (1 << pin);
 434              		.loc 1 115 0
 435 0002 0124     		movs	r4, #1	@ tmp139,
 436              	.LBB48:
 437              	.LBB49:
 243:../../lpc11cx4-library/lpc_chip_11cxx_lib/inc/gpio_11xx_2.h **** }
 244:../../lpc11cx4-library/lpc_chip_11cxx_lib/inc/gpio_11xx_2.h **** 
 245:../../lpc11cx4-library/lpc_chip_11cxx_lib/inc/gpio_11xx_2.h **** /**
 246:../../lpc11cx4-library/lpc_chip_11cxx_lib/inc/gpio_11xx_2.h ****  * @brief	Set GPIO direction for a all selected GPIO pins to an input or output
 247:../../lpc11cx4-library/lpc_chip_11cxx_lib/inc/gpio_11xx_2.h ****  * @param	pGPIO	: The base of GPIO peripheral on the chip
 248:../../lpc11cx4-library/lpc_chip_11cxx_lib/inc/gpio_11xx_2.h ****  * @param	port	: Port number
 249:../../lpc11cx4-library/lpc_chip_11cxx_lib/inc/gpio_11xx_2.h ****  * @param	pinMask	: GPIO pin mask to set direction on (bits 0..b for pins 0..n)
 250:../../lpc11cx4-library/lpc_chip_11cxx_lib/inc/gpio_11xx_2.h ****  * @param	outSet	: Direction value, false = set as inputs, true = set as outputs
 251:../../lpc11cx4-library/lpc_chip_11cxx_lib/inc/gpio_11xx_2.h ****  * @return	Nothing
 252:../../lpc11cx4-library/lpc_chip_11cxx_lib/inc/gpio_11xx_2.h ****  * @note	Sets multiple GPIO pins to the input direction, each bit's position that is
 253:../../lpc11cx4-library/lpc_chip_11cxx_lib/inc/gpio_11xx_2.h ****  * high sets the corresponding pin number for that bit to an input.
 254:../../lpc11cx4-library/lpc_chip_11cxx_lib/inc/gpio_11xx_2.h ****  */
 255:../../lpc11cx4-library/lpc_chip_11cxx_lib/inc/gpio_11xx_2.h **** void Chip_GPIO_SetPortDIR(LPC_GPIO_T *pGPIO, uint8_t port, uint32_t pinMask, bool outSet);
 256:../../lpc11cx4-library/lpc_chip_11cxx_lib/inc/gpio_11xx_2.h **** 
 257:../../lpc11cx4-library/lpc_chip_11cxx_lib/inc/gpio_11xx_2.h **** /**
 258:../../lpc11cx4-library/lpc_chip_11cxx_lib/inc/gpio_11xx_2.h ****  * @brief	Get GPIO direction for a all GPIO pins
 259:../../lpc11cx4-library/lpc_chip_11cxx_lib/inc/gpio_11xx_2.h ****  * @param	pGPIO	: The base of GPIO peripheral on the chip
 260:../../lpc11cx4-library/lpc_chip_11cxx_lib/inc/gpio_11xx_2.h ****  * @param	port	: Port number
 261:../../lpc11cx4-library/lpc_chip_11cxx_lib/inc/gpio_11xx_2.h ****  * @return	a bitfield containing the input and output states for each pin
 262:../../lpc11cx4-library/lpc_chip_11cxx_lib/inc/gpio_11xx_2.h ****  * @note	For pins 0..n, a high state in a bit corresponds to an output state for the
 263:../../lpc11cx4-library/lpc_chip_11cxx_lib/inc/gpio_11xx_2.h ****  * same pin, while a low  state corresponds to an input state.
 264:../../lpc11cx4-library/lpc_chip_11cxx_lib/inc/gpio_11xx_2.h ****  */
 265:../../lpc11cx4-library/lpc_chip_11cxx_lib/inc/gpio_11xx_2.h **** STATIC INLINE uint32_t Chip_GPIO_GetPortDIR(LPC_GPIO_T *pGPIO, uint8_t port)
 266:../../lpc11cx4-library/lpc_chip_11cxx_lib/inc/gpio_11xx_2.h **** {
 267:../../lpc11cx4-library/lpc_chip_11cxx_lib/inc/gpio_11xx_2.h **** 	return pGPIO[port].DIR;
 268:../../lpc11cx4-library/lpc_chip_11cxx_lib/inc/gpio_11xx_2.h **** }
 269:../../lpc11cx4-library/lpc_chip_11cxx_lib/inc/gpio_11xx_2.h **** 
 270:../../lpc11cx4-library/lpc_chip_11cxx_lib/inc/gpio_11xx_2.h **** /**
 271:../../lpc11cx4-library/lpc_chip_11cxx_lib/inc/gpio_11xx_2.h ****  * @brief	Set all GPIO raw pin states (regardless of masking)
 272:../../lpc11cx4-library/lpc_chip_11cxx_lib/inc/gpio_11xx_2.h ****  * @param	pGPIO	: The base of GPIO peripheral on the chip
 273:../../lpc11cx4-library/lpc_chip_11cxx_lib/inc/gpio_11xx_2.h ****  * @param	port	: Port number
 274:../../lpc11cx4-library/lpc_chip_11cxx_lib/inc/gpio_11xx_2.h ****  * @param	value	: Value to set all GPIO pin states (0..n) to
ARM GAS  /tmp/ccOmSU1l.s 			page 21


 275:../../lpc11cx4-library/lpc_chip_11cxx_lib/inc/gpio_11xx_2.h ****  * @return	Nothing
 276:../../lpc11cx4-library/lpc_chip_11cxx_lib/inc/gpio_11xx_2.h ****  */
 277:../../lpc11cx4-library/lpc_chip_11cxx_lib/inc/gpio_11xx_2.h **** STATIC INLINE void Chip_GPIO_SetPortValue(LPC_GPIO_T *pGPIO, uint8_t port, uint32_t value)
 278:../../lpc11cx4-library/lpc_chip_11cxx_lib/inc/gpio_11xx_2.h **** {
 279:../../lpc11cx4-library/lpc_chip_11cxx_lib/inc/gpio_11xx_2.h **** 	pGPIO[port].DATA[0xFFF] = value;
 280:../../lpc11cx4-library/lpc_chip_11cxx_lib/inc/gpio_11xx_2.h **** }
 281:../../lpc11cx4-library/lpc_chip_11cxx_lib/inc/gpio_11xx_2.h **** 
 282:../../lpc11cx4-library/lpc_chip_11cxx_lib/inc/gpio_11xx_2.h **** /**
 283:../../lpc11cx4-library/lpc_chip_11cxx_lib/inc/gpio_11xx_2.h ****  * @brief	Get all GPIO raw pin states (regardless of masking)
 284:../../lpc11cx4-library/lpc_chip_11cxx_lib/inc/gpio_11xx_2.h ****  * @param	pGPIO	: The base of GPIO peripheral on the chip
 285:../../lpc11cx4-library/lpc_chip_11cxx_lib/inc/gpio_11xx_2.h ****  * @param	port	: Port number
 286:../../lpc11cx4-library/lpc_chip_11cxx_lib/inc/gpio_11xx_2.h ****  * @return	Current (raw) state of all GPIO pins
 287:../../lpc11cx4-library/lpc_chip_11cxx_lib/inc/gpio_11xx_2.h ****  */
 288:../../lpc11cx4-library/lpc_chip_11cxx_lib/inc/gpio_11xx_2.h **** STATIC INLINE uint32_t Chip_GPIO_GetPortValue(LPC_GPIO_T *pGPIO, uint8_t port)
 289:../../lpc11cx4-library/lpc_chip_11cxx_lib/inc/gpio_11xx_2.h **** {
 290:../../lpc11cx4-library/lpc_chip_11cxx_lib/inc/gpio_11xx_2.h **** 	return pGPIO[port].DATA[0xFFF];
 291:../../lpc11cx4-library/lpc_chip_11cxx_lib/inc/gpio_11xx_2.h **** }
 292:../../lpc11cx4-library/lpc_chip_11cxx_lib/inc/gpio_11xx_2.h **** 
 293:../../lpc11cx4-library/lpc_chip_11cxx_lib/inc/gpio_11xx_2.h **** /**
 294:../../lpc11cx4-library/lpc_chip_11cxx_lib/inc/gpio_11xx_2.h ****  * @brief	Set a GPIO port/bit to the high state
 295:../../lpc11cx4-library/lpc_chip_11cxx_lib/inc/gpio_11xx_2.h ****  * @param	pGPIO	: The base of GPIO peripheral on the chip
 296:../../lpc11cx4-library/lpc_chip_11cxx_lib/inc/gpio_11xx_2.h ****  * @param	port	: Port number
 297:../../lpc11cx4-library/lpc_chip_11cxx_lib/inc/gpio_11xx_2.h ****  * @param	bit		: Bit(s) in the port to set high
 298:../../lpc11cx4-library/lpc_chip_11cxx_lib/inc/gpio_11xx_2.h ****  * @return	None
 299:../../lpc11cx4-library/lpc_chip_11cxx_lib/inc/gpio_11xx_2.h ****  * @note	Any bit set as a '0' will not have it's state changed. This only
 300:../../lpc11cx4-library/lpc_chip_11cxx_lib/inc/gpio_11xx_2.h ****  * applies to ports configured as an output. It is recommended to use the
 301:../../lpc11cx4-library/lpc_chip_11cxx_lib/inc/gpio_11xx_2.h ****  * Chip_GPIO_SetPortOutHigh() function instead.
 302:../../lpc11cx4-library/lpc_chip_11cxx_lib/inc/gpio_11xx_2.h ****  */
 303:../../lpc11cx4-library/lpc_chip_11cxx_lib/inc/gpio_11xx_2.h **** STATIC INLINE void Chip_GPIO_SetValue(LPC_GPIO_T *pGPIO, uint8_t port, uint32_t bit)
 304:../../lpc11cx4-library/lpc_chip_11cxx_lib/inc/gpio_11xx_2.h **** {
 305:../../lpc11cx4-library/lpc_chip_11cxx_lib/inc/gpio_11xx_2.h **** 	pGPIO[port].DATA[bit] = bit;
 306:../../lpc11cx4-library/lpc_chip_11cxx_lib/inc/gpio_11xx_2.h **** }
 307:../../lpc11cx4-library/lpc_chip_11cxx_lib/inc/gpio_11xx_2.h **** 
 308:../../lpc11cx4-library/lpc_chip_11cxx_lib/inc/gpio_11xx_2.h **** /**
 309:../../lpc11cx4-library/lpc_chip_11cxx_lib/inc/gpio_11xx_2.h ****  * @brief	Set selected GPIO output pins to the high state
 310:../../lpc11cx4-library/lpc_chip_11cxx_lib/inc/gpio_11xx_2.h ****  * @param	pGPIO	: The base of GPIO peripheral on the chip
 311:../../lpc11cx4-library/lpc_chip_11cxx_lib/inc/gpio_11xx_2.h ****  * @param	port	: Port number
 312:../../lpc11cx4-library/lpc_chip_11cxx_lib/inc/gpio_11xx_2.h ****  * @param	pins	: pins (0..n) to set high
 313:../../lpc11cx4-library/lpc_chip_11cxx_lib/inc/gpio_11xx_2.h ****  * @return	None
 314:../../lpc11cx4-library/lpc_chip_11cxx_lib/inc/gpio_11xx_2.h ****  * @note	Any bit set as a '0' will not have it's state changed. This only
 315:../../lpc11cx4-library/lpc_chip_11cxx_lib/inc/gpio_11xx_2.h ****  * applies to ports configured as an output.
 316:../../lpc11cx4-library/lpc_chip_11cxx_lib/inc/gpio_11xx_2.h ****  */
 317:../../lpc11cx4-library/lpc_chip_11cxx_lib/inc/gpio_11xx_2.h **** STATIC INLINE void Chip_GPIO_SetPortOutHigh(LPC_GPIO_T *pGPIO, uint8_t port, uint32_t pins)
 318:../../lpc11cx4-library/lpc_chip_11cxx_lib/inc/gpio_11xx_2.h **** {
 319:../../lpc11cx4-library/lpc_chip_11cxx_lib/inc/gpio_11xx_2.h **** 	pGPIO[port].DATA[pins] = 0xFFF;
 320:../../lpc11cx4-library/lpc_chip_11cxx_lib/inc/gpio_11xx_2.h **** }
 321:../../lpc11cx4-library/lpc_chip_11cxx_lib/inc/gpio_11xx_2.h **** 
 322:../../lpc11cx4-library/lpc_chip_11cxx_lib/inc/gpio_11xx_2.h **** /**
 323:../../lpc11cx4-library/lpc_chip_11cxx_lib/inc/gpio_11xx_2.h ****  * @brief	Set an individual GPIO output pin to the high state
 324:../../lpc11cx4-library/lpc_chip_11cxx_lib/inc/gpio_11xx_2.h ****  * @param	pGPIO	: The base of GPIO peripheral on the chip
 325:../../lpc11cx4-library/lpc_chip_11cxx_lib/inc/gpio_11xx_2.h ****  * @param	port	: Port number
 326:../../lpc11cx4-library/lpc_chip_11cxx_lib/inc/gpio_11xx_2.h ****  * @param	pin		: pin number (0..n) to set high
 327:../../lpc11cx4-library/lpc_chip_11cxx_lib/inc/gpio_11xx_2.h ****  * @return	None
 328:../../lpc11cx4-library/lpc_chip_11cxx_lib/inc/gpio_11xx_2.h ****  * @note	Any bit set as a '0' will not have it's state changed. This only
 329:../../lpc11cx4-library/lpc_chip_11cxx_lib/inc/gpio_11xx_2.h ****  * applies to ports configured as an output.
 330:../../lpc11cx4-library/lpc_chip_11cxx_lib/inc/gpio_11xx_2.h ****  */
 331:../../lpc11cx4-library/lpc_chip_11cxx_lib/inc/gpio_11xx_2.h **** STATIC INLINE void Chip_GPIO_SetPinOutHigh(LPC_GPIO_T *pGPIO, uint8_t port, uint8_t pin)
ARM GAS  /tmp/ccOmSU1l.s 			page 22


 332:../../lpc11cx4-library/lpc_chip_11cxx_lib/inc/gpio_11xx_2.h **** {
 333:../../lpc11cx4-library/lpc_chip_11cxx_lib/inc/gpio_11xx_2.h **** 	pGPIO[port].DATA[1 << pin] = (1 << pin);
 334:../../lpc11cx4-library/lpc_chip_11cxx_lib/inc/gpio_11xx_2.h **** }
 335:../../lpc11cx4-library/lpc_chip_11cxx_lib/inc/gpio_11xx_2.h **** 
 336:../../lpc11cx4-library/lpc_chip_11cxx_lib/inc/gpio_11xx_2.h **** /**
 337:../../lpc11cx4-library/lpc_chip_11cxx_lib/inc/gpio_11xx_2.h ****  * @brief	Set a GPIO port/bit to the low state
 338:../../lpc11cx4-library/lpc_chip_11cxx_lib/inc/gpio_11xx_2.h ****  * @param	pGPIO	: The base of GPIO peripheral on the chip
 339:../../lpc11cx4-library/lpc_chip_11cxx_lib/inc/gpio_11xx_2.h ****  * @param	port	: Port number
 340:../../lpc11cx4-library/lpc_chip_11cxx_lib/inc/gpio_11xx_2.h ****  * @param	bit		: Bit(s) in the port to set low
 341:../../lpc11cx4-library/lpc_chip_11cxx_lib/inc/gpio_11xx_2.h ****  * @return	None
 342:../../lpc11cx4-library/lpc_chip_11cxx_lib/inc/gpio_11xx_2.h ****  * @note	Any bit set as a '0' will not have it's state changed. This only
 343:../../lpc11cx4-library/lpc_chip_11cxx_lib/inc/gpio_11xx_2.h ****  * applies to ports configured as an output.
 344:../../lpc11cx4-library/lpc_chip_11cxx_lib/inc/gpio_11xx_2.h ****  */
 345:../../lpc11cx4-library/lpc_chip_11cxx_lib/inc/gpio_11xx_2.h **** STATIC INLINE void Chip_GPIO_ClearValue(LPC_GPIO_T *pGPIO, uint8_t port, uint32_t bit)
 346:../../lpc11cx4-library/lpc_chip_11cxx_lib/inc/gpio_11xx_2.h **** {
 347:../../lpc11cx4-library/lpc_chip_11cxx_lib/inc/gpio_11xx_2.h **** 	pGPIO[port].DATA[bit] = ~bit;
 348:../../lpc11cx4-library/lpc_chip_11cxx_lib/inc/gpio_11xx_2.h **** }
 349:../../lpc11cx4-library/lpc_chip_11cxx_lib/inc/gpio_11xx_2.h **** 
 350:../../lpc11cx4-library/lpc_chip_11cxx_lib/inc/gpio_11xx_2.h **** /**
 351:../../lpc11cx4-library/lpc_chip_11cxx_lib/inc/gpio_11xx_2.h ****  * @brief	Set selected GPIO output pins to the low state
 352:../../lpc11cx4-library/lpc_chip_11cxx_lib/inc/gpio_11xx_2.h ****  * @param	pGPIO	: The base of GPIO peripheral on the chip
 353:../../lpc11cx4-library/lpc_chip_11cxx_lib/inc/gpio_11xx_2.h ****  * @param	port	: Port number
 354:../../lpc11cx4-library/lpc_chip_11cxx_lib/inc/gpio_11xx_2.h ****  * @param	pins	: pins (0..n) to set low
 355:../../lpc11cx4-library/lpc_chip_11cxx_lib/inc/gpio_11xx_2.h ****  * @return	None
 356:../../lpc11cx4-library/lpc_chip_11cxx_lib/inc/gpio_11xx_2.h ****  * @note	Any bit set as a '0' will not have it's state changed. This only
 357:../../lpc11cx4-library/lpc_chip_11cxx_lib/inc/gpio_11xx_2.h ****  * applies to ports configured as an output.
 358:../../lpc11cx4-library/lpc_chip_11cxx_lib/inc/gpio_11xx_2.h ****  */
 359:../../lpc11cx4-library/lpc_chip_11cxx_lib/inc/gpio_11xx_2.h **** STATIC INLINE void Chip_GPIO_SetPortOutLow(LPC_GPIO_T *pGPIO, uint8_t port, uint32_t pins)
 360:../../lpc11cx4-library/lpc_chip_11cxx_lib/inc/gpio_11xx_2.h **** {
 361:../../lpc11cx4-library/lpc_chip_11cxx_lib/inc/gpio_11xx_2.h **** 	pGPIO[port].DATA[pins] = 0;
 362:../../lpc11cx4-library/lpc_chip_11cxx_lib/inc/gpio_11xx_2.h **** }
 363:../../lpc11cx4-library/lpc_chip_11cxx_lib/inc/gpio_11xx_2.h **** 
 364:../../lpc11cx4-library/lpc_chip_11cxx_lib/inc/gpio_11xx_2.h **** /**
 365:../../lpc11cx4-library/lpc_chip_11cxx_lib/inc/gpio_11xx_2.h ****  * @brief	Set an individual GPIO output pin to the low state
 366:../../lpc11cx4-library/lpc_chip_11cxx_lib/inc/gpio_11xx_2.h ****  * @param	pGPIO	: The base of GPIO peripheral on the chip
 367:../../lpc11cx4-library/lpc_chip_11cxx_lib/inc/gpio_11xx_2.h ****  * @param	port	: Port number
 368:../../lpc11cx4-library/lpc_chip_11cxx_lib/inc/gpio_11xx_2.h ****  * @param	pin		: pin number (0..n) to set low
 369:../../lpc11cx4-library/lpc_chip_11cxx_lib/inc/gpio_11xx_2.h ****  * @return	None
 370:../../lpc11cx4-library/lpc_chip_11cxx_lib/inc/gpio_11xx_2.h ****  * @note	Any bit set as a '0' will not have it's state changed. This only
 371:../../lpc11cx4-library/lpc_chip_11cxx_lib/inc/gpio_11xx_2.h ****  * applies to ports configured as an output.
 372:../../lpc11cx4-library/lpc_chip_11cxx_lib/inc/gpio_11xx_2.h ****  */
 373:../../lpc11cx4-library/lpc_chip_11cxx_lib/inc/gpio_11xx_2.h **** STATIC INLINE void Chip_GPIO_SetPinOutLow(LPC_GPIO_T *pGPIO, uint8_t port, uint8_t pin)
 374:../../lpc11cx4-library/lpc_chip_11cxx_lib/inc/gpio_11xx_2.h **** {
 375:../../lpc11cx4-library/lpc_chip_11cxx_lib/inc/gpio_11xx_2.h **** 	pGPIO[port].DATA[1 << pin] = 0;
 376:../../lpc11cx4-library/lpc_chip_11cxx_lib/inc/gpio_11xx_2.h **** }
 377:../../lpc11cx4-library/lpc_chip_11cxx_lib/inc/gpio_11xx_2.h **** 
 378:../../lpc11cx4-library/lpc_chip_11cxx_lib/inc/gpio_11xx_2.h **** /**
 379:../../lpc11cx4-library/lpc_chip_11cxx_lib/inc/gpio_11xx_2.h ****  * @brief	Toggle selected GPIO output pins to the opposite state
 380:../../lpc11cx4-library/lpc_chip_11cxx_lib/inc/gpio_11xx_2.h ****  * @param	pGPIO	: The base of GPIO peripheral on the chip
 381:../../lpc11cx4-library/lpc_chip_11cxx_lib/inc/gpio_11xx_2.h ****  * @param	port	: Port number
 382:../../lpc11cx4-library/lpc_chip_11cxx_lib/inc/gpio_11xx_2.h ****  * @param	pins	: pins (0..n) to toggle
 383:../../lpc11cx4-library/lpc_chip_11cxx_lib/inc/gpio_11xx_2.h ****  * @return	None
 384:../../lpc11cx4-library/lpc_chip_11cxx_lib/inc/gpio_11xx_2.h ****  * @note	Any bit set as a '0' will not have it's state changed. This only
 385:../../lpc11cx4-library/lpc_chip_11cxx_lib/inc/gpio_11xx_2.h ****  * applies to ports configured as an output.
 386:../../lpc11cx4-library/lpc_chip_11cxx_lib/inc/gpio_11xx_2.h ****  */
 387:../../lpc11cx4-library/lpc_chip_11cxx_lib/inc/gpio_11xx_2.h **** STATIC INLINE void Chip_GPIO_SetPortToggle(LPC_GPIO_T *pGPIO, uint8_t port, uint32_t pins)
 388:../../lpc11cx4-library/lpc_chip_11cxx_lib/inc/gpio_11xx_2.h **** {
ARM GAS  /tmp/ccOmSU1l.s 			page 23


 389:../../lpc11cx4-library/lpc_chip_11cxx_lib/inc/gpio_11xx_2.h **** 	pGPIO[port].DATA[pins] ^= 0xFFF;
 390:../../lpc11cx4-library/lpc_chip_11cxx_lib/inc/gpio_11xx_2.h **** }
 391:../../lpc11cx4-library/lpc_chip_11cxx_lib/inc/gpio_11xx_2.h **** 
 392:../../lpc11cx4-library/lpc_chip_11cxx_lib/inc/gpio_11xx_2.h **** /**
 393:../../lpc11cx4-library/lpc_chip_11cxx_lib/inc/gpio_11xx_2.h ****  * @brief	Toggle an individual GPIO output pin to the opposite state
 394:../../lpc11cx4-library/lpc_chip_11cxx_lib/inc/gpio_11xx_2.h ****  * @param	pGPIO	: The base of GPIO peripheral on the chip
 395:../../lpc11cx4-library/lpc_chip_11cxx_lib/inc/gpio_11xx_2.h ****  * @param	port	: Port number
 396:../../lpc11cx4-library/lpc_chip_11cxx_lib/inc/gpio_11xx_2.h ****  * @param	pin		: pin number (0..n) to toggle
 397:../../lpc11cx4-library/lpc_chip_11cxx_lib/inc/gpio_11xx_2.h ****  * @return	None
 398:../../lpc11cx4-library/lpc_chip_11cxx_lib/inc/gpio_11xx_2.h ****  * @note	Any bit set as a '0' will not have it's state changed. This only
 399:../../lpc11cx4-library/lpc_chip_11cxx_lib/inc/gpio_11xx_2.h ****  * applies to ports configured as an output.
 400:../../lpc11cx4-library/lpc_chip_11cxx_lib/inc/gpio_11xx_2.h ****  */
 401:../../lpc11cx4-library/lpc_chip_11cxx_lib/inc/gpio_11xx_2.h **** STATIC INLINE void Chip_GPIO_SetPinToggle(LPC_GPIO_T *pGPIO, uint8_t port, uint8_t pin)
 402:../../lpc11cx4-library/lpc_chip_11cxx_lib/inc/gpio_11xx_2.h **** {
 403:../../lpc11cx4-library/lpc_chip_11cxx_lib/inc/gpio_11xx_2.h **** 	pGPIO[port].DATA[1 << pin] ^= (1 << pin);
 404:../../lpc11cx4-library/lpc_chip_11cxx_lib/inc/gpio_11xx_2.h **** }
 405:../../lpc11cx4-library/lpc_chip_11cxx_lib/inc/gpio_11xx_2.h **** 
 406:../../lpc11cx4-library/lpc_chip_11cxx_lib/inc/gpio_11xx_2.h **** /**
 407:../../lpc11cx4-library/lpc_chip_11cxx_lib/inc/gpio_11xx_2.h ****  * @brief	Read current bit states for the selected port
 408:../../lpc11cx4-library/lpc_chip_11cxx_lib/inc/gpio_11xx_2.h ****  * @param	pGPIO	: The base of GPIO peripheral on the chip
 409:../../lpc11cx4-library/lpc_chip_11cxx_lib/inc/gpio_11xx_2.h ****  * @param	port	: Port number to read
 410:../../lpc11cx4-library/lpc_chip_11cxx_lib/inc/gpio_11xx_2.h ****  * @return	Current value of GPIO port
 411:../../lpc11cx4-library/lpc_chip_11cxx_lib/inc/gpio_11xx_2.h ****  * @note	The current states of the bits for the port are read, regardless of
 412:../../lpc11cx4-library/lpc_chip_11cxx_lib/inc/gpio_11xx_2.h ****  * whether the GPIO port bits are input or output.
 413:../../lpc11cx4-library/lpc_chip_11cxx_lib/inc/gpio_11xx_2.h ****  */
 414:../../lpc11cx4-library/lpc_chip_11cxx_lib/inc/gpio_11xx_2.h **** STATIC INLINE uint32_t Chip_GPIO_ReadValue(LPC_GPIO_T *pGPIO, uint8_t port)
 415:../../lpc11cx4-library/lpc_chip_11cxx_lib/inc/gpio_11xx_2.h **** {
 416:../../lpc11cx4-library/lpc_chip_11cxx_lib/inc/gpio_11xx_2.h **** 	return pGPIO[port].DATA[4095];
 417:../../lpc11cx4-library/lpc_chip_11cxx_lib/inc/gpio_11xx_2.h **** }
 418:../../lpc11cx4-library/lpc_chip_11cxx_lib/inc/gpio_11xx_2.h **** 
 419:../../lpc11cx4-library/lpc_chip_11cxx_lib/inc/gpio_11xx_2.h **** /**
 420:../../lpc11cx4-library/lpc_chip_11cxx_lib/inc/gpio_11xx_2.h ****  * @brief	Configure the pins as edge sensitive for interrupts 
 421:../../lpc11cx4-library/lpc_chip_11cxx_lib/inc/gpio_11xx_2.h ****  * @param	pGPIO	: The base of GPIO peripheral on the chip
 422:../../lpc11cx4-library/lpc_chip_11cxx_lib/inc/gpio_11xx_2.h ****  * @param	port	: Port number
 423:../../lpc11cx4-library/lpc_chip_11cxx_lib/inc/gpio_11xx_2.h ****  * @param	pinmask	: Pins to set to edge mode (ORed value of bits 0..11)
 424:../../lpc11cx4-library/lpc_chip_11cxx_lib/inc/gpio_11xx_2.h ****  * @return	Nothing
 425:../../lpc11cx4-library/lpc_chip_11cxx_lib/inc/gpio_11xx_2.h ****  */
 426:../../lpc11cx4-library/lpc_chip_11cxx_lib/inc/gpio_11xx_2.h **** STATIC INLINE void Chip_GPIO_SetPinModeEdge(LPC_GPIO_T *pGPIO, uint8_t port, uint32_t pinmask)
 427:../../lpc11cx4-library/lpc_chip_11cxx_lib/inc/gpio_11xx_2.h **** {
 428:../../lpc11cx4-library/lpc_chip_11cxx_lib/inc/gpio_11xx_2.h ****     pGPIO[port].IS &= ~pinmask;
 438              		.loc 3 428 0
 439 0004 0904     		lsls	r1, r1, #16	@ tmp146, port,
 440              	.LVL38:
 441 0006 4018     		adds	r0, r0, r1	@ _16, pGPIO, tmp146
 442              	.LVL39:
 443              	.LBE49:
 444              	.LBE48:
 445              		.loc 1 115 0
 446 0008 9440     		lsls	r4, r4, r2	@ pinMask, tmp139, pin
 447              	.LVL40:
 448              	.LBB52:
 449              	.LBB50:
 450              		.loc 3 428 0
 451 000a 0F49     		ldr	r1, .L32	@ tmp147,
 452              	.LBE50:
 453              	.LBE52:
 116:../../lpc11cx4-library/lpc_chip_11cxx_lib/src/gpio_11xx_2.c **** 
ARM GAS  /tmp/ccOmSU1l.s 			page 24


 117:../../lpc11cx4-library/lpc_chip_11cxx_lib/src/gpio_11xx_2.c **** 	/* Edge mode selected? */
 118:../../lpc11cx4-library/lpc_chip_11cxx_lib/src/gpio_11xx_2.c **** 	if ((uint32_t) mode & 0x2) {
 454              		.loc 1 118 0
 455 000c 9A07     		lsls	r2, r3, #30	@ tmp173, mode,
 456 000e 06D5     		bpl	.L25	@,
 457              	.LVL41:
 458              	.LBB53:
 459              	.LBB51:
 460              		.loc 3 428 0
 461 0010 E543     		mvns	r5, r4	@ _18, pinMask
 462 0012 4258     		ldr	r2, [r0, r1]	@ _17,
 463 0014 2A40     		ands	r2, r5	@ _19, _18
 464 0016 4250     		str	r2, [r0, r1]	@ _19, _16->IS
 465              	.LVL42:
 466              	.LBE51:
 467              	.LBE53:
 468              	.LBB54:
 469              	.LBB55:
 429:../../lpc11cx4-library/lpc_chip_11cxx_lib/inc/gpio_11xx_2.h **** }
 430:../../lpc11cx4-library/lpc_chip_11cxx_lib/inc/gpio_11xx_2.h **** 
 431:../../lpc11cx4-library/lpc_chip_11cxx_lib/inc/gpio_11xx_2.h **** /**
 432:../../lpc11cx4-library/lpc_chip_11cxx_lib/inc/gpio_11xx_2.h ****  * @brief	Configure the pins as level sensitive for interrupts 
 433:../../lpc11cx4-library/lpc_chip_11cxx_lib/inc/gpio_11xx_2.h ****  * @param	pGPIO	: The base of GPIO peripheral on the chip
 434:../../lpc11cx4-library/lpc_chip_11cxx_lib/inc/gpio_11xx_2.h ****  * @param	port	: Port number
 435:../../lpc11cx4-library/lpc_chip_11cxx_lib/inc/gpio_11xx_2.h ****  * @param	pinmask	: Pins to set to level mode (ORed value of bits 0..11)
 436:../../lpc11cx4-library/lpc_chip_11cxx_lib/inc/gpio_11xx_2.h ****  * @return	Nothing
 437:../../lpc11cx4-library/lpc_chip_11cxx_lib/inc/gpio_11xx_2.h ****  */
 438:../../lpc11cx4-library/lpc_chip_11cxx_lib/inc/gpio_11xx_2.h **** STATIC INLINE void Chip_GPIO_SetPinModeLevel(LPC_GPIO_T *pGPIO, uint8_t port, uint32_t pinmask)
 439:../../lpc11cx4-library/lpc_chip_11cxx_lib/inc/gpio_11xx_2.h **** {
 440:../../lpc11cx4-library/lpc_chip_11cxx_lib/inc/gpio_11xx_2.h ****     pGPIO[port].IS |= pinmask;
 441:../../lpc11cx4-library/lpc_chip_11cxx_lib/inc/gpio_11xx_2.h **** }
 442:../../lpc11cx4-library/lpc_chip_11cxx_lib/inc/gpio_11xx_2.h **** 
 443:../../lpc11cx4-library/lpc_chip_11cxx_lib/inc/gpio_11xx_2.h **** /**
 444:../../lpc11cx4-library/lpc_chip_11cxx_lib/inc/gpio_11xx_2.h ****  * @brief	Returns current GPIO edge or high level interrupt configuration for all pins for a port
 445:../../lpc11cx4-library/lpc_chip_11cxx_lib/inc/gpio_11xx_2.h ****  * @param	pGPIO	: The base of GPIO peripheral on the chip
 446:../../lpc11cx4-library/lpc_chip_11cxx_lib/inc/gpio_11xx_2.h ****  * @param	port	: Port number
 447:../../lpc11cx4-library/lpc_chip_11cxx_lib/inc/gpio_11xx_2.h ****  * @return	A bifield containing the edge/level interrupt configuration for each
 448:../../lpc11cx4-library/lpc_chip_11cxx_lib/inc/gpio_11xx_2.h ****  * pin for the selected port. Bit 0 = pin 0, 1 = pin 1.
 449:../../lpc11cx4-library/lpc_chip_11cxx_lib/inc/gpio_11xx_2.h ****  * For each bit, a 0 means the edge interrupt is configured, while a 1 means a level
 450:../../lpc11cx4-library/lpc_chip_11cxx_lib/inc/gpio_11xx_2.h ****  * interrupt is configured. Mask with this return value to determine the
 451:../../lpc11cx4-library/lpc_chip_11cxx_lib/inc/gpio_11xx_2.h ****  * edge/level configuration for each pin in a port.
 452:../../lpc11cx4-library/lpc_chip_11cxx_lib/inc/gpio_11xx_2.h ****  */
 453:../../lpc11cx4-library/lpc_chip_11cxx_lib/inc/gpio_11xx_2.h **** STATIC INLINE uint32_t Chip_GPIO_IsLevelEnabled(LPC_GPIO_T *pGPIO, uint8_t port)
 454:../../lpc11cx4-library/lpc_chip_11cxx_lib/inc/gpio_11xx_2.h **** {
 455:../../lpc11cx4-library/lpc_chip_11cxx_lib/inc/gpio_11xx_2.h ****     return pGPIO[port].IS;
 456:../../lpc11cx4-library/lpc_chip_11cxx_lib/inc/gpio_11xx_2.h **** }
 457:../../lpc11cx4-library/lpc_chip_11cxx_lib/inc/gpio_11xx_2.h **** 
 458:../../lpc11cx4-library/lpc_chip_11cxx_lib/inc/gpio_11xx_2.h **** /**
 459:../../lpc11cx4-library/lpc_chip_11cxx_lib/inc/gpio_11xx_2.h ****  * @brief	Sets GPIO interrupt configuration for both edges for selected pins
 460:../../lpc11cx4-library/lpc_chip_11cxx_lib/inc/gpio_11xx_2.h ****  * @param	pGPIO	: The base of GPIO peripheral on the chip
 461:../../lpc11cx4-library/lpc_chip_11cxx_lib/inc/gpio_11xx_2.h ****  * @param	port	: Port number
 462:../../lpc11cx4-library/lpc_chip_11cxx_lib/inc/gpio_11xx_2.h ****  * @param	pinmask	: Pins to set to dual edge mode (ORed value of bits 0..11)
 463:../../lpc11cx4-library/lpc_chip_11cxx_lib/inc/gpio_11xx_2.h ****  * @return	Nothing
 464:../../lpc11cx4-library/lpc_chip_11cxx_lib/inc/gpio_11xx_2.h ****  */
 465:../../lpc11cx4-library/lpc_chip_11cxx_lib/inc/gpio_11xx_2.h **** STATIC INLINE void Chip_GPIO_SetEdgeModeBoth(LPC_GPIO_T *pGPIO, uint8_t port, uint32_t pinmask)
 466:../../lpc11cx4-library/lpc_chip_11cxx_lib/inc/gpio_11xx_2.h **** {
 467:../../lpc11cx4-library/lpc_chip_11cxx_lib/inc/gpio_11xx_2.h ****     pGPIO[port].IBE |= pinmask;
ARM GAS  /tmp/ccOmSU1l.s 			page 25


 470              		.loc 3 467 0
 471 0018 0C49     		ldr	r1, .L32+4	@ tmp155,
 472              	.LBE55:
 473              	.LBE54:
 119:../../lpc11cx4-library/lpc_chip_11cxx_lib/src/gpio_11xx_2.c **** 		Chip_GPIO_SetPinModeEdge(pGPIO, port, pinMask);
 120:../../lpc11cx4-library/lpc_chip_11cxx_lib/src/gpio_11xx_2.c **** 
 121:../../lpc11cx4-library/lpc_chip_11cxx_lib/src/gpio_11xx_2.c **** 		/* Interrupt on both edges selected? */
 122:../../lpc11cx4-library/lpc_chip_11cxx_lib/src/gpio_11xx_2.c **** 		if ((uint32_t) mode & 0x4) {
 474              		.loc 1 122 0
 475 001a 5A07     		lsls	r2, r3, #29	@ tmp174, mode,
 476 001c 09D5     		bpl	.L30	@,
 477              	.L25:
 478              	.LVL43:
 479              	.LBB56:
 480              	.LBB57:
 440:../../lpc11cx4-library/lpc_chip_11cxx_lib/inc/gpio_11xx_2.h **** }
 481              		.loc 3 440 0
 482 001e 4258     		ldr	r2, [r0, r1]	@ _27,
 483 0020 2243     		orrs	r2, r4	@ _28, pinMask
 484 0022 4250     		str	r2, [r0, r1]	@ _28,
 485              	.LBE57:
 486              	.LBE56:
 487              	.LBB58:
 488              	.LBB59:
 468:../../lpc11cx4-library/lpc_chip_11cxx_lib/inc/gpio_11xx_2.h **** }
 469:../../lpc11cx4-library/lpc_chip_11cxx_lib/inc/gpio_11xx_2.h **** 
 470:../../lpc11cx4-library/lpc_chip_11cxx_lib/inc/gpio_11xx_2.h **** /**
 471:../../lpc11cx4-library/lpc_chip_11cxx_lib/inc/gpio_11xx_2.h ****  * @brief	Sets GPIO interrupt configuration for a single edge for selected pins
 472:../../lpc11cx4-library/lpc_chip_11cxx_lib/inc/gpio_11xx_2.h ****  * @param	pGPIO	: The base of GPIO peripheral on the chip
 473:../../lpc11cx4-library/lpc_chip_11cxx_lib/inc/gpio_11xx_2.h ****  * @param	port	: Port number
 474:../../lpc11cx4-library/lpc_chip_11cxx_lib/inc/gpio_11xx_2.h ****  * @param	pinmask	: Pins to set to single edge mode (ORed value of bits 0..11)
 475:../../lpc11cx4-library/lpc_chip_11cxx_lib/inc/gpio_11xx_2.h ****  * @return	Nothing
 476:../../lpc11cx4-library/lpc_chip_11cxx_lib/inc/gpio_11xx_2.h ****  */
 477:../../lpc11cx4-library/lpc_chip_11cxx_lib/inc/gpio_11xx_2.h **** STATIC INLINE void Chip_GPIO_SetEdgeModeSingle(LPC_GPIO_T *pGPIO, uint8_t port, uint32_t pinmask)
 478:../../lpc11cx4-library/lpc_chip_11cxx_lib/inc/gpio_11xx_2.h **** {
 479:../../lpc11cx4-library/lpc_chip_11cxx_lib/inc/gpio_11xx_2.h ****     pGPIO[port].IBE &= ~pinmask;
 480:../../lpc11cx4-library/lpc_chip_11cxx_lib/inc/gpio_11xx_2.h **** }
 481:../../lpc11cx4-library/lpc_chip_11cxx_lib/inc/gpio_11xx_2.h **** 
 482:../../lpc11cx4-library/lpc_chip_11cxx_lib/inc/gpio_11xx_2.h **** /**
 483:../../lpc11cx4-library/lpc_chip_11cxx_lib/inc/gpio_11xx_2.h ****  * @brief	Returns current GPIO interrupt dual or single edge configuration for all pins for a port
 484:../../lpc11cx4-library/lpc_chip_11cxx_lib/inc/gpio_11xx_2.h ****  * @param	pGPIO	: The base of GPIO peripheral on the chip
 485:../../lpc11cx4-library/lpc_chip_11cxx_lib/inc/gpio_11xx_2.h ****  * @param	port	: Port number
 486:../../lpc11cx4-library/lpc_chip_11cxx_lib/inc/gpio_11xx_2.h ****  * @return	A bifield containing the single/dual interrupt configuration for each
 487:../../lpc11cx4-library/lpc_chip_11cxx_lib/inc/gpio_11xx_2.h ****  * pin for the selected port. Bit 0 = pin 0, 1 = pin 1.
 488:../../lpc11cx4-library/lpc_chip_11cxx_lib/inc/gpio_11xx_2.h ****  * For each bit, a 0 means the interrupt triggers on a single edge (use the
 489:../../lpc11cx4-library/lpc_chip_11cxx_lib/inc/gpio_11xx_2.h ****  * Chip_GPIO_SetEdgeModeHigh() and Chip_GPIO_SetEdgeModeLow() functions to configure
 490:../../lpc11cx4-library/lpc_chip_11cxx_lib/inc/gpio_11xx_2.h ****  * selected edge), while a 1 means the interrupt triggers on both edges. Mask
 491:../../lpc11cx4-library/lpc_chip_11cxx_lib/inc/gpio_11xx_2.h ****  * with this return value to determine the edge/level configuration for each pin in
 492:../../lpc11cx4-library/lpc_chip_11cxx_lib/inc/gpio_11xx_2.h ****  * a port.
 493:../../lpc11cx4-library/lpc_chip_11cxx_lib/inc/gpio_11xx_2.h ****  */
 494:../../lpc11cx4-library/lpc_chip_11cxx_lib/inc/gpio_11xx_2.h **** STATIC INLINE uint32_t Chip_GPIO_GetEdgeModeDir(LPC_GPIO_T *pGPIO, uint8_t port)
 495:../../lpc11cx4-library/lpc_chip_11cxx_lib/inc/gpio_11xx_2.h **** {
 496:../../lpc11cx4-library/lpc_chip_11cxx_lib/inc/gpio_11xx_2.h ****     return pGPIO[port].IBE;
 497:../../lpc11cx4-library/lpc_chip_11cxx_lib/inc/gpio_11xx_2.h **** }
 498:../../lpc11cx4-library/lpc_chip_11cxx_lib/inc/gpio_11xx_2.h **** 
 499:../../lpc11cx4-library/lpc_chip_11cxx_lib/inc/gpio_11xx_2.h **** /**
 500:../../lpc11cx4-library/lpc_chip_11cxx_lib/inc/gpio_11xx_2.h ****  * @brief	Sets GPIO interrupt configuration when in single edge or level mode to high edge trigger 
ARM GAS  /tmp/ccOmSU1l.s 			page 26


 501:../../lpc11cx4-library/lpc_chip_11cxx_lib/inc/gpio_11xx_2.h ****  * @param	pGPIO	: The base of GPIO peripheral on the chip
 502:../../lpc11cx4-library/lpc_chip_11cxx_lib/inc/gpio_11xx_2.h ****  * @param	port	: Port number
 503:../../lpc11cx4-library/lpc_chip_11cxx_lib/inc/gpio_11xx_2.h ****  * @param	pinmask	: Pins to set to high mode (ORed value of bits 0..11)
 504:../../lpc11cx4-library/lpc_chip_11cxx_lib/inc/gpio_11xx_2.h ****  * @return	Nothing
 505:../../lpc11cx4-library/lpc_chip_11cxx_lib/inc/gpio_11xx_2.h ****  * @note	Use this function to select high level or high edge interrupt mode
 506:../../lpc11cx4-library/lpc_chip_11cxx_lib/inc/gpio_11xx_2.h ****  * for the selected pins on the selected port when not in dual edge mode.
 507:../../lpc11cx4-library/lpc_chip_11cxx_lib/inc/gpio_11xx_2.h ****  */
 508:../../lpc11cx4-library/lpc_chip_11cxx_lib/inc/gpio_11xx_2.h **** STATIC INLINE void Chip_GPIO_SetModeHigh(LPC_GPIO_T *pGPIO, uint8_t port, uint32_t pinmask)
 509:../../lpc11cx4-library/lpc_chip_11cxx_lib/inc/gpio_11xx_2.h **** {
 510:../../lpc11cx4-library/lpc_chip_11cxx_lib/inc/gpio_11xx_2.h ****     pGPIO[port].IEV |= pinmask;
 489              		.loc 3 510 0
 490 0024 0A4A     		ldr	r2, .L32+8	@ tmp168,
 491              	.LBE59:
 492              	.LBE58:
 123:../../lpc11cx4-library/lpc_chip_11cxx_lib/src/gpio_11xx_2.c **** 			Chip_GPIO_SetEdgeModeBoth(pGPIO, port, pinMask);
 124:../../lpc11cx4-library/lpc_chip_11cxx_lib/src/gpio_11xx_2.c **** 		}
 125:../../lpc11cx4-library/lpc_chip_11cxx_lib/src/gpio_11xx_2.c **** 		else {
 126:../../lpc11cx4-library/lpc_chip_11cxx_lib/src/gpio_11xx_2.c **** 			Chip_GPIO_SetEdgeModeSingle(pGPIO, port, pinMask);
 127:../../lpc11cx4-library/lpc_chip_11cxx_lib/src/gpio_11xx_2.c **** 		}
 128:../../lpc11cx4-library/lpc_chip_11cxx_lib/src/gpio_11xx_2.c **** 	}
 129:../../lpc11cx4-library/lpc_chip_11cxx_lib/src/gpio_11xx_2.c **** 	else {
 130:../../lpc11cx4-library/lpc_chip_11cxx_lib/src/gpio_11xx_2.c **** 		/* Level mode */
 131:../../lpc11cx4-library/lpc_chip_11cxx_lib/src/gpio_11xx_2.c **** 		Chip_GPIO_SetPinModeLevel(pGPIO, port, pinMask);
 132:../../lpc11cx4-library/lpc_chip_11cxx_lib/src/gpio_11xx_2.c **** 	}
 133:../../lpc11cx4-library/lpc_chip_11cxx_lib/src/gpio_11xx_2.c **** 
 134:../../lpc11cx4-library/lpc_chip_11cxx_lib/src/gpio_11xx_2.c **** 	/* Level selections will not alter 'dual edge' mode */
 135:../../lpc11cx4-library/lpc_chip_11cxx_lib/src/gpio_11xx_2.c **** 	if ((uint32_t) mode & 0x1) {
 493              		.loc 1 135 0
 494 0026 DB07     		lsls	r3, r3, #31	@ tmp175, mode,
 495 0028 09D4     		bmi	.L31	@,
 496              	.LVL44:
 497              	.L28:
 498              	.LBB62:
 499              	.LBB63:
 511:../../lpc11cx4-library/lpc_chip_11cxx_lib/inc/gpio_11xx_2.h **** }
 512:../../lpc11cx4-library/lpc_chip_11cxx_lib/inc/gpio_11xx_2.h **** 
 513:../../lpc11cx4-library/lpc_chip_11cxx_lib/inc/gpio_11xx_2.h **** /**
 514:../../lpc11cx4-library/lpc_chip_11cxx_lib/inc/gpio_11xx_2.h ****  * @brief	Sets GPIO interrupt configuration when in single edge or level mode to low edge trigger o
 515:../../lpc11cx4-library/lpc_chip_11cxx_lib/inc/gpio_11xx_2.h ****  * @param	pGPIO	: The base of GPIO peripheral on the chip
 516:../../lpc11cx4-library/lpc_chip_11cxx_lib/inc/gpio_11xx_2.h ****  * @param	port	: Port number
 517:../../lpc11cx4-library/lpc_chip_11cxx_lib/inc/gpio_11xx_2.h ****  * @param	pinmask	: Pins to set to low mode (ORed value of bits 0..11)
 518:../../lpc11cx4-library/lpc_chip_11cxx_lib/inc/gpio_11xx_2.h ****  * @return	Nothing
 519:../../lpc11cx4-library/lpc_chip_11cxx_lib/inc/gpio_11xx_2.h ****  * @note	Use this function to select low level or low edge interrupt mode
 520:../../lpc11cx4-library/lpc_chip_11cxx_lib/inc/gpio_11xx_2.h ****  * for the selected pins on the selected port when not in dual edge mode.
 521:../../lpc11cx4-library/lpc_chip_11cxx_lib/inc/gpio_11xx_2.h ****  */
 522:../../lpc11cx4-library/lpc_chip_11cxx_lib/inc/gpio_11xx_2.h **** STATIC INLINE void Chip_GPIO_SetModeLow(LPC_GPIO_T *pGPIO, uint8_t port, uint32_t pinmask)
 523:../../lpc11cx4-library/lpc_chip_11cxx_lib/inc/gpio_11xx_2.h **** {
 524:../../lpc11cx4-library/lpc_chip_11cxx_lib/inc/gpio_11xx_2.h ****     pGPIO[port].IEV &= ~pinmask;
 500              		.loc 3 524 0
 501 002a 8358     		ldr	r3, [r0, r2]	@ _37,
 502 002c A343     		bics	r3, r4	@ _39, pinMask
 503 002e 8350     		str	r3, [r0, r2]	@ _39, prephitmp_53->IEV
 504              	.LVL45:
 505              	.L24:
 506              	.LBE63:
 507              	.LBE62:
 136:../../lpc11cx4-library/lpc_chip_11cxx_lib/src/gpio_11xx_2.c **** 		/* High edge or level mode selected */
ARM GAS  /tmp/ccOmSU1l.s 			page 27


 137:../../lpc11cx4-library/lpc_chip_11cxx_lib/src/gpio_11xx_2.c **** 		Chip_GPIO_SetModeHigh(pGPIO, port, pinMask);
 138:../../lpc11cx4-library/lpc_chip_11cxx_lib/src/gpio_11xx_2.c **** 	}
 139:../../lpc11cx4-library/lpc_chip_11cxx_lib/src/gpio_11xx_2.c **** 	else {
 140:../../lpc11cx4-library/lpc_chip_11cxx_lib/src/gpio_11xx_2.c **** 		Chip_GPIO_SetModeLow(pGPIO, port, pinMask);
 141:../../lpc11cx4-library/lpc_chip_11cxx_lib/src/gpio_11xx_2.c **** 	}
 142:../../lpc11cx4-library/lpc_chip_11cxx_lib/src/gpio_11xx_2.c **** }
 508              		.loc 1 142 0
 509              		@ sp needed	@
 510 0030 30BD     		pop	{r4, r5, pc}
 511              	.LVL46:
 512              	.L30:
 513              	.LBB64:
 514              	.LBB65:
 479:../../lpc11cx4-library/lpc_chip_11cxx_lib/inc/gpio_11xx_2.h **** }
 515              		.loc 3 479 0
 516 0032 4258     		ldr	r2, [r0, r1]	@ _22,
 517 0034 1540     		ands	r5, r2	@ _23, _22
 518 0036 4550     		str	r5, [r0, r1]	@ _23, _16->IBE
 519              	.LBE65:
 520              	.LBE64:
 521              	.LBB66:
 522              	.LBB60:
 510:../../lpc11cx4-library/lpc_chip_11cxx_lib/inc/gpio_11xx_2.h **** }
 523              		.loc 3 510 0
 524 0038 054A     		ldr	r2, .L32+8	@ tmp168,
 525              	.LBE60:
 526              	.LBE66:
 135:../../lpc11cx4-library/lpc_chip_11cxx_lib/src/gpio_11xx_2.c **** 		/* High edge or level mode selected */
 527              		.loc 1 135 0
 528 003a DB07     		lsls	r3, r3, #31	@ tmp175, mode,
 529 003c F5D5     		bpl	.L28	@,
 530              	.LVL47:
 531              	.L31:
 532              	.LBB67:
 533              	.LBB61:
 510:../../lpc11cx4-library/lpc_chip_11cxx_lib/inc/gpio_11xx_2.h **** }
 534              		.loc 3 510 0
 535 003e 8358     		ldr	r3, [r0, r2]	@ _32,
 536 0040 1C43     		orrs	r4, r3	@ _33, _32
 537              	.LVL48:
 538 0042 8450     		str	r4, [r0, r2]	@ _33, prephitmp_53->IEV
 539 0044 F4E7     		b	.L24	@
 540              	.L33:
 541 0046 C046     		.align	2
 542              	.L32:
 543 0048 04800000 		.word	32772
 544 004c 08800000 		.word	32776
 545 0050 0C800000 		.word	32780
 546              	.LBE61:
 547              	.LBE67:
 548              		.cfi_endproc
 549              	.LFE204:
 550              		.size	Chip_GPIO_SetupPinInt, .-Chip_GPIO_SetupPinInt
 551              		.text
 552              	.Letext0:
 553              		.file 4 "/usr/arm-none-eabi/include/machine/_default_types.h"
 554              		.file 5 "/usr/arm-none-eabi/include/sys/_stdint.h"
ARM GAS  /tmp/ccOmSU1l.s 			page 28


 555              		.file 6 "../../lpc11cx4-library/lpc_chip_11cxx_lib/inc/chip.h"
 556              		.file 7 "../../lpc11cx4-library/lpc_chip_11cxx_lib/inc/sysctl_11xx.h"