ARM GAS  /tmp/cccnjP7i.s 			page 1


   1              		.cpu cortex-m0
   2              		.eabi_attribute 20, 1	@ Tag_ABI_FP_denormal
   3              		.eabi_attribute 21, 1	@ Tag_ABI_FP_exceptions
   4              		.eabi_attribute 23, 3	@ Tag_ABI_FP_number_model
   5              		.eabi_attribute 24, 1	@ Tag_ABI_align8_needed
   6              		.eabi_attribute 25, 1	@ Tag_ABI_align8_preserved
   7              		.eabi_attribute 26, 1	@ Tag_ABI_enum_size
   8              		.eabi_attribute 30, 2	@ Tag_ABI_optimization_goals
   9              		.eabi_attribute 34, 0	@ Tag_CPU_unaligned_access
  10              		.eabi_attribute 18, 4	@ Tag_ABI_PCS_wchar_t
  11              		.file	"timer_11xx.c"
  12              	@ GNU C89 (GNU Tools for ARM Embedded Processors) version 6.2.1 20161205 (release) [ARM/embedded-6-
  13              	@	compiled by GNU C version 5.4.0 20160609, GMP version 6.1.0, MPFR version 3.1.4, MPC version 1.0.
  14              	@ GGC heuristics: --param ggc-min-expand=100 --param ggc-min-heapsize=131072
  15              	@ options passed:  -I . -I ../../lpc11cx4-library/lpc_chip_11cxx_lib/inc
  16              	@ -imultilib thumb/v6-m -iprefix /usr/bin/../lib/gcc/arm-none-eabi/6.2.1/
  17              	@ -isysroot /usr/bin/../arm-none-eabi -MD bin/timer_11xx.d
  18              	@ -MF bin/timer_11xx.d -MP -MQ bin/timer_11xx.o -D__USES_INITFINI__
  19              	@ -D CORE_M0 ../../lpc11cx4-library/lpc_chip_11cxx_lib/src/timer_11xx.c
  20              	@ -mcpu=cortex-m0 -mthumb -auxbase-strip bin/timer_11xx.o -g -ggdb3 -O2
  21              	@ -Wall -Wstrict-prototypes -Wextra -std=gnu90 -ffunction-sections
  22              	@ -fdata-sections -fverbose-asm
  23              	@ options enabled:  -faggressive-loop-optimizations -falign-jumps
  24              	@ -falign-labels -falign-loops -fauto-inc-dec -fbranch-count-reg
  25              	@ -fcaller-saves -fchkp-check-incomplete-type -fchkp-check-read
  26              	@ -fchkp-check-write -fchkp-instrument-calls -fchkp-narrow-bounds
  27              	@ -fchkp-optimize -fchkp-store-bounds -fchkp-use-static-bounds
  28              	@ -fchkp-use-static-const-bounds -fchkp-use-wrappers
  29              	@ -fcombine-stack-adjustments -fcommon -fcompare-elim -fcprop-registers
  30              	@ -fcrossjumping -fcse-follow-jumps -fdata-sections -fdefer-pop
  31              	@ -fdelete-null-pointer-checks -fdevirtualize -fdevirtualize-speculatively
  32              	@ -fdwarf2-cfi-asm -fearly-inlining -feliminate-unused-debug-types
  33              	@ -fexpensive-optimizations -fforward-propagate -ffunction-cse
  34              	@ -ffunction-sections -fgcse -fgcse-lm -fgnu-runtime -fgnu-unique
  35              	@ -fguess-branch-probability -fhoist-adjacent-loads -fident -fif-conversion
  36              	@ -fif-conversion2 -findirect-inlining -finline -finline-atomics
  37              	@ -finline-functions-called-once -finline-small-functions -fipa-cp
  38              	@ -fipa-cp-alignment -fipa-icf -fipa-icf-functions -fipa-icf-variables
  39              	@ -fipa-profile -fipa-pure-const -fipa-reference -fipa-sra
  40              	@ -fira-hoist-pressure -fira-share-save-slots -fira-share-spill-slots
  41              	@ -fisolate-erroneous-paths-dereference -fivopts -fkeep-static-consts
  42              	@ -fleading-underscore -flifetime-dse -flra-remat -flto-odr-type-merging
  43              	@ -fmath-errno -fmerge-constants -fmerge-debug-strings
  44              	@ -fmove-loop-invariants -fomit-frame-pointer -foptimize-sibling-calls
  45              	@ -foptimize-strlen -fpartial-inlining -fpeephole -fpeephole2 -fplt
  46              	@ -fprefetch-loop-arrays -freg-struct-return -freorder-blocks
  47              	@ -freorder-functions -frerun-cse-after-loop
  48              	@ -fsched-critical-path-heuristic -fsched-dep-count-heuristic
  49              	@ -fsched-group-heuristic -fsched-interblock -fsched-last-insn-heuristic
  50              	@ -fsched-pressure -fsched-rank-heuristic -fsched-spec
  51              	@ -fsched-spec-insn-heuristic -fsched-stalled-insns-dep -fschedule-insns2
  52              	@ -fsection-anchors -fsemantic-interposition -fshow-column -fshrink-wrap
  53              	@ -fsigned-zeros -fsplit-ivs-in-unroller -fsplit-wide-types -fssa-backprop
  54              	@ -fssa-phiopt -fstdarg-opt -fstrict-aliasing -fstrict-overflow
  55              	@ -fstrict-volatile-bitfields -fsync-libcalls -fthread-jumps
  56              	@ -ftoplevel-reorder -ftrapping-math -ftree-bit-ccp -ftree-builtin-call-dce
  57              	@ -ftree-ccp -ftree-ch -ftree-coalesce-vars -ftree-copy-prop -ftree-cselim
ARM GAS  /tmp/cccnjP7i.s 			page 2


  58              	@ -ftree-dce -ftree-dominator-opts -ftree-dse -ftree-forwprop -ftree-fre
  59              	@ -ftree-loop-if-convert -ftree-loop-im -ftree-loop-ivcanon
  60              	@ -ftree-loop-optimize -ftree-parallelize-loops= -ftree-phiprop -ftree-pre
  61              	@ -ftree-pta -ftree-reassoc -ftree-scev-cprop -ftree-sink -ftree-slsr
  62              	@ -ftree-sra -ftree-switch-conversion -ftree-tail-merge -ftree-ter
  63              	@ -ftree-vrp -funit-at-a-time -fvar-tracking -fvar-tracking-assignments
  64              	@ -fverbose-asm -fzero-initialized-in-bss -mlittle-endian
  65              	@ -mpic-data-is-text-relative -msched-prolog -mthumb
  66              	@ -mvectorize-with-neon-quad
  67              	
  68              		.text
  69              	.Ltext0:
  70              		.cfi_sections	.debug_frame
  71              		.section	.text.Chip_TIMER_Init,"ax",%progbits
  72              		.align	1
  73              		.p2align 2,,3
  74              		.global	Chip_TIMER_Init
  75              		.syntax unified
  76              		.code	16
  77              		.thumb_func
  78              		.fpu softvfp
  79              		.type	Chip_TIMER_Init, %function
  80              	Chip_TIMER_Init:
  81              	.LFB199:
  82              		.file 1 "../../lpc11cx4-library/lpc_chip_11cxx_lib/src/timer_11xx.c"
   1:../../lpc11cx4-library/lpc_chip_11cxx_lib/src/timer_11xx.c **** /*
   2:../../lpc11cx4-library/lpc_chip_11cxx_lib/src/timer_11xx.c ****  * @brief 16/32-bit Timer/PWM control functions
   3:../../lpc11cx4-library/lpc_chip_11cxx_lib/src/timer_11xx.c ****  *
   4:../../lpc11cx4-library/lpc_chip_11cxx_lib/src/timer_11xx.c ****  * @note
   5:../../lpc11cx4-library/lpc_chip_11cxx_lib/src/timer_11xx.c ****  * Copyright(C) NXP Semiconductors, 2012
   6:../../lpc11cx4-library/lpc_chip_11cxx_lib/src/timer_11xx.c ****  * All rights reserved.
   7:../../lpc11cx4-library/lpc_chip_11cxx_lib/src/timer_11xx.c ****  *
   8:../../lpc11cx4-library/lpc_chip_11cxx_lib/src/timer_11xx.c ****  * @par
   9:../../lpc11cx4-library/lpc_chip_11cxx_lib/src/timer_11xx.c ****  * Software that is described herein is for illustrative purposes only
  10:../../lpc11cx4-library/lpc_chip_11cxx_lib/src/timer_11xx.c ****  * which provides customers with programming information regarding the
  11:../../lpc11cx4-library/lpc_chip_11cxx_lib/src/timer_11xx.c ****  * LPC products.  This software is supplied "AS IS" without any warranties of
  12:../../lpc11cx4-library/lpc_chip_11cxx_lib/src/timer_11xx.c ****  * any kind, and NXP Semiconductors and its licensor disclaim any and
  13:../../lpc11cx4-library/lpc_chip_11cxx_lib/src/timer_11xx.c ****  * all warranties, express or implied, including all implied warranties of
  14:../../lpc11cx4-library/lpc_chip_11cxx_lib/src/timer_11xx.c ****  * merchantability, fitness for a particular purpose and non-infringement of
  15:../../lpc11cx4-library/lpc_chip_11cxx_lib/src/timer_11xx.c ****  * intellectual property rights.  NXP Semiconductors assumes no responsibility
  16:../../lpc11cx4-library/lpc_chip_11cxx_lib/src/timer_11xx.c ****  * or liability for the use of the software, conveys no license or rights under any
  17:../../lpc11cx4-library/lpc_chip_11cxx_lib/src/timer_11xx.c ****  * patent, copyright, mask work right, or any other intellectual property rights in
  18:../../lpc11cx4-library/lpc_chip_11cxx_lib/src/timer_11xx.c ****  * or to any products. NXP Semiconductors reserves the right to make changes
  19:../../lpc11cx4-library/lpc_chip_11cxx_lib/src/timer_11xx.c ****  * in the software without notification. NXP Semiconductors also makes no
  20:../../lpc11cx4-library/lpc_chip_11cxx_lib/src/timer_11xx.c ****  * representation or warranty that such application will be suitable for the
  21:../../lpc11cx4-library/lpc_chip_11cxx_lib/src/timer_11xx.c ****  * specified use without further testing or modification.
  22:../../lpc11cx4-library/lpc_chip_11cxx_lib/src/timer_11xx.c ****  *
  23:../../lpc11cx4-library/lpc_chip_11cxx_lib/src/timer_11xx.c ****  * @par
  24:../../lpc11cx4-library/lpc_chip_11cxx_lib/src/timer_11xx.c ****  * Permission to use, copy, modify, and distribute this software and its
  25:../../lpc11cx4-library/lpc_chip_11cxx_lib/src/timer_11xx.c ****  * documentation is hereby granted, under NXP Semiconductors' and its
  26:../../lpc11cx4-library/lpc_chip_11cxx_lib/src/timer_11xx.c ****  * licensor's relevant copyrights in the software, without fee, provided that it
  27:../../lpc11cx4-library/lpc_chip_11cxx_lib/src/timer_11xx.c ****  * is used in conjunction with NXP Semiconductors microcontrollers.  This
  28:../../lpc11cx4-library/lpc_chip_11cxx_lib/src/timer_11xx.c ****  * copyright, permission, and disclaimer notice must appear in all copies of
  29:../../lpc11cx4-library/lpc_chip_11cxx_lib/src/timer_11xx.c ****  * this code.
  30:../../lpc11cx4-library/lpc_chip_11cxx_lib/src/timer_11xx.c ****  */
  31:../../lpc11cx4-library/lpc_chip_11cxx_lib/src/timer_11xx.c **** 
  32:../../lpc11cx4-library/lpc_chip_11cxx_lib/src/timer_11xx.c **** #include "chip.h"
ARM GAS  /tmp/cccnjP7i.s 			page 3


  33:../../lpc11cx4-library/lpc_chip_11cxx_lib/src/timer_11xx.c **** 
  34:../../lpc11cx4-library/lpc_chip_11cxx_lib/src/timer_11xx.c **** /*****************************************************************************
  35:../../lpc11cx4-library/lpc_chip_11cxx_lib/src/timer_11xx.c ****  * Private types/enumerations/variables
  36:../../lpc11cx4-library/lpc_chip_11cxx_lib/src/timer_11xx.c ****  ****************************************************************************/
  37:../../lpc11cx4-library/lpc_chip_11cxx_lib/src/timer_11xx.c **** 
  38:../../lpc11cx4-library/lpc_chip_11cxx_lib/src/timer_11xx.c **** /*****************************************************************************
  39:../../lpc11cx4-library/lpc_chip_11cxx_lib/src/timer_11xx.c ****  * Public types/enumerations/variables
  40:../../lpc11cx4-library/lpc_chip_11cxx_lib/src/timer_11xx.c ****  ****************************************************************************/
  41:../../lpc11cx4-library/lpc_chip_11cxx_lib/src/timer_11xx.c **** 
  42:../../lpc11cx4-library/lpc_chip_11cxx_lib/src/timer_11xx.c **** /*****************************************************************************
  43:../../lpc11cx4-library/lpc_chip_11cxx_lib/src/timer_11xx.c ****  * Private functions
  44:../../lpc11cx4-library/lpc_chip_11cxx_lib/src/timer_11xx.c ****  ****************************************************************************/
  45:../../lpc11cx4-library/lpc_chip_11cxx_lib/src/timer_11xx.c **** 
  46:../../lpc11cx4-library/lpc_chip_11cxx_lib/src/timer_11xx.c **** /* Returns clock index for a specific timer referenced by IP block address */
  47:../../lpc11cx4-library/lpc_chip_11cxx_lib/src/timer_11xx.c **** STATIC CHIP_SYSCTL_CLOCK_T Chip_TIMER_GetClock(LPC_TIMER_T *pTMR)
  48:../../lpc11cx4-library/lpc_chip_11cxx_lib/src/timer_11xx.c **** {
  49:../../lpc11cx4-library/lpc_chip_11cxx_lib/src/timer_11xx.c ****   CHIP_SYSCTL_CLOCK_T tmrClk;
  50:../../lpc11cx4-library/lpc_chip_11cxx_lib/src/timer_11xx.c ****   if (pTMR == LPC_TIMER32_1) {
  51:../../lpc11cx4-library/lpc_chip_11cxx_lib/src/timer_11xx.c **** 	  tmrClk = SYSCTL_CLOCK_CT32B1;
  52:../../lpc11cx4-library/lpc_chip_11cxx_lib/src/timer_11xx.c ****   }
  53:../../lpc11cx4-library/lpc_chip_11cxx_lib/src/timer_11xx.c ****   else if (pTMR == LPC_TIMER16_0) {
  54:../../lpc11cx4-library/lpc_chip_11cxx_lib/src/timer_11xx.c **** 	  tmrClk = SYSCTL_CLOCK_CT16B0;
  55:../../lpc11cx4-library/lpc_chip_11cxx_lib/src/timer_11xx.c ****   }
  56:../../lpc11cx4-library/lpc_chip_11cxx_lib/src/timer_11xx.c ****   else if (pTMR == LPC_TIMER16_1) {
  57:../../lpc11cx4-library/lpc_chip_11cxx_lib/src/timer_11xx.c **** 	  tmrClk = SYSCTL_CLOCK_CT16B1;
  58:../../lpc11cx4-library/lpc_chip_11cxx_lib/src/timer_11xx.c ****   }
  59:../../lpc11cx4-library/lpc_chip_11cxx_lib/src/timer_11xx.c ****   else {
  60:../../lpc11cx4-library/lpc_chip_11cxx_lib/src/timer_11xx.c **** 	  tmrClk = SYSCTL_CLOCK_CT32B0;
  61:../../lpc11cx4-library/lpc_chip_11cxx_lib/src/timer_11xx.c ****   }
  62:../../lpc11cx4-library/lpc_chip_11cxx_lib/src/timer_11xx.c **** 
  63:../../lpc11cx4-library/lpc_chip_11cxx_lib/src/timer_11xx.c ****   return tmrClk;
  64:../../lpc11cx4-library/lpc_chip_11cxx_lib/src/timer_11xx.c **** }
  65:../../lpc11cx4-library/lpc_chip_11cxx_lib/src/timer_11xx.c **** 
  66:../../lpc11cx4-library/lpc_chip_11cxx_lib/src/timer_11xx.c **** /*****************************************************************************
  67:../../lpc11cx4-library/lpc_chip_11cxx_lib/src/timer_11xx.c ****  * Public functions
  68:../../lpc11cx4-library/lpc_chip_11cxx_lib/src/timer_11xx.c ****  ****************************************************************************/
  69:../../lpc11cx4-library/lpc_chip_11cxx_lib/src/timer_11xx.c **** 
  70:../../lpc11cx4-library/lpc_chip_11cxx_lib/src/timer_11xx.c **** /* Initialize a timer */
  71:../../lpc11cx4-library/lpc_chip_11cxx_lib/src/timer_11xx.c **** void Chip_TIMER_Init(LPC_TIMER_T *pTMR)
  72:../../lpc11cx4-library/lpc_chip_11cxx_lib/src/timer_11xx.c **** {
  83              		.loc 1 72 0
  84              		.cfi_startproc
  85              		@ args = 0, pretend = 0, frame = 0
  86              		@ frame_needed = 0, uses_anonymous_args = 0
  87              	.LVL0:
  88              	.LBB10:
  89              	.LBB11:
  50:../../lpc11cx4-library/lpc_chip_11cxx_lib/src/timer_11xx.c **** 	  tmrClk = SYSCTL_CLOCK_CT32B1;
  90              		.loc 1 50 0
  91 0000 0C4B     		ldr	r3, .L8	@ tmp114,
  92              	.LBE11:
  93              	.LBE10:
  94              		.loc 1 72 0
  95 0002 10B5     		push	{r4, lr}	@
  96              		.cfi_def_cfa_offset 8
  97              		.cfi_offset 4, -8
  98              		.cfi_offset 14, -4
ARM GAS  /tmp/cccnjP7i.s 			page 4


  99              	.LBB14:
 100              	.LBB12:
  50:../../lpc11cx4-library/lpc_chip_11cxx_lib/src/timer_11xx.c **** 	  tmrClk = SYSCTL_CLOCK_CT32B1;
 101              		.loc 1 50 0
 102 0004 9842     		cmp	r0, r3	@ pTMR, tmp114
 103 0006 0DD0     		beq	.L3	@,
  53:../../lpc11cx4-library/lpc_chip_11cxx_lib/src/timer_11xx.c **** 	  tmrClk = SYSCTL_CLOCK_CT16B0;
 104              		.loc 1 53 0
 105 0008 0B4B     		ldr	r3, .L8+4	@ tmp115,
 106 000a 9842     		cmp	r0, r3	@ pTMR, tmp115
 107 000c 0DD0     		beq	.L4	@,
  56:../../lpc11cx4-library/lpc_chip_11cxx_lib/src/timer_11xx.c **** 	  tmrClk = SYSCTL_CLOCK_CT16B1;
 108              		.loc 1 56 0
 109 000e 8024     		movs	r4, #128	@ prephitmp_12,
 110 0010 0A4B     		ldr	r3, .L8+8	@ tmp116,
 111 0012 A400     		lsls	r4, r4, #2	@ prephitmp_12, prephitmp_12,
 112 0014 9842     		cmp	r0, r3	@ pTMR, tmp116
 113 0016 0AD0     		beq	.L7	@,
 114              	.L2:
 115              	.LVL1:
 116              	.LBE12:
 117              	.LBE14:
 118              	.LBB15:
 119              	.LBB16:
 120              		.file 2 "../../lpc11cx4-library/lpc_chip_11cxx_lib/inc/clock_11xx.h"
   1:../../lpc11cx4-library/lpc_chip_11cxx_lib/inc/clock_11xx.h **** /*
   2:../../lpc11cx4-library/lpc_chip_11cxx_lib/inc/clock_11xx.h ****  * @brief LPC11XX Clock control functions
   3:../../lpc11cx4-library/lpc_chip_11cxx_lib/inc/clock_11xx.h ****  *
   4:../../lpc11cx4-library/lpc_chip_11cxx_lib/inc/clock_11xx.h ****  * @note
   5:../../lpc11cx4-library/lpc_chip_11cxx_lib/inc/clock_11xx.h ****  * Copyright(C) NXP Semiconductors, 2012
   6:../../lpc11cx4-library/lpc_chip_11cxx_lib/inc/clock_11xx.h ****  * All rights reserved.
   7:../../lpc11cx4-library/lpc_chip_11cxx_lib/inc/clock_11xx.h ****  *
   8:../../lpc11cx4-library/lpc_chip_11cxx_lib/inc/clock_11xx.h ****  * @par
   9:../../lpc11cx4-library/lpc_chip_11cxx_lib/inc/clock_11xx.h ****  * Software that is described herein is for illustrative purposes only
  10:../../lpc11cx4-library/lpc_chip_11cxx_lib/inc/clock_11xx.h ****  * which provides customers with programming information regarding the
  11:../../lpc11cx4-library/lpc_chip_11cxx_lib/inc/clock_11xx.h ****  * LPC products.  This software is supplied "AS IS" without any warranties of
  12:../../lpc11cx4-library/lpc_chip_11cxx_lib/inc/clock_11xx.h ****  * any kind, and NXP Semiconductors and its licensor disclaim any and
  13:../../lpc11cx4-library/lpc_chip_11cxx_lib/inc/clock_11xx.h ****  * all warranties, express or implied, including all implied warranties of
  14:../../lpc11cx4-library/lpc_chip_11cxx_lib/inc/clock_11xx.h ****  * merchantability, fitness for a particular purpose and non-infringement of
  15:../../lpc11cx4-library/lpc_chip_11cxx_lib/inc/clock_11xx.h ****  * intellectual property rights.  NXP Semiconductors assumes no responsibility
  16:../../lpc11cx4-library/lpc_chip_11cxx_lib/inc/clock_11xx.h ****  * or liability for the use of the software, conveys no license or rights under any
  17:../../lpc11cx4-library/lpc_chip_11cxx_lib/inc/clock_11xx.h ****  * patent, copyright, mask work right, or any other intellectual property rights in
  18:../../lpc11cx4-library/lpc_chip_11cxx_lib/inc/clock_11xx.h ****  * or to any products. NXP Semiconductors reserves the right to make changes
  19:../../lpc11cx4-library/lpc_chip_11cxx_lib/inc/clock_11xx.h ****  * in the software without notification. NXP Semiconductors also makes no
  20:../../lpc11cx4-library/lpc_chip_11cxx_lib/inc/clock_11xx.h ****  * representation or warranty that such application will be suitable for the
  21:../../lpc11cx4-library/lpc_chip_11cxx_lib/inc/clock_11xx.h ****  * specified use without further testing or modification.
  22:../../lpc11cx4-library/lpc_chip_11cxx_lib/inc/clock_11xx.h ****  *
  23:../../lpc11cx4-library/lpc_chip_11cxx_lib/inc/clock_11xx.h ****  * @par
  24:../../lpc11cx4-library/lpc_chip_11cxx_lib/inc/clock_11xx.h ****  * Permission to use, copy, modify, and distribute this software and its
  25:../../lpc11cx4-library/lpc_chip_11cxx_lib/inc/clock_11xx.h ****  * documentation is hereby granted, under NXP Semiconductors' and its
  26:../../lpc11cx4-library/lpc_chip_11cxx_lib/inc/clock_11xx.h ****  * licensor's relevant copyrights in the software, without fee, provided that it
  27:../../lpc11cx4-library/lpc_chip_11cxx_lib/inc/clock_11xx.h ****  * is used in conjunction with NXP Semiconductors microcontrollers.  This
  28:../../lpc11cx4-library/lpc_chip_11cxx_lib/inc/clock_11xx.h ****  * copyright, permission, and disclaimer notice must appear in all copies of
  29:../../lpc11cx4-library/lpc_chip_11cxx_lib/inc/clock_11xx.h ****  * this code.
  30:../../lpc11cx4-library/lpc_chip_11cxx_lib/inc/clock_11xx.h ****  */
  31:../../lpc11cx4-library/lpc_chip_11cxx_lib/inc/clock_11xx.h **** 
  32:../../lpc11cx4-library/lpc_chip_11cxx_lib/inc/clock_11xx.h **** #ifndef __CLOCK_11XX_H_
ARM GAS  /tmp/cccnjP7i.s 			page 5


  33:../../lpc11cx4-library/lpc_chip_11cxx_lib/inc/clock_11xx.h **** #define __CLOCK_11XX_H_
  34:../../lpc11cx4-library/lpc_chip_11cxx_lib/inc/clock_11xx.h **** 
  35:../../lpc11cx4-library/lpc_chip_11cxx_lib/inc/clock_11xx.h **** #ifdef __cplusplus
  36:../../lpc11cx4-library/lpc_chip_11cxx_lib/inc/clock_11xx.h **** extern "C" {
  37:../../lpc11cx4-library/lpc_chip_11cxx_lib/inc/clock_11xx.h **** #endif
  38:../../lpc11cx4-library/lpc_chip_11cxx_lib/inc/clock_11xx.h **** 
  39:../../lpc11cx4-library/lpc_chip_11cxx_lib/inc/clock_11xx.h **** /** @defgroup CLOCK_11XX CHIP: LPC11xx Clock Control block driver
  40:../../lpc11cx4-library/lpc_chip_11cxx_lib/inc/clock_11xx.h ****  * @ingroup CHIP_11XX_Drivers
  41:../../lpc11cx4-library/lpc_chip_11cxx_lib/inc/clock_11xx.h ****  * @{
  42:../../lpc11cx4-library/lpc_chip_11cxx_lib/inc/clock_11xx.h ****  */
  43:../../lpc11cx4-library/lpc_chip_11cxx_lib/inc/clock_11xx.h **** 
  44:../../lpc11cx4-library/lpc_chip_11cxx_lib/inc/clock_11xx.h **** /** Internal oscillator frequency */
  45:../../lpc11cx4-library/lpc_chip_11cxx_lib/inc/clock_11xx.h **** #define SYSCTL_IRC_FREQ (12000000)
  46:../../lpc11cx4-library/lpc_chip_11cxx_lib/inc/clock_11xx.h **** 
  47:../../lpc11cx4-library/lpc_chip_11cxx_lib/inc/clock_11xx.h **** /**
  48:../../lpc11cx4-library/lpc_chip_11cxx_lib/inc/clock_11xx.h ****  * @brief	Set System PLL divider values
  49:../../lpc11cx4-library/lpc_chip_11cxx_lib/inc/clock_11xx.h ****  * @param	msel    : PLL feedback divider value. M = msel + 1.
  50:../../lpc11cx4-library/lpc_chip_11cxx_lib/inc/clock_11xx.h ****  * @param	psel    : PLL post divider value. P =  (1<<psel).
  51:../../lpc11cx4-library/lpc_chip_11cxx_lib/inc/clock_11xx.h ****  * @return	Nothing
  52:../../lpc11cx4-library/lpc_chip_11cxx_lib/inc/clock_11xx.h ****  * @note	See the user manual for how to setup the PLL.
  53:../../lpc11cx4-library/lpc_chip_11cxx_lib/inc/clock_11xx.h ****  */
  54:../../lpc11cx4-library/lpc_chip_11cxx_lib/inc/clock_11xx.h **** STATIC INLINE void Chip_Clock_SetupSystemPLL(uint8_t msel, uint8_t psel)
  55:../../lpc11cx4-library/lpc_chip_11cxx_lib/inc/clock_11xx.h **** {
  56:../../lpc11cx4-library/lpc_chip_11cxx_lib/inc/clock_11xx.h **** 	LPC_SYSCTL->SYSPLLCTRL = (msel & 0x1F) | ((psel & 0x3) << 5);
  57:../../lpc11cx4-library/lpc_chip_11cxx_lib/inc/clock_11xx.h **** }
  58:../../lpc11cx4-library/lpc_chip_11cxx_lib/inc/clock_11xx.h **** 
  59:../../lpc11cx4-library/lpc_chip_11cxx_lib/inc/clock_11xx.h **** /**
  60:../../lpc11cx4-library/lpc_chip_11cxx_lib/inc/clock_11xx.h ****  * @brief	Read System PLL lock status
  61:../../lpc11cx4-library/lpc_chip_11cxx_lib/inc/clock_11xx.h ****  * @return	true of the PLL is locked. false if not locked
  62:../../lpc11cx4-library/lpc_chip_11cxx_lib/inc/clock_11xx.h ****  */
  63:../../lpc11cx4-library/lpc_chip_11cxx_lib/inc/clock_11xx.h **** STATIC INLINE bool Chip_Clock_IsSystemPLLLocked(void)
  64:../../lpc11cx4-library/lpc_chip_11cxx_lib/inc/clock_11xx.h **** {
  65:../../lpc11cx4-library/lpc_chip_11cxx_lib/inc/clock_11xx.h **** 	return (bool) ((LPC_SYSCTL->SYSPLLSTAT & 1) != 0);
  66:../../lpc11cx4-library/lpc_chip_11cxx_lib/inc/clock_11xx.h **** }
  67:../../lpc11cx4-library/lpc_chip_11cxx_lib/inc/clock_11xx.h **** 
  68:../../lpc11cx4-library/lpc_chip_11cxx_lib/inc/clock_11xx.h **** /**
  69:../../lpc11cx4-library/lpc_chip_11cxx_lib/inc/clock_11xx.h ****  * Clock sources for system and USB PLLs
  70:../../lpc11cx4-library/lpc_chip_11cxx_lib/inc/clock_11xx.h ****  */
  71:../../lpc11cx4-library/lpc_chip_11cxx_lib/inc/clock_11xx.h **** typedef enum CHIP_SYSCTL_PLLCLKSRC {
  72:../../lpc11cx4-library/lpc_chip_11cxx_lib/inc/clock_11xx.h **** 	SYSCTL_PLLCLKSRC_IRC = 0,		/*!< Internal oscillator in */
  73:../../lpc11cx4-library/lpc_chip_11cxx_lib/inc/clock_11xx.h **** 	SYSCTL_PLLCLKSRC_MAINOSC,		/*!< Crystal (main) oscillator in */
  74:../../lpc11cx4-library/lpc_chip_11cxx_lib/inc/clock_11xx.h **** #if defined(CHIP_LPC11AXX)
  75:../../lpc11cx4-library/lpc_chip_11cxx_lib/inc/clock_11xx.h **** 	SYSCTL_PLLCLKSRC_EXT_CLKIN,	/*!< External clock in (11Axx only) */
  76:../../lpc11cx4-library/lpc_chip_11cxx_lib/inc/clock_11xx.h **** #else
  77:../../lpc11cx4-library/lpc_chip_11cxx_lib/inc/clock_11xx.h **** 	SYSCTL_PLLCLKSRC_RESERVED1,	/*!< Reserved */
  78:../../lpc11cx4-library/lpc_chip_11cxx_lib/inc/clock_11xx.h **** #endif
  79:../../lpc11cx4-library/lpc_chip_11cxx_lib/inc/clock_11xx.h **** 	SYSCTL_PLLCLKSRC_RESERVED2,	/*!< Reserved */
  80:../../lpc11cx4-library/lpc_chip_11cxx_lib/inc/clock_11xx.h **** } CHIP_SYSCTL_PLLCLKSRC_T;
  81:../../lpc11cx4-library/lpc_chip_11cxx_lib/inc/clock_11xx.h **** 
  82:../../lpc11cx4-library/lpc_chip_11cxx_lib/inc/clock_11xx.h **** /**
  83:../../lpc11cx4-library/lpc_chip_11cxx_lib/inc/clock_11xx.h ****  * @brief	Set System PLL clock source
  84:../../lpc11cx4-library/lpc_chip_11cxx_lib/inc/clock_11xx.h ****  * @param	src	: Clock source for system PLL
  85:../../lpc11cx4-library/lpc_chip_11cxx_lib/inc/clock_11xx.h ****  * @return	Nothing
  86:../../lpc11cx4-library/lpc_chip_11cxx_lib/inc/clock_11xx.h ****  * @note	This function will also toggle the clock source update register
  87:../../lpc11cx4-library/lpc_chip_11cxx_lib/inc/clock_11xx.h ****  * to update the clock source.
  88:../../lpc11cx4-library/lpc_chip_11cxx_lib/inc/clock_11xx.h ****  */
  89:../../lpc11cx4-library/lpc_chip_11cxx_lib/inc/clock_11xx.h **** void Chip_Clock_SetSystemPLLSource(CHIP_SYSCTL_PLLCLKSRC_T src);
ARM GAS  /tmp/cccnjP7i.s 			page 6


  90:../../lpc11cx4-library/lpc_chip_11cxx_lib/inc/clock_11xx.h **** 
  91:../../lpc11cx4-library/lpc_chip_11cxx_lib/inc/clock_11xx.h **** #if defined(CHIP_LPC11UXX)
  92:../../lpc11cx4-library/lpc_chip_11cxx_lib/inc/clock_11xx.h **** /**
  93:../../lpc11cx4-library/lpc_chip_11cxx_lib/inc/clock_11xx.h ****  * @brief	Set USB PLL divider values
  94:../../lpc11cx4-library/lpc_chip_11cxx_lib/inc/clock_11xx.h ****  * @param	msel    : PLL feedback divider value. M = msel + 1.
  95:../../lpc11cx4-library/lpc_chip_11cxx_lib/inc/clock_11xx.h ****  * @param	psel    : PLL post divider value. P = (1<<psel).
  96:../../lpc11cx4-library/lpc_chip_11cxx_lib/inc/clock_11xx.h ****  * @return	Nothing
  97:../../lpc11cx4-library/lpc_chip_11cxx_lib/inc/clock_11xx.h ****  * @note	See the user manual for how to setup the PLL.
  98:../../lpc11cx4-library/lpc_chip_11cxx_lib/inc/clock_11xx.h ****  */
  99:../../lpc11cx4-library/lpc_chip_11cxx_lib/inc/clock_11xx.h **** STATIC INLINE void Chip_Clock_SetupUSBPLL(uint8_t msel, uint8_t psel)
 100:../../lpc11cx4-library/lpc_chip_11cxx_lib/inc/clock_11xx.h **** {
 101:../../lpc11cx4-library/lpc_chip_11cxx_lib/inc/clock_11xx.h **** 	LPC_SYSCTL->USBPLLCTRL = (msel & 0x1F) | ((psel & 0x3) << 5);
 102:../../lpc11cx4-library/lpc_chip_11cxx_lib/inc/clock_11xx.h **** }
 103:../../lpc11cx4-library/lpc_chip_11cxx_lib/inc/clock_11xx.h **** 
 104:../../lpc11cx4-library/lpc_chip_11cxx_lib/inc/clock_11xx.h **** /**
 105:../../lpc11cx4-library/lpc_chip_11cxx_lib/inc/clock_11xx.h ****  * @brief	Read USB PLL lock status
 106:../../lpc11cx4-library/lpc_chip_11cxx_lib/inc/clock_11xx.h ****  * @return	true of the PLL is locked. false if not locked
 107:../../lpc11cx4-library/lpc_chip_11cxx_lib/inc/clock_11xx.h ****  */
 108:../../lpc11cx4-library/lpc_chip_11cxx_lib/inc/clock_11xx.h **** STATIC INLINE bool Chip_Clock_IsUSBPLLLocked(void)
 109:../../lpc11cx4-library/lpc_chip_11cxx_lib/inc/clock_11xx.h **** {
 110:../../lpc11cx4-library/lpc_chip_11cxx_lib/inc/clock_11xx.h **** 	return (bool) ((LPC_SYSCTL->USBPLLSTAT & 1) != 0);
 111:../../lpc11cx4-library/lpc_chip_11cxx_lib/inc/clock_11xx.h **** }
 112:../../lpc11cx4-library/lpc_chip_11cxx_lib/inc/clock_11xx.h **** 
 113:../../lpc11cx4-library/lpc_chip_11cxx_lib/inc/clock_11xx.h **** /**
 114:../../lpc11cx4-library/lpc_chip_11cxx_lib/inc/clock_11xx.h ****  * @brief	Set USB PLL clock source
 115:../../lpc11cx4-library/lpc_chip_11cxx_lib/inc/clock_11xx.h ****  * @param	src	: Clock source for USB PLL
 116:../../lpc11cx4-library/lpc_chip_11cxx_lib/inc/clock_11xx.h ****  * @return	Nothing
 117:../../lpc11cx4-library/lpc_chip_11cxx_lib/inc/clock_11xx.h ****  * @note	This function will also toggle the clock source update register
 118:../../lpc11cx4-library/lpc_chip_11cxx_lib/inc/clock_11xx.h ****  * to update the clock source.
 119:../../lpc11cx4-library/lpc_chip_11cxx_lib/inc/clock_11xx.h ****  */
 120:../../lpc11cx4-library/lpc_chip_11cxx_lib/inc/clock_11xx.h **** void Chip_Clock_SetUSBPLLSource(CHIP_SYSCTL_PLLCLKSRC_T src);
 121:../../lpc11cx4-library/lpc_chip_11cxx_lib/inc/clock_11xx.h **** 
 122:../../lpc11cx4-library/lpc_chip_11cxx_lib/inc/clock_11xx.h **** #endif /*defined(CHIP_LPC11UXX)*/
 123:../../lpc11cx4-library/lpc_chip_11cxx_lib/inc/clock_11xx.h **** 
 124:../../lpc11cx4-library/lpc_chip_11cxx_lib/inc/clock_11xx.h **** /**
 125:../../lpc11cx4-library/lpc_chip_11cxx_lib/inc/clock_11xx.h ****  * @brief	Bypass System Oscillator and set oscillator frequency range
 126:../../lpc11cx4-library/lpc_chip_11cxx_lib/inc/clock_11xx.h ****  * @param	bypass	: Flag to bypass oscillator
 127:../../lpc11cx4-library/lpc_chip_11cxx_lib/inc/clock_11xx.h ****  * @param	highfr	: Flag to set oscillator range from 15-25 MHz
 128:../../lpc11cx4-library/lpc_chip_11cxx_lib/inc/clock_11xx.h ****  * @return	Nothing
 129:../../lpc11cx4-library/lpc_chip_11cxx_lib/inc/clock_11xx.h ****  * @note	Sets the PLL input to bypass the oscillator. This would be
 130:../../lpc11cx4-library/lpc_chip_11cxx_lib/inc/clock_11xx.h ****  * used if an external clock that is not an oscillator is attached
 131:../../lpc11cx4-library/lpc_chip_11cxx_lib/inc/clock_11xx.h ****  * to the XTALIN pin.
 132:../../lpc11cx4-library/lpc_chip_11cxx_lib/inc/clock_11xx.h ****  */
 133:../../lpc11cx4-library/lpc_chip_11cxx_lib/inc/clock_11xx.h **** void Chip_Clock_SetPLLBypass(bool bypass, bool highfr);
 134:../../lpc11cx4-library/lpc_chip_11cxx_lib/inc/clock_11xx.h **** 
 135:../../lpc11cx4-library/lpc_chip_11cxx_lib/inc/clock_11xx.h **** /**
 136:../../lpc11cx4-library/lpc_chip_11cxx_lib/inc/clock_11xx.h ****  * Watchdog and low frequency oscillator frequencies plus or minus 40%
 137:../../lpc11cx4-library/lpc_chip_11cxx_lib/inc/clock_11xx.h ****  */
 138:../../lpc11cx4-library/lpc_chip_11cxx_lib/inc/clock_11xx.h **** typedef enum CHIP_WDTLFO_OSC {
 139:../../lpc11cx4-library/lpc_chip_11cxx_lib/inc/clock_11xx.h **** 	WDTLFO_OSC_ILLEGAL,
 140:../../lpc11cx4-library/lpc_chip_11cxx_lib/inc/clock_11xx.h **** 	WDTLFO_OSC_0_60,	/*!< 0.6 MHz watchdog/LFO rate */
 141:../../lpc11cx4-library/lpc_chip_11cxx_lib/inc/clock_11xx.h **** 	WDTLFO_OSC_1_05,	/*!< 1.05 MHz watchdog/LFO rate */
 142:../../lpc11cx4-library/lpc_chip_11cxx_lib/inc/clock_11xx.h **** 	WDTLFO_OSC_1_40,	/*!< 1.4 MHz watchdog/LFO rate */
 143:../../lpc11cx4-library/lpc_chip_11cxx_lib/inc/clock_11xx.h **** 	WDTLFO_OSC_1_75,	/*!< 1.75 MHz watchdog/LFO rate */
 144:../../lpc11cx4-library/lpc_chip_11cxx_lib/inc/clock_11xx.h **** 	WDTLFO_OSC_2_10,	/*!< 2.1 MHz watchdog/LFO rate */
 145:../../lpc11cx4-library/lpc_chip_11cxx_lib/inc/clock_11xx.h **** 	WDTLFO_OSC_2_40,	/*!< 2.4 MHz watchdog/LFO rate */
 146:../../lpc11cx4-library/lpc_chip_11cxx_lib/inc/clock_11xx.h **** 	WDTLFO_OSC_2_70,	/*!< 2.7 MHz watchdog/LFO rate */
ARM GAS  /tmp/cccnjP7i.s 			page 7


 147:../../lpc11cx4-library/lpc_chip_11cxx_lib/inc/clock_11xx.h **** 	WDTLFO_OSC_3_00,	/*!< 3.0 MHz watchdog/LFO rate */
 148:../../lpc11cx4-library/lpc_chip_11cxx_lib/inc/clock_11xx.h **** 	WDTLFO_OSC_3_25,	/*!< 3.25 MHz watchdog/LFO rate */
 149:../../lpc11cx4-library/lpc_chip_11cxx_lib/inc/clock_11xx.h **** 	WDTLFO_OSC_3_50,	/*!< 3.5 MHz watchdog/LFO rate */
 150:../../lpc11cx4-library/lpc_chip_11cxx_lib/inc/clock_11xx.h **** 	WDTLFO_OSC_3_75,	/*!< 3.75 MHz watchdog/LFO rate */
 151:../../lpc11cx4-library/lpc_chip_11cxx_lib/inc/clock_11xx.h **** 	WDTLFO_OSC_4_00,	/*!< 4.0 MHz watchdog/LFO rate */
 152:../../lpc11cx4-library/lpc_chip_11cxx_lib/inc/clock_11xx.h **** 	WDTLFO_OSC_4_20,	/*!< 4.2 MHz watchdog/LFO rate */
 153:../../lpc11cx4-library/lpc_chip_11cxx_lib/inc/clock_11xx.h **** 	WDTLFO_OSC_4_40,	/*!< 4.4 MHz watchdog/LFO rate */
 154:../../lpc11cx4-library/lpc_chip_11cxx_lib/inc/clock_11xx.h **** 	WDTLFO_OSC_4_60		/*!< 4.6 MHz watchdog/LFO rate */
 155:../../lpc11cx4-library/lpc_chip_11cxx_lib/inc/clock_11xx.h **** } CHIP_WDTLFO_OSC_T;
 156:../../lpc11cx4-library/lpc_chip_11cxx_lib/inc/clock_11xx.h **** 
 157:../../lpc11cx4-library/lpc_chip_11cxx_lib/inc/clock_11xx.h **** /**
 158:../../lpc11cx4-library/lpc_chip_11cxx_lib/inc/clock_11xx.h ****  * @brief	Setup Watchdog oscillator rate and divider
 159:../../lpc11cx4-library/lpc_chip_11cxx_lib/inc/clock_11xx.h ****  * @param	wdtclk	: Selected watchdog clock rate
 160:../../lpc11cx4-library/lpc_chip_11cxx_lib/inc/clock_11xx.h ****  * @param	div		: Watchdog divider value, even value between 2 and 64
 161:../../lpc11cx4-library/lpc_chip_11cxx_lib/inc/clock_11xx.h ****  * @return	Nothing
 162:../../lpc11cx4-library/lpc_chip_11cxx_lib/inc/clock_11xx.h ****  * @note	Watchdog rate = selected rate divided by divider rate
 163:../../lpc11cx4-library/lpc_chip_11cxx_lib/inc/clock_11xx.h ****  */
 164:../../lpc11cx4-library/lpc_chip_11cxx_lib/inc/clock_11xx.h **** STATIC INLINE void Chip_Clock_SetWDTOSC(CHIP_WDTLFO_OSC_T wdtclk, uint8_t div)
 165:../../lpc11cx4-library/lpc_chip_11cxx_lib/inc/clock_11xx.h **** {
 166:../../lpc11cx4-library/lpc_chip_11cxx_lib/inc/clock_11xx.h **** 	LPC_SYSCTL->WDTOSCCTRL  = (((uint32_t) wdtclk) << 5) | ((div >> 1) - 1);
 167:../../lpc11cx4-library/lpc_chip_11cxx_lib/inc/clock_11xx.h **** }
 168:../../lpc11cx4-library/lpc_chip_11cxx_lib/inc/clock_11xx.h **** 
 169:../../lpc11cx4-library/lpc_chip_11cxx_lib/inc/clock_11xx.h **** #if defined(CHIP_LPC11AXX)
 170:../../lpc11cx4-library/lpc_chip_11cxx_lib/inc/clock_11xx.h **** /**
 171:../../lpc11cx4-library/lpc_chip_11cxx_lib/inc/clock_11xx.h ****  * @brief	Setup low frequency oscillator rate and divider
 172:../../lpc11cx4-library/lpc_chip_11cxx_lib/inc/clock_11xx.h ****  * @param	lfoclk	: Selected low frequency clock rate
 173:../../lpc11cx4-library/lpc_chip_11cxx_lib/inc/clock_11xx.h ****  * @param	div		: Low frequency divider value, even value between 2 and 64
 174:../../lpc11cx4-library/lpc_chip_11cxx_lib/inc/clock_11xx.h ****  * @return	Nothing
 175:../../lpc11cx4-library/lpc_chip_11cxx_lib/inc/clock_11xx.h ****  * @note	Low frequency oscillator rate = selected rate divided by divider rate
 176:../../lpc11cx4-library/lpc_chip_11cxx_lib/inc/clock_11xx.h ****  */
 177:../../lpc11cx4-library/lpc_chip_11cxx_lib/inc/clock_11xx.h **** STATIC INLINE void Chip_Clock_SetLFOSC(CHIP_WDTLFO_OSC_T lfoclk, uint8_t div)
 178:../../lpc11cx4-library/lpc_chip_11cxx_lib/inc/clock_11xx.h **** {
 179:../../lpc11cx4-library/lpc_chip_11cxx_lib/inc/clock_11xx.h **** 	LPC_SYSCTL->LFOSCCTRL  = (((uint32_t) lfoclk) << 5) | ((div >> 1) - 1);
 180:../../lpc11cx4-library/lpc_chip_11cxx_lib/inc/clock_11xx.h **** }
 181:../../lpc11cx4-library/lpc_chip_11cxx_lib/inc/clock_11xx.h **** 
 182:../../lpc11cx4-library/lpc_chip_11cxx_lib/inc/clock_11xx.h **** #endif /*CHIP_LPC11AXX*/
 183:../../lpc11cx4-library/lpc_chip_11cxx_lib/inc/clock_11xx.h **** 
 184:../../lpc11cx4-library/lpc_chip_11cxx_lib/inc/clock_11xx.h **** /**
 185:../../lpc11cx4-library/lpc_chip_11cxx_lib/inc/clock_11xx.h ****  * Clock sources for main system clock
 186:../../lpc11cx4-library/lpc_chip_11cxx_lib/inc/clock_11xx.h ****  */
 187:../../lpc11cx4-library/lpc_chip_11cxx_lib/inc/clock_11xx.h **** typedef enum CHIP_SYSCTL_MAINCLKSRC {
 188:../../lpc11cx4-library/lpc_chip_11cxx_lib/inc/clock_11xx.h **** 	SYSCTL_MAINCLKSRC_IRC = 0,		/*!< Internal oscillator */
 189:../../lpc11cx4-library/lpc_chip_11cxx_lib/inc/clock_11xx.h **** 	SYSCTL_MAINCLKSRC_PLLIN,		/*!< System PLL input */
 190:../../lpc11cx4-library/lpc_chip_11cxx_lib/inc/clock_11xx.h **** 	SYSCTL_MAINCLKSRC_LFOSC,		/*!< LF oscillator rate (11Axx only) */
 191:../../lpc11cx4-library/lpc_chip_11cxx_lib/inc/clock_11xx.h **** 	SYSCTL_MAINCLKSRC_WDTOSC = SYSCTL_MAINCLKSRC_LFOSC,	/*!< Watchdog oscillator rate */
 192:../../lpc11cx4-library/lpc_chip_11cxx_lib/inc/clock_11xx.h **** 	SYSCTL_MAINCLKSRC_PLLOUT,		/*!< System PLL output */
 193:../../lpc11cx4-library/lpc_chip_11cxx_lib/inc/clock_11xx.h **** } CHIP_SYSCTL_MAINCLKSRC_T;
 194:../../lpc11cx4-library/lpc_chip_11cxx_lib/inc/clock_11xx.h **** 
 195:../../lpc11cx4-library/lpc_chip_11cxx_lib/inc/clock_11xx.h **** /**
 196:../../lpc11cx4-library/lpc_chip_11cxx_lib/inc/clock_11xx.h ****  * @brief	Set main system clock source
 197:../../lpc11cx4-library/lpc_chip_11cxx_lib/inc/clock_11xx.h ****  * @param	src	: Clock source for main system
 198:../../lpc11cx4-library/lpc_chip_11cxx_lib/inc/clock_11xx.h ****  * @return	Nothing
 199:../../lpc11cx4-library/lpc_chip_11cxx_lib/inc/clock_11xx.h ****  * @note	This function will also toggle the clock source update register
 200:../../lpc11cx4-library/lpc_chip_11cxx_lib/inc/clock_11xx.h ****  * to update the clock source.
 201:../../lpc11cx4-library/lpc_chip_11cxx_lib/inc/clock_11xx.h ****  */
 202:../../lpc11cx4-library/lpc_chip_11cxx_lib/inc/clock_11xx.h **** void Chip_Clock_SetMainClockSource(CHIP_SYSCTL_MAINCLKSRC_T src);
 203:../../lpc11cx4-library/lpc_chip_11cxx_lib/inc/clock_11xx.h **** 
ARM GAS  /tmp/cccnjP7i.s 			page 8


 204:../../lpc11cx4-library/lpc_chip_11cxx_lib/inc/clock_11xx.h **** /**
 205:../../lpc11cx4-library/lpc_chip_11cxx_lib/inc/clock_11xx.h ****  * @brief   Returns the main clock source
 206:../../lpc11cx4-library/lpc_chip_11cxx_lib/inc/clock_11xx.h ****  * @return	Which clock is used for the core clock source?
 207:../../lpc11cx4-library/lpc_chip_11cxx_lib/inc/clock_11xx.h ****  */
 208:../../lpc11cx4-library/lpc_chip_11cxx_lib/inc/clock_11xx.h **** STATIC INLINE CHIP_SYSCTL_MAINCLKSRC_T Chip_Clock_GetMainClockSource(void)
 209:../../lpc11cx4-library/lpc_chip_11cxx_lib/inc/clock_11xx.h **** {
 210:../../lpc11cx4-library/lpc_chip_11cxx_lib/inc/clock_11xx.h **** 	return (CHIP_SYSCTL_MAINCLKSRC_T) (LPC_SYSCTL->MAINCLKSEL);
 211:../../lpc11cx4-library/lpc_chip_11cxx_lib/inc/clock_11xx.h **** }
 212:../../lpc11cx4-library/lpc_chip_11cxx_lib/inc/clock_11xx.h **** 
 213:../../lpc11cx4-library/lpc_chip_11cxx_lib/inc/clock_11xx.h **** /**
 214:../../lpc11cx4-library/lpc_chip_11cxx_lib/inc/clock_11xx.h ****  * @brief	Set system clock divider
 215:../../lpc11cx4-library/lpc_chip_11cxx_lib/inc/clock_11xx.h ****  * @param	div	: divider for system clock
 216:../../lpc11cx4-library/lpc_chip_11cxx_lib/inc/clock_11xx.h ****  * @return	Nothing
 217:../../lpc11cx4-library/lpc_chip_11cxx_lib/inc/clock_11xx.h ****  * @note	Use 0 to disable, or a divider value of 1 to 255. The system clock
 218:../../lpc11cx4-library/lpc_chip_11cxx_lib/inc/clock_11xx.h ****  * rate is the main system clock divided by this value.
 219:../../lpc11cx4-library/lpc_chip_11cxx_lib/inc/clock_11xx.h ****  */
 220:../../lpc11cx4-library/lpc_chip_11cxx_lib/inc/clock_11xx.h **** STATIC INLINE void Chip_Clock_SetSysClockDiv(uint32_t div)
 221:../../lpc11cx4-library/lpc_chip_11cxx_lib/inc/clock_11xx.h **** {
 222:../../lpc11cx4-library/lpc_chip_11cxx_lib/inc/clock_11xx.h **** 	LPC_SYSCTL->SYSAHBCLKDIV  = div;
 223:../../lpc11cx4-library/lpc_chip_11cxx_lib/inc/clock_11xx.h **** }
 224:../../lpc11cx4-library/lpc_chip_11cxx_lib/inc/clock_11xx.h **** 
 225:../../lpc11cx4-library/lpc_chip_11cxx_lib/inc/clock_11xx.h **** /**
 226:../../lpc11cx4-library/lpc_chip_11cxx_lib/inc/clock_11xx.h ****  * System and peripheral clocks
 227:../../lpc11cx4-library/lpc_chip_11cxx_lib/inc/clock_11xx.h ****  */
 228:../../lpc11cx4-library/lpc_chip_11cxx_lib/inc/clock_11xx.h **** typedef enum CHIP_SYSCTL_CLOCK {
 229:../../lpc11cx4-library/lpc_chip_11cxx_lib/inc/clock_11xx.h **** 	SYSCTL_CLOCK_SYS = 0,				/*!< 0: System clock */
 230:../../lpc11cx4-library/lpc_chip_11cxx_lib/inc/clock_11xx.h **** 	SYSCTL_CLOCK_ROM,					/*!<1:  ROM clock */
 231:../../lpc11cx4-library/lpc_chip_11cxx_lib/inc/clock_11xx.h **** 	SYSCTL_CLOCK_RAM,					/*!< 2: RAM clock */
 232:../../lpc11cx4-library/lpc_chip_11cxx_lib/inc/clock_11xx.h **** 	SYSCTL_CLOCK_FLASHREG,				/*!< 3: FLASH register interface clock */
 233:../../lpc11cx4-library/lpc_chip_11cxx_lib/inc/clock_11xx.h **** 	SYSCTL_CLOCK_FLASHARRAY,			/*!< 4: FLASH array access clock */
 234:../../lpc11cx4-library/lpc_chip_11cxx_lib/inc/clock_11xx.h **** #if defined(CHIP_LPC110X)
 235:../../lpc11cx4-library/lpc_chip_11cxx_lib/inc/clock_11xx.h **** 	SYSCTL_CLOCK_RESERVED5,				/*!< 5: Reserved */
 236:../../lpc11cx4-library/lpc_chip_11cxx_lib/inc/clock_11xx.h **** #else
 237:../../lpc11cx4-library/lpc_chip_11cxx_lib/inc/clock_11xx.h **** 	SYSCTL_CLOCK_I2C,					/*!< 5: I2C clock, not on LPC110x */
 238:../../lpc11cx4-library/lpc_chip_11cxx_lib/inc/clock_11xx.h **** #endif
 239:../../lpc11cx4-library/lpc_chip_11cxx_lib/inc/clock_11xx.h **** 	SYSCTL_CLOCK_GPIO,					/*!< 6: GPIO clock */
 240:../../lpc11cx4-library/lpc_chip_11cxx_lib/inc/clock_11xx.h **** 	SYSCTL_CLOCK_CT16B0,				/*!< 7: 16-bit Counter/timer 0 clock */
 241:../../lpc11cx4-library/lpc_chip_11cxx_lib/inc/clock_11xx.h **** 	SYSCTL_CLOCK_CT16B1,				/*!< 8: 16-bit Counter/timer 1 clock */
 242:../../lpc11cx4-library/lpc_chip_11cxx_lib/inc/clock_11xx.h **** 	SYSCTL_CLOCK_CT32B0,				/*!< 9: 32-bit Counter/timer 0 clock */
 243:../../lpc11cx4-library/lpc_chip_11cxx_lib/inc/clock_11xx.h **** 	SYSCTL_CLOCK_CT32B1,				/*!< 10: 32-bit Counter/timer 1 clock */
 244:../../lpc11cx4-library/lpc_chip_11cxx_lib/inc/clock_11xx.h **** 	SYSCTL_CLOCK_SSP0,					/*!< 11: SSP0 clock */
 245:../../lpc11cx4-library/lpc_chip_11cxx_lib/inc/clock_11xx.h **** 	SYSCTL_CLOCK_UART0,					/*!< 12: UART0 clock */
 246:../../lpc11cx4-library/lpc_chip_11cxx_lib/inc/clock_11xx.h **** 	SYSCTL_CLOCK_ADC,					/*!< 13: ADC clock */
 247:../../lpc11cx4-library/lpc_chip_11cxx_lib/inc/clock_11xx.h **** #if defined(CHIP_LPC11UXX)
 248:../../lpc11cx4-library/lpc_chip_11cxx_lib/inc/clock_11xx.h **** 	SYSCTL_CLOCK_USB,					/*!< 14: USB clock, LPC11Uxx only */
 249:../../lpc11cx4-library/lpc_chip_11cxx_lib/inc/clock_11xx.h **** #else
 250:../../lpc11cx4-library/lpc_chip_11cxx_lib/inc/clock_11xx.h **** 	SYSCTL_CLOCK_RESERVED14,			/*!< 14: Reserved */
 251:../../lpc11cx4-library/lpc_chip_11cxx_lib/inc/clock_11xx.h **** #endif
 252:../../lpc11cx4-library/lpc_chip_11cxx_lib/inc/clock_11xx.h **** 	SYSCTL_CLOCK_WDT,					/*!< 15: Watchdog timer clock */
 253:../../lpc11cx4-library/lpc_chip_11cxx_lib/inc/clock_11xx.h **** 	SYSCTL_CLOCK_IOCON,					/*!< 16: IOCON block clock */
 254:../../lpc11cx4-library/lpc_chip_11cxx_lib/inc/clock_11xx.h **** #if defined(CHIP_LPC11CXX)
 255:../../lpc11cx4-library/lpc_chip_11cxx_lib/inc/clock_11xx.h **** 	SYSCTL_CLOCK_CAN,					/*!< 17: CAN clock, LPC11Cxx only */
 256:../../lpc11cx4-library/lpc_chip_11cxx_lib/inc/clock_11xx.h **** #else
 257:../../lpc11cx4-library/lpc_chip_11cxx_lib/inc/clock_11xx.h **** 	SYSCTL_CLOCK_RESERVED17,			/*!< 17: Reserved */
 258:../../lpc11cx4-library/lpc_chip_11cxx_lib/inc/clock_11xx.h **** #endif
 259:../../lpc11cx4-library/lpc_chip_11cxx_lib/inc/clock_11xx.h **** #if !(defined(CHIP_LPC110X) || defined(CHIP_LPC11XXLV))  
 260:../../lpc11cx4-library/lpc_chip_11cxx_lib/inc/clock_11xx.h **** 	SYSCTL_CLOCK_SSP1,					/*!< 18: SSP1 clock, LPC11A/C/E/Uxx//1125 only */
ARM GAS  /tmp/cccnjP7i.s 			page 9


 261:../../lpc11cx4-library/lpc_chip_11cxx_lib/inc/clock_11xx.h **** #if !defined(CHIP_LPC11CXX)
 262:../../lpc11cx4-library/lpc_chip_11cxx_lib/inc/clock_11xx.h **** 	SYSCTL_CLOCK_PINT,					/*!< 19: GPIO Pin int register interface clock, LPC11A/E/Uxx only */
 263:../../lpc11cx4-library/lpc_chip_11cxx_lib/inc/clock_11xx.h **** #if defined(CHIP_LPC11AXX)
 264:../../lpc11cx4-library/lpc_chip_11cxx_lib/inc/clock_11xx.h **** 	SYSCTL_CLOCK_ACOMP,					/*!< 20: Analog comparator clock, LPC11Axx only */
 265:../../lpc11cx4-library/lpc_chip_11cxx_lib/inc/clock_11xx.h **** 	SYSCTL_CLOCK_DAC,					/*!< 21: DAC clock, LPC11Axx only */
 266:../../lpc11cx4-library/lpc_chip_11cxx_lib/inc/clock_11xx.h **** #else
 267:../../lpc11cx4-library/lpc_chip_11cxx_lib/inc/clock_11xx.h **** 	SYSCTL_CLOCK_RESERVED20,			/*!< 20: Reserved */
 268:../../lpc11cx4-library/lpc_chip_11cxx_lib/inc/clock_11xx.h **** 	SYSCTL_CLOCK_RESERVED21,			/*!< 21: Reserved */
 269:../../lpc11cx4-library/lpc_chip_11cxx_lib/inc/clock_11xx.h **** #endif
 270:../../lpc11cx4-library/lpc_chip_11cxx_lib/inc/clock_11xx.h **** 	SYSCTL_CLOCK_RESERVED22,			/*!< 22: Reserved */
 271:../../lpc11cx4-library/lpc_chip_11cxx_lib/inc/clock_11xx.h **** 	SYSCTL_CLOCK_P0INT,					/*!< 23: GPIO GROUP1 interrupt register clock, LPC11Axx only */
 272:../../lpc11cx4-library/lpc_chip_11cxx_lib/inc/clock_11xx.h **** 	SYSCTL_CLOCK_GROUP0INT = SYSCTL_CLOCK_P0INT,/*!< 23: GPIO GROUP0 interrupt register interface cloc
 273:../../lpc11cx4-library/lpc_chip_11cxx_lib/inc/clock_11xx.h **** 	SYSCTL_CLOCK_P1INT,					/*!< 24: GPIO GROUP1 interrupt register clock, LPC11Axx only */
 274:../../lpc11cx4-library/lpc_chip_11cxx_lib/inc/clock_11xx.h **** 	SYSCTL_CLOCK_GROUP1INT = SYSCTL_CLOCK_P1INT,/*!< 24: GPIO GROUP1 interrupt register interface cloc
 275:../../lpc11cx4-library/lpc_chip_11cxx_lib/inc/clock_11xx.h **** 	SYSCTL_CLOCK_RESERVED25,			/*!< 25: Reserved */
 276:../../lpc11cx4-library/lpc_chip_11cxx_lib/inc/clock_11xx.h **** #if defined(CHIP_LPC11EXX)  || defined(CHIP_LPC11UXX)
 277:../../lpc11cx4-library/lpc_chip_11cxx_lib/inc/clock_11xx.h **** 	SYSCTL_CLOCK_RAM1,					/*!< 26: SRAM block (0x20000000) clock, LPC11E/Uxx only */
 278:../../lpc11cx4-library/lpc_chip_11cxx_lib/inc/clock_11xx.h **** #else
 279:../../lpc11cx4-library/lpc_chip_11cxx_lib/inc/clock_11xx.h **** 	SYSCTL_CLOCK_RESERVED26,			/*!< 26: Reserved */
 280:../../lpc11cx4-library/lpc_chip_11cxx_lib/inc/clock_11xx.h **** #endif
 281:../../lpc11cx4-library/lpc_chip_11cxx_lib/inc/clock_11xx.h **** #if defined(CHIP_LPC11UXX)
 282:../../lpc11cx4-library/lpc_chip_11cxx_lib/inc/clock_11xx.h **** 	SYSCTL_CLOCK_USBRAM,				/*!< 27: USB SRAM block clock, LPC11Uxx only */
 283:../../lpc11cx4-library/lpc_chip_11cxx_lib/inc/clock_11xx.h **** #else
 284:../../lpc11cx4-library/lpc_chip_11cxx_lib/inc/clock_11xx.h **** 	SYSCTL_CLOCK_RESERVED27,			/*!< 27: Reserved */
 285:../../lpc11cx4-library/lpc_chip_11cxx_lib/inc/clock_11xx.h **** #endif
 286:../../lpc11cx4-library/lpc_chip_11cxx_lib/inc/clock_11xx.h **** #endif /* !defined(CHIP_LPC11CXX) */
 287:../../lpc11cx4-library/lpc_chip_11cxx_lib/inc/clock_11xx.h **** #endif /* !(defined(CHIP_LPC110X) || defined(CHIP_LPC11XXLV)) */
 288:../../lpc11cx4-library/lpc_chip_11cxx_lib/inc/clock_11xx.h **** } CHIP_SYSCTL_CLOCK_T;
 289:../../lpc11cx4-library/lpc_chip_11cxx_lib/inc/clock_11xx.h **** 
 290:../../lpc11cx4-library/lpc_chip_11cxx_lib/inc/clock_11xx.h **** /**
 291:../../lpc11cx4-library/lpc_chip_11cxx_lib/inc/clock_11xx.h ****  * @brief	Enable a system or peripheral clock
 292:../../lpc11cx4-library/lpc_chip_11cxx_lib/inc/clock_11xx.h ****  * @param	clk	: Clock to enable
 293:../../lpc11cx4-library/lpc_chip_11cxx_lib/inc/clock_11xx.h ****  * @return	Nothing
 294:../../lpc11cx4-library/lpc_chip_11cxx_lib/inc/clock_11xx.h ****  */
 295:../../lpc11cx4-library/lpc_chip_11cxx_lib/inc/clock_11xx.h **** STATIC INLINE void Chip_Clock_EnablePeriphClock(CHIP_SYSCTL_CLOCK_T clk)
 296:../../lpc11cx4-library/lpc_chip_11cxx_lib/inc/clock_11xx.h **** {
 297:../../lpc11cx4-library/lpc_chip_11cxx_lib/inc/clock_11xx.h **** 	LPC_SYSCTL->SYSAHBCLKCTRL |= (1 << clk);
 121              		.loc 2 297 0
 122 0018 8022     		movs	r2, #128	@ tmp118,
 123 001a 0949     		ldr	r1, .L8+12	@ tmp117,
 124              	.LBE16:
 125              	.LBE15:
  73:../../lpc11cx4-library/lpc_chip_11cxx_lib/src/timer_11xx.c **** 	Chip_Clock_EnablePeriphClock(Chip_TIMER_GetClock(pTMR));
  74:../../lpc11cx4-library/lpc_chip_11cxx_lib/src/timer_11xx.c **** }
 126              		.loc 1 74 0
 127              		@ sp needed	@
 128              	.LBB18:
 129              	.LBB17:
 130              		.loc 2 297 0
 131 001c 8B58     		ldr	r3, [r1, r2]	@ _3, MEM[(struct LPC_SYSCTL_T *)1074036736B].SYSAHBCLKCTRL
 132 001e 2343     		orrs	r3, r4	@ _7, prephitmp_12
 133 0020 8B50     		str	r3, [r1, r2]	@ _7, MEM[(struct LPC_SYSCTL_T *)1074036736B].SYSAHBCLKCTRL
 134              	.LBE17:
 135              	.LBE18:
 136              		.loc 1 74 0
 137 0022 10BD     		pop	{r4, pc}
 138              	.LVL2:
ARM GAS  /tmp/cccnjP7i.s 			page 10


 139              	.L3:
 140              	.LBB19:
 141              	.LBB13:
  50:../../lpc11cx4-library/lpc_chip_11cxx_lib/src/timer_11xx.c **** 	  tmrClk = SYSCTL_CLOCK_CT32B1;
 142              		.loc 1 50 0
 143 0024 8024     		movs	r4, #128	@ prephitmp_12,
 144 0026 E400     		lsls	r4, r4, #3	@ prephitmp_12, prephitmp_12,
 145 0028 F6E7     		b	.L2	@
 146              	.L4:
  53:../../lpc11cx4-library/lpc_chip_11cxx_lib/src/timer_11xx.c **** 	  tmrClk = SYSCTL_CLOCK_CT16B0;
 147              		.loc 1 53 0
 148 002a 8024     		movs	r4, #128	@ prephitmp_12,
 149 002c F4E7     		b	.L2	@
 150              	.L7:
  56:../../lpc11cx4-library/lpc_chip_11cxx_lib/src/timer_11xx.c **** 	  tmrClk = SYSCTL_CLOCK_CT16B1;
 151              		.loc 1 56 0
 152 002e 013C     		subs	r4, r4, #1	@ prephitmp_12,
 153 0030 FF3C     		subs	r4, r4, #255	@ prephitmp_12,
 154 0032 F1E7     		b	.L2	@
 155              	.L9:
 156              		.align	2
 157              	.L8:
 158 0034 00800140 		.word	1073840128
 159 0038 00C00040 		.word	1073790976
 160 003c 00000140 		.word	1073807360
 161 0040 00800440 		.word	1074036736
 162              	.LBE13:
 163              	.LBE19:
 164              		.cfi_endproc
 165              	.LFE199:
 166              		.size	Chip_TIMER_Init, .-Chip_TIMER_Init
 167              		.section	.text.Chip_TIMER_DeInit,"ax",%progbits
 168              		.align	1
 169              		.p2align 2,,3
 170              		.global	Chip_TIMER_DeInit
 171              		.syntax unified
 172              		.code	16
 173              		.thumb_func
 174              		.fpu softvfp
 175              		.type	Chip_TIMER_DeInit, %function
 176              	Chip_TIMER_DeInit:
 177              	.LFB200:
  75:../../lpc11cx4-library/lpc_chip_11cxx_lib/src/timer_11xx.c **** 
  76:../../lpc11cx4-library/lpc_chip_11cxx_lib/src/timer_11xx.c **** /*	Shutdown a timer */
  77:../../lpc11cx4-library/lpc_chip_11cxx_lib/src/timer_11xx.c **** void Chip_TIMER_DeInit(LPC_TIMER_T *pTMR)
  78:../../lpc11cx4-library/lpc_chip_11cxx_lib/src/timer_11xx.c **** {
 178              		.loc 1 78 0
 179              		.cfi_startproc
 180              		@ args = 0, pretend = 0, frame = 0
 181              		@ frame_needed = 0, uses_anonymous_args = 0
 182              		@ link register save eliminated.
 183              	.LVL3:
 184              	.LBB20:
 185              	.LBB21:
  50:../../lpc11cx4-library/lpc_chip_11cxx_lib/src/timer_11xx.c **** 	  tmrClk = SYSCTL_CLOCK_CT32B1;
 186              		.loc 1 50 0
 187 0000 0B4B     		ldr	r3, .L16	@ tmp114,
ARM GAS  /tmp/cccnjP7i.s 			page 11


 188 0002 9842     		cmp	r0, r3	@ pTMR, tmp114
 189 0004 0CD0     		beq	.L12	@,
  53:../../lpc11cx4-library/lpc_chip_11cxx_lib/src/timer_11xx.c **** 	  tmrClk = SYSCTL_CLOCK_CT16B0;
 190              		.loc 1 53 0
 191 0006 0B4B     		ldr	r3, .L16+4	@ tmp115,
 192 0008 9842     		cmp	r0, r3	@ pTMR, tmp115
 193 000a 0BD0     		beq	.L13	@,
  56:../../lpc11cx4-library/lpc_chip_11cxx_lib/src/timer_11xx.c **** 	  tmrClk = SYSCTL_CLOCK_CT16B1;
 194              		.loc 1 56 0
 195 000c 0A4B     		ldr	r3, .L16+8	@ tmp116,
 196 000e 9842     		cmp	r0, r3	@ pTMR, tmp116
 197 0010 0BD0     		beq	.L15	@,
 198 0012 0A4B     		ldr	r3, .L16+12	@ prephitmp_14,
 199              	.L11:
 200              	.LVL4:
 201              	.LBE21:
 202              	.LBE20:
 203              	.LBB23:
 204              	.LBB24:
 298:../../lpc11cx4-library/lpc_chip_11cxx_lib/inc/clock_11xx.h **** }
 299:../../lpc11cx4-library/lpc_chip_11cxx_lib/inc/clock_11xx.h **** 
 300:../../lpc11cx4-library/lpc_chip_11cxx_lib/inc/clock_11xx.h **** /**
 301:../../lpc11cx4-library/lpc_chip_11cxx_lib/inc/clock_11xx.h ****  * @brief	Disable a system or peripheral clock
 302:../../lpc11cx4-library/lpc_chip_11cxx_lib/inc/clock_11xx.h ****  * @param	clk	: Clock to disable
 303:../../lpc11cx4-library/lpc_chip_11cxx_lib/inc/clock_11xx.h ****  * @return	Nothing
 304:../../lpc11cx4-library/lpc_chip_11cxx_lib/inc/clock_11xx.h ****  */
 305:../../lpc11cx4-library/lpc_chip_11cxx_lib/inc/clock_11xx.h **** STATIC INLINE void Chip_Clock_DisablePeriphClock(CHIP_SYSCTL_CLOCK_T clk)
 306:../../lpc11cx4-library/lpc_chip_11cxx_lib/inc/clock_11xx.h **** {
 307:../../lpc11cx4-library/lpc_chip_11cxx_lib/inc/clock_11xx.h **** 	LPC_SYSCTL->SYSAHBCLKCTRL &= ~(1 << clk);
 205              		.loc 2 307 0
 206 0014 8022     		movs	r2, #128	@ tmp118,
 207 0016 0A49     		ldr	r1, .L16+16	@ tmp117,
 208              	.LBE24:
 209              	.LBE23:
  79:../../lpc11cx4-library/lpc_chip_11cxx_lib/src/timer_11xx.c **** 	Chip_Clock_DisablePeriphClock(Chip_TIMER_GetClock(pTMR));
  80:../../lpc11cx4-library/lpc_chip_11cxx_lib/src/timer_11xx.c **** }
 210              		.loc 1 80 0
 211              		@ sp needed	@
 212              	.LBB26:
 213              	.LBB25:
 214              		.loc 2 307 0
 215 0018 8858     		ldr	r0, [r1, r2]	@ _3, MEM[(struct LPC_SYSCTL_T *)1074036736B].SYSAHBCLKCTRL
 216              	.LVL5:
 217 001a 0340     		ands	r3, r0	@ _8, _3
 218 001c 8B50     		str	r3, [r1, r2]	@ _8, MEM[(struct LPC_SYSCTL_T *)1074036736B].SYSAHBCLKCTRL
 219              	.LBE25:
 220              	.LBE26:
 221              		.loc 1 80 0
 222 001e 7047     		bx	lr
 223              	.LVL6:
 224              	.L12:
 225              	.LBB27:
 226              	.LBB22:
  50:../../lpc11cx4-library/lpc_chip_11cxx_lib/src/timer_11xx.c **** 	  tmrClk = SYSCTL_CLOCK_CT32B1;
 227              		.loc 1 50 0
 228 0020 084B     		ldr	r3, .L16+20	@ prephitmp_14,
 229 0022 F7E7     		b	.L11	@
ARM GAS  /tmp/cccnjP7i.s 			page 12


 230              	.L13:
  53:../../lpc11cx4-library/lpc_chip_11cxx_lib/src/timer_11xx.c **** 	  tmrClk = SYSCTL_CLOCK_CT16B0;
 231              		.loc 1 53 0
 232 0024 8123     		movs	r3, #129	@ prephitmp_14,
 233 0026 5B42     		rsbs	r3, r3, #0	@ prephitmp_14, prephitmp_14
 234 0028 F4E7     		b	.L11	@
 235              	.L15:
  56:../../lpc11cx4-library/lpc_chip_11cxx_lib/src/timer_11xx.c **** 	  tmrClk = SYSCTL_CLOCK_CT16B1;
 236              		.loc 1 56 0
 237 002a 074B     		ldr	r3, .L16+24	@ prephitmp_14,
 238 002c F2E7     		b	.L11	@
 239              	.L17:
 240 002e C046     		.align	2
 241              	.L16:
 242 0030 00800140 		.word	1073840128
 243 0034 00C00040 		.word	1073790976
 244 0038 00000140 		.word	1073807360
 245 003c FFFDFFFF 		.word	-513
 246 0040 00800440 		.word	1074036736
 247 0044 FFFBFFFF 		.word	-1025
 248 0048 FFFEFFFF 		.word	-257
 249              	.LBE22:
 250              	.LBE27:
 251              		.cfi_endproc
 252              	.LFE200:
 253              		.size	Chip_TIMER_DeInit, .-Chip_TIMER_DeInit
 254              		.section	.text.Chip_TIMER_Reset,"ax",%progbits
 255              		.align	1
 256              		.p2align 2,,3
 257              		.global	Chip_TIMER_Reset
 258              		.syntax unified
 259              		.code	16
 260              		.thumb_func
 261              		.fpu softvfp
 262              		.type	Chip_TIMER_Reset, %function
 263              	Chip_TIMER_Reset:
 264              	.LFB201:
  81:../../lpc11cx4-library/lpc_chip_11cxx_lib/src/timer_11xx.c **** 
  82:../../lpc11cx4-library/lpc_chip_11cxx_lib/src/timer_11xx.c **** /* Resets the timer terminal and prescale counts to 0 */
  83:../../lpc11cx4-library/lpc_chip_11cxx_lib/src/timer_11xx.c **** void Chip_TIMER_Reset(LPC_TIMER_T *pTMR)
  84:../../lpc11cx4-library/lpc_chip_11cxx_lib/src/timer_11xx.c **** {
 265              		.loc 1 84 0
 266              		.cfi_startproc
 267              		@ args = 0, pretend = 0, frame = 0
 268              		@ frame_needed = 0, uses_anonymous_args = 0
 269              		@ link register save eliminated.
 270              	.LVL7:
  85:../../lpc11cx4-library/lpc_chip_11cxx_lib/src/timer_11xx.c **** 	uint32_t reg;
  86:../../lpc11cx4-library/lpc_chip_11cxx_lib/src/timer_11xx.c **** 
  87:../../lpc11cx4-library/lpc_chip_11cxx_lib/src/timer_11xx.c **** 	/* Disable timer, set terminal count to non-0 */
  88:../../lpc11cx4-library/lpc_chip_11cxx_lib/src/timer_11xx.c **** 	reg = pTMR->TCR;
  89:../../lpc11cx4-library/lpc_chip_11cxx_lib/src/timer_11xx.c **** 	pTMR->TCR = 0;
 271              		.loc 1 89 0
 272 0000 0023     		movs	r3, #0	@ tmp113,
  88:../../lpc11cx4-library/lpc_chip_11cxx_lib/src/timer_11xx.c **** 	pTMR->TCR = 0;
 273              		.loc 1 88 0
 274 0002 4268     		ldr	r2, [r0, #4]	@ reg, pTMR_2(D)->TCR
ARM GAS  /tmp/cccnjP7i.s 			page 13


 275              	.LVL8:
 276              		.loc 1 89 0
 277 0004 4360     		str	r3, [r0, #4]	@ tmp113, pTMR_2(D)->TCR
  90:../../lpc11cx4-library/lpc_chip_11cxx_lib/src/timer_11xx.c **** 	pTMR->TC = 1;
 278              		.loc 1 90 0
 279 0006 0133     		adds	r3, r3, #1	@ tmp114,
 280 0008 8360     		str	r3, [r0, #8]	@ tmp114, pTMR_2(D)->TC
  91:../../lpc11cx4-library/lpc_chip_11cxx_lib/src/timer_11xx.c **** 
  92:../../lpc11cx4-library/lpc_chip_11cxx_lib/src/timer_11xx.c **** 	/* Reset timer counter */
  93:../../lpc11cx4-library/lpc_chip_11cxx_lib/src/timer_11xx.c **** 	pTMR->TCR = TIMER_RESET;
 281              		.loc 1 93 0
 282 000a 0133     		adds	r3, r3, #1	@ tmp115,
 283 000c 4360     		str	r3, [r0, #4]	@ tmp115, pTMR_2(D)->TCR
 284              	.L19:
  94:../../lpc11cx4-library/lpc_chip_11cxx_lib/src/timer_11xx.c **** 
  95:../../lpc11cx4-library/lpc_chip_11cxx_lib/src/timer_11xx.c **** 	/* Wait for terminal count to clear */
  96:../../lpc11cx4-library/lpc_chip_11cxx_lib/src/timer_11xx.c **** 	while (pTMR->TC != 0) {}
 285              		.loc 1 96 0 discriminator 1
 286 000e 8368     		ldr	r3, [r0, #8]	@ _7, pTMR_2(D)->TC
 287 0010 002B     		cmp	r3, #0	@ _7,
 288 0012 FCD1     		bne	.L19	@,
  97:../../lpc11cx4-library/lpc_chip_11cxx_lib/src/timer_11xx.c **** 
  98:../../lpc11cx4-library/lpc_chip_11cxx_lib/src/timer_11xx.c **** 	/* Restore timer state */
  99:../../lpc11cx4-library/lpc_chip_11cxx_lib/src/timer_11xx.c **** 	pTMR->TCR = reg;
 289              		.loc 1 99 0
 290 0014 4260     		str	r2, [r0, #4]	@ reg, pTMR_2(D)->TCR
 100:../../lpc11cx4-library/lpc_chip_11cxx_lib/src/timer_11xx.c **** }
 291              		.loc 1 100 0
 292              		@ sp needed	@
 293 0016 7047     		bx	lr
 294              		.cfi_endproc
 295              	.LFE201:
 296              		.size	Chip_TIMER_Reset, .-Chip_TIMER_Reset
 297              		.section	.text.Chip_TIMER_ExtMatchControlSet,"ax",%progbits
 298              		.align	1
 299              		.p2align 2,,3
 300              		.global	Chip_TIMER_ExtMatchControlSet
 301              		.syntax unified
 302              		.code	16
 303              		.thumb_func
 304              		.fpu softvfp
 305              		.type	Chip_TIMER_ExtMatchControlSet, %function
 306              	Chip_TIMER_ExtMatchControlSet:
 307              	.LFB202:
 101:../../lpc11cx4-library/lpc_chip_11cxx_lib/src/timer_11xx.c **** 
 102:../../lpc11cx4-library/lpc_chip_11cxx_lib/src/timer_11xx.c **** /* Sets external match control (MATn.matchnum) pin control */
 103:../../lpc11cx4-library/lpc_chip_11cxx_lib/src/timer_11xx.c **** void Chip_TIMER_ExtMatchControlSet(LPC_TIMER_T *pTMR, int8_t initial_state,
 104:../../lpc11cx4-library/lpc_chip_11cxx_lib/src/timer_11xx.c **** 								   TIMER_PIN_MATCH_STATE_T matchState, int8_t matchnum)
 105:../../lpc11cx4-library/lpc_chip_11cxx_lib/src/timer_11xx.c **** {
 308              		.loc 1 105 0
 309              		.cfi_startproc
 310              		@ args = 0, pretend = 0, frame = 0
 311              		@ frame_needed = 0, uses_anonymous_args = 0
 312              	.LVL9:
 313 0000 F0B5     		push	{r4, r5, r6, r7, lr}	@
 314              		.cfi_def_cfa_offset 20
 315              		.cfi_offset 4, -20
ARM GAS  /tmp/cccnjP7i.s 			page 14


 316              		.cfi_offset 5, -16
 317              		.cfi_offset 6, -12
 318              		.cfi_offset 7, -8
 319              		.cfi_offset 14, -4
 106:../../lpc11cx4-library/lpc_chip_11cxx_lib/src/timer_11xx.c **** 	uint32_t mask, reg;
 107:../../lpc11cx4-library/lpc_chip_11cxx_lib/src/timer_11xx.c **** 
 108:../../lpc11cx4-library/lpc_chip_11cxx_lib/src/timer_11xx.c **** 	/* Clear bits corresponding to selected match register */
 109:../../lpc11cx4-library/lpc_chip_11cxx_lib/src/timer_11xx.c **** 	mask = (1 << matchnum) | (0x03 << (4 + (matchnum * 2)));
 320              		.loc 1 109 0
 321 0002 0124     		movs	r4, #1	@ tmp132,
 322 0004 0327     		movs	r7, #3	@ tmp134,
 323 0006 9E1C     		adds	r6, r3, #2	@ tmp130, matchnum,
 324 0008 7600     		lsls	r6, r6, #1	@ _5, tmp130,
 325              	.LVL10:
 326 000a B740     		lsls	r7, r7, r6	@ tmp133, tmp134, _5
 327 000c 9C40     		lsls	r4, r4, r3	@ tmp131, tmp132, matchnum
 110:../../lpc11cx4-library/lpc_chip_11cxx_lib/src/timer_11xx.c **** 	reg = pTMR->EMR &= ~mask;
 111:../../lpc11cx4-library/lpc_chip_11cxx_lib/src/timer_11xx.c **** 
 112:../../lpc11cx4-library/lpc_chip_11cxx_lib/src/timer_11xx.c **** 	/* Set new configuration for selected match register */
 113:../../lpc11cx4-library/lpc_chip_11cxx_lib/src/timer_11xx.c **** 	pTMR->EMR = reg | (((uint32_t) initial_state) << matchnum) |
 114:../../lpc11cx4-library/lpc_chip_11cxx_lib/src/timer_11xx.c **** 				(((uint32_t) matchState) << (4 + (matchnum * 2)));
 328              		.loc 1 114 0
 329 000e B240     		lsls	r2, r2, r6	@ tmp138, matchState, _5
 330              	.LVL11:
 113:../../lpc11cx4-library/lpc_chip_11cxx_lib/src/timer_11xx.c **** 				(((uint32_t) matchState) << (4 + (matchnum * 2)));
 331              		.loc 1 113 0
 332 0010 9940     		lsls	r1, r1, r3	@ tmp137, initial_state, matchnum
 333              	.LVL12:
 110:../../lpc11cx4-library/lpc_chip_11cxx_lib/src/timer_11xx.c **** 	reg = pTMR->EMR &= ~mask;
 334              		.loc 1 110 0
 335 0012 C56B     		ldr	r5, [r0, #60]	@ _11, pTMR_10(D)->EMR
 109:../../lpc11cx4-library/lpc_chip_11cxx_lib/src/timer_11xx.c **** 	reg = pTMR->EMR &= ~mask;
 336              		.loc 1 109 0
 337 0014 3C43     		orrs	r4, r7	@ mask, tmp133
 338              	.LVL13:
 110:../../lpc11cx4-library/lpc_chip_11cxx_lib/src/timer_11xx.c **** 	reg = pTMR->EMR &= ~mask;
 339              		.loc 1 110 0
 340 0016 A543     		bics	r5, r4	@ _13, mask
 113:../../lpc11cx4-library/lpc_chip_11cxx_lib/src/timer_11xx.c **** 				(((uint32_t) matchState) << (4 + (matchnum * 2)));
 341              		.loc 1 113 0
 342 0018 1143     		orrs	r1, r2	@ tmp139, tmp138
 343 001a 2943     		orrs	r1, r5	@ _22, _13
 110:../../lpc11cx4-library/lpc_chip_11cxx_lib/src/timer_11xx.c **** 	reg = pTMR->EMR &= ~mask;
 344              		.loc 1 110 0
 345 001c C563     		str	r5, [r0, #60]	@ _13, pTMR_10(D)->EMR
 346              	.LVL14:
 115:../../lpc11cx4-library/lpc_chip_11cxx_lib/src/timer_11xx.c **** }
 347              		.loc 1 115 0
 348              		@ sp needed	@
 113:../../lpc11cx4-library/lpc_chip_11cxx_lib/src/timer_11xx.c **** 				(((uint32_t) matchState) << (4 + (matchnum * 2)));
 349              		.loc 1 113 0
 350 001e C163     		str	r1, [r0, #60]	@ _22, pTMR_10(D)->EMR
 351              	.LVL15:
 352              	.LVL16:
 353              	.LVL17:
 354              		.loc 1 115 0
 355 0020 F0BD     		pop	{r4, r5, r6, r7, pc}
ARM GAS  /tmp/cccnjP7i.s 			page 15


 356              		.cfi_endproc
 357              	.LFE202:
 358              		.size	Chip_TIMER_ExtMatchControlSet, .-Chip_TIMER_ExtMatchControlSet
 359 0022 C046     		.text
 360              	.Letext0:
 361              		.file 3 "/usr/arm-none-eabi/include/machine/_default_types.h"
 362              		.file 4 "/usr/arm-none-eabi/include/sys/_stdint.h"
 363              		.file 5 "../../lpc11cx4-library/lpc_chip_11cxx_lib/inc/chip.h"
 364              		.file 6 "../../lpc11cx4-library/lpc_chip_11cxx_lib/inc/sysctl_11xx.h"
 365              		.file 7 "../../lpc11cx4-library/lpc_chip_11cxx_lib/inc/timer_11xx.h"